ARM GAS  /tmp/ccspJF9a.s 			page 1


   1              		.syntax unified
   2              		.cpu cortex-m3
   3              		.fpu softvfp
   4              		.eabi_attribute 20, 1
   5              		.eabi_attribute 21, 1
   6              		.eabi_attribute 23, 3
   7              		.eabi_attribute 24, 1
   8              		.eabi_attribute 25, 1
   9              		.eabi_attribute 26, 1
  10              		.eabi_attribute 30, 2
  11              		.eabi_attribute 18, 4
  12              		.thumb
  13              		.file	"pal_lld.c"
  20 0000 9E010000 		.text
  20      0200DB00 
  20      00000201 
  20      FB0E0D00 
  20      01010101 
  21              	.Ltext0:
  22              		.cfi_sections	.debug_frame
  23              		.section	.text._pal_lld_init,"ax",%progbits
  24              		.align	2
  25              		.p2align 4,,15
  26              		.global	_pal_lld_init
  27              		.thumb
  28              		.thumb_func
  29              		.type	_pal_lld_init, %function
  30              	_pal_lld_init:
  31              	.LFB36:
  32              		.file 1 "../../os/hal/platforms/STM32/pal_lld.c"
  33              		.loc 1 93 0
  34              		.cfi_startproc
  35              		@ args = 0, pretend = 0, frame = 0
  36              		@ frame_needed = 0, uses_anonymous_args = 0
  37              		@ link register save eliminated.
  38              	.LVL0:
  39 0000 10B4     		push	{r4}
  40              	.LCFI0:
  41              		.cfi_def_cfa_offset 4
  42              		.loc 1 98 0
  43 0002 41F20004 		movw	r4, #:lower16:1073876992
  44              		.cfi_offset 4, -4
  45 0006 C4F20204 		movt	r4, #:upper16:1073876992
  46 000a A169     		ldr	r1, [r4, #24]
  47              		.loc 1 103 0
  48 000c 7D22     		movs	r2, #125
  49              		.loc 1 98 0
  50 000e 41F07D03 		orr	r3, r1, #125
  51              		.loc 1 104 0
  52 0012 0021     		movs	r1, #0
  53              		.loc 1 98 0
ARM GAS  /tmp/ccspJF9a.s 			page 2


  54 0014 A361     		str	r3, [r4, #24]
  55              		.loc 1 103 0
  56 0016 E260     		str	r2, [r4, #12]
  57              		.loc 1 104 0
  58 0018 E160     		str	r1, [r4, #12]
  59              		.loc 1 106 0
  60 001a 0368     		ldr	r3, [r0, #0]
  61 001c 40F60002 		movw	r2, #:lower16:1073809408
  62 0020 C4F20102 		movt	r2, #:upper16:1073809408
  63 0024 D360     		str	r3, [r2, #12]
  64              		.loc 1 107 0
  65 0026 8468     		ldr	r4, [r0, #8]
  66              		.loc 1 109 0
  67 0028 40F60043 		movw	r3, #:lower16:1073810432
  68              		.loc 1 107 0
  69 002c 5460     		str	r4, [r2, #4]
  70              		.loc 1 108 0
  71 002e 4168     		ldr	r1, [r0, #4]
  72              		.loc 1 109 0
  73 0030 C4F20103 		movt	r3, #:upper16:1073810432
  74              		.loc 1 108 0
  75 0034 1160     		str	r1, [r2, #0]
  76              		.loc 1 109 0
  77 0036 C468     		ldr	r4, [r0, #12]
  78              		.loc 1 112 0
  79 0038 41F20001 		movw	r1, #:lower16:1073811456
  80              		.loc 1 109 0
  81 003c DC60     		str	r4, [r3, #12]
  82              		.loc 1 110 0
  83 003e 4269     		ldr	r2, [r0, #20]
  84              		.loc 1 112 0
  85 0040 C4F20101 		movt	r1, #:upper16:1073811456
  86              		.loc 1 110 0
  87 0044 5A60     		str	r2, [r3, #4]
  88              		.loc 1 111 0
  89 0046 0469     		ldr	r4, [r0, #16]
  90              		.loc 1 115 0
  91 0048 41F20042 		movw	r2, #:lower16:1073812480
  92              		.loc 1 111 0
  93 004c 1C60     		str	r4, [r3, #0]
  94              		.loc 1 112 0
  95 004e 8369     		ldr	r3, [r0, #24]
  96              		.loc 1 115 0
  97 0050 C4F20102 		movt	r2, #:upper16:1073812480
  98              		.loc 1 112 0
  99 0054 CB60     		str	r3, [r1, #12]
 100              		.loc 1 113 0
 101 0056 046A     		ldr	r4, [r0, #32]
 102              		.loc 1 119 0
 103 0058 41F60003 		movw	r3, #:lower16:1073813504
 104              		.loc 1 113 0
 105 005c 4C60     		str	r4, [r1, #4]
 106              		.loc 1 114 0
 107 005e C469     		ldr	r4, [r0, #28]
 108              		.loc 1 119 0
 109 0060 C4F20103 		movt	r3, #:upper16:1073813504
 110              		.loc 1 114 0
ARM GAS  /tmp/ccspJF9a.s 			page 3


 111 0064 0C60     		str	r4, [r1, #0]
 112              		.loc 1 115 0
 113 0066 416A     		ldr	r1, [r0, #36]
 114 0068 D160     		str	r1, [r2, #12]
 115              		.loc 1 116 0
 116 006a C16A     		ldr	r1, [r0, #44]
 117 006c 5160     		str	r1, [r2, #4]
 118              		.loc 1 117 0
 119 006e 816A     		ldr	r1, [r0, #40]
 120 0070 1160     		str	r1, [r2, #0]
 121              		.loc 1 119 0
 122 0072 026B     		ldr	r2, [r0, #48]
 123 0074 DA60     		str	r2, [r3, #12]
 124              		.loc 1 120 0
 125 0076 816B     		ldr	r1, [r0, #56]
 126 0078 5960     		str	r1, [r3, #4]
 127              		.loc 1 121 0
 128 007a 426B     		ldr	r2, [r0, #52]
 129 007c 1A60     		str	r2, [r3, #0]
 130              		.loc 1 133 0
 131 007e 10BC     		pop	{r4}
 132 0080 7047     		bx	lr
 133              		.cfi_endproc
 134              	.LFE36:
 135              		.size	_pal_lld_init, .-_pal_lld_init
 136 0082 00BFAFF3 		.section	.text._pal_lld_setgroupmode,"ax",%progbits
 136      0080AFF3 
 136      0080AFF3 
 136      0080
 137              		.align	2
 138              		.p2align 4,,15
 139              		.global	_pal_lld_setgroupmode
 140              		.thumb
 141              		.thumb_func
 142              		.type	_pal_lld_setgroupmode, %function
 143              	_pal_lld_setgroupmode:
 144              	.LFB37:
 145              		.loc 1 154 0
 146              		.cfi_startproc
 147              		@ args = 0, pretend = 0, frame = 0
 148              		@ frame_needed = 0, uses_anonymous_args = 0
 149              		@ link register save eliminated.
 150              	.LVL1:
 151              		.loc 1 178 0
 152 0000 032A     		cmp	r2, #3
 153              		.loc 1 154 0
 154 0002 70B4     		push	{r4, r5, r6}
 155              	.LCFI1:
 156              		.cfi_def_cfa_offset 12
 157              		.loc 1 179 0
 158 0004 08BF     		it	eq
 159 0006 0161     		streq	r1, [r0, #16]
 160              		.loc 1 178 0
 161 0008 02D0     		beq	.L5
 162              		.cfi_offset 6, -4
 163              		.cfi_offset 5, -8
 164              		.cfi_offset 4, -12
ARM GAS  /tmp/ccspJF9a.s 			page 4


 165              		.loc 1 180 0
 166 000a 042A     		cmp	r2, #4
 167              		.loc 1 181 0
 168 000c 08BF     		it	eq
 169 000e 4161     		streq	r1, [r0, #20]
 170              	.L5:
 171              		.loc 1 182 0
 172 0010 40F20003 		movw	r3, #:lower16:.LANCHOR0
 173 0014 C0F20003 		movt	r3, #:upper16:.LANCHOR0
 174 0018 9B5C     		ldrb	r3, [r3, r2]	@ zero_extendqisi2
 175              	.LVL2:
 176              		.loc 1 189 0
 177 001a 11F08006 		ands	r6, r1, #128
 178 001e 1ABF     		itte	ne
 179 0020 1E46     		movne	r6, r3
 180              	.LVL3:
 181 0022 4FF0000C 		movne	ip, #0
 182              	.LVL4:
 183 0026 4FF00F0C 		moveq	ip, #15
 184              		.loc 1 193 0
 185 002a 11F40044 		ands	r4, r1, #32768
 186 002e 00F08C80 		beq	.L8
 187 0032 1C46     		mov	r4, r3
 188              	.LVL5:
 189 0034 0025     		movs	r5, #0
 190              	.LVL6:
 191              	.L9:
 192              		.loc 1 197 0
 193 0036 4A00     		lsls	r2, r1, #1
 194              	.LVL7:
 195              		.loc 1 186 0
 196 0038 2D01     		lsls	r5, r5, #4
 197              	.LVL8:
 198              		.loc 1 187 0
 199 003a 3101     		lsls	r1, r6, #4
 200              	.LVL9:
 201              		.loc 1 188 0
 202 003c 2401     		lsls	r4, r4, #4
 203              	.LVL10:
 204              		.loc 1 185 0
 205 003e 4FEA0C1C 		lsl	ip, ip, #4
 206              	.LVL11:
 207              		.loc 1 189 0
 208 0042 12F0800F 		tst	r2, #128
 209              		.loc 1 190 0
 210 0046 0CBF     		ite	eq
 211 0048 4CF00F0C 		orreq	ip, ip, #15
 212              		.loc 1 192 0
 213 004c 1943     		orrne	r1, r1, r3
 214              		.loc 1 193 0
 215 004e 12F4004F 		tst	r2, #32768
 216              		.loc 1 194 0
 217 0052 0CBF     		ite	eq
 218 0054 45F00F05 		orreq	r5, r5, #15
 219              		.loc 1 196 0
 220 0058 1C43     		orrne	r4, r4, r3
 221              		.loc 1 197 0
ARM GAS  /tmp/ccspJF9a.s 			page 5


 222 005a 5200     		lsls	r2, r2, #1
 223              	.LVL12:
 224              		.loc 1 186 0
 225 005c 2D01     		lsls	r5, r5, #4
 226              	.LVL13:
 227              		.loc 1 187 0
 228 005e 0901     		lsls	r1, r1, #4
 229              	.LVL14:
 230              		.loc 1 188 0
 231 0060 2401     		lsls	r4, r4, #4
 232              	.LVL15:
 233              		.loc 1 185 0
 234 0062 4FEA0C1C 		lsl	ip, ip, #4
 235              	.LVL16:
 236              		.loc 1 189 0
 237 0066 12F0800F 		tst	r2, #128
 238              		.loc 1 190 0
 239 006a 0CBF     		ite	eq
 240 006c 4CF00F0C 		orreq	ip, ip, #15
 241              		.loc 1 192 0
 242 0070 1943     		orrne	r1, r1, r3
 243              		.loc 1 193 0
 244 0072 12F4004F 		tst	r2, #32768
 245              		.loc 1 194 0
 246 0076 0CBF     		ite	eq
 247 0078 45F00F05 		orreq	r5, r5, #15
 248              		.loc 1 196 0
 249 007c 1C43     		orrne	r4, r4, r3
 250              		.loc 1 197 0
 251 007e 5200     		lsls	r2, r2, #1
 252              	.LVL17:
 253              		.loc 1 186 0
 254 0080 2D01     		lsls	r5, r5, #4
 255              	.LVL18:
 256              		.loc 1 187 0
 257 0082 0901     		lsls	r1, r1, #4
 258              	.LVL19:
 259              		.loc 1 188 0
 260 0084 2401     		lsls	r4, r4, #4
 261              	.LVL20:
 262              		.loc 1 185 0
 263 0086 4FEA0C1C 		lsl	ip, ip, #4
 264              	.LVL21:
 265              		.loc 1 189 0
 266 008a 12F0800F 		tst	r2, #128
 267              		.loc 1 190 0
 268 008e 0CBF     		ite	eq
 269 0090 4CF00F0C 		orreq	ip, ip, #15
 270              		.loc 1 192 0
 271 0094 1943     		orrne	r1, r1, r3
 272              		.loc 1 193 0
 273 0096 12F4004F 		tst	r2, #32768
 274              		.loc 1 194 0
 275 009a 0CBF     		ite	eq
 276 009c 45F00F05 		orreq	r5, r5, #15
 277              		.loc 1 196 0
 278 00a0 1C43     		orrne	r4, r4, r3
ARM GAS  /tmp/ccspJF9a.s 			page 6


 279              		.loc 1 197 0
 280 00a2 5200     		lsls	r2, r2, #1
 281              	.LVL22:
 282              		.loc 1 186 0
 283 00a4 2D01     		lsls	r5, r5, #4
 284              	.LVL23:
 285              		.loc 1 187 0
 286 00a6 0901     		lsls	r1, r1, #4
 287              	.LVL24:
 288              		.loc 1 188 0
 289 00a8 2401     		lsls	r4, r4, #4
 290              	.LVL25:
 291              		.loc 1 185 0
 292 00aa 4FEA0C1C 		lsl	ip, ip, #4
 293              	.LVL26:
 294              		.loc 1 189 0
 295 00ae 12F0800F 		tst	r2, #128
 296              		.loc 1 190 0
 297 00b2 0CBF     		ite	eq
 298 00b4 4CF00F0C 		orreq	ip, ip, #15
 299              		.loc 1 192 0
 300 00b8 1943     		orrne	r1, r1, r3
 301              		.loc 1 193 0
 302 00ba 12F4004F 		tst	r2, #32768
 303              		.loc 1 194 0
 304 00be 0CBF     		ite	eq
 305 00c0 45F00F05 		orreq	r5, r5, #15
 306              		.loc 1 196 0
 307 00c4 1C43     		orrne	r4, r4, r3
 308              		.loc 1 197 0
 309 00c6 5200     		lsls	r2, r2, #1
 310              	.LVL27:
 311              		.loc 1 186 0
 312 00c8 2D01     		lsls	r5, r5, #4
 313              	.LVL28:
 314              		.loc 1 187 0
 315 00ca 0901     		lsls	r1, r1, #4
 316              	.LVL29:
 317              		.loc 1 188 0
 318 00cc 2401     		lsls	r4, r4, #4
 319              	.LVL30:
 320              		.loc 1 185 0
 321 00ce 4FEA0C1C 		lsl	ip, ip, #4
 322              	.LVL31:
 323              		.loc 1 189 0
 324 00d2 12F0800F 		tst	r2, #128
 325              		.loc 1 190 0
 326 00d6 0CBF     		ite	eq
 327 00d8 4CF00F0C 		orreq	ip, ip, #15
 328              		.loc 1 192 0
 329 00dc 1943     		orrne	r1, r1, r3
 330              		.loc 1 193 0
 331 00de 12F4004F 		tst	r2, #32768
 332              		.loc 1 194 0
 333 00e2 0CBF     		ite	eq
 334 00e4 45F00F05 		orreq	r5, r5, #15
 335              		.loc 1 196 0
ARM GAS  /tmp/ccspJF9a.s 			page 7


 336 00e8 1C43     		orrne	r4, r4, r3
 337              		.loc 1 197 0
 338 00ea 5200     		lsls	r2, r2, #1
 339              	.LVL32:
 340              		.loc 1 186 0
 341 00ec 2D01     		lsls	r5, r5, #4
 342              	.LVL33:
 343              		.loc 1 187 0
 344 00ee 0901     		lsls	r1, r1, #4
 345              	.LVL34:
 346              		.loc 1 188 0
 347 00f0 2401     		lsls	r4, r4, #4
 348              	.LVL35:
 349              		.loc 1 185 0
 350 00f2 4FEA0C1C 		lsl	ip, ip, #4
 351              	.LVL36:
 352              		.loc 1 189 0
 353 00f6 12F0800F 		tst	r2, #128
 354              		.loc 1 190 0
 355 00fa 0CBF     		ite	eq
 356 00fc 4CF00F0C 		orreq	ip, ip, #15
 357              		.loc 1 192 0
 358 0100 1943     		orrne	r1, r1, r3
 359              		.loc 1 193 0
 360 0102 12F4004F 		tst	r2, #32768
 361              		.loc 1 194 0
 362 0106 0CBF     		ite	eq
 363 0108 45F00F05 		orreq	r5, r5, #15
 364              		.loc 1 196 0
 365 010c 1C43     		orrne	r4, r4, r3
 366              		.loc 1 197 0
 367 010e 5200     		lsls	r2, r2, #1
 368              	.LVL37:
 369              		.loc 1 186 0
 370 0110 2D01     		lsls	r5, r5, #4
 371              	.LVL38:
 372              		.loc 1 187 0
 373 0112 0901     		lsls	r1, r1, #4
 374              	.LVL39:
 375              		.loc 1 188 0
 376 0114 2401     		lsls	r4, r4, #4
 377              	.LVL40:
 378              		.loc 1 185 0
 379 0116 4FEA0C1C 		lsl	ip, ip, #4
 380              	.LVL41:
 381              		.loc 1 189 0
 382 011a 12F0800F 		tst	r2, #128
 383              		.loc 1 190 0
 384 011e 0CBF     		ite	eq
 385 0120 4CF00F0C 		orreq	ip, ip, #15
 386              		.loc 1 192 0
 387 0124 1943     		orrne	r1, r1, r3
 388              		.loc 1 193 0
 389 0126 12F4004F 		tst	r2, #32768
 390              		.loc 1 194 0
 391 012a 0CBF     		ite	eq
 392 012c 45F00F05 		orreq	r5, r5, #15
ARM GAS  /tmp/ccspJF9a.s 			page 8


 393              		.loc 1 196 0
 394 0130 1C43     		orrne	r4, r4, r3
 395              		.loc 1 199 0
 396 0132 4368     		ldr	r3, [r0, #4]
 397              	.LVL42:
 398 0134 1D40     		ands	r5, r5, r3
 399              	.LVL43:
 400 0136 2C43     		orrs	r4, r4, r5
 401              	.LVL44:
 402 0138 4460     		str	r4, [r0, #4]
 403              		.loc 1 200 0
 404 013a 0268     		ldr	r2, [r0, #0]
 405              	.LVL45:
 406 013c 0CEA020C 		and	ip, ip, r2
 407              	.LVL46:
 408 0140 41EA0C01 		orr	r1, r1, ip
 409              	.LVL47:
 410 0144 0160     		str	r1, [r0, #0]
 411              		.loc 1 201 0
 412 0146 70BC     		pop	{r4, r5, r6}
 413 0148 7047     		bx	lr
 414              	.LVL48:
 415              	.L8:
 416              		.loc 1 193 0
 417 014a 0F25     		movs	r5, #15
 418              	.LVL49:
 419 014c 73E7     		b	.L9
 420              		.cfi_endproc
 421              	.LFE37:
 422              		.size	_pal_lld_setgroupmode, .-_pal_lld_setgroupmode
 423 014e 00BF     		.section	.rodata.cfgtab.3153,"a",%progbits
 424              		.align	2
 425              		.set	.LANCHOR0,. + 0
 426              		.type	cfgtab.3153, %object
 427              		.size	cfgtab.3153, 18
 428              	cfgtab.3153:
 429 0000 04       		.byte	4
 430 0001 02       		.byte	2
 431 0002 04       		.byte	4
 432 0003 08       		.byte	8
 433 0004 08       		.byte	8
 434 0005 00       		.byte	0
 435 0006 03       		.byte	3
 436 0007 07       		.byte	7
 437 0008 08       		.byte	8
 438 0009 08       		.byte	8
 439 000a 08       		.byte	8
 440 000b 08       		.byte	8
 441 000c 08       		.byte	8
 442 000d 08       		.byte	8
 443 000e 08       		.byte	8
 444 000f 08       		.byte	8
 445 0010 0B       		.byte	11
 446 0011 0F       		.byte	15
 447 0012 0000     		.text
 448              	.Letext0: