ARM GAS  /tmp/ccwdVvJh.s 			page 1


   1              		.syntax unified
   2              		.cpu cortex-m3
   3              		.fpu softvfp
   4              		.eabi_attribute 20, 1
   5              		.eabi_attribute 21, 1
   6              		.eabi_attribute 23, 3
   7              		.eabi_attribute 24, 1
   8              		.eabi_attribute 25, 1
   9              		.eabi_attribute 26, 1
  10              		.eabi_attribute 30, 2
  11              		.eabi_attribute 18, 4
  12              		.thumb
  13              		.file	"pal_lld.c"
  14              		.section	.debug_abbrev,"",%progbits
  15              	.Ldebug_abbrev0:
  16              		.section	.debug_info,"",%progbits
  17              	.Ldebug_info0:
  18              		.section	.debug_line,"",%progbits
  19              	.Ldebug_line0:
  20 0000 9B010000 		.text
  20      0200CA00 
  20      00000201 
  20      FB0E0D00 
  20      01010101 
  21              	.Ltext0:
  22              		.cfi_sections	.debug_frame
  23              		.section	.text._pal_lld_init,"ax",%progbits
  24              		.align	2
  25              		.p2align 4,,15
  26              		.global	_pal_lld_init
  27              		.thumb
  28              		.thumb_func
  29              		.type	_pal_lld_init, %function
  30              	_pal_lld_init:
  31              	.LFB36:
  32              		.file 1 "chibios/os/hal/platforms/STM32/pal_lld.c"
  33              		.loc 1 93 0
  34              		.cfi_startproc
  35              		@ args = 0, pretend = 0, frame = 0
  36              		@ frame_needed = 0, uses_anonymous_args = 0
  37              		@ link register save eliminated.
  38              	.LVL0:
  39 0000 10B4     		push	{r4}
  40              	.LCFI0:
  41              		.cfi_def_cfa_offset 4
  42              		.loc 1 98 0
  43 0002 4FF48051 		mov	r1, #4096
  44 0006 C4F20201 		movt	r1, 16386
  45 000a 8A69     		ldr	r2, [r1, #24]
  46              		.loc 1 103 0
  47 000c 7D24     		movs	r4, #125
  48              		.cfi_offset 4, -4
  49              		.loc 1 98 0
  50 000e 42F07D03 		orr	r3, r2, #125
  51              		.loc 1 104 0
  52 0012 0022     		movs	r2, #0
  53              		.loc 1 98 0
ARM GAS  /tmp/ccwdVvJh.s 			page 2


  54 0014 8B61     		str	r3, [r1, #24]
  55              		.loc 1 103 0
  56 0016 CC60     		str	r4, [r1, #12]
  57              		.loc 1 104 0
  58 0018 CA60     		str	r2, [r1, #12]
  59              		.loc 1 106 0
  60 001a 0368     		ldr	r3, [r0, #0]
  61 001c 4FF4006C 		mov	ip, #2048
  62 0020 C4F2010C 		movt	ip, 16385
  63 0024 CCF80C30 		str	r3, [ip, #12]
  64              		.loc 1 107 0
  65 0028 8468     		ldr	r4, [r0, #8]
  66              		.loc 1 109 0
  67 002a 4FF44063 		mov	r3, #3072
  68              		.loc 1 107 0
  69 002e CCF80440 		str	r4, [ip, #4]
  70              		.loc 1 108 0
  71 0032 4168     		ldr	r1, [r0, #4]
  72              		.loc 1 109 0
  73 0034 C4F20103 		movt	r3, 16385
  74              		.loc 1 108 0
  75 0038 CCF80010 		str	r1, [ip, #0]
  76              		.loc 1 109 0
  77 003c C268     		ldr	r2, [r0, #12]
  78              		.loc 1 112 0
  79 003e 4FF48051 		mov	r1, #4096
  80              		.loc 1 109 0
  81 0042 DA60     		str	r2, [r3, #12]
  82              		.loc 1 110 0
  83 0044 4469     		ldr	r4, [r0, #20]
  84              		.loc 1 112 0
  85 0046 C4F20101 		movt	r1, 16385
  86              		.loc 1 110 0
  87 004a 5C60     		str	r4, [r3, #4]
  88              		.loc 1 111 0
  89 004c 0269     		ldr	r2, [r0, #16]
  90              		.loc 1 115 0
  91 004e 4FF4A05C 		mov	ip, #5120
  92              		.loc 1 111 0
  93 0052 1A60     		str	r2, [r3, #0]
  94              		.loc 1 112 0
  95 0054 8369     		ldr	r3, [r0, #24]
  96              		.loc 1 115 0
  97 0056 C4F2010C 		movt	ip, 16385
  98              		.loc 1 112 0
  99 005a CB60     		str	r3, [r1, #12]
 100              		.loc 1 113 0
 101 005c 046A     		ldr	r4, [r0, #32]
 102              		.loc 1 119 0
 103 005e 4FF4C053 		mov	r3, #6144
 104              		.loc 1 113 0
 105 0062 4C60     		str	r4, [r1, #4]
 106              		.loc 1 114 0
 107 0064 C469     		ldr	r4, [r0, #28]
 108              		.loc 1 119 0
 109 0066 C4F20103 		movt	r3, 16385
 110              		.loc 1 114 0
ARM GAS  /tmp/ccwdVvJh.s 			page 3


 111 006a 0C60     		str	r4, [r1, #0]
 112              		.loc 1 115 0
 113 006c 416A     		ldr	r1, [r0, #36]
 114 006e CCF80C10 		str	r1, [ip, #12]
 115              		.loc 1 116 0
 116 0072 C26A     		ldr	r2, [r0, #44]
 117 0074 CCF80420 		str	r2, [ip, #4]
 118              		.loc 1 117 0
 119 0078 816A     		ldr	r1, [r0, #40]
 120 007a CCF80010 		str	r1, [ip, #0]
 121              		.loc 1 119 0
 122 007e 026B     		ldr	r2, [r0, #48]
 123 0080 DA60     		str	r2, [r3, #12]
 124              		.loc 1 120 0
 125 0082 816B     		ldr	r1, [r0, #56]
 126 0084 5960     		str	r1, [r3, #4]
 127              		.loc 1 121 0
 128 0086 426B     		ldr	r2, [r0, #52]
 129 0088 1A60     		str	r2, [r3, #0]
 130              		.loc 1 133 0
 131 008a 10BC     		pop	{r4}
 132 008c 7047     		bx	lr
 133              		.cfi_endproc
 134              	.LFE36:
 135              		.size	_pal_lld_init, .-_pal_lld_init
 136 008e 00BF     		.section	.text._pal_lld_setgroupmode,"ax",%progbits
 137              		.align	2
 138              		.p2align 4,,15
 139              		.global	_pal_lld_setgroupmode
 140              		.thumb
 141              		.thumb_func
 142              		.type	_pal_lld_setgroupmode, %function
 143              	_pal_lld_setgroupmode:
 144              	.LFB37:
 145              		.loc 1 154 0
 146              		.cfi_startproc
 147              		@ args = 0, pretend = 0, frame = 0
 148              		@ frame_needed = 0, uses_anonymous_args = 0
 149              		@ link register save eliminated.
 150              	.LVL1:
 151              		.loc 1 178 0
 152 0000 032A     		cmp	r2, #3
 153              		.loc 1 154 0
 154 0002 F0B4     		push	{r4, r5, r6, r7}
 155              	.LCFI1:
 156              		.cfi_def_cfa_offset 16
 157              		.loc 1 179 0
 158 0004 08BF     		it	eq
 159 0006 0161     		streq	r1, [r0, #16]
 160              		.loc 1 178 0
 161 0008 02D0     		beq	.L4
 162              		.cfi_offset 7, -4
 163              		.cfi_offset 6, -8
 164              		.cfi_offset 5, -12
 165              		.cfi_offset 4, -16
 166              		.loc 1 180 0
 167 000a 042A     		cmp	r2, #4
ARM GAS  /tmp/ccwdVvJh.s 			page 4


 168              		.loc 1 181 0
 169 000c 08BF     		it	eq
 170 000e 4161     		streq	r1, [r0, #20]
 171              	.L4:
 172              		.loc 1 182 0
 173 0010 40F20003 		movw	r3, #:lower16:.LANCHOR0
 174 0014 C0F20003 		movt	r3, #:upper16:.LANCHOR0
 175              		.loc 1 189 0
 176 0018 11F08007 		ands	r7, r1, #128
 177              		.loc 1 182 0
 178 001c 9B5C     		ldrb	r3, [r3, r2]	@ zero_extendqisi2
 179              	.LVL2:
 180              		.loc 1 189 0
 181 001e 40F08880 		bne	.L35
 182              	.LVL3:
 183              		.loc 1 190 0
 184 0022 0F24     		movs	r4, #15
 185              	.LVL4:
 186              		.loc 1 193 0
 187 0024 11F40045 		ands	r5, r1, #32768
 188 0028 40F08980 		bne	.L36
 189              	.L38:
 190              	.LVL5:
 191              		.loc 1 194 0
 192 002c 0F26     		movs	r6, #15
 193              	.LVL6:
 194              	.L6:
 195              		.loc 1 197 0
 196 002e 4A00     		lsls	r2, r1, #1
 197              	.LVL7:
 198              		.loc 1 185 0
 199 0030 2401     		lsls	r4, r4, #4
 200              	.LVL8:
 201              		.loc 1 186 0
 202 0032 3601     		lsls	r6, r6, #4
 203              	.LVL9:
 204              		.loc 1 187 0
 205 0034 3901     		lsls	r1, r7, #4
 206              	.LVL10:
 207              		.loc 1 188 0
 208 0036 2D01     		lsls	r5, r5, #4
 209              	.LVL11:
 210              		.loc 1 189 0
 211 0038 12F0800F 		tst	r2, #128
 212              		.loc 1 192 0
 213 003c 14BF     		ite	ne
 214 003e 1943     		orrne	r1, r1, r3
 215              	.LVL12:
 216              		.loc 1 190 0
 217 0040 44F00F04 		orreq	r4, r4, #15
 218              	.LVL13:
 219              		.loc 1 193 0
 220 0044 12F4004F 		tst	r2, #32768
 221              		.loc 1 196 0
 222 0048 14BF     		ite	ne
 223 004a 1D43     		orrne	r5, r5, r3
 224              	.LVL14:
ARM GAS  /tmp/ccwdVvJh.s 			page 5


 225              		.loc 1 194 0
 226 004c 46F00F06 		orreq	r6, r6, #15
 227              	.LVL15:
 228              		.loc 1 197 0
 229 0050 5200     		lsls	r2, r2, #1
 230              	.LVL16:
 231              		.loc 1 185 0
 232 0052 2401     		lsls	r4, r4, #4
 233              	.LVL17:
 234              		.loc 1 186 0
 235 0054 3601     		lsls	r6, r6, #4
 236              	.LVL18:
 237              		.loc 1 187 0
 238 0056 0901     		lsls	r1, r1, #4
 239              	.LVL19:
 240              		.loc 1 188 0
 241 0058 2D01     		lsls	r5, r5, #4
 242              	.LVL20:
 243              		.loc 1 189 0
 244 005a 12F0800F 		tst	r2, #128
 245              		.loc 1 192 0
 246 005e 14BF     		ite	ne
 247 0060 1943     		orrne	r1, r1, r3
 248              	.LVL21:
 249              		.loc 1 190 0
 250 0062 44F00F04 		orreq	r4, r4, #15
 251              	.LVL22:
 252              		.loc 1 193 0
 253 0066 12F4004F 		tst	r2, #32768
 254              		.loc 1 196 0
 255 006a 14BF     		ite	ne
 256 006c 1D43     		orrne	r5, r5, r3
 257              	.LVL23:
 258              		.loc 1 194 0
 259 006e 46F00F06 		orreq	r6, r6, #15
 260              	.LVL24:
 261              		.loc 1 197 0
 262 0072 5200     		lsls	r2, r2, #1
 263              	.LVL25:
 264              		.loc 1 185 0
 265 0074 2401     		lsls	r4, r4, #4
 266              	.LVL26:
 267              		.loc 1 186 0
 268 0076 3601     		lsls	r6, r6, #4
 269              	.LVL27:
 270              		.loc 1 187 0
 271 0078 0901     		lsls	r1, r1, #4
 272              	.LVL28:
 273              		.loc 1 188 0
 274 007a 2D01     		lsls	r5, r5, #4
 275              	.LVL29:
 276              		.loc 1 189 0
 277 007c 12F0800F 		tst	r2, #128
 278              		.loc 1 192 0
 279 0080 14BF     		ite	ne
 280 0082 1943     		orrne	r1, r1, r3
 281              	.LVL30:
ARM GAS  /tmp/ccwdVvJh.s 			page 6


 282              		.loc 1 190 0
 283 0084 44F00F04 		orreq	r4, r4, #15
 284              	.LVL31:
 285              		.loc 1 193 0
 286 0088 12F4004F 		tst	r2, #32768
 287              		.loc 1 196 0
 288 008c 14BF     		ite	ne
 289 008e 1D43     		orrne	r5, r5, r3
 290              	.LVL32:
 291              		.loc 1 194 0
 292 0090 46F00F06 		orreq	r6, r6, #15
 293              	.LVL33:
 294              		.loc 1 197 0
 295 0094 5200     		lsls	r2, r2, #1
 296              	.LVL34:
 297              		.loc 1 185 0
 298 0096 2401     		lsls	r4, r4, #4
 299              	.LVL35:
 300              		.loc 1 186 0
 301 0098 3601     		lsls	r6, r6, #4
 302              	.LVL36:
 303              		.loc 1 187 0
 304 009a 0901     		lsls	r1, r1, #4
 305              	.LVL37:
 306              		.loc 1 188 0
 307 009c 2D01     		lsls	r5, r5, #4
 308              	.LVL38:
 309              		.loc 1 189 0
 310 009e 12F0800F 		tst	r2, #128
 311              		.loc 1 192 0
 312 00a2 14BF     		ite	ne
 313 00a4 1943     		orrne	r1, r1, r3
 314              	.LVL39:
 315              		.loc 1 190 0
 316 00a6 44F00F04 		orreq	r4, r4, #15
 317              	.LVL40:
 318              		.loc 1 193 0
 319 00aa 12F4004F 		tst	r2, #32768
 320              		.loc 1 196 0
 321 00ae 14BF     		ite	ne
 322 00b0 1D43     		orrne	r5, r5, r3
 323              	.LVL41:
 324              		.loc 1 194 0
 325 00b2 46F00F06 		orreq	r6, r6, #15
 326              	.LVL42:
 327              		.loc 1 197 0
 328 00b6 5200     		lsls	r2, r2, #1
 329              	.LVL43:
 330              		.loc 1 185 0
 331 00b8 2401     		lsls	r4, r4, #4
 332              	.LVL44:
 333              		.loc 1 186 0
 334 00ba 3601     		lsls	r6, r6, #4
 335              	.LVL45:
 336              		.loc 1 187 0
 337 00bc 0901     		lsls	r1, r1, #4
 338              	.LVL46:
ARM GAS  /tmp/ccwdVvJh.s 			page 7


 339              		.loc 1 188 0
 340 00be 2D01     		lsls	r5, r5, #4
 341              	.LVL47:
 342              		.loc 1 189 0
 343 00c0 12F0800F 		tst	r2, #128
 344              		.loc 1 192 0
 345 00c4 14BF     		ite	ne
 346 00c6 1943     		orrne	r1, r1, r3
 347              	.LVL48:
 348              		.loc 1 190 0
 349 00c8 44F00F04 		orreq	r4, r4, #15
 350              	.LVL49:
 351              		.loc 1 193 0
 352 00cc 12F4004F 		tst	r2, #32768
 353              		.loc 1 196 0
 354 00d0 14BF     		ite	ne
 355 00d2 1D43     		orrne	r5, r5, r3
 356              	.LVL50:
 357              		.loc 1 194 0
 358 00d4 46F00F06 		orreq	r6, r6, #15
 359              	.LVL51:
 360              		.loc 1 197 0
 361 00d8 5200     		lsls	r2, r2, #1
 362              	.LVL52:
 363              		.loc 1 185 0
 364 00da 2401     		lsls	r4, r4, #4
 365              	.LVL53:
 366              		.loc 1 186 0
 367 00dc 3601     		lsls	r6, r6, #4
 368              	.LVL54:
 369              		.loc 1 187 0
 370 00de 0901     		lsls	r1, r1, #4
 371              	.LVL55:
 372              		.loc 1 188 0
 373 00e0 2D01     		lsls	r5, r5, #4
 374              	.LVL56:
 375              		.loc 1 189 0
 376 00e2 12F0800F 		tst	r2, #128
 377              		.loc 1 192 0
 378 00e6 14BF     		ite	ne
 379 00e8 1943     		orrne	r1, r1, r3
 380              	.LVL57:
 381              		.loc 1 190 0
 382 00ea 44F00F04 		orreq	r4, r4, #15
 383              	.LVL58:
 384              		.loc 1 193 0
 385 00ee 12F4004F 		tst	r2, #32768
 386              		.loc 1 196 0
 387 00f2 14BF     		ite	ne
 388 00f4 1D43     		orrne	r5, r5, r3
 389              	.LVL59:
 390              		.loc 1 194 0
 391 00f6 46F00F06 		orreq	r6, r6, #15
 392              	.LVL60:
 393              		.loc 1 197 0
 394 00fa 5200     		lsls	r2, r2, #1
 395              	.LVL61:
ARM GAS  /tmp/ccwdVvJh.s 			page 8


 396              		.loc 1 185 0
 397 00fc 2401     		lsls	r4, r4, #4
 398              	.LVL62:
 399              		.loc 1 186 0
 400 00fe 3601     		lsls	r6, r6, #4
 401              	.LVL63:
 402              		.loc 1 187 0
 403 0100 0901     		lsls	r1, r1, #4
 404              	.LVL64:
 405              		.loc 1 188 0
 406 0102 2D01     		lsls	r5, r5, #4
 407              	.LVL65:
 408              		.loc 1 189 0
 409 0104 12F0800F 		tst	r2, #128
 410              		.loc 1 192 0
 411 0108 14BF     		ite	ne
 412 010a 1943     		orrne	r1, r1, r3
 413              	.LVL66:
 414              		.loc 1 190 0
 415 010c 44F00F04 		orreq	r4, r4, #15
 416              	.LVL67:
 417              		.loc 1 193 0
 418 0110 12F4004F 		tst	r2, #32768
 419              		.loc 1 196 0
 420 0114 18BF     		it	ne
 421 0116 1D43     		orrne	r5, r5, r3
 422              	.LVL68:
 423              		.loc 1 199 0
 424 0118 4368     		ldr	r3, [r0, #4]
 425              	.LVL69:
 426              		.loc 1 194 0
 427 011a 08BF     		it	eq
 428 011c 46F00F06 		orreq	r6, r6, #15
 429              	.LVL70:
 430              		.loc 1 199 0
 431 0120 1E40     		ands	r6, r6, r3
 432              	.LVL71:
 433 0122 3543     		orrs	r5, r5, r6
 434              	.LVL72:
 435 0124 4560     		str	r5, [r0, #4]
 436              		.loc 1 200 0
 437 0126 0268     		ldr	r2, [r0, #0]
 438 0128 1440     		ands	r4, r4, r2
 439              	.LVL73:
 440 012a 2143     		orrs	r1, r1, r4
 441              	.LVL74:
 442 012c 0160     		str	r1, [r0, #0]
 443              		.loc 1 201 0
 444 012e F0BC     		pop	{r4, r5, r6, r7}
 445 0130 7047     		bx	lr
 446              	.LVL75:
 447              	.L35:
 448              		.loc 1 185 0
 449 0132 0024     		movs	r4, #0
 450              		.loc 1 193 0
 451 0134 11F40045 		ands	r5, r1, #32768
 452              		.loc 1 192 0
ARM GAS  /tmp/ccwdVvJh.s 			page 9


 453 0138 1F46     		mov	r7, r3
 454              	.LVL76:
 455              		.loc 1 193 0
 456 013a 3FF477AF 		beq	.L38
 457              	.LVL77:
 458              	.L36:
 459              		.loc 1 196 0
 460 013e 1D46     		mov	r5, r3
 461              		.loc 1 186 0
 462 0140 0026     		movs	r6, #0
 463 0142 74E7     		b	.L6
 464              		.cfi_endproc
 465              	.LFE37:
 466              		.size	_pal_lld_setgroupmode, .-_pal_lld_setgroupmode
 467 0144 AFF30080 		.section	.rodata.cfgtab.2951,"a",%progbits
 467      AFF30080 
 467      AFF30080 
 468              		.align	2
 469              		.set	.LANCHOR0,. + 0
 470              		.type	cfgtab.2951, %object
 471              		.size	cfgtab.2951, 18
 472              	cfgtab.2951:
 473 0000 04       		.byte	4
 474 0001 02       		.byte	2
 475 0002 04       		.byte	4
 476 0003 08       		.byte	8
 477 0004 08       		.byte	8
 478 0005 00       		.byte	0
 479 0006 03       		.byte	3
 480 0007 07       		.byte	7
 481 0008 08       		.byte	8
 482 0009 08       		.byte	8
 483 000a 08       		.byte	8
 484 000b 08       		.byte	8
 485 000c 08       		.byte	8
 486 000d 08       		.byte	8
 487 000e 08       		.byte	8
 488 000f 08       		.byte	8
 489 0010 0B       		.byte	11
 490 0011 0F       		.byte	15
 491 0012 0000     		.text
 492              	.Letext0:
 493              		.section	.debug_loc,"",%progbits
 494              	.Ldebug_loc0:
 495              	.LLST0:
 496 0000 00000000 		.4byte	.LFB36
 497 0004 02000000 		.4byte	.LCFI0
 498 0008 0200     		.2byte	0x2
 499 000a 7D       		.byte	0x7d
 500 000b 00       		.sleb128 0
 501 000c 02000000 		.4byte	.LCFI0
 502 0010 8E000000 		.4byte	.LFE36
 503 0014 0200     		.2byte	0x2
 504 0016 7D       		.byte	0x7d
 505 0017 04       		.sleb128 4
 506 0018 00000000 		.4byte	0x0
 507 001c 00000000 		.4byte	0x0
ARM GAS  /tmp/ccwdVvJh.s 			page 10


 508              	.LLST1:
 509 0020 00000000 		.4byte	.LFB37
 510 0024 04000000 		.4byte	.LCFI1
 511 0028 0200     		.2byte	0x2
 512 002a 7D       		.byte	0x7d
 513 002b 00       		.sleb128 0
 514 002c 04000000 		.4byte	.LCFI1
 515 0030 44010000 		.4byte	.LFE37
 516 0034 0200     		.2byte	0x2
 517 0036 7D       		.byte	0x7d
 518 0037 10       		.sleb128 16
 519 0038 00000000 		.4byte	0x0
 520 003c 00000000 		.4byte	0x0
 521              	.LLST2:
 522 0040 00000000 		.4byte	.LVL1
 523 0044 2E000000 		.4byte	.LVL6
 524 0048 0100     		.2byte	0x1
 525 004a 51       		.byte	0x51
 526 004b 2E000000 		.4byte	.LVL6
 527 004f 36000000 		.4byte	.LVL10
 528 0053 0500     		.2byte	0x5
 529 0055 71       		.byte	0x71
 530 0056 00       		.sleb128 0
 531 0057 31       		.byte	0x31
 532 0058 24       		.byte	0x24
 533 0059 9F       		.byte	0x9f
 534 005a 36000000 		.4byte	.LVL10
 535 005e 50000000 		.4byte	.LVL15
 536 0062 0100     		.2byte	0x1
 537 0064 52       		.byte	0x52
 538 0065 50000000 		.4byte	.LVL15
 539 0069 52000000 		.4byte	.LVL16
 540 006d 0500     		.2byte	0x5
 541 006f 72       		.byte	0x72
 542 0070 00       		.sleb128 0
 543 0071 31       		.byte	0x31
 544 0072 24       		.byte	0x24
 545 0073 9F       		.byte	0x9f
 546 0074 52000000 		.4byte	.LVL16
 547 0078 72000000 		.4byte	.LVL24
 548 007c 0100     		.2byte	0x1
 549 007e 52       		.byte	0x52
 550 007f 72000000 		.4byte	.LVL24
 551 0083 74000000 		.4byte	.LVL25
 552 0087 0500     		.2byte	0x5
 553 0089 72       		.byte	0x72
 554 008a 00       		.sleb128 0
 555 008b 31       		.byte	0x31
 556 008c 24       		.byte	0x24
 557 008d 9F       		.byte	0x9f
 558 008e 74000000 		.4byte	.LVL25
 559 0092 94000000 		.4byte	.LVL33
 560 0096 0100     		.2byte	0x1
 561 0098 52       		.byte	0x52
 562 0099 94000000 		.4byte	.LVL33
 563 009d 96000000 		.4byte	.LVL34
 564 00a1 0500     		.2byte	0x5
ARM GAS  /tmp/ccwdVvJh.s 			page 11


 565 00a3 72       		.byte	0x72
 566 00a4 00       		.sleb128 0
 567 00a5 31       		.byte	0x31
 568 00a6 24       		.byte	0x24
 569 00a7 9F       		.byte	0x9f
 570 00a8 96000000 		.4byte	.LVL34
 571 00ac B6000000 		.4byte	.LVL42
 572 00b0 0100     		.2byte	0x1
 573 00b2 52       		.byte	0x52
 574 00b3 B6000000 		.4byte	.LVL42
 575 00b7 B8000000 		.4byte	.LVL43
 576 00bb 0500     		.2byte	0x5
 577 00bd 72       		.byte	0x72
 578 00be 00       		.sleb128 0
 579 00bf 31       		.byte	0x31
 580 00c0 24       		.byte	0x24
 581 00c1 9F       		.byte	0x9f
 582 00c2 B8000000 		.4byte	.LVL43
 583 00c6 D8000000 		.4byte	.LVL51
 584 00ca 0100     		.2byte	0x1
 585 00cc 52       		.byte	0x52
 586 00cd D8000000 		.4byte	.LVL51
 587 00d1 DA000000 		.4byte	.LVL52
 588 00d5 0500     		.2byte	0x5
 589 00d7 72       		.byte	0x72
 590 00d8 00       		.sleb128 0
 591 00d9 31       		.byte	0x31
 592 00da 24       		.byte	0x24
 593 00db 9F       		.byte	0x9f
 594 00dc DA000000 		.4byte	.LVL52
 595 00e0 FA000000 		.4byte	.LVL60
 596 00e4 0100     		.2byte	0x1
 597 00e6 52       		.byte	0x52
 598 00e7 FA000000 		.4byte	.LVL60
 599 00eb FC000000 		.4byte	.LVL61
 600 00ef 0500     		.2byte	0x5
 601 00f1 72       		.byte	0x72
 602 00f2 00       		.sleb128 0
 603 00f3 31       		.byte	0x31
 604 00f4 24       		.byte	0x24
 605 00f5 9F       		.byte	0x9f
 606 00f6 FC000000 		.4byte	.LVL61
 607 00fa 20010000 		.4byte	.LVL70
 608 00fe 0100     		.2byte	0x1
 609 0100 52       		.byte	0x52
 610 0101 32010000 		.4byte	.LVL75
 611 0105 44010000 		.4byte	.LFE37
 612 0109 0100     		.2byte	0x1
 613 010b 51       		.byte	0x51
 614 010c 00000000 		.4byte	0x0
 615 0110 00000000 		.4byte	0x0
 616              	.LLST3:
 617 0114 00000000 		.4byte	.LVL1
 618 0118 30000000 		.4byte	.LVL7
 619 011c 0100     		.2byte	0x1
 620 011e 52       		.byte	0x52
 621 011f 32010000 		.4byte	.LVL75
ARM GAS  /tmp/ccwdVvJh.s 			page 12


 622 0123 44010000 		.4byte	.LFE37
 623 0127 0100     		.2byte	0x1
 624 0129 52       		.byte	0x52
 625 012a 00000000 		.4byte	0x0
 626 012e 00000000 		.4byte	0x0
 627              	.LLST4:
 628 0132 1E000000 		.4byte	.LVL2
 629 0136 2C000000 		.4byte	.LVL5
 630 013a 0200     		.2byte	0x2
 631 013c 30       		.byte	0x30
 632 013d 9F       		.byte	0x9f
 633 013e 2C000000 		.4byte	.LVL5
 634 0142 2E000000 		.4byte	.LVL6
 635 0146 0200     		.2byte	0x2
 636 0148 3F       		.byte	0x3f
 637 0149 9F       		.byte	0x9f
 638 014a 2E000000 		.4byte	.LVL6
 639 014e 34000000 		.4byte	.LVL9
 640 0152 0100     		.2byte	0x1
 641 0154 56       		.byte	0x56
 642 0155 34000000 		.4byte	.LVL9
 643 0159 50000000 		.4byte	.LVL15
 644 015d 0100     		.2byte	0x1
 645 015f 56       		.byte	0x56
 646 0160 50000000 		.4byte	.LVL15
 647 0164 56000000 		.4byte	.LVL18
 648 0168 0100     		.2byte	0x1
 649 016a 56       		.byte	0x56
 650 016b 56000000 		.4byte	.LVL18
 651 016f 72000000 		.4byte	.LVL24
 652 0173 0100     		.2byte	0x1
 653 0175 56       		.byte	0x56
 654 0176 72000000 		.4byte	.LVL24
 655 017a 78000000 		.4byte	.LVL27
 656 017e 0100     		.2byte	0x1
 657 0180 56       		.byte	0x56
 658 0181 78000000 		.4byte	.LVL27
 659 0185 94000000 		.4byte	.LVL33
 660 0189 0100     		.2byte	0x1
 661 018b 56       		.byte	0x56
 662 018c 94000000 		.4byte	.LVL33
 663 0190 9A000000 		.4byte	.LVL36
 664 0194 0100     		.2byte	0x1
 665 0196 56       		.byte	0x56
 666 0197 9A000000 		.4byte	.LVL36
 667 019b B6000000 		.4byte	.LVL42
 668 019f 0100     		.2byte	0x1
 669 01a1 56       		.byte	0x56
 670 01a2 B6000000 		.4byte	.LVL42
 671 01a6 BC000000 		.4byte	.LVL45
 672 01aa 0100     		.2byte	0x1
 673 01ac 56       		.byte	0x56
 674 01ad BC000000 		.4byte	.LVL45
 675 01b1 D8000000 		.4byte	.LVL51
 676 01b5 0100     		.2byte	0x1
 677 01b7 56       		.byte	0x56
 678 01b8 D8000000 		.4byte	.LVL51
ARM GAS  /tmp/ccwdVvJh.s 			page 13


 679 01bc DE000000 		.4byte	.LVL54
 680 01c0 0100     		.2byte	0x1
 681 01c2 56       		.byte	0x56
 682 01c3 DE000000 		.4byte	.LVL54
 683 01c7 FA000000 		.4byte	.LVL60
 684 01cb 0100     		.2byte	0x1
 685 01cd 56       		.byte	0x56
 686 01ce FA000000 		.4byte	.LVL60
 687 01d2 00010000 		.4byte	.LVL63
 688 01d6 0100     		.2byte	0x1
 689 01d8 56       		.byte	0x56
 690 01d9 00010000 		.4byte	.LVL63
 691 01dd 20010000 		.4byte	.LVL70
 692 01e1 0100     		.2byte	0x1
 693 01e3 56       		.byte	0x56
 694 01e4 20010000 		.4byte	.LVL70
 695 01e8 22010000 		.4byte	.LVL71
 696 01ec 0100     		.2byte	0x1
 697 01ee 56       		.byte	0x56
 698 01ef 32010000 		.4byte	.LVL75
 699 01f3 44010000 		.4byte	.LFE37
 700 01f7 0200     		.2byte	0x2
 701 01f9 30       		.byte	0x30
 702 01fa 9F       		.byte	0x9f
 703 01fb 00000000 		.4byte	0x0
 704 01ff 00000000 		.4byte	0x0
 705              	.LLST5:
 706 0203 1E000000 		.4byte	.LVL2
 707 0207 22000000 		.4byte	.LVL3
 708 020b 0200     		.2byte	0x2
 709 020d 30       		.byte	0x30
 710 020e 9F       		.byte	0x9f
 711 020f 22000000 		.4byte	.LVL3
 712 0213 24000000 		.4byte	.LVL4
 713 0217 0200     		.2byte	0x2
 714 0219 3F       		.byte	0x3f
 715 021a 9F       		.byte	0x9f
 716 021b 24000000 		.4byte	.LVL4
 717 021f 32000000 		.4byte	.LVL8
 718 0223 0100     		.2byte	0x1
 719 0225 54       		.byte	0x54
 720 0226 32000000 		.4byte	.LVL8
 721 022a 44000000 		.4byte	.LVL13
 722 022e 0100     		.2byte	0x1
 723 0230 54       		.byte	0x54
 724 0231 44000000 		.4byte	.LVL13
 725 0235 54000000 		.4byte	.LVL17
 726 0239 0100     		.2byte	0x1
 727 023b 54       		.byte	0x54
 728 023c 54000000 		.4byte	.LVL17
 729 0240 66000000 		.4byte	.LVL22
 730 0244 0100     		.2byte	0x1
 731 0246 54       		.byte	0x54
 732 0247 66000000 		.4byte	.LVL22
 733 024b 76000000 		.4byte	.LVL26
 734 024f 0100     		.2byte	0x1
 735 0251 54       		.byte	0x54
ARM GAS  /tmp/ccwdVvJh.s 			page 14


 736 0252 76000000 		.4byte	.LVL26
 737 0256 88000000 		.4byte	.LVL31
 738 025a 0100     		.2byte	0x1
 739 025c 54       		.byte	0x54
 740 025d 88000000 		.4byte	.LVL31
 741 0261 98000000 		.4byte	.LVL35
 742 0265 0100     		.2byte	0x1
 743 0267 54       		.byte	0x54
 744 0268 98000000 		.4byte	.LVL35
 745 026c AA000000 		.4byte	.LVL40
 746 0270 0100     		.2byte	0x1
 747 0272 54       		.byte	0x54
 748 0273 AA000000 		.4byte	.LVL40
 749 0277 BA000000 		.4byte	.LVL44
 750 027b 0100     		.2byte	0x1
 751 027d 54       		.byte	0x54
 752 027e BA000000 		.4byte	.LVL44
 753 0282 CC000000 		.4byte	.LVL49
 754 0286 0100     		.2byte	0x1
 755 0288 54       		.byte	0x54
 756 0289 CC000000 		.4byte	.LVL49
 757 028d DC000000 		.4byte	.LVL53
 758 0291 0100     		.2byte	0x1
 759 0293 54       		.byte	0x54
 760 0294 DC000000 		.4byte	.LVL53
 761 0298 EE000000 		.4byte	.LVL58
 762 029c 0100     		.2byte	0x1
 763 029e 54       		.byte	0x54
 764 029f EE000000 		.4byte	.LVL58
 765 02a3 FE000000 		.4byte	.LVL62
 766 02a7 0100     		.2byte	0x1
 767 02a9 54       		.byte	0x54
 768 02aa FE000000 		.4byte	.LVL62
 769 02ae 10010000 		.4byte	.LVL67
 770 02b2 0100     		.2byte	0x1
 771 02b4 54       		.byte	0x54
 772 02b5 10010000 		.4byte	.LVL67
 773 02b9 2A010000 		.4byte	.LVL73
 774 02bd 0100     		.2byte	0x1
 775 02bf 54       		.byte	0x54
 776 02c0 32010000 		.4byte	.LVL75
 777 02c4 3A010000 		.4byte	.LVL76
 778 02c8 0200     		.2byte	0x2
 779 02ca 30       		.byte	0x30
 780 02cb 9F       		.byte	0x9f
 781 02cc 3A010000 		.4byte	.LVL76
 782 02d0 44010000 		.4byte	.LFE37
 783 02d4 0100     		.2byte	0x1
 784 02d6 54       		.byte	0x54
 785 02d7 00000000 		.4byte	0x0
 786 02db 00000000 		.4byte	0x0
 787              	.LLST6:
 788 02df 1E000000 		.4byte	.LVL2
 789 02e3 2E000000 		.4byte	.LVL6
 790 02e7 0200     		.2byte	0x2
 791 02e9 30       		.byte	0x30
 792 02ea 9F       		.byte	0x9f
ARM GAS  /tmp/ccwdVvJh.s 			page 15


 793 02eb 2E000000 		.4byte	.LVL6
 794 02ef 38000000 		.4byte	.LVL11
 795 02f3 0100     		.2byte	0x1
 796 02f5 55       		.byte	0x55
 797 02f6 38000000 		.4byte	.LVL11
 798 02fa 4C000000 		.4byte	.LVL14
 799 02fe 0100     		.2byte	0x1
 800 0300 55       		.byte	0x55
 801 0301 4C000000 		.4byte	.LVL14
 802 0305 5A000000 		.4byte	.LVL20
 803 0309 0100     		.2byte	0x1
 804 030b 55       		.byte	0x55
 805 030c 5A000000 		.4byte	.LVL20
 806 0310 6E000000 		.4byte	.LVL23
 807 0314 0100     		.2byte	0x1
 808 0316 55       		.byte	0x55
 809 0317 6E000000 		.4byte	.LVL23
 810 031b 7C000000 		.4byte	.LVL29
 811 031f 0100     		.2byte	0x1
 812 0321 55       		.byte	0x55
 813 0322 7C000000 		.4byte	.LVL29
 814 0326 90000000 		.4byte	.LVL32
 815 032a 0100     		.2byte	0x1
 816 032c 55       		.byte	0x55
 817 032d 90000000 		.4byte	.LVL32
 818 0331 9E000000 		.4byte	.LVL38
 819 0335 0100     		.2byte	0x1
 820 0337 55       		.byte	0x55
 821 0338 9E000000 		.4byte	.LVL38
 822 033c B2000000 		.4byte	.LVL41
 823 0340 0100     		.2byte	0x1
 824 0342 55       		.byte	0x55
 825 0343 B2000000 		.4byte	.LVL41
 826 0347 C0000000 		.4byte	.LVL47
 827 034b 0100     		.2byte	0x1
 828 034d 55       		.byte	0x55
 829 034e C0000000 		.4byte	.LVL47
 830 0352 D4000000 		.4byte	.LVL50
 831 0356 0100     		.2byte	0x1
 832 0358 55       		.byte	0x55
 833 0359 D4000000 		.4byte	.LVL50
 834 035d E2000000 		.4byte	.LVL56
 835 0361 0100     		.2byte	0x1
 836 0363 55       		.byte	0x55
 837 0364 E2000000 		.4byte	.LVL56
 838 0368 F6000000 		.4byte	.LVL59
 839 036c 0100     		.2byte	0x1
 840 036e 55       		.byte	0x55
 841 036f F6000000 		.4byte	.LVL59
 842 0373 04010000 		.4byte	.LVL65
 843 0377 0100     		.2byte	0x1
 844 0379 55       		.byte	0x55
 845 037a 04010000 		.4byte	.LVL65
 846 037e 18010000 		.4byte	.LVL68
 847 0382 0100     		.2byte	0x1
 848 0384 55       		.byte	0x55
 849 0385 20010000 		.4byte	.LVL70
ARM GAS  /tmp/ccwdVvJh.s 			page 16


 850 0389 24010000 		.4byte	.LVL72
 851 038d 0100     		.2byte	0x1
 852 038f 55       		.byte	0x55
 853 0390 32010000 		.4byte	.LVL75
 854 0394 44010000 		.4byte	.LFE37
 855 0398 0200     		.2byte	0x2
 856 039a 30       		.byte	0x30
 857 039b 9F       		.byte	0x9f
 858 039c 00000000 		.4byte	0x0
 859 03a0 00000000 		.4byte	0x0
 860              	.LLST7:
 861 03a4 1E000000 		.4byte	.LVL2
 862 03a8 24000000 		.4byte	.LVL4
 863 03ac 0200     		.2byte	0x2
 864 03ae 30       		.byte	0x30
 865 03af 9F       		.byte	0x9f
 866 03b0 24000000 		.4byte	.LVL4
 867 03b4 36000000 		.4byte	.LVL10
 868 03b8 0100     		.2byte	0x1
 869 03ba 57       		.byte	0x57
 870 03bb 36000000 		.4byte	.LVL10
 871 03bf 40000000 		.4byte	.LVL12
 872 03c3 0100     		.2byte	0x1
 873 03c5 51       		.byte	0x51
 874 03c6 40000000 		.4byte	.LVL12
 875 03ca 58000000 		.4byte	.LVL19
 876 03ce 0100     		.2byte	0x1
 877 03d0 51       		.byte	0x51
 878 03d1 58000000 		.4byte	.LVL19
 879 03d5 62000000 		.4byte	.LVL21
 880 03d9 0100     		.2byte	0x1
 881 03db 51       		.byte	0x51
 882 03dc 62000000 		.4byte	.LVL21
 883 03e0 7A000000 		.4byte	.LVL28
 884 03e4 0100     		.2byte	0x1
 885 03e6 51       		.byte	0x51
 886 03e7 7A000000 		.4byte	.LVL28
 887 03eb 84000000 		.4byte	.LVL30
 888 03ef 0100     		.2byte	0x1
 889 03f1 51       		.byte	0x51
 890 03f2 84000000 		.4byte	.LVL30
 891 03f6 9C000000 		.4byte	.LVL37
 892 03fa 0100     		.2byte	0x1
 893 03fc 51       		.byte	0x51
 894 03fd 9C000000 		.4byte	.LVL37
 895 0401 A6000000 		.4byte	.LVL39
 896 0405 0100     		.2byte	0x1
 897 0407 51       		.byte	0x51
 898 0408 A6000000 		.4byte	.LVL39
 899 040c BE000000 		.4byte	.LVL46
 900 0410 0100     		.2byte	0x1
 901 0412 51       		.byte	0x51
 902 0413 BE000000 		.4byte	.LVL46
 903 0417 C8000000 		.4byte	.LVL48
 904 041b 0100     		.2byte	0x1
 905 041d 51       		.byte	0x51
 906 041e C8000000 		.4byte	.LVL48
ARM GAS  /tmp/ccwdVvJh.s 			page 17


 907 0422 E0000000 		.4byte	.LVL55
 908 0426 0100     		.2byte	0x1
 909 0428 51       		.byte	0x51
 910 0429 E0000000 		.4byte	.LVL55
 911 042d EA000000 		.4byte	.LVL57
 912 0431 0100     		.2byte	0x1
 913 0433 51       		.byte	0x51
 914 0434 EA000000 		.4byte	.LVL57
 915 0438 02010000 		.4byte	.LVL64
 916 043c 0100     		.2byte	0x1
 917 043e 51       		.byte	0x51
 918 043f 02010000 		.4byte	.LVL64
 919 0443 0C010000 		.4byte	.LVL66
 920 0447 0100     		.2byte	0x1
 921 0449 51       		.byte	0x51
 922 044a 10010000 		.4byte	.LVL67
 923 044e 2C010000 		.4byte	.LVL74
 924 0452 0100     		.2byte	0x1
 925 0454 51       		.byte	0x51
 926 0455 32010000 		.4byte	.LVL75
 927 0459 3A010000 		.4byte	.LVL76
 928 045d 0200     		.2byte	0x2
 929 045f 30       		.byte	0x30
 930 0460 9F       		.byte	0x9f
 931 0461 3A010000 		.4byte	.LVL76
 932 0465 3E010000 		.4byte	.LVL77
 933 0469 0100     		.2byte	0x1
 934 046b 53       		.byte	0x53
 935 046c 3E010000 		.4byte	.LVL77
 936 0470 44010000 		.4byte	.LFE37
 937 0474 0100     		.2byte	0x1
 938 0476 57       		.byte	0x57
 939 0477 00000000 		.4byte	0x0
 940 047b 00000000 		.4byte	0x0
 941              	.LLST8:
 942 047f 1E000000 		.4byte	.LVL2
 943 0483 1A010000 		.4byte	.LVL69
 944 0487 0100     		.2byte	0x1
 945 0489 53       		.byte	0x53
 946 048a 32010000 		.4byte	.LVL75
 947 048e 44010000 		.4byte	.LFE37
 948 0492 0100     		.2byte	0x1
 949 0494 53       		.byte	0x53
 950 0495 00000000 		.4byte	0x0
 951 0499 00000000 		.4byte	0x0
 952              	.LLST9:
 953 049d 1E000000 		.4byte	.LVL2
 954 04a1 2E000000 		.4byte	.LVL6
 955 04a5 0200     		.2byte	0x2
 956 04a7 30       		.byte	0x30
 957 04a8 9F       		.byte	0x9f
 958 04a9 2E000000 		.4byte	.LVL6
 959 04ad 50000000 		.4byte	.LVL15
 960 04b1 0200     		.2byte	0x2
 961 04b3 31       		.byte	0x31
 962 04b4 9F       		.byte	0x9f
 963 04b5 50000000 		.4byte	.LVL15
ARM GAS  /tmp/ccwdVvJh.s 			page 18


 964 04b9 72000000 		.4byte	.LVL24
 965 04bd 0200     		.2byte	0x2
 966 04bf 32       		.byte	0x32
 967 04c0 9F       		.byte	0x9f
 968 04c1 72000000 		.4byte	.LVL24
 969 04c5 94000000 		.4byte	.LVL33
 970 04c9 0200     		.2byte	0x2
 971 04cb 33       		.byte	0x33
 972 04cc 9F       		.byte	0x9f
 973 04cd 94000000 		.4byte	.LVL33
 974 04d1 B6000000 		.4byte	.LVL42
 975 04d5 0200     		.2byte	0x2
 976 04d7 34       		.byte	0x34
 977 04d8 9F       		.byte	0x9f
 978 04d9 B6000000 		.4byte	.LVL42
 979 04dd D8000000 		.4byte	.LVL51
 980 04e1 0200     		.2byte	0x2
 981 04e3 35       		.byte	0x35
 982 04e4 9F       		.byte	0x9f
 983 04e5 FA000000 		.4byte	.LVL60
 984 04e9 20010000 		.4byte	.LVL70
 985 04ed 0200     		.2byte	0x2
 986 04ef 37       		.byte	0x37
 987 04f0 9F       		.byte	0x9f
 988 04f1 20010000 		.4byte	.LVL70
 989 04f5 32010000 		.4byte	.LVL75
 990 04f9 0200     		.2byte	0x2
 991 04fb 38       		.byte	0x38
 992 04fc 9F       		.byte	0x9f
 993 04fd 32010000 		.4byte	.LVL75
 994 0501 44010000 		.4byte	.LFE37
 995 0505 0200     		.2byte	0x2
 996 0507 30       		.byte	0x30
 997 0508 9F       		.byte	0x9f
 998 0509 00000000 		.4byte	0x0
 999 050d 00000000 		.4byte	0x0
 1000              		.file 2 "/home/dan/arm-cs-tools/lib/gcc/arm-none-eabi/4.5.1/../../../../arm-none-eabi/include/stdi
 1001              		.file 3 "chibios/os/hal/platforms/STM32/stm32f10x.h"
 1002              		.file 4 "chibios/os/hal/platforms/STM32/pal_lld.h"
 1003              		.file 5 "chibios/os/hal/platforms/STM32/core_cm3.h"
 1004              		.section	.debug_info
 1005 0000 84030000 		.4byte	0x384
 1006 0004 0200     		.2byte	0x2
 1007 0006 00000000 		.4byte	.Ldebug_abbrev0
 1008 000a 04       		.byte	0x4
 1009 000b 01       		.uleb128 0x1
 1010 000c 3C010000 		.4byte	.LASF40
 1011 0010 01       		.byte	0x1
 1012 0011 28000000 		.4byte	.LASF41
 1013 0015 DB000000 		.4byte	.LASF42
 1014 0019 00000000 		.4byte	0x0
 1015 001d 00000000 		.4byte	0x0
 1016 0021 00000000 		.4byte	.Ldebug_ranges0+0x0
 1017 0025 00000000 		.4byte	.Ldebug_line0
 1018 0029 02       		.uleb128 0x2
 1019 002a 04       		.byte	0x4
 1020 002b 05       		.byte	0x5
ARM GAS  /tmp/ccwdVvJh.s 			page 19


 1021 002c 696E7400 		.ascii	"int\000"
 1022 0030 03       		.uleb128 0x3
 1023 0031 04       		.byte	0x4
 1024 0032 07       		.byte	0x7
 1025 0033 5D000000 		.4byte	.LASF0
 1026 0037 03       		.uleb128 0x3
 1027 0038 01       		.byte	0x1
 1028 0039 06       		.byte	0x6
 1029 003a F8010000 		.4byte	.LASF1
 1030 003e 04       		.uleb128 0x4
 1031 003f 8D010000 		.4byte	.LASF6
 1032 0043 02       		.byte	0x2
 1033 0044 2A       		.byte	0x2a
 1034 0045 49000000 		.4byte	0x49
 1035 0049 03       		.uleb128 0x3
 1036 004a 01       		.byte	0x1
 1037 004b 08       		.byte	0x8
 1038 004c 87000000 		.4byte	.LASF2
 1039 0050 03       		.uleb128 0x3
 1040 0051 02       		.byte	0x2
 1041 0052 05       		.byte	0x5
 1042 0053 B1010000 		.4byte	.LASF3
 1043 0057 03       		.uleb128 0x3
 1044 0058 02       		.byte	0x2
 1045 0059 07       		.byte	0x7
 1046 005a C8000000 		.4byte	.LASF4
 1047 005e 03       		.uleb128 0x3
 1048 005f 04       		.byte	0x4
 1049 0060 05       		.byte	0x5
 1050 0061 E2010000 		.4byte	.LASF5
 1051 0065 04       		.uleb128 0x4
 1052 0066 D9010000 		.4byte	.LASF7
 1053 006a 02       		.byte	0x2
 1054 006b 50       		.byte	0x50
 1055 006c 70000000 		.4byte	0x70
 1056 0070 03       		.uleb128 0x3
 1057 0071 04       		.byte	0x4
 1058 0072 07       		.byte	0x7
 1059 0073 B6000000 		.4byte	.LASF8
 1060 0077 03       		.uleb128 0x3
 1061 0078 08       		.byte	0x8
 1062 0079 05       		.byte	0x5
 1063 007a 00000000 		.4byte	.LASF9
 1064 007e 03       		.uleb128 0x3
 1065 007f 08       		.byte	0x8
 1066 0080 07       		.byte	0x7
 1067 0081 76010000 		.4byte	.LASF10
 1068 0085 04       		.uleb128 0x4
 1069 0086 1E010000 		.4byte	.LASF11
 1070 008a 02       		.byte	0x2
 1071 008b A0       		.byte	0xa0
 1072 008c 30000000 		.4byte	0x30
 1073 0090 05       		.uleb128 0x5
 1074 0091 65000000 		.4byte	0x65
 1075 0095 06       		.uleb128 0x6
 1076 0096 1C       		.byte	0x1c
 1077 0097 03       		.byte	0x3
ARM GAS  /tmp/ccwdVvJh.s 			page 20


 1078 0098 AB03     		.2byte	0x3ab
 1079 009a 08010000 		.4byte	0x108
 1080 009e 07       		.uleb128 0x7
 1081 009f 43524C00 		.ascii	"CRL\000"
 1082 00a3 03       		.byte	0x3
 1083 00a4 AD03     		.2byte	0x3ad
 1084 00a6 90000000 		.4byte	0x90
 1085 00aa 02       		.byte	0x2
 1086 00ab 23       		.byte	0x23
 1087 00ac 00       		.uleb128 0x0
 1088 00ad 07       		.uleb128 0x7
 1089 00ae 43524800 		.ascii	"CRH\000"
 1090 00b2 03       		.byte	0x3
 1091 00b3 AE03     		.2byte	0x3ae
 1092 00b5 90000000 		.4byte	0x90
 1093 00b9 02       		.byte	0x2
 1094 00ba 23       		.byte	0x23
 1095 00bb 04       		.uleb128 0x4
 1096 00bc 07       		.uleb128 0x7
 1097 00bd 49445200 		.ascii	"IDR\000"
 1098 00c1 03       		.byte	0x3
 1099 00c2 AF03     		.2byte	0x3af
 1100 00c4 90000000 		.4byte	0x90
 1101 00c8 02       		.byte	0x2
 1102 00c9 23       		.byte	0x23
 1103 00ca 08       		.uleb128 0x8
 1104 00cb 07       		.uleb128 0x7
 1105 00cc 4F445200 		.ascii	"ODR\000"
 1106 00d0 03       		.byte	0x3
 1107 00d1 B003     		.2byte	0x3b0
 1108 00d3 90000000 		.4byte	0x90
 1109 00d7 02       		.byte	0x2
 1110 00d8 23       		.byte	0x23
 1111 00d9 0C       		.uleb128 0xc
 1112 00da 08       		.uleb128 0x8
 1113 00db 51000000 		.4byte	.LASF12
 1114 00df 03       		.byte	0x3
 1115 00e0 B103     		.2byte	0x3b1
 1116 00e2 90000000 		.4byte	0x90
 1117 00e6 02       		.byte	0x2
 1118 00e7 23       		.byte	0x23
 1119 00e8 10       		.uleb128 0x10
 1120 00e9 07       		.uleb128 0x7
 1121 00ea 42525200 		.ascii	"BRR\000"
 1122 00ee 03       		.byte	0x3
 1123 00ef B203     		.2byte	0x3b2
 1124 00f1 90000000 		.4byte	0x90
 1125 00f5 02       		.byte	0x2
 1126 00f6 23       		.byte	0x23
 1127 00f7 14       		.uleb128 0x14
 1128 00f8 08       		.uleb128 0x8
 1129 00f9 04020000 		.4byte	.LASF13
 1130 00fd 03       		.byte	0x3
 1131 00fe B303     		.2byte	0x3b3
 1132 0100 90000000 		.4byte	0x90
 1133 0104 02       		.byte	0x2
 1134 0105 23       		.byte	0x23
ARM GAS  /tmp/ccwdVvJh.s 			page 21


 1135 0106 18       		.uleb128 0x18
 1136 0107 00       		.byte	0x0
 1137 0108 09       		.uleb128 0x9
 1138 0109 EB010000 		.4byte	.LASF14
 1139 010d 03       		.byte	0x3
 1140 010e B403     		.2byte	0x3b4
 1141 0110 95000000 		.4byte	0x95
 1142 0114 06       		.uleb128 0x6
 1143 0115 28       		.byte	0x28
 1144 0116 03       		.byte	0x3
 1145 0117 F603     		.2byte	0x3f6
 1146 0119 B3010000 		.4byte	0x1b3
 1147 011d 07       		.uleb128 0x7
 1148 011e 435200   		.ascii	"CR\000"
 1149 0121 03       		.byte	0x3
 1150 0122 F803     		.2byte	0x3f8
 1151 0124 90000000 		.4byte	0x90
 1152 0128 02       		.byte	0x2
 1153 0129 23       		.byte	0x23
 1154 012a 00       		.uleb128 0x0
 1155 012b 08       		.uleb128 0x8
 1156 012c 9A010000 		.4byte	.LASF15
 1157 0130 03       		.byte	0x3
 1158 0131 F903     		.2byte	0x3f9
 1159 0133 90000000 		.4byte	0x90
 1160 0137 02       		.byte	0x2
 1161 0138 23       		.byte	0x23
 1162 0139 04       		.uleb128 0x4
 1163 013a 07       		.uleb128 0x7
 1164 013b 43495200 		.ascii	"CIR\000"
 1165 013f 03       		.byte	0x3
 1166 0140 FA03     		.2byte	0x3fa
 1167 0142 90000000 		.4byte	0x90
 1168 0146 02       		.byte	0x2
 1169 0147 23       		.byte	0x23
 1170 0148 08       		.uleb128 0x8
 1171 0149 08       		.uleb128 0x8
 1172 014a 50010000 		.4byte	.LASF16
 1173 014e 03       		.byte	0x3
 1174 014f FB03     		.2byte	0x3fb
 1175 0151 90000000 		.4byte	0x90
 1176 0155 02       		.byte	0x2
 1177 0156 23       		.byte	0x23
 1178 0157 0C       		.uleb128 0xc
 1179 0158 08       		.uleb128 0x8
 1180 0159 77000000 		.4byte	.LASF17
 1181 015d 03       		.byte	0x3
 1182 015e FC03     		.2byte	0x3fc
 1183 0160 90000000 		.4byte	0x90
 1184 0164 02       		.byte	0x2
 1185 0165 23       		.byte	0x23
 1186 0166 10       		.uleb128 0x10
 1187 0167 08       		.uleb128 0x8
 1188 0168 56000000 		.4byte	.LASF18
 1189 016c 03       		.byte	0x3
 1190 016d FD03     		.2byte	0x3fd
 1191 016f 90000000 		.4byte	0x90
ARM GAS  /tmp/ccwdVvJh.s 			page 22


 1192 0173 02       		.byte	0x2
 1193 0174 23       		.byte	0x23
 1194 0175 14       		.uleb128 0x14
 1195 0176 08       		.uleb128 0x8
 1196 0177 9F010000 		.4byte	.LASF19
 1197 017b 03       		.byte	0x3
 1198 017c FE03     		.2byte	0x3fe
 1199 017e 90000000 		.4byte	0x90
 1200 0182 02       		.byte	0x2
 1201 0183 23       		.byte	0x23
 1202 0184 18       		.uleb128 0x18
 1203 0185 08       		.uleb128 0x8
 1204 0186 48010000 		.4byte	.LASF20
 1205 018a 03       		.byte	0x3
 1206 018b FF03     		.2byte	0x3ff
 1207 018d 90000000 		.4byte	0x90
 1208 0191 02       		.byte	0x2
 1209 0192 23       		.byte	0x23
 1210 0193 1C       		.uleb128 0x1c
 1211 0194 08       		.uleb128 0x8
 1212 0195 0E000000 		.4byte	.LASF21
 1213 0199 03       		.byte	0x3
 1214 019a 0004     		.2byte	0x400
 1215 019c 90000000 		.4byte	0x90
 1216 01a0 02       		.byte	0x2
 1217 01a1 23       		.byte	0x23
 1218 01a2 20       		.uleb128 0x20
 1219 01a3 07       		.uleb128 0x7
 1220 01a4 43535200 		.ascii	"CSR\000"
 1221 01a8 03       		.byte	0x3
 1222 01a9 0104     		.2byte	0x401
 1223 01ab 90000000 		.4byte	0x90
 1224 01af 02       		.byte	0x2
 1225 01b0 23       		.byte	0x23
 1226 01b1 24       		.uleb128 0x24
 1227 01b2 00       		.byte	0x0
 1228 01b3 09       		.uleb128 0x9
 1229 01b4 CD010000 		.4byte	.LASF22
 1230 01b8 03       		.byte	0x3
 1231 01b9 0C04     		.2byte	0x40c
 1232 01bb 14010000 		.4byte	0x114
 1233 01bf 0A       		.uleb128 0xa
 1234 01c0 0C       		.byte	0xc
 1235 01c1 04       		.byte	0x4
 1236 01c2 3D       		.byte	0x3d
 1237 01c3 F2010000 		.4byte	0x1f2
 1238 01c7 0B       		.uleb128 0xb
 1239 01c8 6F647200 		.ascii	"odr\000"
 1240 01cc 04       		.byte	0x4
 1241 01cd 3F       		.byte	0x3f
 1242 01ce 65000000 		.4byte	0x65
 1243 01d2 02       		.byte	0x2
 1244 01d3 23       		.byte	0x23
 1245 01d4 00       		.uleb128 0x0
 1246 01d5 0B       		.uleb128 0xb
 1247 01d6 63726C00 		.ascii	"crl\000"
 1248 01da 04       		.byte	0x4
ARM GAS  /tmp/ccwdVvJh.s 			page 23


 1249 01db 41       		.byte	0x41
 1250 01dc 65000000 		.4byte	0x65
 1251 01e0 02       		.byte	0x2
 1252 01e1 23       		.byte	0x23
 1253 01e2 04       		.uleb128 0x4
 1254 01e3 0B       		.uleb128 0xb
 1255 01e4 63726800 		.ascii	"crh\000"
 1256 01e8 04       		.byte	0x4
 1257 01e9 43       		.byte	0x43
 1258 01ea 65000000 		.4byte	0x65
 1259 01ee 02       		.byte	0x2
 1260 01ef 23       		.byte	0x23
 1261 01f0 08       		.uleb128 0x8
 1262 01f1 00       		.byte	0x0
 1263 01f2 04       		.uleb128 0x4
 1264 01f3 95000000 		.4byte	.LASF23
 1265 01f7 04       		.byte	0x4
 1266 01f8 44       		.byte	0x44
 1267 01f9 BF010000 		.4byte	0x1bf
 1268 01fd 0A       		.uleb128 0xa
 1269 01fe 3C       		.byte	0x3c
 1270 01ff 04       		.byte	0x4
 1271 0200 4D       		.byte	0x4d
 1272 0201 4C020000 		.4byte	0x24c
 1273 0205 0C       		.uleb128 0xc
 1274 0206 A8000000 		.4byte	.LASF24
 1275 020a 04       		.byte	0x4
 1276 020b 4F       		.byte	0x4f
 1277 020c F2010000 		.4byte	0x1f2
 1278 0210 02       		.byte	0x2
 1279 0211 23       		.byte	0x23
 1280 0212 00       		.uleb128 0x0
 1281 0213 0C       		.uleb128 0xc
 1282 0214 6F010000 		.4byte	.LASF25
 1283 0218 04       		.byte	0x4
 1284 0219 51       		.byte	0x51
 1285 021a F2010000 		.4byte	0x1f2
 1286 021e 02       		.byte	0x2
 1287 021f 23       		.byte	0x23
 1288 0220 0C       		.uleb128 0xc
 1289 0221 0C       		.uleb128 0xc
 1290 0222 BB010000 		.4byte	.LASF26
 1291 0226 04       		.byte	0x4
 1292 0227 53       		.byte	0x53
 1293 0228 F2010000 		.4byte	0x1f2
 1294 022c 02       		.byte	0x2
 1295 022d 23       		.byte	0x23
 1296 022e 18       		.uleb128 0x18
 1297 022f 0C       		.uleb128 0xc
 1298 0230 13000000 		.4byte	.LASF27
 1299 0234 04       		.byte	0x4
 1300 0235 55       		.byte	0x55
 1301 0236 F2010000 		.4byte	0x1f2
 1302 023a 02       		.byte	0x2
 1303 023b 23       		.byte	0x23
 1304 023c 24       		.uleb128 0x24
 1305 023d 0C       		.uleb128 0xc
ARM GAS  /tmp/ccwdVvJh.s 			page 24


 1306 023e 80000000 		.4byte	.LASF28
 1307 0242 04       		.byte	0x4
 1308 0243 58       		.byte	0x58
 1309 0244 F2010000 		.4byte	0x1f2
 1310 0248 02       		.byte	0x2
 1311 0249 23       		.byte	0x23
 1312 024a 30       		.uleb128 0x30
 1313 024b 00       		.byte	0x0
 1314 024c 04       		.uleb128 0x4
 1315 024d 32010000 		.4byte	.LASF29
 1316 0251 04       		.byte	0x4
 1317 0252 62       		.byte	0x62
 1318 0253 FD010000 		.4byte	0x1fd
 1319 0257 04       		.uleb128 0x4
 1320 0258 6A000000 		.4byte	.LASF30
 1321 025c 04       		.byte	0x4
 1322 025d 72       		.byte	0x72
 1323 025e 65000000 		.4byte	0x65
 1324 0262 04       		.uleb128 0x4
 1325 0263 C2010000 		.4byte	.LASF31
 1326 0267 04       		.byte	0x4
 1327 0268 7A       		.byte	0x7a
 1328 0269 6D020000 		.4byte	0x26d
 1329 026d 0D       		.uleb128 0xd
 1330 026e 04       		.byte	0x4
 1331 026f 08010000 		.4byte	0x108
 1332 0273 0E       		.uleb128 0xe
 1333 0274 01       		.byte	0x1
 1334 0275 1A000000 		.4byte	.LASF32
 1335 0279 01       		.byte	0x1
 1336 027a 5D       		.byte	0x5d
 1337 027b 01       		.byte	0x1
 1338 027c 00000000 		.4byte	.LFB36
 1339 0280 8E000000 		.4byte	.LFE36
 1340 0284 00000000 		.4byte	.LLST0
 1341 0288 9A020000 		.4byte	0x29a
 1342 028c 0F       		.uleb128 0xf
 1343 028d 2B010000 		.4byte	.LASF34
 1344 0291 01       		.byte	0x1
 1345 0292 5D       		.byte	0x5d
 1346 0293 9A020000 		.4byte	0x29a
 1347 0297 01       		.byte	0x1
 1348 0298 50       		.byte	0x50
 1349 0299 00       		.byte	0x0
 1350 029a 0D       		.uleb128 0xd
 1351 029b 04       		.byte	0x4
 1352 029c A0020000 		.4byte	0x2a0
 1353 02a0 10       		.uleb128 0x10
 1354 02a1 4C020000 		.4byte	0x24c
 1355 02a5 0E       		.uleb128 0xe
 1356 02a6 01       		.byte	0x1
 1357 02a7 59010000 		.4byte	.LASF33
 1358 02ab 01       		.byte	0x1
 1359 02ac 98       		.byte	0x98
 1360 02ad 01       		.byte	0x1
 1361 02ae 00000000 		.4byte	.LFB37
 1362 02b2 44010000 		.4byte	.LFE37
ARM GAS  /tmp/ccwdVvJh.s 			page 25


 1363 02b6 20000000 		.4byte	.LLST1
 1364 02ba 51030000 		.4byte	0x351
 1365 02be 0F       		.uleb128 0xf
 1366 02bf AC010000 		.4byte	.LASF35
 1367 02c3 01       		.byte	0x1
 1368 02c4 98       		.byte	0x98
 1369 02c5 62020000 		.4byte	0x262
 1370 02c9 01       		.byte	0x1
 1371 02ca 50       		.byte	0x50
 1372 02cb 11       		.uleb128 0x11
 1373 02cc A7010000 		.4byte	.LASF36
 1374 02d0 01       		.byte	0x1
 1375 02d1 99       		.byte	0x99
 1376 02d2 57020000 		.4byte	0x257
 1377 02d6 40000000 		.4byte	.LLST2
 1378 02da 11       		.uleb128 0x11
 1379 02db 95010000 		.4byte	.LASF37
 1380 02df 01       		.byte	0x1
 1381 02e0 9A       		.byte	0x9a
 1382 02e1 85000000 		.4byte	0x85
 1383 02e5 14010000 		.4byte	.LLST3
 1384 02e9 12       		.uleb128 0x12
 1385 02ea AF000000 		.4byte	.LASF38
 1386 02ee 01       		.byte	0x1
 1387 02ef 9B       		.byte	0x9b
 1388 02f0 61030000 		.4byte	0x361
 1389 02f4 05       		.byte	0x5
 1390 02f5 03       		.byte	0x3
 1391 02f6 00000000 		.4byte	cfgtab.2951
 1392 02fa 13       		.uleb128 0x13
 1393 02fb 6D6800   		.ascii	"mh\000"
 1394 02fe 01       		.byte	0x1
 1395 02ff AF       		.byte	0xaf
 1396 0300 65000000 		.4byte	0x65
 1397 0304 32010000 		.4byte	.LLST4
 1398 0308 13       		.uleb128 0x13
 1399 0309 6D6C00   		.ascii	"ml\000"
 1400 030c 01       		.byte	0x1
 1401 030d AF       		.byte	0xaf
 1402 030e 65000000 		.4byte	0x65
 1403 0312 03020000 		.4byte	.LLST5
 1404 0316 13       		.uleb128 0x13
 1405 0317 63726800 		.ascii	"crh\000"
 1406 031b 01       		.byte	0x1
 1407 031c AF       		.byte	0xaf
 1408 031d 65000000 		.4byte	0x65
 1409 0321 DF020000 		.4byte	.LLST6
 1410 0325 13       		.uleb128 0x13
 1411 0326 63726C00 		.ascii	"crl\000"
 1412 032a 01       		.byte	0x1
 1413 032b AF       		.byte	0xaf
 1414 032c 65000000 		.4byte	0x65
 1415 0330 A4030000 		.4byte	.LLST7
 1416 0334 13       		.uleb128 0x13
 1417 0335 63666700 		.ascii	"cfg\000"
 1418 0339 01       		.byte	0x1
 1419 033a AF       		.byte	0xaf
ARM GAS  /tmp/ccwdVvJh.s 			page 26


 1420 033b 65000000 		.4byte	0x65
 1421 033f 7F040000 		.4byte	.LLST8
 1422 0343 13       		.uleb128 0x13
 1423 0344 6900     		.ascii	"i\000"
 1424 0346 01       		.byte	0x1
 1425 0347 B0       		.byte	0xb0
 1426 0348 30000000 		.4byte	0x30
 1427 034c 9D040000 		.4byte	.LLST9
 1428 0350 00       		.byte	0x0
 1429 0351 14       		.uleb128 0x14
 1430 0352 3E000000 		.4byte	0x3e
 1431 0356 61030000 		.4byte	0x361
 1432 035a 15       		.uleb128 0x15
 1433 035b 30000000 		.4byte	0x30
 1434 035f 11       		.byte	0x11
 1435 0360 00       		.byte	0x0
 1436 0361 10       		.uleb128 0x10
 1437 0362 51030000 		.4byte	0x351
 1438 0366 16       		.uleb128 0x16
 1439 0367 11010000 		.4byte	.LASF39
 1440 036b 05       		.byte	0x5
 1441 036c ED06     		.2byte	0x6ed
 1442 036e 74030000 		.4byte	0x374
 1443 0372 01       		.byte	0x1
 1444 0373 01       		.byte	0x1
 1445 0374 05       		.uleb128 0x5
 1446 0375 29000000 		.4byte	0x29
 1447 0379 16       		.uleb128 0x16
 1448 037a 11010000 		.4byte	.LASF39
 1449 037e 05       		.byte	0x5
 1450 037f ED06     		.2byte	0x6ed
 1451 0381 74030000 		.4byte	0x374
 1452 0385 01       		.byte	0x1
 1453 0386 01       		.byte	0x1
 1454 0387 00       		.byte	0x0
 1455              		.section	.debug_abbrev
 1456 0000 01       		.uleb128 0x1
 1457 0001 11       		.uleb128 0x11
 1458 0002 01       		.byte	0x1
 1459 0003 25       		.uleb128 0x25
 1460 0004 0E       		.uleb128 0xe
 1461 0005 13       		.uleb128 0x13
 1462 0006 0B       		.uleb128 0xb
 1463 0007 03       		.uleb128 0x3
 1464 0008 0E       		.uleb128 0xe
 1465 0009 1B       		.uleb128 0x1b
 1466 000a 0E       		.uleb128 0xe
 1467 000b 11       		.uleb128 0x11
 1468 000c 01       		.uleb128 0x1
 1469 000d 52       		.uleb128 0x52
 1470 000e 01       		.uleb128 0x1
 1471 000f 55       		.uleb128 0x55
 1472 0010 06       		.uleb128 0x6
 1473 0011 10       		.uleb128 0x10
 1474 0012 06       		.uleb128 0x6
 1475 0013 00       		.byte	0x0
 1476 0014 00       		.byte	0x0
ARM GAS  /tmp/ccwdVvJh.s 			page 27


 1477 0015 02       		.uleb128 0x2
 1478 0016 24       		.uleb128 0x24
 1479 0017 00       		.byte	0x0
 1480 0018 0B       		.uleb128 0xb
 1481 0019 0B       		.uleb128 0xb
 1482 001a 3E       		.uleb128 0x3e
 1483 001b 0B       		.uleb128 0xb
 1484 001c 03       		.uleb128 0x3
 1485 001d 08       		.uleb128 0x8
 1486 001e 00       		.byte	0x0
 1487 001f 00       		.byte	0x0
 1488 0020 03       		.uleb128 0x3
 1489 0021 24       		.uleb128 0x24
 1490 0022 00       		.byte	0x0
 1491 0023 0B       		.uleb128 0xb
 1492 0024 0B       		.uleb128 0xb
 1493 0025 3E       		.uleb128 0x3e
 1494 0026 0B       		.uleb128 0xb
 1495 0027 03       		.uleb128 0x3
 1496 0028 0E       		.uleb128 0xe
 1497 0029 00       		.byte	0x0
 1498 002a 00       		.byte	0x0
 1499 002b 04       		.uleb128 0x4
 1500 002c 16       		.uleb128 0x16
 1501 002d 00       		.byte	0x0
 1502 002e 03       		.uleb128 0x3
 1503 002f 0E       		.uleb128 0xe
 1504 0030 3A       		.uleb128 0x3a
 1505 0031 0B       		.uleb128 0xb
 1506 0032 3B       		.uleb128 0x3b
 1507 0033 0B       		.uleb128 0xb
 1508 0034 49       		.uleb128 0x49
 1509 0035 13       		.uleb128 0x13
 1510 0036 00       		.byte	0x0
 1511 0037 00       		.byte	0x0
 1512 0038 05       		.uleb128 0x5
 1513 0039 35       		.uleb128 0x35
 1514 003a 00       		.byte	0x0
 1515 003b 49       		.uleb128 0x49
 1516 003c 13       		.uleb128 0x13
 1517 003d 00       		.byte	0x0
 1518 003e 00       		.byte	0x0
 1519 003f 06       		.uleb128 0x6
 1520 0040 13       		.uleb128 0x13
 1521 0041 01       		.byte	0x1
 1522 0042 0B       		.uleb128 0xb
 1523 0043 0B       		.uleb128 0xb
 1524 0044 3A       		.uleb128 0x3a
 1525 0045 0B       		.uleb128 0xb
 1526 0046 3B       		.uleb128 0x3b
 1527 0047 05       		.uleb128 0x5
 1528 0048 01       		.uleb128 0x1
 1529 0049 13       		.uleb128 0x13
 1530 004a 00       		.byte	0x0
 1531 004b 00       		.byte	0x0
 1532 004c 07       		.uleb128 0x7
 1533 004d 0D       		.uleb128 0xd
ARM GAS  /tmp/ccwdVvJh.s 			page 28


 1534 004e 00       		.byte	0x0
 1535 004f 03       		.uleb128 0x3
 1536 0050 08       		.uleb128 0x8
 1537 0051 3A       		.uleb128 0x3a
 1538 0052 0B       		.uleb128 0xb
 1539 0053 3B       		.uleb128 0x3b
 1540 0054 05       		.uleb128 0x5
 1541 0055 49       		.uleb128 0x49
 1542 0056 13       		.uleb128 0x13
 1543 0057 38       		.uleb128 0x38
 1544 0058 0A       		.uleb128 0xa
 1545 0059 00       		.byte	0x0
 1546 005a 00       		.byte	0x0
 1547 005b 08       		.uleb128 0x8
 1548 005c 0D       		.uleb128 0xd
 1549 005d 00       		.byte	0x0
 1550 005e 03       		.uleb128 0x3
 1551 005f 0E       		.uleb128 0xe
 1552 0060 3A       		.uleb128 0x3a
 1553 0061 0B       		.uleb128 0xb
 1554 0062 3B       		.uleb128 0x3b
 1555 0063 05       		.uleb128 0x5
 1556 0064 49       		.uleb128 0x49
 1557 0065 13       		.uleb128 0x13
 1558 0066 38       		.uleb128 0x38
 1559 0067 0A       		.uleb128 0xa
 1560 0068 00       		.byte	0x0
 1561 0069 00       		.byte	0x0
 1562 006a 09       		.uleb128 0x9
 1563 006b 16       		.uleb128 0x16
 1564 006c 00       		.byte	0x0
 1565 006d 03       		.uleb128 0x3
 1566 006e 0E       		.uleb128 0xe
 1567 006f 3A       		.uleb128 0x3a
 1568 0070 0B       		.uleb128 0xb
 1569 0071 3B       		.uleb128 0x3b
 1570 0072 05       		.uleb128 0x5
 1571 0073 49       		.uleb128 0x49
 1572 0074 13       		.uleb128 0x13
 1573 0075 00       		.byte	0x0
 1574 0076 00       		.byte	0x0
 1575 0077 0A       		.uleb128 0xa
 1576 0078 13       		.uleb128 0x13
 1577 0079 01       		.byte	0x1
 1578 007a 0B       		.uleb128 0xb
 1579 007b 0B       		.uleb128 0xb
 1580 007c 3A       		.uleb128 0x3a
 1581 007d 0B       		.uleb128 0xb
 1582 007e 3B       		.uleb128 0x3b
 1583 007f 0B       		.uleb128 0xb
 1584 0080 01       		.uleb128 0x1
 1585 0081 13       		.uleb128 0x13
 1586 0082 00       		.byte	0x0
 1587 0083 00       		.byte	0x0
 1588 0084 0B       		.uleb128 0xb
 1589 0085 0D       		.uleb128 0xd
 1590 0086 00       		.byte	0x0
ARM GAS  /tmp/ccwdVvJh.s 			page 29


 1591 0087 03       		.uleb128 0x3
 1592 0088 08       		.uleb128 0x8
 1593 0089 3A       		.uleb128 0x3a
 1594 008a 0B       		.uleb128 0xb
 1595 008b 3B       		.uleb128 0x3b
 1596 008c 0B       		.uleb128 0xb
 1597 008d 49       		.uleb128 0x49
 1598 008e 13       		.uleb128 0x13
 1599 008f 38       		.uleb128 0x38
 1600 0090 0A       		.uleb128 0xa
 1601 0091 00       		.byte	0x0
 1602 0092 00       		.byte	0x0
 1603 0093 0C       		.uleb128 0xc
 1604 0094 0D       		.uleb128 0xd
 1605 0095 00       		.byte	0x0
 1606 0096 03       		.uleb128 0x3
 1607 0097 0E       		.uleb128 0xe
 1608 0098 3A       		.uleb128 0x3a
 1609 0099 0B       		.uleb128 0xb
 1610 009a 3B       		.uleb128 0x3b
 1611 009b 0B       		.uleb128 0xb
 1612 009c 49       		.uleb128 0x49
 1613 009d 13       		.uleb128 0x13
 1614 009e 38       		.uleb128 0x38
 1615 009f 0A       		.uleb128 0xa
 1616 00a0 00       		.byte	0x0
 1617 00a1 00       		.byte	0x0
 1618 00a2 0D       		.uleb128 0xd
 1619 00a3 0F       		.uleb128 0xf
 1620 00a4 00       		.byte	0x0
 1621 00a5 0B       		.uleb128 0xb
 1622 00a6 0B       		.uleb128 0xb
 1623 00a7 49       		.uleb128 0x49
 1624 00a8 13       		.uleb128 0x13
 1625 00a9 00       		.byte	0x0
 1626 00aa 00       		.byte	0x0
 1627 00ab 0E       		.uleb128 0xe
 1628 00ac 2E       		.uleb128 0x2e
 1629 00ad 01       		.byte	0x1
 1630 00ae 3F       		.uleb128 0x3f
 1631 00af 0C       		.uleb128 0xc
 1632 00b0 03       		.uleb128 0x3
 1633 00b1 0E       		.uleb128 0xe
 1634 00b2 3A       		.uleb128 0x3a
 1635 00b3 0B       		.uleb128 0xb
 1636 00b4 3B       		.uleb128 0x3b
 1637 00b5 0B       		.uleb128 0xb
 1638 00b6 27       		.uleb128 0x27
 1639 00b7 0C       		.uleb128 0xc
 1640 00b8 11       		.uleb128 0x11
 1641 00b9 01       		.uleb128 0x1
 1642 00ba 12       		.uleb128 0x12
 1643 00bb 01       		.uleb128 0x1
 1644 00bc 40       		.uleb128 0x40
 1645 00bd 06       		.uleb128 0x6
 1646 00be 01       		.uleb128 0x1
 1647 00bf 13       		.uleb128 0x13
ARM GAS  /tmp/ccwdVvJh.s 			page 30


 1648 00c0 00       		.byte	0x0
 1649 00c1 00       		.byte	0x0
 1650 00c2 0F       		.uleb128 0xf
 1651 00c3 05       		.uleb128 0x5
 1652 00c4 00       		.byte	0x0
 1653 00c5 03       		.uleb128 0x3
 1654 00c6 0E       		.uleb128 0xe
 1655 00c7 3A       		.uleb128 0x3a
 1656 00c8 0B       		.uleb128 0xb
 1657 00c9 3B       		.uleb128 0x3b
 1658 00ca 0B       		.uleb128 0xb
 1659 00cb 49       		.uleb128 0x49
 1660 00cc 13       		.uleb128 0x13
 1661 00cd 02       		.uleb128 0x2
 1662 00ce 0A       		.uleb128 0xa
 1663 00cf 00       		.byte	0x0
 1664 00d0 00       		.byte	0x0
 1665 00d1 10       		.uleb128 0x10
 1666 00d2 26       		.uleb128 0x26
 1667 00d3 00       		.byte	0x0
 1668 00d4 49       		.uleb128 0x49
 1669 00d5 13       		.uleb128 0x13
 1670 00d6 00       		.byte	0x0
 1671 00d7 00       		.byte	0x0
 1672 00d8 11       		.uleb128 0x11
 1673 00d9 05       		.uleb128 0x5
 1674 00da 00       		.byte	0x0
 1675 00db 03       		.uleb128 0x3
 1676 00dc 0E       		.uleb128 0xe
 1677 00dd 3A       		.uleb128 0x3a
 1678 00de 0B       		.uleb128 0xb
 1679 00df 3B       		.uleb128 0x3b
 1680 00e0 0B       		.uleb128 0xb
 1681 00e1 49       		.uleb128 0x49
 1682 00e2 13       		.uleb128 0x13
 1683 00e3 02       		.uleb128 0x2
 1684 00e4 06       		.uleb128 0x6
 1685 00e5 00       		.byte	0x0
 1686 00e6 00       		.byte	0x0
 1687 00e7 12       		.uleb128 0x12
 1688 00e8 34       		.uleb128 0x34
 1689 00e9 00       		.byte	0x0
 1690 00ea 03       		.uleb128 0x3
 1691 00eb 0E       		.uleb128 0xe
 1692 00ec 3A       		.uleb128 0x3a
 1693 00ed 0B       		.uleb128 0xb
 1694 00ee 3B       		.uleb128 0x3b
 1695 00ef 0B       		.uleb128 0xb
 1696 00f0 49       		.uleb128 0x49
 1697 00f1 13       		.uleb128 0x13
 1698 00f2 02       		.uleb128 0x2
 1699 00f3 0A       		.uleb128 0xa
 1700 00f4 00       		.byte	0x0
 1701 00f5 00       		.byte	0x0
 1702 00f6 13       		.uleb128 0x13
 1703 00f7 34       		.uleb128 0x34
 1704 00f8 00       		.byte	0x0
ARM GAS  /tmp/ccwdVvJh.s 			page 31


 1705 00f9 03       		.uleb128 0x3
 1706 00fa 08       		.uleb128 0x8
 1707 00fb 3A       		.uleb128 0x3a
 1708 00fc 0B       		.uleb128 0xb
 1709 00fd 3B       		.uleb128 0x3b
 1710 00fe 0B       		.uleb128 0xb
 1711 00ff 49       		.uleb128 0x49
 1712 0100 13       		.uleb128 0x13
 1713 0101 02       		.uleb128 0x2
 1714 0102 06       		.uleb128 0x6
 1715 0103 00       		.byte	0x0
 1716 0104 00       		.byte	0x0
 1717 0105 14       		.uleb128 0x14
 1718 0106 01       		.uleb128 0x1
 1719 0107 01       		.byte	0x1
 1720 0108 49       		.uleb128 0x49
 1721 0109 13       		.uleb128 0x13
 1722 010a 01       		.uleb128 0x1
 1723 010b 13       		.uleb128 0x13
 1724 010c 00       		.byte	0x0
 1725 010d 00       		.byte	0x0
 1726 010e 15       		.uleb128 0x15
 1727 010f 21       		.uleb128 0x21
 1728 0110 00       		.byte	0x0
 1729 0111 49       		.uleb128 0x49
 1730 0112 13       		.uleb128 0x13
 1731 0113 2F       		.uleb128 0x2f
 1732 0114 0B       		.uleb128 0xb
 1733 0115 00       		.byte	0x0
 1734 0116 00       		.byte	0x0
 1735 0117 16       		.uleb128 0x16
 1736 0118 34       		.uleb128 0x34
 1737 0119 00       		.byte	0x0
 1738 011a 03       		.uleb128 0x3
 1739 011b 0E       		.uleb128 0xe
 1740 011c 3A       		.uleb128 0x3a
 1741 011d 0B       		.uleb128 0xb
 1742 011e 3B       		.uleb128 0x3b
 1743 011f 05       		.uleb128 0x5
 1744 0120 49       		.uleb128 0x49
 1745 0121 13       		.uleb128 0x13
 1746 0122 3F       		.uleb128 0x3f
 1747 0123 0C       		.uleb128 0xc
 1748 0124 3C       		.uleb128 0x3c
 1749 0125 0C       		.uleb128 0xc
 1750 0126 00       		.byte	0x0
 1751 0127 00       		.byte	0x0
 1752 0128 00       		.byte	0x0
 1753              		.section	.debug_pubnames,"",%progbits
 1754 0000 3A000000 		.4byte	0x3a
 1755 0004 0200     		.2byte	0x2
 1756 0006 00000000 		.4byte	.Ldebug_info0
 1757 000a 88030000 		.4byte	0x388
 1758 000e 73020000 		.4byte	0x273
 1759 0012 5F70616C 		.ascii	"_pal_lld_init\000"
 1759      5F6C6C64 
 1759      5F696E69 
ARM GAS  /tmp/ccwdVvJh.s 			page 32


 1759      7400
 1760 0020 A5020000 		.4byte	0x2a5
 1761 0024 5F70616C 		.ascii	"_pal_lld_setgroupmode\000"
 1761      5F6C6C64 
 1761      5F736574 
 1761      67726F75 
 1761      706D6F64 
 1762 003a 00000000 		.4byte	0x0
 1763              		.section	.debug_pubtypes,"",%progbits
 1764 0000 9E000000 		.4byte	0x9e
 1765 0004 0200     		.2byte	0x2
 1766 0006 00000000 		.4byte	.Ldebug_info0
 1767 000a 88030000 		.4byte	0x388
 1768 000e 3E000000 		.4byte	0x3e
 1769 0012 75696E74 		.ascii	"uint8_t\000"
 1769      385F7400 
 1770 001a 65000000 		.4byte	0x65
 1771 001e 75696E74 		.ascii	"uint32_t\000"
 1771      33325F74 
 1771      00
 1772 0027 85000000 		.4byte	0x85
 1773 002b 75696E74 		.ascii	"uint_fast8_t\000"
 1773      5F666173 
 1773      74385F74 
 1773      00
 1774 0038 08010000 		.4byte	0x108
 1775 003c 4750494F 		.ascii	"GPIO_TypeDef\000"
 1775      5F547970 
 1775      65446566 
 1775      00
 1776 0049 B3010000 		.4byte	0x1b3
 1777 004d 5243435F 		.ascii	"RCC_TypeDef\000"
 1777      54797065 
 1777      44656600 
 1778 0059 F2010000 		.4byte	0x1f2
 1779 005d 73746D33 		.ascii	"stm32_gpio_setup_t\000"
 1779      325F6770 
 1779      696F5F73 
 1779      65747570 
 1779      5F7400
 1780 0070 4C020000 		.4byte	0x24c
 1781 0074 50414C43 		.ascii	"PALConfig\000"
 1781      6F6E6669 
 1781      6700
 1782 007e 57020000 		.4byte	0x257
 1783 0082 696F706F 		.ascii	"ioportmask_t\000"
 1783      72746D61 
 1783      736B5F74 
 1783      00
 1784 008f 62020000 		.4byte	0x262
 1785 0093 696F706F 		.ascii	"ioportid_t\000"
 1785      72746964 
 1785      5F7400
 1786 009e 00000000 		.4byte	0x0
 1787              		.section	.debug_aranges,"",%progbits
 1788 0000 24000000 		.4byte	0x24
 1789 0004 0200     		.2byte	0x2
ARM GAS  /tmp/ccwdVvJh.s 			page 33


 1790 0006 00000000 		.4byte	.Ldebug_info0
 1791 000a 04       		.byte	0x4
 1792 000b 00       		.byte	0x0
 1793 000c 0000     		.2byte	0x0
 1794 000e 0000     		.2byte	0x0
 1795 0010 00000000 		.4byte	.LFB36
 1796 0014 8E000000 		.4byte	.LFE36-.LFB36
 1797 0018 00000000 		.4byte	.LFB37
 1798 001c 44010000 		.4byte	.LFE37-.LFB37
 1799 0020 00000000 		.4byte	0x0
 1800 0024 00000000 		.4byte	0x0
 1801              		.section	.debug_ranges,"",%progbits
 1802              	.Ldebug_ranges0:
 1803 0000 00000000 		.4byte	.LFB36
 1804 0004 8E000000 		.4byte	.LFE36
 1805 0008 00000000 		.4byte	.LFB37
 1806 000c 44010000 		.4byte	.LFE37
 1807 0010 00000000 		.4byte	0x0
 1808 0014 00000000 		.4byte	0x0
 1809              		.section	.debug_str,"MS",%progbits,1
 1810              	.LASF9:
 1811 0000 6C6F6E67 		.ascii	"long long int\000"
 1811      206C6F6E 
 1811      6720696E 
 1811      7400
 1812              	.LASF21:
 1813 000e 42444352 		.ascii	"BDCR\000"
 1813      00
 1814              	.LASF27:
 1815 0013 50444461 		.ascii	"PDData\000"
 1815      746100
 1816              	.LASF32:
 1817 001a 5F70616C 		.ascii	"_pal_lld_init\000"
 1817      5F6C6C64 
 1817      5F696E69 
 1817      7400
 1818              	.LASF41:
 1819 0028 63686962 		.ascii	"chibios/os/hal/platforms/STM32/pal_lld.c\000"
 1819      696F732F 
 1819      6F732F68 
 1819      616C2F70 
 1819      6C617466 
 1820              	.LASF12:
 1821 0051 42535252 		.ascii	"BSRR\000"
 1821      00
 1822              	.LASF18:
 1823 0056 41484245 		.ascii	"AHBENR\000"
 1823      4E5200
 1824              	.LASF0:
 1825 005d 756E7369 		.ascii	"unsigned int\000"
 1825      676E6564 
 1825      20696E74 
 1825      00
 1826              	.LASF30:
 1827 006a 696F706F 		.ascii	"ioportmask_t\000"
 1827      72746D61 
 1827      736B5F74 
ARM GAS  /tmp/ccwdVvJh.s 			page 34


 1827      00
 1828              	.LASF17:
 1829 0077 41504231 		.ascii	"APB1RSTR\000"
 1829      52535452 
 1829      00
 1830              	.LASF28:
 1831 0080 50454461 		.ascii	"PEData\000"
 1831      746100
 1832              	.LASF2:
 1833 0087 756E7369 		.ascii	"unsigned char\000"
 1833      676E6564 
 1833      20636861 
 1833      7200
 1834              	.LASF23:
 1835 0095 73746D33 		.ascii	"stm32_gpio_setup_t\000"
 1835      325F6770 
 1835      696F5F73 
 1835      65747570 
 1835      5F7400
 1836              	.LASF24:
 1837 00a8 50414461 		.ascii	"PAData\000"
 1837      746100
 1838              	.LASF38:
 1839 00af 63666774 		.ascii	"cfgtab\000"
 1839      616200
 1840              	.LASF8:
 1841 00b6 6C6F6E67 		.ascii	"long unsigned int\000"
 1841      20756E73 
 1841      69676E65 
 1841      6420696E 
 1841      7400
 1842              	.LASF4:
 1843 00c8 73686F72 		.ascii	"short unsigned int\000"
 1843      7420756E 
 1843      7369676E 
 1843      65642069 
 1843      6E7400
 1844              	.LASF42:
 1845 00db 2F686F6D 		.ascii	"/home/dan/github/github-projects/Quad-Rotor/QuadRot"
 1845      652F6461 
 1845      6E2F6769 
 1845      74687562 
 1845      2F676974 
 1846 010e 6F7200   		.ascii	"or\000"
 1847              	.LASF39:
 1848 0111 49544D5F 		.ascii	"ITM_RxBuffer\000"
 1848      52784275 
 1848      66666572 
 1848      00
 1849              	.LASF11:
 1850 011e 75696E74 		.ascii	"uint_fast8_t\000"
 1850      5F666173 
 1850      74385F74 
 1850      00
 1851              	.LASF34:
 1852 012b 636F6E66 		.ascii	"config\000"
 1852      696700
ARM GAS  /tmp/ccwdVvJh.s 			page 35


 1853              	.LASF29:
 1854 0132 50414C43 		.ascii	"PALConfig\000"
 1854      6F6E6669 
 1854      6700
 1855              	.LASF40:
 1856 013c 474E5520 		.ascii	"GNU C 4.5.1\000"
 1856      4320342E 
 1856      352E3100 
 1857              	.LASF20:
 1858 0148 41504231 		.ascii	"APB1ENR\000"
 1858      454E5200 
 1859              	.LASF16:
 1860 0150 41504232 		.ascii	"APB2RSTR\000"
 1860      52535452 
 1860      00
 1861              	.LASF33:
 1862 0159 5F70616C 		.ascii	"_pal_lld_setgroupmode\000"
 1862      5F6C6C64 
 1862      5F736574 
 1862      67726F75 
 1862      706D6F64 
 1863              	.LASF25:
 1864 016f 50424461 		.ascii	"PBData\000"
 1864      746100
 1865              	.LASF10:
 1866 0176 6C6F6E67 		.ascii	"long long unsigned int\000"
 1866      206C6F6E 
 1866      6720756E 
 1866      7369676E 
 1866      65642069 
 1867              	.LASF6:
 1868 018d 75696E74 		.ascii	"uint8_t\000"
 1868      385F7400 
 1869              	.LASF37:
 1870 0195 6D6F6465 		.ascii	"mode\000"
 1870      00
 1871              	.LASF15:
 1872 019a 43464752 		.ascii	"CFGR\000"
 1872      00
 1873              	.LASF19:
 1874 019f 41504232 		.ascii	"APB2ENR\000"
 1874      454E5200 
 1875              	.LASF36:
 1876 01a7 6D61736B 		.ascii	"mask\000"
 1876      00
 1877              	.LASF35:
 1878 01ac 706F7274 		.ascii	"port\000"
 1878      00
 1879              	.LASF3:
 1880 01b1 73686F72 		.ascii	"short int\000"
 1880      7420696E 
 1880      7400
 1881              	.LASF26:
 1882 01bb 50434461 		.ascii	"PCData\000"
 1882      746100
 1883              	.LASF31:
 1884 01c2 696F706F 		.ascii	"ioportid_t\000"
ARM GAS  /tmp/ccwdVvJh.s 			page 36


 1884      72746964 
 1884      5F7400
 1885              	.LASF22:
 1886 01cd 5243435F 		.ascii	"RCC_TypeDef\000"
 1886      54797065 
 1886      44656600 
 1887              	.LASF7:
 1888 01d9 75696E74 		.ascii	"uint32_t\000"
 1888      33325F74 
 1888      00
 1889              	.LASF5:
 1890 01e2 6C6F6E67 		.ascii	"long int\000"
 1890      20696E74 
 1890      00
 1891              	.LASF14:
 1892 01eb 4750494F 		.ascii	"GPIO_TypeDef\000"
 1892      5F547970 
 1892      65446566 
 1892      00
 1893              	.LASF1:
 1894 01f8 7369676E 		.ascii	"signed char\000"
 1894      65642063 
 1894      68617200 
 1895              	.LASF13:
 1896 0204 4C434B52 		.ascii	"LCKR\000"
 1896      00
 1897              		.ident	"GCC: (GNU) 4.5.1"
ARM GAS  /tmp/ccwdVvJh.s 			page 37


DEFINED SYMBOLS
                            *ABS*:0000000000000000 pal_lld.c
     /tmp/ccwdVvJh.s:24     .text._pal_lld_init:0000000000000000 $t
     /tmp/ccwdVvJh.s:30     .text._pal_lld_init:0000000000000000 _pal_lld_init
     /tmp/ccwdVvJh.s:137    .text._pal_lld_setgroupmode:0000000000000000 $t
     /tmp/ccwdVvJh.s:143    .text._pal_lld_setgroupmode:0000000000000000 _pal_lld_setgroupmode
     /tmp/ccwdVvJh.s:469    .rodata.cfgtab.2951:0000000000000000 .LANCHOR0
     /tmp/ccwdVvJh.s:468    .rodata.cfgtab.2951:0000000000000000 $d
     /tmp/ccwdVvJh.s:472    .rodata.cfgtab.2951:0000000000000000 cfgtab.2951
                     .debug_frame:0000000000000010 $d

NO UNDEFINED SYMBOLS
