ARM GAS  /tmp/ccWEGza2.s 			page 1


   1              		.syntax unified
   2              		.cpu cortex-m3
   3              		.fpu softvfp
   4              		.eabi_attribute 20, 1
   5              		.eabi_attribute 21, 1
   6              		.eabi_attribute 23, 3
   7              		.eabi_attribute 24, 1
   8              		.eabi_attribute 25, 1
   9              		.eabi_attribute 26, 1
  10              		.eabi_attribute 30, 2
  11              		.eabi_attribute 18, 4
  12              		.thumb
  13              		.file	"serial_lld.c"
  20 0000 D0020000 		.text
  20      0200F301 
  20      00000201 
  20      FB0E0D00 
  20      01010101 
  21              	.Ltext0:
  22              		.cfi_sections	.debug_frame
  23              		.section	.text.notify1,"ax",%progbits
  24              		.align	2
  25              		.p2align 4,,15
  26              		.thumb
  27              		.thumb_func
  28              		.type	notify1, %function
  29              	notify1:
  30              	.LFB40:
  31              		.file 1 "chibios/os/hal/platforms/STM32/serial_lld.c"
  32              		.loc 1 194 0
  33              		.cfi_startproc
  34              		@ args = 0, pretend = 0, frame = 0
  35              		@ frame_needed = 0, uses_anonymous_args = 0
  36              		@ link register save eliminated.
  37              	.LVL0:
  38              		.loc 1 197 0
  39 0000 4FF46053 		mov	r3, #14336
  40 0004 C4F20103 		movt	r3, 16385
  41 0008 9989     		ldrh	r1, [r3, #12]
  42 000a 88B2     		uxth	r0, r1
  43              	.LVL1:
  44 000c 40F08002 		orr	r2, r0, #128
  45 0010 9A81     		strh	r2, [r3, #12]	@ movhi
  46              		.loc 1 198 0
  47 0012 7047     		bx	lr
  48              		.cfi_endproc
  49              	.LFE40:
  50              		.size	notify1, .-notify1
  51 0014 AFF30080 		.section	.text.VectorD4,"ax",%progbits
  51      AFF30080 
  51      AFF30080 
ARM GAS  /tmp/ccWEGza2.s 			page 2


  52              		.align	2
  53              		.p2align 4,,15
  54              		.global	VectorD4
  55              		.thumb
  56              		.thumb_func
  57              		.type	VectorD4, %function
  58              	VectorD4:
  59              	.LFB41:
  60              		.loc 1 243 0
  61              		.cfi_startproc
  62              		@ args = 0, pretend = 0, frame = 0
  63              		@ frame_needed = 0, uses_anonymous_args = 0
  64              	.LVL2:
  65 0000 2DE9F041 		push	{r4, r5, r6, r7, r8, lr}
  66              	.LCFI0:
  67              		.cfi_def_cfa_offset 24
  68              	.LBB44:
  69              	.LBB45:
  70              		.loc 1 163 0
  71 0004 40F20005 		movw	r5, #:lower16:SD1
  72              		.cfi_offset 14, -4
  73              		.cfi_offset 8, -8
  74              		.cfi_offset 7, -12
  75              		.cfi_offset 6, -16
  76              		.cfi_offset 5, -20
  77              		.cfi_offset 4, -24
  78 0008 C0F20005 		movt	r5, #:upper16:SD1
  79 000c 2E6F     		ldr	r6, [r5, #112]
  80              	.LVL3:
  81              		.loc 1 168 0
  82 000e 40F20F10 		movw	r0, #271
  83              		.loc 1 164 0
  84 0012 B789     		ldrh	r7, [r6, #12]
  85              		.loc 1 165 0
  86 0014 3488     		ldrh	r4, [r6, #0]
  87              		.loc 1 166 0
  88 0016 B6F80480 		ldrh	r8, [r6, #4]
  89              		.loc 1 165 0
  90 001a A4B2     		uxth	r4, r4
  91              		.loc 1 168 0
  92 001c 04EA0003 		and	r3, r4, r0
  93              		.loc 1 164 0
  94 0020 BFB2     		uxth	r7, r7
  95              	.LVL4:
  96              		.loc 1 166 0
  97 0022 1FFA88F8 		uxth	r8, r8
  98              	.LVL5:
  99              		.loc 1 168 0
 100 0026 2BB3     		cbz	r3, .L3
 101              	.LVL6:
 102              	.LBB46:
 103              	.LBB47:
 104              		.loc 1 143 0
 105 0028 14F00801 		ands	r1, r4, #8
 106 002c 18BF     		it	ne
 107 002e 4021     		movne	r1, #64
 108              	.LVL7:
ARM GAS  /tmp/ccWEGza2.s 			page 3


 109              		.loc 1 144 0
 110 0030 14F0010F 		tst	r4, #1
 111              		.loc 1 145 0
 112 0034 18BF     		it	ne
 113 0036 41F01001 		orrne	r1, r1, #16
 114              	.LVL8:
 115              		.loc 1 146 0
 116 003a 14F0020F 		tst	r4, #2
 117              		.loc 1 147 0
 118 003e 18BF     		it	ne
 119 0040 41F02001 		orrne	r1, r1, #32
 120              	.LVL9:
 121              		.loc 1 148 0
 122 0044 14F0040F 		tst	r4, #4
 123              		.loc 1 149 0
 124 0048 18BF     		it	ne
 125 004a 41F08001 		orrne	r1, r1, #128
 126              	.LVL10:
 127              		.loc 1 150 0
 128 004e 14F4807F 		tst	r4, #256
 129              		.loc 1 151 0
 130 0052 18BF     		it	ne
 131 0054 41F48071 		orrne	r1, r1, #256
 132              	.LVL11:
 133              	.LBB48:
 134              		.loc 1 152 0
 135 0058 2023     		movs	r3, #32
 136              	.LVL12:
 137              	@ 152 "chibios/os/hal/platforms/STM32/serial_lld.c" 1
 138 005a 83F31188 		msr     BASEPRI, r3
 139              	@ 0 "" 2
 140              	.LVL13:
 141              		.thumb
 142              	.LBE48:
 143              		.loc 1 153 0
 144 005e AB68     		ldr	r3, [r5, #8]
 145              	.LVL14:
 146 0060 2148     		ldr	r0, .L18
 147 0062 41EA0302 		orr	r2, r1, r3
 148 0066 AA60     		str	r2, [r5, #8]
 149 0068 FFF7FEFF 		bl	chEvtBroadcastI
 150              	.LVL15:
 151              	.LBB49:
 152              		.loc 1 154 0
 153 006c 0023     		movs	r3, #0
 154              	.LVL16:
 155              	@ 154 "chibios/os/hal/platforms/STM32/serial_lld.c" 1
 156 006e 83F31188 		msr     BASEPRI, r3
 157              	@ 0 "" 2
 158              	.LVL17:
 159              		.thumb
 160              	.LBE49:
 161              	.LBE47:
 162              	.LBE46:
 163              		.loc 1 171 0
 164 0072 3380     		strh	r3, [r6, #0]	@ movhi
 165              	.LVL18:
ARM GAS  /tmp/ccWEGza2.s 			page 4


 166              	.L3:
 167              		.loc 1 173 0
 168 0074 14F0200F 		tst	r4, #32
 169 0078 18D1     		bne	.L15
 170              	.LVL19:
 171              	.L9:
 172              		.loc 1 178 0
 173 007a 17F0800F 		tst	r7, #128
 174 007e 02D0     		beq	.L10
 175 0080 14F0800F 		tst	r4, #128
 176 0084 03D1     		bne	.L16
 177              	.LVL20:
 178              	.L10:
 179              	.LBE45:
 180              	.LBE44:
 181              		.loc 1 250 0
 182 0086 BDE8F041 		pop	{r4, r5, r6, r7, r8, lr}
 183              		.loc 1 249 0
 184 008a FFF7FEBF 		b	_port_irq_epilogue
 185              	.LVL21:
 186              	.L16:
 187              	.LBB57:
 188              	.LBB56:
 189              	.LBB50:
 190              	.LBB52:
 191              		.loc 1 180 0
 192 008e 2023     		movs	r3, #32
 193              	.LVL22:
 194              	@ 180 "chibios/os/hal/platforms/STM32/serial_lld.c" 1
 195 0090 83F31188 		msr     BASEPRI, r3
 196              	@ 0 "" 2
 197              	.LVL23:
 198              		.thumb
 199              	.LBE52:
 200              		.loc 1 181 0
 201 0094 1548     		ldr	r0, .L18+4
 202 0096 FFF7FEFF 		bl	chOQGetI
 203              	.LVL24:
 204              		.loc 1 182 0
 205 009a 0028     		cmp	r0, #0
 206              		.loc 1 187 0
 207 009c A4BF     		itt	ge
 208 009e 80B2     		uxthge	r0, r0
 209              	.LVL25:
 210 00a0 B080     		strhge	r0, [r6, #4]	@ movhi
 211              		.loc 1 182 0
 212 00a2 12DB     		blt	.L17
 213              	.L12:
 214              	.LBB51:
 215              		.loc 1 188 0
 216 00a4 0023     		movs	r3, #0
 217              	@ 188 "chibios/os/hal/platforms/STM32/serial_lld.c" 1
 218 00a6 83F31188 		msr     BASEPRI, r3
 219              	@ 0 "" 2
 220              	.LVL26:
 221              		.thumb
 222 00aa ECE7     		b	.L10
ARM GAS  /tmp/ccWEGza2.s 			page 5


 223              	.LVL27:
 224              	.L15:
 225              	.LBE51:
 226              	.LBE50:
 227              	.LBB53:
 228              		.loc 1 174 0
 229 00ac 2023     		movs	r3, #32
 230              	.LVL28:
 231              	@ 174 "chibios/os/hal/platforms/STM32/serial_lld.c" 1
 232 00ae 83F31188 		msr     BASEPRI, r3
 233              	@ 0 "" 2
 234              	.LVL29:
 235              		.thumb
 236              	.LBE53:
 237              		.loc 1 175 0
 238 00b2 40F20000 		movw	r0, #:lower16:SD1
 239 00b6 C0F20000 		movt	r0, #:upper16:SD1
 240 00ba 5FFA88F1 		uxtb	r1, r8
 241 00be FFF7FEFF 		bl	sdIncomingDataI
 242              	.LVL30:
 243              	.LBB54:
 244              		.loc 1 176 0
 245 00c2 0023     		movs	r3, #0
 246              	@ 176 "chibios/os/hal/platforms/STM32/serial_lld.c" 1
 247 00c4 83F31188 		msr     BASEPRI, r3
 248              	@ 0 "" 2
 249              	.LVL31:
 250              		.thumb
 251 00c8 D7E7     		b	.L9
 252              	.LVL32:
 253              	.L17:
 254              	.LBE54:
 255              	.LBB55:
 256              		.loc 1 183 0
 257 00ca A968     		ldr	r1, [r5, #8]
 258 00cc 0648     		ldr	r0, .L18
 259 00ce 41F00802 		orr	r2, r1, #8
 260 00d2 AA60     		str	r2, [r5, #8]
 261 00d4 FFF7FEFF 		bl	chEvtBroadcastI
 262              		.loc 1 184 0
 263 00d8 4FF67F70 		movw	r0, #65407
 264 00dc 07EA000C 		and	ip, r7, r0
 265 00e0 A6F80CC0 		strh	ip, [r6, #12]	@ movhi
 266 00e4 DEE7     		b	.L12
 267              	.L19:
 268 00e6 00BF     		.align	2
 269              	.L18:
 270 00e8 04000000 		.word	SD1+4
 271 00ec 30000000 		.word	SD1+48
 272              	.LBE55:
 273              	.LBE56:
 274              	.LBE57:
 275              		.cfi_endproc
 276              	.LFE41:
 277              		.size	VectorD4, .-VectorD4
 278              		.section	.text.sd_lld_init,"ax",%progbits
 279              		.align	2
ARM GAS  /tmp/ccWEGza2.s 			page 6


 280              		.p2align 4,,15
 281              		.global	sd_lld_init
 282              		.thumb
 283              		.thumb_func
 284              		.type	sd_lld_init, %function
 285              	sd_lld_init:
 286              	.LFB42:
 287              		.loc 1 326 0
 288              		.cfi_startproc
 289              		@ args = 0, pretend = 0, frame = 0
 290              		@ frame_needed = 0, uses_anonymous_args = 0
 291 0000 10B5     		push	{r4, lr}
 292              	.LCFI1:
 293              		.cfi_def_cfa_offset 8
 294              		.loc 1 329 0
 295 0002 40F20004 		movw	r4, #:lower16:SD1
 296              		.cfi_offset 14, -4
 297              		.cfi_offset 4, -8
 298 0006 C0F20004 		movt	r4, #:upper16:SD1
 299 000a 40F20002 		movw	r2, #:lower16:notify1
 300 000e 2046     		mov	r0, r4
 301 0010 0021     		movs	r1, #0
 302 0012 C0F20002 		movt	r2, #:upper16:notify1
 303 0016 FFF7FEFF 		bl	sdObjectInit
 304              		.loc 1 330 0
 305 001a 4FF46053 		mov	r3, #14336
 306 001e C4F20103 		movt	r3, 16385
 307 0022 2367     		str	r3, [r4, #112]
 308              		.loc 1 352 0
 309 0024 10BD     		pop	{r4, pc}
 310              		.cfi_endproc
 311              	.LFE42:
 312              		.size	sd_lld_init, .-sd_lld_init
 313 0026 00BFAFF3 		.section	.text.sd_lld_start,"ax",%progbits
 313      0080AFF3 
 313      0080
 314              		.align	2
 315              		.p2align 4,,15
 316              		.global	sd_lld_start
 317              		.thumb
 318              		.thumb_func
 319              		.type	sd_lld_start, %function
 320              	sd_lld_start:
 321              	.LFB43:
 322              		.loc 1 364 0
 323              		.cfi_startproc
 324              		@ args = 0, pretend = 0, frame = 0
 325              		@ frame_needed = 0, uses_anonymous_args = 0
 326              	.LVL33:
 327 0000 38B5     		push	{r3, r4, r5, lr}
 328              	.LCFI2:
 329              		.cfi_def_cfa_offset 16
 330              		.loc 1 367 0
 331 0002 40F20004 		movw	r4, #:lower16:.LANCHOR0
 332              		.cfi_offset 14, -4
 333              		.cfi_offset 5, -8
 334              		.cfi_offset 4, -12
ARM GAS  /tmp/ccWEGza2.s 			page 7


 335              		.cfi_offset 3, -16
 336              		.loc 1 369 0
 337 0006 037B     		ldrb	r3, [r0, #12]	@ zero_extendqisi2
 338              		.loc 1 367 0
 339 0008 C0F20004 		movt	r4, #:upper16:.LANCHOR0
 340 000c 0029     		cmp	r1, #0
 341 000e 18BF     		it	ne
 342 0010 0C46     		movne	r4, r1
 343              	.LVL34:
 344              		.loc 1 369 0
 345 0012 012B     		cmp	r3, #1
 346              		.loc 1 364 0
 347 0014 0546     		mov	r5, r0
 348              		.loc 1 369 0
 349 0016 22D0     		beq	.L27
 350              	.LVL35:
 351              	.L23:
 352              	.LBB58:
 353              	.LBB59:
 354              		.loc 1 102 0
 355 0018 2268     		ldr	r2, [r4, #0]
 356 001a 4FF4A24C 		mov	ip, #20736
 357 001e C0F2252C 		movt	ip, 549
 358              	.LBE59:
 359              	.LBE58:
 360              		.loc 1 458 0
 361 0022 2B6F     		ldr	r3, [r5, #112]
 362              	.LVL36:
 363              	.LBB61:
 364              	.LBB60:
 365              		.loc 1 102 0
 366 0024 BCFBF2F0 		udiv	r0, ip, r2
 367 0028 81B2     		uxth	r1, r0
 368 002a 1981     		strh	r1, [r3, #8]	@ movhi
 369              		.loc 1 107 0
 370 002c A288     		ldrh	r2, [r4, #4]
 371              		.loc 1 110 0
 372 002e E088     		ldrh	r0, [r4, #6]
 373              		.loc 1 111 0
 374 0030 2189     		ldrh	r1, [r4, #8]
 375              		.loc 1 107 0
 376 0032 42F4045C 		orr	ip, r2, #8448
 377 0036 4CF02C02 		orr	r2, ip, #44
 378              		.loc 1 110 0
 379 003a 40F0400C 		orr	ip, r0, #64
 380 003e 1FFA8CF0 		uxth	r0, ip
 381              		.loc 1 107 0
 382 0042 92B2     		uxth	r2, r2
 383              		.loc 1 111 0
 384 0044 41F00101 		orr	r1, r1, #1
 385              		.loc 1 107 0
 386 0048 9A81     		strh	r2, [r3, #12]	@ movhi
 387              		.loc 1 111 0
 388 004a 1FFA81FC 		uxth	ip, r1
 389              		.loc 1 110 0
 390 004e 1882     		strh	r0, [r3, #16]	@ movhi
 391              		.loc 1 112 0
ARM GAS  /tmp/ccWEGza2.s 			page 8


 392 0050 0020     		movs	r0, #0
 393              		.loc 1 111 0
 394 0052 A3F814C0 		strh	ip, [r3, #20]	@ movhi
 395              		.loc 1 112 0
 396 0056 1880     		strh	r0, [r3, #0]	@ movhi
 397              		.loc 1 113 0
 398 0058 1A88     		ldrh	r2, [r3, #0]
 399              		.loc 1 114 0
 400 005a 9B88     		ldrh	r3, [r3, #4]
 401              	.LBE60:
 402              	.LBE61:
 403              		.loc 1 407 0
 404 005c 38BD     		pop	{r3, r4, r5, pc}
 405              	.LVL37:
 406              	.L27:
 407              		.loc 1 371 0
 408 005e 40F20000 		movw	r0, #:lower16:SD1
 409 0062 C0F20000 		movt	r0, #:upper16:SD1
 410 0066 8542     		cmp	r5, r0
 411 0068 D6D1     		bne	.L23
 412              		.loc 1 372 0
 413 006a 4FF48051 		mov	r1, #4096
 414 006e C4F20201 		movt	r1, 16386
 415 0072 8B69     		ldr	r3, [r1, #24]
 416              		.loc 1 373 0
 417 0074 2520     		movs	r0, #37
 418              		.loc 1 372 0
 419 0076 43F48042 		orr	r2, r3, #16384
 420 007a 8A61     		str	r2, [r1, #24]
 421              		.loc 1 373 0
 422 007c C021     		movs	r1, #192
 423 007e FFF7FEFF 		bl	NVICEnableVector
 424 0082 C9E7     		b	.L23
 425              		.cfi_endproc
 426              	.LFE43:
 427              		.size	sd_lld_start, .-sd_lld_start
 428 0084 AFF30080 		.section	.text.sd_lld_stop,"ax",%progbits
 428      AFF30080 
 428      AFF30080 
 429              		.align	2
 430              		.p2align 4,,15
 431              		.global	sd_lld_stop
 432              		.thumb
 433              		.thumb_func
 434              		.type	sd_lld_stop, %function
 435              	sd_lld_stop:
 436              	.LFB44:
 437              		.loc 1 418 0
 438              		.cfi_startproc
 439              		@ args = 0, pretend = 0, frame = 0
 440              		@ frame_needed = 0, uses_anonymous_args = 0
 441              		@ link register save eliminated.
 442              	.LVL38:
 443              		.loc 1 420 0
 444 0000 037B     		ldrb	r3, [r0, #12]	@ zero_extendqisi2
 445 0002 022B     		cmp	r3, #2
 446 0004 00D0     		beq	.L30
ARM GAS  /tmp/ccWEGza2.s 			page 9


 447              	.L28:
 448 0006 7047     		bx	lr
 449              	.LVL39:
 450              	.L30:
 451              		.loc 1 423 0
 452 0008 40F2000C 		movw	ip, #:lower16:SD1
 453              	.LVL40:
 454              		.loc 1 421 0
 455 000c 026F     		ldr	r2, [r0, #112]
 456              	.LVL41:
 457              		.loc 1 423 0
 458 000e C0F2000C 		movt	ip, #:upper16:SD1
 459              	.LBB62:
 460              	.LBB63:
 461              		.loc 1 125 0
 462 0012 0021     		movs	r1, #0
 463              	.LBE63:
 464              	.LBE62:
 465              		.loc 1 423 0
 466 0014 6045     		cmp	r0, ip
 467              	.LBB65:
 468              	.LBB64:
 469              		.loc 1 125 0
 470 0016 9181     		strh	r1, [r2, #12]	@ movhi
 471              		.loc 1 126 0
 472 0018 1182     		strh	r1, [r2, #16]	@ movhi
 473              		.loc 1 127 0
 474 001a 9182     		strh	r1, [r2, #20]	@ movhi
 475              	.LBE64:
 476              	.LBE65:
 477              		.loc 1 423 0
 478 001c F3D1     		bne	.L28
 479              		.loc 1 424 0
 480 001e 4FF48053 		mov	r3, #4096
 481 0022 C4F20203 		movt	r3, 16386
 482 0026 9A69     		ldr	r2, [r3, #24]
 483              		.loc 1 425 0
 484 0028 2520     		movs	r0, #37
 485              	.LVL42:
 486              		.loc 1 424 0
 487 002a 22F48041 		bic	r1, r2, #16384
 488 002e 9961     		str	r1, [r3, #24]
 489              		.loc 1 458 0
 490              		.loc 1 425 0
 491 0030 FFF7FEBF 		b	NVICDisableVector
 492              		.cfi_endproc
 493              	.LFE44:
 494              		.size	sd_lld_stop, .-sd_lld_stop
 495              		.comm	SD1,116,4
 496 0034 AFF30080 		.section	.rodata.default_config,"a",%progbits
 496      AFF30080 
 496      AFF30080 
 497              		.align	2
 498              		.set	.LANCHOR0,. + 0
 499              		.type	default_config, %object
 500              		.size	default_config, 12
 501              	default_config:
ARM GAS  /tmp/ccWEGza2.s 			page 10


 502 0000 00960000 		.word	38400
 503 0004 0000     		.short	0
 504 0006 0040     		.short	16384
 505 0008 0000     		.short	0
 506 000a 0000     		.space	2
 507              		.text
 508              	.Letext0: