ARM GAS  /tmp/ccWEGza2.s 			page 1


   1              		.syntax unified
   2              		.cpu cortex-m3
   3              		.fpu softvfp
   4              		.eabi_attribute 20, 1
   5              		.eabi_attribute 21, 1
   6              		.eabi_attribute 23, 3
   7              		.eabi_attribute 24, 1
   8              		.eabi_attribute 25, 1
   9              		.eabi_attribute 26, 1
  10              		.eabi_attribute 30, 2
  11              		.eabi_attribute 18, 4
  12              		.thumb
  13              		.file	"serial_lld.c"
  14              		.section	.debug_abbrev,"",%progbits
  15              	.Ldebug_abbrev0:
  16              		.section	.debug_info,"",%progbits
  17              	.Ldebug_info0:
  18              		.section	.debug_line,"",%progbits
  19              	.Ldebug_line0:
  20 0000 D0020000 		.text
  20      0200F301 
  20      00000201 
  20      FB0E0D00 
  20      01010101 
  21              	.Ltext0:
  22              		.cfi_sections	.debug_frame
  23              		.section	.text.notify1,"ax",%progbits
  24              		.align	2
  25              		.p2align 4,,15
  26              		.thumb
  27              		.thumb_func
  28              		.type	notify1, %function
  29              	notify1:
  30              	.LFB40:
  31              		.file 1 "chibios/os/hal/platforms/STM32/serial_lld.c"
  32              		.loc 1 194 0
  33              		.cfi_startproc
  34              		@ args = 0, pretend = 0, frame = 0
  35              		@ frame_needed = 0, uses_anonymous_args = 0
  36              		@ link register save eliminated.
  37              	.LVL0:
  38              		.loc 1 197 0
  39 0000 4FF46053 		mov	r3, #14336
  40 0004 C4F20103 		movt	r3, 16385
  41 0008 9989     		ldrh	r1, [r3, #12]
  42 000a 88B2     		uxth	r0, r1
  43              	.LVL1:
  44 000c 40F08002 		orr	r2, r0, #128
  45 0010 9A81     		strh	r2, [r3, #12]	@ movhi
  46              		.loc 1 198 0
  47 0012 7047     		bx	lr
  48              		.cfi_endproc
  49              	.LFE40:
  50              		.size	notify1, .-notify1
  51 0014 AFF30080 		.section	.text.VectorD4,"ax",%progbits
  51      AFF30080 
  51      AFF30080 
ARM GAS  /tmp/ccWEGza2.s 			page 2


  52              		.align	2
  53              		.p2align 4,,15
  54              		.global	VectorD4
  55              		.thumb
  56              		.thumb_func
  57              		.type	VectorD4, %function
  58              	VectorD4:
  59              	.LFB41:
  60              		.loc 1 243 0
  61              		.cfi_startproc
  62              		@ args = 0, pretend = 0, frame = 0
  63              		@ frame_needed = 0, uses_anonymous_args = 0
  64              	.LVL2:
  65 0000 2DE9F041 		push	{r4, r5, r6, r7, r8, lr}
  66              	.LCFI0:
  67              		.cfi_def_cfa_offset 24
  68              	.LBB44:
  69              	.LBB45:
  70              		.loc 1 163 0
  71 0004 40F20005 		movw	r5, #:lower16:SD1
  72              		.cfi_offset 14, -4
  73              		.cfi_offset 8, -8
  74              		.cfi_offset 7, -12
  75              		.cfi_offset 6, -16
  76              		.cfi_offset 5, -20
  77              		.cfi_offset 4, -24
  78 0008 C0F20005 		movt	r5, #:upper16:SD1
  79 000c 2E6F     		ldr	r6, [r5, #112]
  80              	.LVL3:
  81              		.loc 1 168 0
  82 000e 40F20F10 		movw	r0, #271
  83              		.loc 1 164 0
  84 0012 B789     		ldrh	r7, [r6, #12]
  85              		.loc 1 165 0
  86 0014 3488     		ldrh	r4, [r6, #0]
  87              		.loc 1 166 0
  88 0016 B6F80480 		ldrh	r8, [r6, #4]
  89              		.loc 1 165 0
  90 001a A4B2     		uxth	r4, r4
  91              		.loc 1 168 0
  92 001c 04EA0003 		and	r3, r4, r0
  93              		.loc 1 164 0
  94 0020 BFB2     		uxth	r7, r7
  95              	.LVL4:
  96              		.loc 1 166 0
  97 0022 1FFA88F8 		uxth	r8, r8
  98              	.LVL5:
  99              		.loc 1 168 0
 100 0026 2BB3     		cbz	r3, .L3
 101              	.LVL6:
 102              	.LBB46:
 103              	.LBB47:
 104              		.loc 1 143 0
 105 0028 14F00801 		ands	r1, r4, #8
 106 002c 18BF     		it	ne
 107 002e 4021     		movne	r1, #64
 108              	.LVL7:
ARM GAS  /tmp/ccWEGza2.s 			page 3


 109              		.loc 1 144 0
 110 0030 14F0010F 		tst	r4, #1
 111              		.loc 1 145 0
 112 0034 18BF     		it	ne
 113 0036 41F01001 		orrne	r1, r1, #16
 114              	.LVL8:
 115              		.loc 1 146 0
 116 003a 14F0020F 		tst	r4, #2
 117              		.loc 1 147 0
 118 003e 18BF     		it	ne
 119 0040 41F02001 		orrne	r1, r1, #32
 120              	.LVL9:
 121              		.loc 1 148 0
 122 0044 14F0040F 		tst	r4, #4
 123              		.loc 1 149 0
 124 0048 18BF     		it	ne
 125 004a 41F08001 		orrne	r1, r1, #128
 126              	.LVL10:
 127              		.loc 1 150 0
 128 004e 14F4807F 		tst	r4, #256
 129              		.loc 1 151 0
 130 0052 18BF     		it	ne
 131 0054 41F48071 		orrne	r1, r1, #256
 132              	.LVL11:
 133              	.LBB48:
 134              		.loc 1 152 0
 135 0058 2023     		movs	r3, #32
 136              	.LVL12:
 137              	@ 152 "chibios/os/hal/platforms/STM32/serial_lld.c" 1
 138 005a 83F31188 		msr     BASEPRI, r3
 139              	@ 0 "" 2
 140              	.LVL13:
 141              		.thumb
 142              	.LBE48:
 143              		.loc 1 153 0
 144 005e AB68     		ldr	r3, [r5, #8]
 145              	.LVL14:
 146 0060 2148     		ldr	r0, .L18
 147 0062 41EA0302 		orr	r2, r1, r3
 148 0066 AA60     		str	r2, [r5, #8]
 149 0068 FFF7FEFF 		bl	chEvtBroadcastI
 150              	.LVL15:
 151              	.LBB49:
 152              		.loc 1 154 0
 153 006c 0023     		movs	r3, #0
 154              	.LVL16:
 155              	@ 154 "chibios/os/hal/platforms/STM32/serial_lld.c" 1
 156 006e 83F31188 		msr     BASEPRI, r3
 157              	@ 0 "" 2
 158              	.LVL17:
 159              		.thumb
 160              	.LBE49:
 161              	.LBE47:
 162              	.LBE46:
 163              		.loc 1 171 0
 164 0072 3380     		strh	r3, [r6, #0]	@ movhi
 165              	.LVL18:
ARM GAS  /tmp/ccWEGza2.s 			page 4


 166              	.L3:
 167              		.loc 1 173 0
 168 0074 14F0200F 		tst	r4, #32
 169 0078 18D1     		bne	.L15
 170              	.LVL19:
 171              	.L9:
 172              		.loc 1 178 0
 173 007a 17F0800F 		tst	r7, #128
 174 007e 02D0     		beq	.L10
 175 0080 14F0800F 		tst	r4, #128
 176 0084 03D1     		bne	.L16
 177              	.LVL20:
 178              	.L10:
 179              	.LBE45:
 180              	.LBE44:
 181              		.loc 1 250 0
 182 0086 BDE8F041 		pop	{r4, r5, r6, r7, r8, lr}
 183              		.loc 1 249 0
 184 008a FFF7FEBF 		b	_port_irq_epilogue
 185              	.LVL21:
 186              	.L16:
 187              	.LBB57:
 188              	.LBB56:
 189              	.LBB50:
 190              	.LBB52:
 191              		.loc 1 180 0
 192 008e 2023     		movs	r3, #32
 193              	.LVL22:
 194              	@ 180 "chibios/os/hal/platforms/STM32/serial_lld.c" 1
 195 0090 83F31188 		msr     BASEPRI, r3
 196              	@ 0 "" 2
 197              	.LVL23:
 198              		.thumb
 199              	.LBE52:
 200              		.loc 1 181 0
 201 0094 1548     		ldr	r0, .L18+4
 202 0096 FFF7FEFF 		bl	chOQGetI
 203              	.LVL24:
 204              		.loc 1 182 0
 205 009a 0028     		cmp	r0, #0
 206              		.loc 1 187 0
 207 009c A4BF     		itt	ge
 208 009e 80B2     		uxthge	r0, r0
 209              	.LVL25:
 210 00a0 B080     		strhge	r0, [r6, #4]	@ movhi
 211              		.loc 1 182 0
 212 00a2 12DB     		blt	.L17
 213              	.L12:
 214              	.LBB51:
 215              		.loc 1 188 0
 216 00a4 0023     		movs	r3, #0
 217              	@ 188 "chibios/os/hal/platforms/STM32/serial_lld.c" 1
 218 00a6 83F31188 		msr     BASEPRI, r3
 219              	@ 0 "" 2
 220              	.LVL26:
 221              		.thumb
 222 00aa ECE7     		b	.L10
ARM GAS  /tmp/ccWEGza2.s 			page 5


 223              	.LVL27:
 224              	.L15:
 225              	.LBE51:
 226              	.LBE50:
 227              	.LBB53:
 228              		.loc 1 174 0
 229 00ac 2023     		movs	r3, #32
 230              	.LVL28:
 231              	@ 174 "chibios/os/hal/platforms/STM32/serial_lld.c" 1
 232 00ae 83F31188 		msr     BASEPRI, r3
 233              	@ 0 "" 2
 234              	.LVL29:
 235              		.thumb
 236              	.LBE53:
 237              		.loc 1 175 0
 238 00b2 40F20000 		movw	r0, #:lower16:SD1
 239 00b6 C0F20000 		movt	r0, #:upper16:SD1
 240 00ba 5FFA88F1 		uxtb	r1, r8
 241 00be FFF7FEFF 		bl	sdIncomingDataI
 242              	.LVL30:
 243              	.LBB54:
 244              		.loc 1 176 0
 245 00c2 0023     		movs	r3, #0
 246              	@ 176 "chibios/os/hal/platforms/STM32/serial_lld.c" 1
 247 00c4 83F31188 		msr     BASEPRI, r3
 248              	@ 0 "" 2
 249              	.LVL31:
 250              		.thumb
 251 00c8 D7E7     		b	.L9
 252              	.LVL32:
 253              	.L17:
 254              	.LBE54:
 255              	.LBB55:
 256              		.loc 1 183 0
 257 00ca A968     		ldr	r1, [r5, #8]
 258 00cc 0648     		ldr	r0, .L18
 259 00ce 41F00802 		orr	r2, r1, #8
 260 00d2 AA60     		str	r2, [r5, #8]
 261 00d4 FFF7FEFF 		bl	chEvtBroadcastI
 262              		.loc 1 184 0
 263 00d8 4FF67F70 		movw	r0, #65407
 264 00dc 07EA000C 		and	ip, r7, r0
 265 00e0 A6F80CC0 		strh	ip, [r6, #12]	@ movhi
 266 00e4 DEE7     		b	.L12
 267              	.L19:
 268 00e6 00BF     		.align	2
 269              	.L18:
 270 00e8 04000000 		.word	SD1+4
 271 00ec 30000000 		.word	SD1+48
 272              	.LBE55:
 273              	.LBE56:
 274              	.LBE57:
 275              		.cfi_endproc
 276              	.LFE41:
 277              		.size	VectorD4, .-VectorD4
 278              		.section	.text.sd_lld_init,"ax",%progbits
 279              		.align	2
ARM GAS  /tmp/ccWEGza2.s 			page 6


 280              		.p2align 4,,15
 281              		.global	sd_lld_init
 282              		.thumb
 283              		.thumb_func
 284              		.type	sd_lld_init, %function
 285              	sd_lld_init:
 286              	.LFB42:
 287              		.loc 1 326 0
 288              		.cfi_startproc
 289              		@ args = 0, pretend = 0, frame = 0
 290              		@ frame_needed = 0, uses_anonymous_args = 0
 291 0000 10B5     		push	{r4, lr}
 292              	.LCFI1:
 293              		.cfi_def_cfa_offset 8
 294              		.loc 1 329 0
 295 0002 40F20004 		movw	r4, #:lower16:SD1
 296              		.cfi_offset 14, -4
 297              		.cfi_offset 4, -8
 298 0006 C0F20004 		movt	r4, #:upper16:SD1
 299 000a 40F20002 		movw	r2, #:lower16:notify1
 300 000e 2046     		mov	r0, r4
 301 0010 0021     		movs	r1, #0
 302 0012 C0F20002 		movt	r2, #:upper16:notify1
 303 0016 FFF7FEFF 		bl	sdObjectInit
 304              		.loc 1 330 0
 305 001a 4FF46053 		mov	r3, #14336
 306 001e C4F20103 		movt	r3, 16385
 307 0022 2367     		str	r3, [r4, #112]
 308              		.loc 1 352 0
 309 0024 10BD     		pop	{r4, pc}
 310              		.cfi_endproc
 311              	.LFE42:
 312              		.size	sd_lld_init, .-sd_lld_init
 313 0026 00BFAFF3 		.section	.text.sd_lld_start,"ax",%progbits
 313      0080AFF3 
 313      0080
 314              		.align	2
 315              		.p2align 4,,15
 316              		.global	sd_lld_start
 317              		.thumb
 318              		.thumb_func
 319              		.type	sd_lld_start, %function
 320              	sd_lld_start:
 321              	.LFB43:
 322              		.loc 1 364 0
 323              		.cfi_startproc
 324              		@ args = 0, pretend = 0, frame = 0
 325              		@ frame_needed = 0, uses_anonymous_args = 0
 326              	.LVL33:
 327 0000 38B5     		push	{r3, r4, r5, lr}
 328              	.LCFI2:
 329              		.cfi_def_cfa_offset 16
 330              		.loc 1 367 0
 331 0002 40F20004 		movw	r4, #:lower16:.LANCHOR0
 332              		.cfi_offset 14, -4
 333              		.cfi_offset 5, -8
 334              		.cfi_offset 4, -12
ARM GAS  /tmp/ccWEGza2.s 			page 7


 335              		.cfi_offset 3, -16
 336              		.loc 1 369 0
 337 0006 037B     		ldrb	r3, [r0, #12]	@ zero_extendqisi2
 338              		.loc 1 367 0
 339 0008 C0F20004 		movt	r4, #:upper16:.LANCHOR0
 340 000c 0029     		cmp	r1, #0
 341 000e 18BF     		it	ne
 342 0010 0C46     		movne	r4, r1
 343              	.LVL34:
 344              		.loc 1 369 0
 345 0012 012B     		cmp	r3, #1
 346              		.loc 1 364 0
 347 0014 0546     		mov	r5, r0
 348              		.loc 1 369 0
 349 0016 22D0     		beq	.L27
 350              	.LVL35:
 351              	.L23:
 352              	.LBB58:
 353              	.LBB59:
 354              		.loc 1 102 0
 355 0018 2268     		ldr	r2, [r4, #0]
 356 001a 4FF4A24C 		mov	ip, #20736
 357 001e C0F2252C 		movt	ip, 549
 358              	.LBE59:
 359              	.LBE58:
 360              		.loc 1 458 0
 361 0022 2B6F     		ldr	r3, [r5, #112]
 362              	.LVL36:
 363              	.LBB61:
 364              	.LBB60:
 365              		.loc 1 102 0
 366 0024 BCFBF2F0 		udiv	r0, ip, r2
 367 0028 81B2     		uxth	r1, r0
 368 002a 1981     		strh	r1, [r3, #8]	@ movhi
 369              		.loc 1 107 0
 370 002c A288     		ldrh	r2, [r4, #4]
 371              		.loc 1 110 0
 372 002e E088     		ldrh	r0, [r4, #6]
 373              		.loc 1 111 0
 374 0030 2189     		ldrh	r1, [r4, #8]
 375              		.loc 1 107 0
 376 0032 42F4045C 		orr	ip, r2, #8448
 377 0036 4CF02C02 		orr	r2, ip, #44
 378              		.loc 1 110 0
 379 003a 40F0400C 		orr	ip, r0, #64
 380 003e 1FFA8CF0 		uxth	r0, ip
 381              		.loc 1 107 0
 382 0042 92B2     		uxth	r2, r2
 383              		.loc 1 111 0
 384 0044 41F00101 		orr	r1, r1, #1
 385              		.loc 1 107 0
 386 0048 9A81     		strh	r2, [r3, #12]	@ movhi
 387              		.loc 1 111 0
 388 004a 1FFA81FC 		uxth	ip, r1
 389              		.loc 1 110 0
 390 004e 1882     		strh	r0, [r3, #16]	@ movhi
 391              		.loc 1 112 0
ARM GAS  /tmp/ccWEGza2.s 			page 8


 392 0050 0020     		movs	r0, #0
 393              		.loc 1 111 0
 394 0052 A3F814C0 		strh	ip, [r3, #20]	@ movhi
 395              		.loc 1 112 0
 396 0056 1880     		strh	r0, [r3, #0]	@ movhi
 397              		.loc 1 113 0
 398 0058 1A88     		ldrh	r2, [r3, #0]
 399              		.loc 1 114 0
 400 005a 9B88     		ldrh	r3, [r3, #4]
 401              	.LBE60:
 402              	.LBE61:
 403              		.loc 1 407 0
 404 005c 38BD     		pop	{r3, r4, r5, pc}
 405              	.LVL37:
 406              	.L27:
 407              		.loc 1 371 0
 408 005e 40F20000 		movw	r0, #:lower16:SD1
 409 0062 C0F20000 		movt	r0, #:upper16:SD1
 410 0066 8542     		cmp	r5, r0
 411 0068 D6D1     		bne	.L23
 412              		.loc 1 372 0
 413 006a 4FF48051 		mov	r1, #4096
 414 006e C4F20201 		movt	r1, 16386
 415 0072 8B69     		ldr	r3, [r1, #24]
 416              		.loc 1 373 0
 417 0074 2520     		movs	r0, #37
 418              		.loc 1 372 0
 419 0076 43F48042 		orr	r2, r3, #16384
 420 007a 8A61     		str	r2, [r1, #24]
 421              		.loc 1 373 0
 422 007c C021     		movs	r1, #192
 423 007e FFF7FEFF 		bl	NVICEnableVector
 424 0082 C9E7     		b	.L23
 425              		.cfi_endproc
 426              	.LFE43:
 427              		.size	sd_lld_start, .-sd_lld_start
 428 0084 AFF30080 		.section	.text.sd_lld_stop,"ax",%progbits
 428      AFF30080 
 428      AFF30080 
 429              		.align	2
 430              		.p2align 4,,15
 431              		.global	sd_lld_stop
 432              		.thumb
 433              		.thumb_func
 434              		.type	sd_lld_stop, %function
 435              	sd_lld_stop:
 436              	.LFB44:
 437              		.loc 1 418 0
 438              		.cfi_startproc
 439              		@ args = 0, pretend = 0, frame = 0
 440              		@ frame_needed = 0, uses_anonymous_args = 0
 441              		@ link register save eliminated.
 442              	.LVL38:
 443              		.loc 1 420 0
 444 0000 037B     		ldrb	r3, [r0, #12]	@ zero_extendqisi2
 445 0002 022B     		cmp	r3, #2
 446 0004 00D0     		beq	.L30
ARM GAS  /tmp/ccWEGza2.s 			page 9


 447              	.L28:
 448 0006 7047     		bx	lr
 449              	.LVL39:
 450              	.L30:
 451              		.loc 1 423 0
 452 0008 40F2000C 		movw	ip, #:lower16:SD1
 453              	.LVL40:
 454              		.loc 1 421 0
 455 000c 026F     		ldr	r2, [r0, #112]
 456              	.LVL41:
 457              		.loc 1 423 0
 458 000e C0F2000C 		movt	ip, #:upper16:SD1
 459              	.LBB62:
 460              	.LBB63:
 461              		.loc 1 125 0
 462 0012 0021     		movs	r1, #0
 463              	.LBE63:
 464              	.LBE62:
 465              		.loc 1 423 0
 466 0014 6045     		cmp	r0, ip
 467              	.LBB65:
 468              	.LBB64:
 469              		.loc 1 125 0
 470 0016 9181     		strh	r1, [r2, #12]	@ movhi
 471              		.loc 1 126 0
 472 0018 1182     		strh	r1, [r2, #16]	@ movhi
 473              		.loc 1 127 0
 474 001a 9182     		strh	r1, [r2, #20]	@ movhi
 475              	.LBE64:
 476              	.LBE65:
 477              		.loc 1 423 0
 478 001c F3D1     		bne	.L28
 479              		.loc 1 424 0
 480 001e 4FF48053 		mov	r3, #4096
 481 0022 C4F20203 		movt	r3, 16386
 482 0026 9A69     		ldr	r2, [r3, #24]
 483              		.loc 1 425 0
 484 0028 2520     		movs	r0, #37
 485              	.LVL42:
 486              		.loc 1 424 0
 487 002a 22F48041 		bic	r1, r2, #16384
 488 002e 9961     		str	r1, [r3, #24]
 489              		.loc 1 458 0
 490              		.loc 1 425 0
 491 0030 FFF7FEBF 		b	NVICDisableVector
 492              		.cfi_endproc
 493              	.LFE44:
 494              		.size	sd_lld_stop, .-sd_lld_stop
 495              		.comm	SD1,116,4
 496 0034 AFF30080 		.section	.rodata.default_config,"a",%progbits
 496      AFF30080 
 496      AFF30080 
 497              		.align	2
 498              		.set	.LANCHOR0,. + 0
 499              		.type	default_config, %object
 500              		.size	default_config, 12
 501              	default_config:
ARM GAS  /tmp/ccWEGza2.s 			page 10


 502 0000 00960000 		.word	38400
 503 0004 0000     		.short	0
 504 0006 0040     		.short	16384
 505 0008 0000     		.short	0
 506 000a 0000     		.space	2
 507              		.text
 508              	.Letext0:
 509              		.section	.debug_loc,"",%progbits
 510              	.Ldebug_loc0:
 511              	.LLST0:
 512 0000 00000000 		.4byte	.LVL0
 513 0004 0C000000 		.4byte	.LVL1
 514 0008 0100     		.2byte	0x1
 515 000a 50       		.byte	0x50
 516 000b 00000000 		.4byte	0x0
 517 000f 00000000 		.4byte	0x0
 518              	.LLST1:
 519 0013 00000000 		.4byte	.LFB41
 520 0017 04000000 		.4byte	.LCFI0
 521 001b 0200     		.2byte	0x2
 522 001d 7D       		.byte	0x7d
 523 001e 00       		.sleb128 0
 524 001f 04000000 		.4byte	.LCFI0
 525 0023 F0000000 		.4byte	.LFE41
 526 0027 0200     		.2byte	0x2
 527 0029 7D       		.byte	0x7d
 528 002a 18       		.sleb128 24
 529 002b 00000000 		.4byte	0x0
 530 002f 00000000 		.4byte	0x0
 531              	.LLST2:
 532 0033 0E000000 		.4byte	.LVL3
 533 0037 6B000000 		.4byte	.LVL15-1
 534 003b 0500     		.2byte	0x5
 535 003d 03       		.byte	0x3
 536 003e 70000000 		.4byte	SD1+112
 537 0042 6B000000 		.4byte	.LVL15-1
 538 0046 F0000000 		.4byte	.LFE41
 539 004a 0100     		.2byte	0x1
 540 004c 56       		.byte	0x56
 541 004d 00000000 		.4byte	0x0
 542 0051 00000000 		.4byte	0x0
 543              	.LLST3:
 544 0055 28000000 		.4byte	.LVL6
 545 0059 74000000 		.4byte	.LVL18
 546 005d 0600     		.2byte	0x6
 547 005f 03       		.byte	0x3
 548 0060 00000000 		.4byte	SD1
 549 0064 9F       		.byte	0x9f
 550 0065 00000000 		.4byte	0x0
 551 0069 00000000 		.4byte	0x0
 552              	.LLST4:
 553 006d 28000000 		.4byte	.LVL6
 554 0071 74000000 		.4byte	.LVL18
 555 0075 0100     		.2byte	0x1
 556 0077 54       		.byte	0x54
 557 0078 00000000 		.4byte	0x0
 558 007c 00000000 		.4byte	0x0
ARM GAS  /tmp/ccWEGza2.s 			page 11


 559              	.LLST5:
 560 0080 28000000 		.4byte	.LVL6
 561 0084 30000000 		.4byte	.LVL7
 562 0088 0200     		.2byte	0x2
 563 008a 30       		.byte	0x30
 564 008b 9F       		.byte	0x9f
 565 008c 30000000 		.4byte	.LVL7
 566 0090 3A000000 		.4byte	.LVL8
 567 0094 0100     		.2byte	0x1
 568 0096 51       		.byte	0x51
 569 0097 3A000000 		.4byte	.LVL8
 570 009b 44000000 		.4byte	.LVL9
 571 009f 0100     		.2byte	0x1
 572 00a1 51       		.byte	0x51
 573 00a2 44000000 		.4byte	.LVL9
 574 00a6 4E000000 		.4byte	.LVL10
 575 00aa 0100     		.2byte	0x1
 576 00ac 51       		.byte	0x51
 577 00ad 4E000000 		.4byte	.LVL10
 578 00b1 58000000 		.4byte	.LVL11
 579 00b5 0100     		.2byte	0x1
 580 00b7 51       		.byte	0x51
 581 00b8 58000000 		.4byte	.LVL11
 582 00bc 6B000000 		.4byte	.LVL15-1
 583 00c0 0100     		.2byte	0x1
 584 00c2 51       		.byte	0x51
 585 00c3 00000000 		.4byte	0x0
 586 00c7 00000000 		.4byte	0x0
 587              	.LLST6:
 588 00cb 5E000000 		.4byte	.LVL13
 589 00cf 60000000 		.4byte	.LVL14
 590 00d3 0100     		.2byte	0x1
 591 00d5 53       		.byte	0x53
 592 00d6 00000000 		.4byte	0x0
 593 00da 00000000 		.4byte	0x0
 594              	.LLST7:
 595 00de 72000000 		.4byte	.LVL17
 596 00e2 8D000000 		.4byte	.LVL21-1
 597 00e6 0100     		.2byte	0x1
 598 00e8 53       		.byte	0x53
 599 00e9 8E000000 		.4byte	.LVL21
 600 00ed 90000000 		.4byte	.LVL22
 601 00f1 0100     		.2byte	0x1
 602 00f3 53       		.byte	0x53
 603 00f4 AC000000 		.4byte	.LVL27
 604 00f8 AE000000 		.4byte	.LVL28
 605 00fc 0100     		.2byte	0x1
 606 00fe 53       		.byte	0x53
 607 00ff 00000000 		.4byte	0x0
 608 0103 00000000 		.4byte	0x0
 609              	.LLST8:
 610 0107 9A000000 		.4byte	.LVL24
 611 010b A0000000 		.4byte	.LVL25
 612 010f 0100     		.2byte	0x1
 613 0111 50       		.byte	0x50
 614 0112 00000000 		.4byte	0x0
 615 0116 00000000 		.4byte	0x0
ARM GAS  /tmp/ccWEGza2.s 			page 12


 616              	.LLST9:
 617 011a 86000000 		.4byte	.LVL20
 618 011e 8D000000 		.4byte	.LVL21-1
 619 0122 0100     		.2byte	0x1
 620 0124 53       		.byte	0x53
 621 0125 AA000000 		.4byte	.LVL26
 622 0129 AC000000 		.4byte	.LVL27
 623 012d 0100     		.2byte	0x1
 624 012f 53       		.byte	0x53
 625 0130 00000000 		.4byte	0x0
 626 0134 00000000 		.4byte	0x0
 627              	.LLST10:
 628 0138 94000000 		.4byte	.LVL23
 629 013c 99000000 		.4byte	.LVL24-1
 630 0140 0100     		.2byte	0x1
 631 0142 53       		.byte	0x53
 632 0143 00000000 		.4byte	0x0
 633 0147 00000000 		.4byte	0x0
 634              	.LLST11:
 635 014b B2000000 		.4byte	.LVL29
 636 014f C1000000 		.4byte	.LVL30-1
 637 0153 0100     		.2byte	0x1
 638 0155 53       		.byte	0x53
 639 0156 00000000 		.4byte	0x0
 640 015a 00000000 		.4byte	0x0
 641              	.LLST12:
 642 015e 7A000000 		.4byte	.LVL19
 643 0162 8D000000 		.4byte	.LVL21-1
 644 0166 0100     		.2byte	0x1
 645 0168 53       		.byte	0x53
 646 0169 8E000000 		.4byte	.LVL21
 647 016d 90000000 		.4byte	.LVL22
 648 0171 0100     		.2byte	0x1
 649 0173 53       		.byte	0x53
 650 0174 C8000000 		.4byte	.LVL31
 651 0178 CA000000 		.4byte	.LVL32
 652 017c 0100     		.2byte	0x1
 653 017e 53       		.byte	0x53
 654 017f 00000000 		.4byte	0x0
 655 0183 00000000 		.4byte	0x0
 656              	.LLST13:
 657 0187 00000000 		.4byte	.LFB42
 658 018b 02000000 		.4byte	.LCFI1
 659 018f 0200     		.2byte	0x2
 660 0191 7D       		.byte	0x7d
 661 0192 00       		.sleb128 0
 662 0193 02000000 		.4byte	.LCFI1
 663 0197 26000000 		.4byte	.LFE42
 664 019b 0200     		.2byte	0x2
 665 019d 7D       		.byte	0x7d
 666 019e 08       		.sleb128 8
 667 019f 00000000 		.4byte	0x0
 668 01a3 00000000 		.4byte	0x0
 669              	.LLST14:
 670 01a7 00000000 		.4byte	.LFB43
 671 01ab 02000000 		.4byte	.LCFI2
 672 01af 0200     		.2byte	0x2
ARM GAS  /tmp/ccWEGza2.s 			page 13


 673 01b1 7D       		.byte	0x7d
 674 01b2 00       		.sleb128 0
 675 01b3 02000000 		.4byte	.LCFI2
 676 01b7 84000000 		.4byte	.LFE43
 677 01bb 0200     		.2byte	0x2
 678 01bd 7D       		.byte	0x7d
 679 01be 10       		.sleb128 16
 680 01bf 00000000 		.4byte	0x0
 681 01c3 00000000 		.4byte	0x0
 682              	.LLST15:
 683 01c7 00000000 		.4byte	.LVL33
 684 01cb 18000000 		.4byte	.LVL35
 685 01cf 0100     		.2byte	0x1
 686 01d1 50       		.byte	0x50
 687 01d2 18000000 		.4byte	.LVL35
 688 01d6 84000000 		.4byte	.LFE43
 689 01da 0100     		.2byte	0x1
 690 01dc 55       		.byte	0x55
 691 01dd 00000000 		.4byte	0x0
 692 01e1 00000000 		.4byte	0x0
 693              	.LLST16:
 694 01e5 00000000 		.4byte	.LVL33
 695 01e9 12000000 		.4byte	.LVL34
 696 01ed 0100     		.2byte	0x1
 697 01ef 51       		.byte	0x51
 698 01f0 00000000 		.4byte	0x0
 699 01f4 00000000 		.4byte	0x0
 700              	.LLST17:
 701 01f8 24000000 		.4byte	.LVL36
 702 01fc 5E000000 		.4byte	.LVL37
 703 0200 0300     		.2byte	0x3
 704 0202 75       		.byte	0x75
 705 0203 F000     		.sleb128 112
 706 0205 00000000 		.4byte	0x0
 707 0209 00000000 		.4byte	0x0
 708              	.LLST18:
 709 020d 00000000 		.4byte	.LVL38
 710 0211 08000000 		.4byte	.LVL39
 711 0215 0100     		.2byte	0x1
 712 0217 50       		.byte	0x50
 713 0218 0C000000 		.4byte	.LVL40
 714 021c 2A000000 		.4byte	.LVL42
 715 0220 0100     		.2byte	0x1
 716 0222 50       		.byte	0x50
 717 0223 00000000 		.4byte	0x0
 718 0227 00000000 		.4byte	0x0
 719              	.LLST19:
 720 022b 0E000000 		.4byte	.LVL41
 721 022f 2A000000 		.4byte	.LVL42
 722 0233 0300     		.2byte	0x3
 723 0235 70       		.byte	0x70
 724 0236 F000     		.sleb128 112
 725 0238 00000000 		.4byte	0x0
 726 023c 00000000 		.4byte	0x0
 727              		.file 2 "/home/dan/arm-cs-tools/lib/gcc/arm-none-eabi/4.5.1/include/stddef.h"
 728              		.file 3 "/home/dan/arm-cs-tools/lib/gcc/arm-none-eabi/4.5.1/../../../../arm-none-eabi/include/stdi
 729              		.file 4 "chibios/os/ports/GCC/ARMCMx/chtypes.h"
ARM GAS  /tmp/ccWEGza2.s 			page 14


 730              		.file 5 "chibios/os/kernel/include/chlists.h"
 731              		.file 6 "chibios/os/kernel/include/chthreads.h"
 732              		.file 7 "chibios/os/ports/GCC/ARMCMx/chcore.h"
 733              		.file 8 "chibios/os/ports/GCC/ARMCMx/chcore_v7m.h"
 734              		.file 9 "chibios/os/kernel/include/chsem.h"
 735              		.file 10 "chibios/os/kernel/include/chmtx.h"
 736              		.file 11 "chibios/os/kernel/include/chevents.h"
 737              		.file 12 "chibios/os/kernel/include/chqueues.h"
 738              		.file 13 "chibios/os/kernel/include/chioch.h"
 739              		.file 14 "chibios/os/hal/platforms/STM32/stm32f10x.h"
 740              		.file 15 "chibios/os/hal/include/serial.h"
 741              		.file 16 "chibios/os/hal/platforms/STM32/serial_lld.h"
 742              		.file 17 "chibios/os/hal/platforms/STM32/core_cm3.h"
 743              		.section	.debug_info
 744 0000 1C0E0000 		.4byte	0xe1c
 745 0004 0200     		.2byte	0x2
 746 0006 00000000 		.4byte	.Ldebug_abbrev0
 747 000a 04       		.byte	0x4
 748 000b 01       		.uleb128 0x1
 749 000c 17010000 		.4byte	.LASF176
 750 0010 01       		.byte	0x1
 751 0011 DD020000 		.4byte	.LASF177
 752 0015 A8030000 		.4byte	.LASF178
 753 0019 00000000 		.4byte	0x0
 754 001d 00000000 		.4byte	0x0
 755 0021 90000000 		.4byte	.Ldebug_ranges0+0x90
 756 0025 00000000 		.4byte	.Ldebug_line0
 757 0029 02       		.uleb128 0x2
 758 002a 04       		.byte	0x4
 759 002b 05       		.byte	0x5
 760 002c 696E7400 		.ascii	"int\000"
 761 0030 03       		.uleb128 0x3
 762 0031 14000000 		.4byte	.LASF2
 763 0035 02       		.byte	0x2
 764 0036 D3       		.byte	0xd3
 765 0037 3B000000 		.4byte	0x3b
 766 003b 04       		.uleb128 0x4
 767 003c 04       		.byte	0x4
 768 003d 07       		.byte	0x7
 769 003e FD010000 		.4byte	.LASF0
 770 0042 04       		.uleb128 0x4
 771 0043 01       		.byte	0x1
 772 0044 06       		.byte	0x6
 773 0045 EE000000 		.4byte	.LASF1
 774 0049 03       		.uleb128 0x3
 775 004a 2A070000 		.4byte	.LASF3
 776 004e 03       		.byte	0x3
 777 004f 2A       		.byte	0x2a
 778 0050 54000000 		.4byte	0x54
 779 0054 04       		.uleb128 0x4
 780 0055 01       		.byte	0x1
 781 0056 08       		.byte	0x8
 782 0057 BF040000 		.4byte	.LASF4
 783 005b 04       		.uleb128 0x4
 784 005c 02       		.byte	0x2
 785 005d 05       		.byte	0x5
 786 005e 18050000 		.4byte	.LASF5
ARM GAS  /tmp/ccWEGza2.s 			page 15


 787 0062 03       		.uleb128 0x3
 788 0063 0A020000 		.4byte	.LASF6
 789 0067 03       		.byte	0x3
 790 0068 36       		.byte	0x36
 791 0069 6D000000 		.4byte	0x6d
 792 006d 04       		.uleb128 0x4
 793 006e 02       		.byte	0x2
 794 006f 07       		.byte	0x7
 795 0070 7D020000 		.4byte	.LASF7
 796 0074 03       		.uleb128 0x3
 797 0075 B7040000 		.4byte	.LASF8
 798 0079 03       		.byte	0x3
 799 007a 4F       		.byte	0x4f
 800 007b 7F000000 		.4byte	0x7f
 801 007f 04       		.uleb128 0x4
 802 0080 04       		.byte	0x4
 803 0081 05       		.byte	0x5
 804 0082 44010000 		.4byte	.LASF9
 805 0086 03       		.uleb128 0x3
 806 0087 B0050000 		.4byte	.LASF10
 807 008b 03       		.byte	0x3
 808 008c 50       		.byte	0x50
 809 008d 91000000 		.4byte	0x91
 810 0091 04       		.uleb128 0x4
 811 0092 04       		.byte	0x4
 812 0093 07       		.byte	0x7
 813 0094 E2050000 		.4byte	.LASF11
 814 0098 04       		.uleb128 0x4
 815 0099 08       		.byte	0x8
 816 009a 05       		.byte	0x5
 817 009b E0000000 		.4byte	.LASF12
 818 009f 04       		.uleb128 0x4
 819 00a0 08       		.byte	0x8
 820 00a1 07       		.byte	0x7
 821 00a2 61000000 		.4byte	.LASF13
 822 00a6 03       		.uleb128 0x3
 823 00a7 53000000 		.4byte	.LASF14
 824 00ab 03       		.byte	0x3
 825 00ac A6       		.byte	0xa6
 826 00ad 3B000000 		.4byte	0x3b
 827 00b1 03       		.uleb128 0x3
 828 00b2 CC000000 		.4byte	.LASF15
 829 00b6 04       		.byte	0x4
 830 00b7 2D       		.byte	0x2d
 831 00b8 74000000 		.4byte	0x74
 832 00bc 03       		.uleb128 0x3
 833 00bd 09030000 		.4byte	.LASF16
 834 00c1 04       		.byte	0x4
 835 00c2 2E       		.byte	0x2e
 836 00c3 49000000 		.4byte	0x49
 837 00c7 03       		.uleb128 0x3
 838 00c8 62010000 		.4byte	.LASF17
 839 00cc 04       		.byte	0x4
 840 00cd 2F       		.byte	0x2f
 841 00ce 49000000 		.4byte	0x49
 842 00d2 03       		.uleb128 0x3
 843 00d3 4A040000 		.4byte	.LASF18
ARM GAS  /tmp/ccWEGza2.s 			page 16


 844 00d7 04       		.byte	0x4
 845 00d8 30       		.byte	0x30
 846 00d9 49000000 		.4byte	0x49
 847 00dd 03       		.uleb128 0x3
 848 00de 95040000 		.4byte	.LASF19
 849 00e2 04       		.byte	0x4
 850 00e3 31       		.byte	0x31
 851 00e4 86000000 		.4byte	0x86
 852 00e8 03       		.uleb128 0x3
 853 00e9 A2020000 		.4byte	.LASF20
 854 00ed 04       		.byte	0x4
 855 00ee 32       		.byte	0x32
 856 00ef 74000000 		.4byte	0x74
 857 00f3 03       		.uleb128 0x3
 858 00f4 1D030000 		.4byte	.LASF21
 859 00f8 04       		.byte	0x4
 860 00f9 34       		.byte	0x34
 861 00fa 86000000 		.4byte	0x86
 862 00fe 03       		.uleb128 0x3
 863 00ff 3F060000 		.4byte	.LASF22
 864 0103 04       		.byte	0x4
 865 0104 35       		.byte	0x35
 866 0105 86000000 		.4byte	0x86
 867 0109 03       		.uleb128 0x3
 868 010a F1010000 		.4byte	.LASF23
 869 010e 04       		.byte	0x4
 870 010f 36       		.byte	0x36
 871 0110 74000000 		.4byte	0x74
 872 0114 03       		.uleb128 0x3
 873 0115 6F050000 		.4byte	.LASF24
 874 0119 05       		.byte	0x5
 875 011a 29       		.byte	0x29
 876 011b 1F010000 		.4byte	0x11f
 877 011f 05       		.uleb128 0x5
 878 0120 6F050000 		.4byte	.LASF24
 879 0124 44       		.byte	0x44
 880 0125 06       		.byte	0x6
 881 0126 2E       		.byte	0x2e
 882 0127 28020000 		.4byte	0x228
 883 012b 06       		.uleb128 0x6
 884 012c DE030000 		.4byte	.LASF25
 885 0130 06       		.byte	0x6
 886 0131 2F       		.byte	0x2f
 887 0132 4D020000 		.4byte	0x24d
 888 0136 02       		.byte	0x2
 889 0137 23       		.byte	0x23
 890 0138 00       		.uleb128 0x0
 891 0139 06       		.uleb128 0x6
 892 013a 84040000 		.4byte	.LASF26
 893 013e 06       		.byte	0x6
 894 013f 31       		.byte	0x31
 895 0140 4D020000 		.4byte	0x24d
 896 0144 02       		.byte	0x2
 897 0145 23       		.byte	0x23
 898 0146 04       		.uleb128 0x4
 899 0147 06       		.uleb128 0x6
 900 0148 D3000000 		.4byte	.LASF27
ARM GAS  /tmp/ccWEGza2.s 			page 17


 901 014c 06       		.byte	0x6
 902 014d 33       		.byte	0x33
 903 014e DD000000 		.4byte	0xdd
 904 0152 02       		.byte	0x2
 905 0153 23       		.byte	0x23
 906 0154 08       		.uleb128 0x8
 907 0155 06       		.uleb128 0x6
 908 0156 C9070000 		.4byte	.LASF28
 909 015a 06       		.byte	0x6
 910 015b 34       		.byte	0x34
 911 015c 93020000 		.4byte	0x293
 912 0160 02       		.byte	0x2
 913 0161 23       		.byte	0x23
 914 0162 0C       		.uleb128 0xc
 915 0163 06       		.uleb128 0x6
 916 0164 9C010000 		.4byte	.LASF29
 917 0168 06       		.byte	0x6
 918 0169 36       		.byte	0x36
 919 016a 4D020000 		.4byte	0x24d
 920 016e 02       		.byte	0x2
 921 016f 23       		.byte	0x23
 922 0170 10       		.uleb128 0x10
 923 0171 06       		.uleb128 0x6
 924 0172 22050000 		.4byte	.LASF30
 925 0176 06       		.byte	0x6
 926 0177 37       		.byte	0x37
 927 0178 4D020000 		.4byte	0x24d
 928 017c 02       		.byte	0x2
 929 017d 23       		.byte	0x23
 930 017e 14       		.uleb128 0x14
 931 017f 06       		.uleb128 0x6
 932 0180 FF000000 		.4byte	.LASF31
 933 0184 06       		.byte	0x6
 934 0185 3D       		.byte	0x3d
 935 0186 C7000000 		.4byte	0xc7
 936 018a 02       		.byte	0x2
 937 018b 23       		.byte	0x23
 938 018c 18       		.uleb128 0x18
 939 018d 06       		.uleb128 0x6
 940 018e 44050000 		.4byte	.LASF32
 941 0192 06       		.byte	0x6
 942 0193 41       		.byte	0x41
 943 0194 BC000000 		.4byte	0xbc
 944 0198 02       		.byte	0x2
 945 0199 23       		.byte	0x23
 946 019a 19       		.uleb128 0x19
 947 019b 06       		.uleb128 0x6
 948 019c 78010000 		.4byte	.LASF33
 949 01a0 06       		.byte	0x6
 950 01a1 46       		.byte	0x46
 951 01a2 D2000000 		.4byte	0xd2
 952 01a6 02       		.byte	0x2
 953 01a7 23       		.byte	0x23
 954 01a8 1A       		.uleb128 0x1a
 955 01a9 06       		.uleb128 0x6
 956 01aa 23020000 		.4byte	.LASF34
 957 01ae 06       		.byte	0x6
ARM GAS  /tmp/ccWEGza2.s 			page 18


 958 01af 53       		.byte	0x53
 959 01b0 3A030000 		.4byte	0x33a
 960 01b4 02       		.byte	0x2
 961 01b5 23       		.byte	0x23
 962 01b6 1C       		.uleb128 0x1c
 963 01b7 07       		.uleb128 0x7
 964 01b8 705F7500 		.ascii	"p_u\000"
 965 01bc 06       		.byte	0x6
 966 01bd 78       		.byte	0x78
 967 01be 29040000 		.4byte	0x429
 968 01c2 02       		.byte	0x2
 969 01c3 23       		.byte	0x23
 970 01c4 20       		.uleb128 0x20
 971 01c5 06       		.uleb128 0x6
 972 01c6 CF070000 		.4byte	.LASF35
 973 01ca 06       		.byte	0x6
 974 01cb 7D       		.byte	0x7d
 975 01cc 75020000 		.4byte	0x275
 976 01d0 02       		.byte	0x2
 977 01d1 23       		.byte	0x23
 978 01d2 24       		.uleb128 0x24
 979 01d3 06       		.uleb128 0x6
 980 01d4 47020000 		.4byte	.LASF36
 981 01d8 06       		.byte	0x6
 982 01d9 83       		.byte	0x83
 983 01da 53020000 		.4byte	0x253
 984 01de 02       		.byte	0x2
 985 01df 23       		.byte	0x23
 986 01e0 28       		.uleb128 0x28
 987 01e1 06       		.uleb128 0x6
 988 01e2 24070000 		.4byte	.LASF37
 989 01e6 06       		.byte	0x6
 990 01e7 87       		.byte	0x87
 991 01e8 E8000000 		.4byte	0xe8
 992 01ec 02       		.byte	0x2
 993 01ed 23       		.byte	0x23
 994 01ee 30       		.uleb128 0x30
 995 01ef 06       		.uleb128 0x6
 996 01f0 91050000 		.4byte	.LASF38
 997 01f4 06       		.byte	0x6
 998 01f5 8D       		.byte	0x8d
 999 01f6 F3000000 		.4byte	0xf3
 1000 01fa 02       		.byte	0x2
 1001 01fb 23       		.byte	0x23
 1002 01fc 34       		.uleb128 0x34
 1003 01fd 06       		.uleb128 0x6
 1004 01fe 0E050000 		.4byte	.LASF39
 1005 0202 06       		.byte	0x6
 1006 0203 94       		.byte	0x94
 1007 0204 5E040000 		.4byte	0x45e
 1008 0208 02       		.byte	0x2
 1009 0209 23       		.byte	0x23
 1010 020a 38       		.uleb128 0x38
 1011 020b 06       		.uleb128 0x6
 1012 020c 09000000 		.4byte	.LASF40
 1013 0210 06       		.byte	0x6
 1014 0211 98       		.byte	0x98
ARM GAS  /tmp/ccWEGza2.s 			page 19


 1015 0212 DD000000 		.4byte	0xdd
 1016 0216 02       		.byte	0x2
 1017 0217 23       		.byte	0x23
 1018 0218 3C       		.uleb128 0x3c
 1019 0219 06       		.uleb128 0x6
 1020 021a 07010000 		.4byte	.LASF41
 1021 021e 06       		.byte	0x6
 1022 021f 9E       		.byte	0x9e
 1023 0220 91020000 		.4byte	0x291
 1024 0224 02       		.byte	0x2
 1025 0225 23       		.byte	0x23
 1026 0226 40       		.uleb128 0x40
 1027 0227 00       		.byte	0x0
 1028 0228 08       		.uleb128 0x8
 1029 0229 08       		.byte	0x8
 1030 022a 05       		.byte	0x5
 1031 022b 60       		.byte	0x60
 1032 022c 4D020000 		.4byte	0x24d
 1033 0230 06       		.uleb128 0x6
 1034 0231 DE030000 		.4byte	.LASF25
 1035 0235 05       		.byte	0x5
 1036 0236 61       		.byte	0x61
 1037 0237 4D020000 		.4byte	0x24d
 1038 023b 02       		.byte	0x2
 1039 023c 23       		.byte	0x23
 1040 023d 00       		.uleb128 0x0
 1041 023e 06       		.uleb128 0x6
 1042 023f 84040000 		.4byte	.LASF26
 1043 0243 05       		.byte	0x5
 1044 0244 63       		.byte	0x63
 1045 0245 4D020000 		.4byte	0x24d
 1046 0249 02       		.byte	0x2
 1047 024a 23       		.byte	0x23
 1048 024b 04       		.uleb128 0x4
 1049 024c 00       		.byte	0x0
 1050 024d 09       		.uleb128 0x9
 1051 024e 04       		.byte	0x4
 1052 024f 14010000 		.4byte	0x114
 1053 0253 03       		.uleb128 0x3
 1054 0254 04040000 		.4byte	.LASF42
 1055 0258 05       		.byte	0x5
 1056 0259 65       		.byte	0x65
 1057 025a 28020000 		.4byte	0x228
 1058 025e 08       		.uleb128 0x8
 1059 025f 04       		.byte	0x4
 1060 0260 05       		.byte	0x5
 1061 0261 6A       		.byte	0x6a
 1062 0262 75020000 		.4byte	0x275
 1063 0266 06       		.uleb128 0x6
 1064 0267 DE030000 		.4byte	.LASF25
 1065 026b 05       		.byte	0x5
 1066 026c 6C       		.byte	0x6c
 1067 026d 4D020000 		.4byte	0x24d
 1068 0271 02       		.byte	0x2
 1069 0272 23       		.byte	0x23
 1070 0273 00       		.uleb128 0x0
 1071 0274 00       		.byte	0x0
ARM GAS  /tmp/ccWEGza2.s 			page 20


 1072 0275 03       		.uleb128 0x3
 1073 0276 11030000 		.4byte	.LASF43
 1074 027a 05       		.byte	0x5
 1075 027b 6F       		.byte	0x6f
 1076 027c 5E020000 		.4byte	0x25e
 1077 0280 0A       		.uleb128 0xa
 1078 0281 86000000 		.4byte	0x86
 1079 0285 0B       		.uleb128 0xb
 1080 0286 C5010000 		.4byte	.LASF44
 1081 028a 07       		.byte	0x7
 1082 028b 0F01     		.2byte	0x10f
 1083 028d 91020000 		.4byte	0x291
 1084 0291 0C       		.uleb128 0xc
 1085 0292 04       		.byte	0x4
 1086 0293 0D       		.uleb128 0xd
 1087 0294 93060000 		.4byte	.LASF45
 1088 0298 04       		.byte	0x4
 1089 0299 07       		.byte	0x7
 1090 029a 2B01     		.2byte	0x12b
 1091 029c B0020000 		.4byte	0x2b0
 1092 02a0 0E       		.uleb128 0xe
 1093 02a1 72313300 		.ascii	"r13\000"
 1094 02a5 07       		.byte	0x7
 1095 02a6 2C01     		.2byte	0x12c
 1096 02a8 34030000 		.4byte	0x334
 1097 02ac 02       		.byte	0x2
 1098 02ad 23       		.byte	0x23
 1099 02ae 00       		.uleb128 0x0
 1100 02af 00       		.byte	0x0
 1101 02b0 05       		.uleb128 0x5
 1102 02b1 AA060000 		.4byte	.LASF46
 1103 02b5 24       		.byte	0x24
 1104 02b6 08       		.byte	0x8
 1105 02b7 36       		.byte	0x36
 1106 02b8 34030000 		.4byte	0x334
 1107 02bc 07       		.uleb128 0x7
 1108 02bd 723400   		.ascii	"r4\000"
 1109 02c0 08       		.byte	0x8
 1110 02c1 37       		.byte	0x37
 1111 02c2 85020000 		.4byte	0x285
 1112 02c6 02       		.byte	0x2
 1113 02c7 23       		.byte	0x23
 1114 02c8 00       		.uleb128 0x0
 1115 02c9 07       		.uleb128 0x7
 1116 02ca 723500   		.ascii	"r5\000"
 1117 02cd 08       		.byte	0x8
 1118 02ce 38       		.byte	0x38
 1119 02cf 85020000 		.4byte	0x285
 1120 02d3 02       		.byte	0x2
 1121 02d4 23       		.byte	0x23
 1122 02d5 04       		.uleb128 0x4
 1123 02d6 07       		.uleb128 0x7
 1124 02d7 723600   		.ascii	"r6\000"
 1125 02da 08       		.byte	0x8
 1126 02db 39       		.byte	0x39
 1127 02dc 85020000 		.4byte	0x285
 1128 02e0 02       		.byte	0x2
ARM GAS  /tmp/ccWEGza2.s 			page 21


 1129 02e1 23       		.byte	0x23
 1130 02e2 08       		.uleb128 0x8
 1131 02e3 07       		.uleb128 0x7
 1132 02e4 723700   		.ascii	"r7\000"
 1133 02e7 08       		.byte	0x8
 1134 02e8 3B       		.byte	0x3b
 1135 02e9 85020000 		.4byte	0x285
 1136 02ed 02       		.byte	0x2
 1137 02ee 23       		.byte	0x23
 1138 02ef 0C       		.uleb128 0xc
 1139 02f0 07       		.uleb128 0x7
 1140 02f1 723800   		.ascii	"r8\000"
 1141 02f4 08       		.byte	0x8
 1142 02f5 3D       		.byte	0x3d
 1143 02f6 85020000 		.4byte	0x285
 1144 02fa 02       		.byte	0x2
 1145 02fb 23       		.byte	0x23
 1146 02fc 10       		.uleb128 0x10
 1147 02fd 07       		.uleb128 0x7
 1148 02fe 723900   		.ascii	"r9\000"
 1149 0301 08       		.byte	0x8
 1150 0302 3E       		.byte	0x3e
 1151 0303 85020000 		.4byte	0x285
 1152 0307 02       		.byte	0x2
 1153 0308 23       		.byte	0x23
 1154 0309 14       		.uleb128 0x14
 1155 030a 07       		.uleb128 0x7
 1156 030b 72313000 		.ascii	"r10\000"
 1157 030f 08       		.byte	0x8
 1158 0310 3F       		.byte	0x3f
 1159 0311 85020000 		.4byte	0x285
 1160 0315 02       		.byte	0x2
 1161 0316 23       		.byte	0x23
 1162 0317 18       		.uleb128 0x18
 1163 0318 07       		.uleb128 0x7
 1164 0319 72313100 		.ascii	"r11\000"
 1165 031d 08       		.byte	0x8
 1166 031e 40       		.byte	0x40
 1167 031f 85020000 		.4byte	0x285
 1168 0323 02       		.byte	0x2
 1169 0324 23       		.byte	0x23
 1170 0325 1C       		.uleb128 0x1c
 1171 0326 07       		.uleb128 0x7
 1172 0327 6C7200   		.ascii	"lr\000"
 1173 032a 08       		.byte	0x8
 1174 032b 41       		.byte	0x41
 1175 032c 85020000 		.4byte	0x285
 1176 0330 02       		.byte	0x2
 1177 0331 23       		.byte	0x23
 1178 0332 20       		.uleb128 0x20
 1179 0333 00       		.byte	0x0
 1180 0334 09       		.uleb128 0x9
 1181 0335 04       		.byte	0x4
 1182 0336 B0020000 		.4byte	0x2b0
 1183 033a 0A       		.uleb128 0xa
 1184 033b FE000000 		.4byte	0xfe
 1185 033f 05       		.uleb128 0x5
ARM GAS  /tmp/ccWEGza2.s 			page 22


 1186 0340 BA060000 		.4byte	.LASF47
 1187 0344 0C       		.byte	0xc
 1188 0345 09       		.byte	0x9
 1189 0346 2B       		.byte	0x2b
 1190 0347 68030000 		.4byte	0x368
 1191 034b 06       		.uleb128 0x6
 1192 034c B1010000 		.4byte	.LASF48
 1193 0350 09       		.byte	0x9
 1194 0351 2C       		.byte	0x2c
 1195 0352 53020000 		.4byte	0x253
 1196 0356 02       		.byte	0x2
 1197 0357 23       		.byte	0x23
 1198 0358 00       		.uleb128 0x0
 1199 0359 06       		.uleb128 0x6
 1200 035a 5E020000 		.4byte	.LASF49
 1201 035e 09       		.byte	0x9
 1202 035f 2E       		.byte	0x2e
 1203 0360 09010000 		.4byte	0x109
 1204 0364 02       		.byte	0x2
 1205 0365 23       		.byte	0x23
 1206 0366 08       		.uleb128 0x8
 1207 0367 00       		.byte	0x0
 1208 0368 03       		.uleb128 0x3
 1209 0369 BA060000 		.4byte	.LASF47
 1210 036d 09       		.byte	0x9
 1211 036e 2F       		.byte	0x2f
 1212 036f 3F030000 		.4byte	0x33f
 1213 0373 05       		.uleb128 0x5
 1214 0374 A2030000 		.4byte	.LASF50
 1215 0378 10       		.byte	0x10
 1216 0379 0A       		.byte	0xa
 1217 037a 2B       		.byte	0x2b
 1218 037b AA030000 		.4byte	0x3aa
 1219 037f 06       		.uleb128 0x6
 1220 0380 0F010000 		.4byte	.LASF51
 1221 0384 0A       		.byte	0xa
 1222 0385 2C       		.byte	0x2c
 1223 0386 53020000 		.4byte	0x253
 1224 038a 02       		.byte	0x2
 1225 038b 23       		.byte	0x23
 1226 038c 00       		.uleb128 0x0
 1227 038d 06       		.uleb128 0x6
 1228 038e B8070000 		.4byte	.LASF52
 1229 0392 0A       		.byte	0xa
 1230 0393 2E       		.byte	0x2e
 1231 0394 4D020000 		.4byte	0x24d
 1232 0398 02       		.byte	0x2
 1233 0399 23       		.byte	0x23
 1234 039a 08       		.uleb128 0x8
 1235 039b 06       		.uleb128 0x6
 1236 039c 38060000 		.4byte	.LASF53
 1237 03a0 0A       		.byte	0xa
 1238 03a1 30       		.byte	0x30
 1239 03a2 AA030000 		.4byte	0x3aa
 1240 03a6 02       		.byte	0x2
 1241 03a7 23       		.byte	0x23
 1242 03a8 0C       		.uleb128 0xc
ARM GAS  /tmp/ccWEGza2.s 			page 23


 1243 03a9 00       		.byte	0x0
 1244 03aa 09       		.uleb128 0x9
 1245 03ab 04       		.byte	0x4
 1246 03ac 73030000 		.4byte	0x373
 1247 03b0 03       		.uleb128 0x3
 1248 03b1 A2030000 		.4byte	.LASF50
 1249 03b5 0A       		.byte	0xa
 1250 03b6 32       		.byte	0x32
 1251 03b7 73030000 		.4byte	0x373
 1252 03bb 03       		.uleb128 0x3
 1253 03bc 43070000 		.4byte	.LASF54
 1254 03c0 0B       		.byte	0xb
 1255 03c1 28       		.byte	0x28
 1256 03c2 C6030000 		.4byte	0x3c6
 1257 03c6 05       		.uleb128 0x5
 1258 03c7 43070000 		.4byte	.LASF54
 1259 03cb 0C       		.byte	0xc
 1260 03cc 0B       		.byte	0xb
 1261 03cd 2D       		.byte	0x2d
 1262 03ce FD030000 		.4byte	0x3fd
 1263 03d2 06       		.uleb128 0x6
 1264 03d3 4C050000 		.4byte	.LASF55
 1265 03d7 0B       		.byte	0xb
 1266 03d8 2E       		.byte	0x2e
 1267 03d9 FD030000 		.4byte	0x3fd
 1268 03dd 02       		.byte	0x2
 1269 03de 23       		.byte	0x23
 1270 03df 00       		.uleb128 0x0
 1271 03e0 06       		.uleb128 0x6
 1272 03e1 56010000 		.4byte	.LASF56
 1273 03e5 0B       		.byte	0xb
 1274 03e6 31       		.byte	0x31
 1275 03e7 4D020000 		.4byte	0x24d
 1276 03eb 02       		.byte	0x2
 1277 03ec 23       		.byte	0x23
 1278 03ed 04       		.uleb128 0x4
 1279 03ee 06       		.uleb128 0x6
 1280 03ef 1A040000 		.4byte	.LASF57
 1281 03f3 0B       		.byte	0xb
 1282 03f4 33       		.byte	0x33
 1283 03f5 F3000000 		.4byte	0xf3
 1284 03f9 02       		.byte	0x2
 1285 03fa 23       		.byte	0x23
 1286 03fb 08       		.uleb128 0x8
 1287 03fc 00       		.byte	0x0
 1288 03fd 09       		.uleb128 0x9
 1289 03fe 04       		.byte	0x4
 1290 03ff BB030000 		.4byte	0x3bb
 1291 0403 05       		.uleb128 0x5
 1292 0404 E5010000 		.4byte	.LASF58
 1293 0408 04       		.byte	0x4
 1294 0409 0B       		.byte	0xb
 1295 040a 3B       		.byte	0x3b
 1296 040b 1E040000 		.4byte	0x41e
 1297 040f 06       		.uleb128 0x6
 1298 0410 02070000 		.4byte	.LASF59
 1299 0414 0B       		.byte	0xb
ARM GAS  /tmp/ccWEGza2.s 			page 24


 1300 0415 3C       		.byte	0x3c
 1301 0416 FD030000 		.4byte	0x3fd
 1302 041a 02       		.byte	0x2
 1303 041b 23       		.byte	0x23
 1304 041c 00       		.uleb128 0x0
 1305 041d 00       		.byte	0x0
 1306 041e 03       		.uleb128 0x3
 1307 041f E5010000 		.4byte	.LASF58
 1308 0423 0B       		.byte	0xb
 1309 0424 3F       		.byte	0x3f
 1310 0425 03040000 		.4byte	0x403
 1311 0429 0F       		.uleb128 0xf
 1312 042a 04       		.byte	0x4
 1313 042b 06       		.byte	0x6
 1314 042c 5A       		.byte	0x5a
 1315 042d 5E040000 		.4byte	0x45e
 1316 0431 10       		.uleb128 0x10
 1317 0432 1B000000 		.4byte	.LASF60
 1318 0436 06       		.byte	0x6
 1319 0437 61       		.byte	0x61
 1320 0438 E8000000 		.4byte	0xe8
 1321 043c 10       		.uleb128 0x10
 1322 043d 78000000 		.4byte	.LASF61
 1323 0441 06       		.byte	0x6
 1324 0442 68       		.byte	0x68
 1325 0443 E8000000 		.4byte	0xe8
 1326 0447 10       		.uleb128 0x10
 1327 0448 51070000 		.4byte	.LASF62
 1328 044c 06       		.byte	0x6
 1329 044d 6F       		.byte	0x6f
 1330 044e 91020000 		.4byte	0x291
 1331 0452 10       		.uleb128 0x10
 1332 0453 3D050000 		.4byte	.LASF63
 1333 0457 06       		.byte	0x6
 1334 0458 76       		.byte	0x76
 1335 0459 F3000000 		.4byte	0xf3
 1336 045d 00       		.byte	0x0
 1337 045e 09       		.uleb128 0x9
 1338 045f 04       		.byte	0x4
 1339 0460 B0030000 		.4byte	0x3b0
 1340 0464 03       		.uleb128 0x3
 1341 0465 A4010000 		.4byte	.LASF64
 1342 0469 0C       		.byte	0xc
 1343 046a 3D       		.byte	0x3d
 1344 046b 6F040000 		.4byte	0x46f
 1345 046f 05       		.uleb128 0x5
 1346 0470 A4010000 		.4byte	.LASF64
 1347 0474 20       		.byte	0x20
 1348 0475 0C       		.byte	0xc
 1349 0476 4B       		.byte	0x4b
 1350 0477 D0040000 		.4byte	0x4d0
 1351 047b 06       		.uleb128 0x6
 1352 047c 7F010000 		.4byte	.LASF65
 1353 0480 0C       		.byte	0xc
 1354 0481 4C       		.byte	0x4c
 1355 0482 F3040000 		.4byte	0x4f3
 1356 0486 02       		.byte	0x2
ARM GAS  /tmp/ccWEGza2.s 			page 25


 1357 0487 23       		.byte	0x23
 1358 0488 00       		.uleb128 0x0
 1359 0489 06       		.uleb128 0x6
 1360 048a F1060000 		.4byte	.LASF66
 1361 048e 0C       		.byte	0xc
 1362 048f 4D       		.byte	0x4d
 1363 0490 F3040000 		.4byte	0x4f3
 1364 0494 02       		.byte	0x2
 1365 0495 23       		.byte	0x23
 1366 0496 04       		.uleb128 0x4
 1367 0497 06       		.uleb128 0x6
 1368 0498 88010000 		.4byte	.LASF67
 1369 049c 0C       		.byte	0xc
 1370 049d 4F       		.byte	0x4f
 1371 049e F3040000 		.4byte	0x4f3
 1372 04a2 02       		.byte	0x2
 1373 04a3 23       		.byte	0x23
 1374 04a4 08       		.uleb128 0x8
 1375 04a5 06       		.uleb128 0x6
 1376 04a6 9D040000 		.4byte	.LASF68
 1377 04aa 0C       		.byte	0xc
 1378 04ab 50       		.byte	0x50
 1379 04ac F3040000 		.4byte	0x4f3
 1380 04b0 02       		.byte	0x2
 1381 04b1 23       		.byte	0x23
 1382 04b2 0C       		.uleb128 0xc
 1383 04b3 06       		.uleb128 0x6
 1384 04b4 78060000 		.4byte	.LASF69
 1385 04b8 0C       		.byte	0xc
 1386 04b9 51       		.byte	0x51
 1387 04ba 68030000 		.4byte	0x368
 1388 04be 02       		.byte	0x2
 1389 04bf 23       		.byte	0x23
 1390 04c0 10       		.uleb128 0x10
 1391 04c1 06       		.uleb128 0x6
 1392 04c2 1B070000 		.4byte	.LASF70
 1393 04c6 0C       		.byte	0xc
 1394 04c7 52       		.byte	0x52
 1395 04c8 D0040000 		.4byte	0x4d0
 1396 04cc 02       		.byte	0x2
 1397 04cd 23       		.byte	0x23
 1398 04ce 1C       		.uleb128 0x1c
 1399 04cf 00       		.byte	0x0
 1400 04d0 03       		.uleb128 0x3
 1401 04d1 CE010000 		.4byte	.LASF71
 1402 04d5 0C       		.byte	0xc
 1403 04d6 40       		.byte	0x40
 1404 04d7 DB040000 		.4byte	0x4db
 1405 04db 09       		.uleb128 0x9
 1406 04dc 04       		.byte	0x4
 1407 04dd E1040000 		.4byte	0x4e1
 1408 04e1 11       		.uleb128 0x11
 1409 04e2 01       		.byte	0x1
 1410 04e3 ED040000 		.4byte	0x4ed
 1411 04e7 12       		.uleb128 0x12
 1412 04e8 ED040000 		.4byte	0x4ed
 1413 04ec 00       		.byte	0x0
ARM GAS  /tmp/ccWEGza2.s 			page 26


 1414 04ed 09       		.uleb128 0x9
 1415 04ee 04       		.byte	0x4
 1416 04ef 64040000 		.4byte	0x464
 1417 04f3 09       		.uleb128 0x9
 1418 04f4 04       		.byte	0x4
 1419 04f5 49000000 		.4byte	0x49
 1420 04f9 03       		.uleb128 0x3
 1421 04fa 32070000 		.4byte	.LASF72
 1422 04fe 0C       		.byte	0xc
 1423 04ff 78       		.byte	0x78
 1424 0500 64040000 		.4byte	0x464
 1425 0504 03       		.uleb128 0x3
 1426 0505 22000000 		.4byte	.LASF73
 1427 0509 0C       		.byte	0xc
 1428 050a CC       		.byte	0xcc
 1429 050b 64040000 		.4byte	0x464
 1430 050f 13       		.uleb128 0x13
 1431 0510 01       		.byte	0x1
 1432 0511 30000000 		.4byte	0x30
 1433 0515 29050000 		.4byte	0x529
 1434 0519 12       		.uleb128 0x12
 1435 051a 91020000 		.4byte	0x291
 1436 051e 12       		.uleb128 0x12
 1437 051f 29050000 		.4byte	0x529
 1438 0523 12       		.uleb128 0x12
 1439 0524 30000000 		.4byte	0x30
 1440 0528 00       		.byte	0x0
 1441 0529 09       		.uleb128 0x9
 1442 052a 04       		.byte	0x4
 1443 052b 2F050000 		.4byte	0x52f
 1444 052f 14       		.uleb128 0x14
 1445 0530 49000000 		.4byte	0x49
 1446 0534 09       		.uleb128 0x9
 1447 0535 04       		.byte	0x4
 1448 0536 0F050000 		.4byte	0x50f
 1449 053a 13       		.uleb128 0x13
 1450 053b 01       		.byte	0x1
 1451 053c 30000000 		.4byte	0x30
 1452 0540 54050000 		.4byte	0x554
 1453 0544 12       		.uleb128 0x12
 1454 0545 91020000 		.4byte	0x291
 1455 0549 12       		.uleb128 0x12
 1456 054a F3040000 		.4byte	0x4f3
 1457 054e 12       		.uleb128 0x12
 1458 054f 30000000 		.4byte	0x30
 1459 0553 00       		.byte	0x0
 1460 0554 09       		.uleb128 0x9
 1461 0555 04       		.byte	0x4
 1462 0556 3A050000 		.4byte	0x53a
 1463 055a 13       		.uleb128 0x13
 1464 055b 01       		.byte	0x1
 1465 055c B1000000 		.4byte	0xb1
 1466 0560 6A050000 		.4byte	0x56a
 1467 0564 12       		.uleb128 0x12
 1468 0565 91020000 		.4byte	0x291
 1469 0569 00       		.byte	0x0
 1470 056a 09       		.uleb128 0x9
ARM GAS  /tmp/ccWEGza2.s 			page 27


 1471 056b 04       		.byte	0x4
 1472 056c 5A050000 		.4byte	0x55a
 1473 0570 13       		.uleb128 0x13
 1474 0571 01       		.byte	0x1
 1475 0572 E8000000 		.4byte	0xe8
 1476 0576 8A050000 		.4byte	0x58a
 1477 057a 12       		.uleb128 0x12
 1478 057b 91020000 		.4byte	0x291
 1479 057f 12       		.uleb128 0x12
 1480 0580 49000000 		.4byte	0x49
 1481 0584 12       		.uleb128 0x12
 1482 0585 FE000000 		.4byte	0xfe
 1483 0589 00       		.byte	0x0
 1484 058a 09       		.uleb128 0x9
 1485 058b 04       		.byte	0x4
 1486 058c 70050000 		.4byte	0x570
 1487 0590 13       		.uleb128 0x13
 1488 0591 01       		.byte	0x1
 1489 0592 E8000000 		.4byte	0xe8
 1490 0596 A5050000 		.4byte	0x5a5
 1491 059a 12       		.uleb128 0x12
 1492 059b 91020000 		.4byte	0x291
 1493 059f 12       		.uleb128 0x12
 1494 05a0 FE000000 		.4byte	0xfe
 1495 05a4 00       		.byte	0x0
 1496 05a5 09       		.uleb128 0x9
 1497 05a6 04       		.byte	0x4
 1498 05a7 90050000 		.4byte	0x590
 1499 05ab 13       		.uleb128 0x13
 1500 05ac 01       		.byte	0x1
 1501 05ad 30000000 		.4byte	0x30
 1502 05b1 CA050000 		.4byte	0x5ca
 1503 05b5 12       		.uleb128 0x12
 1504 05b6 91020000 		.4byte	0x291
 1505 05ba 12       		.uleb128 0x12
 1506 05bb 29050000 		.4byte	0x529
 1507 05bf 12       		.uleb128 0x12
 1508 05c0 30000000 		.4byte	0x30
 1509 05c4 12       		.uleb128 0x12
 1510 05c5 FE000000 		.4byte	0xfe
 1511 05c9 00       		.byte	0x0
 1512 05ca 09       		.uleb128 0x9
 1513 05cb 04       		.byte	0x4
 1514 05cc AB050000 		.4byte	0x5ab
 1515 05d0 13       		.uleb128 0x13
 1516 05d1 01       		.byte	0x1
 1517 05d2 30000000 		.4byte	0x30
 1518 05d6 EF050000 		.4byte	0x5ef
 1519 05da 12       		.uleb128 0x12
 1520 05db 91020000 		.4byte	0x291
 1521 05df 12       		.uleb128 0x12
 1522 05e0 F3040000 		.4byte	0x4f3
 1523 05e4 12       		.uleb128 0x12
 1524 05e5 30000000 		.4byte	0x30
 1525 05e9 12       		.uleb128 0x12
 1526 05ea FE000000 		.4byte	0xfe
 1527 05ee 00       		.byte	0x0
ARM GAS  /tmp/ccWEGza2.s 			page 28


 1528 05ef 09       		.uleb128 0x9
 1529 05f0 04       		.byte	0x4
 1530 05f1 D0050000 		.4byte	0x5d0
 1531 05f5 03       		.uleb128 0x3
 1532 05f6 FA030000 		.4byte	.LASF74
 1533 05fa 0D       		.byte	0xd
 1534 05fb FD       		.byte	0xfd
 1535 05fc A6000000 		.4byte	0xa6
 1536 0600 13       		.uleb128 0x13
 1537 0601 01       		.byte	0x1
 1538 0602 F5050000 		.4byte	0x5f5
 1539 0606 10060000 		.4byte	0x610
 1540 060a 12       		.uleb128 0x12
 1541 060b 91020000 		.4byte	0x291
 1542 060f 00       		.byte	0x0
 1543 0610 09       		.uleb128 0x9
 1544 0611 04       		.byte	0x4
 1545 0612 00060000 		.4byte	0x600
 1546 0616 15       		.uleb128 0x15
 1547 0617 73030000 		.4byte	.LASF179
 1548 061b 01       		.byte	0x1
 1549 061c 0E       		.byte	0xe
 1550 061d 8D       		.byte	0x8d
 1551 061e 55070000 		.4byte	0x755
 1552 0622 16       		.uleb128 0x16
 1553 0623 49060000 		.4byte	.LASF75
 1554 0627 72       		.sleb128 -14
 1555 0628 16       		.uleb128 0x16
 1556 0629 2A020000 		.4byte	.LASF76
 1557 062d 74       		.sleb128 -12
 1558 062e 16       		.uleb128 0x16
 1559 062f F9050000 		.4byte	.LASF77
 1560 0633 75       		.sleb128 -11
 1561 0634 16       		.uleb128 0x16
 1562 0635 C5050000 		.4byte	.LASF78
 1563 0639 76       		.sleb128 -10
 1564 063a 16       		.uleb128 0x16
 1565 063b 96030000 		.4byte	.LASF79
 1566 063f 7B       		.sleb128 -5
 1567 0640 16       		.uleb128 0x16
 1568 0641 A5040000 		.4byte	.LASF80
 1569 0645 7C       		.sleb128 -4
 1570 0646 16       		.uleb128 0x16
 1571 0647 B9010000 		.4byte	.LASF81
 1572 064b 7E       		.sleb128 -2
 1573 064c 16       		.uleb128 0x16
 1574 064d 45030000 		.4byte	.LASF82
 1575 0651 7F       		.sleb128 -1
 1576 0652 16       		.uleb128 0x16
 1577 0653 BB000000 		.4byte	.LASF83
 1578 0657 00       		.sleb128 0
 1579 0658 16       		.uleb128 0x16
 1580 0659 00000000 		.4byte	.LASF84
 1581 065d 01       		.sleb128 1
 1582 065e 16       		.uleb128 0x16
 1583 065f 7E060000 		.4byte	.LASF85
 1584 0663 02       		.sleb128 2
ARM GAS  /tmp/ccWEGza2.s 			page 29


 1585 0664 16       		.uleb128 0x16
 1586 0665 A5070000 		.4byte	.LASF86
 1587 0669 03       		.sleb128 3
 1588 066a 16       		.uleb128 0x16
 1589 066b 86050000 		.4byte	.LASF87
 1590 066f 04       		.sleb128 4
 1591 0670 16       		.uleb128 0x16
 1592 0671 C0070000 		.4byte	.LASF88
 1593 0675 05       		.sleb128 5
 1594 0676 16       		.uleb128 0x16
 1595 0677 F7060000 		.4byte	.LASF89
 1596 067b 06       		.sleb128 6
 1597 067c 16       		.uleb128 0x16
 1598 067d E0070000 		.4byte	.LASF90
 1599 0681 07       		.sleb128 7
 1600 0682 16       		.uleb128 0x16
 1601 0683 54050000 		.4byte	.LASF91
 1602 0687 08       		.sleb128 8
 1603 0688 16       		.uleb128 0x16
 1604 0689 E5030000 		.4byte	.LASF92
 1605 068d 09       		.sleb128 9
 1606 068e 16       		.uleb128 0x16
 1607 068f 03050000 		.4byte	.LASF93
 1608 0693 0A       		.sleb128 10
 1609 0694 16       		.uleb128 0x16
 1610 0695 37040000 		.4byte	.LASF94
 1611 0699 0B       		.sleb128 11
 1612 069a 16       		.uleb128 0x16
 1613 069b 83030000 		.4byte	.LASF95
 1614 069f 0C       		.sleb128 12
 1615 06a0 16       		.uleb128 0x16
 1616 06a1 2A050000 		.4byte	.LASF96
 1617 06a5 0D       		.sleb128 13
 1618 06a6 16       		.uleb128 0x16
 1619 06a7 32030000 		.4byte	.LASF97
 1620 06ab 0E       		.sleb128 14
 1621 06ac 16       		.uleb128 0x16
 1622 06ad 6A020000 		.4byte	.LASF98
 1623 06b1 0F       		.sleb128 15
 1624 06b2 16       		.uleb128 0x16
 1625 06b3 5D060000 		.4byte	.LASF99
 1626 06b7 10       		.sleb128 16
 1627 06b8 16       		.uleb128 0x16
 1628 06b9 58070000 		.4byte	.LASF100
 1629 06bd 11       		.sleb128 17
 1630 06be 16       		.uleb128 0x16
 1631 06bf 90010000 		.4byte	.LASF101
 1632 06c3 12       		.sleb128 18
 1633 06c4 16       		.uleb128 0x16
 1634 06c5 EF040000 		.4byte	.LASF102
 1635 06c9 13       		.sleb128 19
 1636 06ca 16       		.uleb128 0x16
 1637 06cb CD040000 		.4byte	.LASF103
 1638 06cf 14       		.sleb128 20
 1639 06d0 16       		.uleb128 0x16
 1640 06d1 45000000 		.4byte	.LASF104
 1641 06d5 15       		.sleb128 21
ARM GAS  /tmp/ccWEGza2.s 			page 30


 1642 06d6 16       		.uleb128 0x16
 1643 06d7 2A060000 		.4byte	.LASF105
 1644 06db 16       		.sleb128 22
 1645 06dc 16       		.uleb128 0x16
 1646 06dd 6B010000 		.4byte	.LASF106
 1647 06e1 17       		.sleb128 23
 1648 06e2 16       		.uleb128 0x16
 1649 06e3 0E060000 		.4byte	.LASF107
 1650 06e7 18       		.sleb128 24
 1651 06e8 16       		.uleb128 0x16
 1652 06e9 AE000000 		.4byte	.LASF108
 1653 06ed 19       		.sleb128 25
 1654 06ee 16       		.uleb128 0x16
 1655 06ef 90020000 		.4byte	.LASF109
 1656 06f3 1A       		.sleb128 26
 1657 06f4 16       		.uleb128 0x16
 1658 06f5 52030000 		.4byte	.LASF110
 1659 06f9 1B       		.sleb128 27
 1660 06fa 16       		.uleb128 0x16
 1661 06fb E7060000 		.4byte	.LASF111
 1662 06ff 1C       		.sleb128 28
 1663 0700 16       		.uleb128 0x16
 1664 0701 AE070000 		.4byte	.LASF112
 1665 0705 1D       		.sleb128 29
 1666 0706 16       		.uleb128 0x16
 1667 0707 8E000000 		.4byte	.LASF113
 1668 070b 1E       		.sleb128 30
 1669 070c 16       		.uleb128 0x16
 1670 070d 2E000000 		.4byte	.LASF114
 1671 0711 1F       		.sleb128 31
 1672 0712 16       		.uleb128 0x16
 1673 0713 8A070000 		.4byte	.LASF115
 1674 0717 20       		.sleb128 32
 1675 0718 16       		.uleb128 0x16
 1676 0719 C4060000 		.4byte	.LASF116
 1677 071d 21       		.sleb128 33
 1678 071e 16       		.uleb128 0x16
 1679 071f 81000000 		.4byte	.LASF117
 1680 0723 22       		.sleb128 34
 1681 0724 16       		.uleb128 0x16
 1682 0725 BE020000 		.4byte	.LASF118
 1683 0729 23       		.sleb128 35
 1684 072a 16       		.uleb128 0x16
 1685 072b F0030000 		.4byte	.LASF119
 1686 072f 24       		.sleb128 36
 1687 0730 16       		.uleb128 0x16
 1688 0731 0A070000 		.4byte	.LASF120
 1689 0735 25       		.sleb128 37
 1690 0736 16       		.uleb128 0x16
 1691 0737 B9050000 		.4byte	.LASF121
 1692 073b 26       		.sleb128 38
 1693 073c 16       		.uleb128 0x16
 1694 073d D1060000 		.4byte	.LASF122
 1695 0741 27       		.sleb128 39
 1696 0742 16       		.uleb128 0x16
 1697 0743 AF020000 		.4byte	.LASF123
 1698 0747 28       		.sleb128 40
ARM GAS  /tmp/ccWEGza2.s 			page 31


 1699 0748 16       		.uleb128 0x16
 1700 0749 1C060000 		.4byte	.LASF124
 1701 074d 29       		.sleb128 41
 1702 074e 16       		.uleb128 0x16
 1703 074f 9B060000 		.4byte	.LASF125
 1704 0753 2A       		.sleb128 42
 1705 0754 00       		.byte	0x0
 1706 0755 0A       		.uleb128 0xa
 1707 0756 62000000 		.4byte	0x62
 1708 075a 17       		.uleb128 0x17
 1709 075b 28       		.byte	0x28
 1710 075c 0E       		.byte	0xe
 1711 075d F603     		.2byte	0x3f6
 1712 075f F9070000 		.4byte	0x7f9
 1713 0763 0E       		.uleb128 0xe
 1714 0764 435200   		.ascii	"CR\000"
 1715 0767 0E       		.byte	0xe
 1716 0768 F803     		.2byte	0x3f8
 1717 076a 80020000 		.4byte	0x280
 1718 076e 02       		.byte	0x2
 1719 076f 23       		.byte	0x23
 1720 0770 00       		.uleb128 0x0
 1721 0771 18       		.uleb128 0x18
 1722 0772 77070000 		.4byte	.LASF126
 1723 0776 0E       		.byte	0xe
 1724 0777 F903     		.2byte	0x3f9
 1725 0779 80020000 		.4byte	0x280
 1726 077d 02       		.byte	0x2
 1727 077e 23       		.byte	0x23
 1728 077f 04       		.uleb128 0x4
 1729 0780 0E       		.uleb128 0xe
 1730 0781 43495200 		.ascii	"CIR\000"
 1731 0785 0E       		.byte	0xe
 1732 0786 FA03     		.2byte	0x3fa
 1733 0788 80020000 		.4byte	0x280
 1734 078c 02       		.byte	0x2
 1735 078d 23       		.byte	0x23
 1736 078e 08       		.uleb128 0x8
 1737 078f 18       		.uleb128 0x18
 1738 0790 4D010000 		.4byte	.LASF127
 1739 0794 0E       		.byte	0xe
 1740 0795 FB03     		.2byte	0x3fb
 1741 0797 80020000 		.4byte	0x280
 1742 079b 02       		.byte	0x2
 1743 079c 23       		.byte	0x23
 1744 079d 0C       		.uleb128 0xc
 1745 079e 18       		.uleb128 0x18
 1746 079f 11040000 		.4byte	.LASF128
 1747 07a3 0E       		.byte	0xe
 1748 07a4 FC03     		.2byte	0x3fc
 1749 07a6 80020000 		.4byte	0x280
 1750 07aa 02       		.byte	0x2
 1751 07ab 23       		.byte	0x23
 1752 07ac 10       		.uleb128 0x10
 1753 07ad 18       		.uleb128 0x18
 1754 07ae D9070000 		.4byte	.LASF129
 1755 07b2 0E       		.byte	0xe
ARM GAS  /tmp/ccWEGza2.s 			page 32


 1756 07b3 FD03     		.2byte	0x3fd
 1757 07b5 80020000 		.4byte	0x280
 1758 07b9 02       		.byte	0x2
 1759 07ba 23       		.byte	0x23
 1760 07bb 14       		.uleb128 0x14
 1761 07bc 18       		.uleb128 0x18
 1762 07bd 67050000 		.4byte	.LASF130
 1763 07c1 0E       		.byte	0xe
 1764 07c2 FE03     		.2byte	0x3fe
 1765 07c4 80020000 		.4byte	0x280
 1766 07c8 02       		.byte	0x2
 1767 07c9 23       		.byte	0x23
 1768 07ca 18       		.uleb128 0x18
 1769 07cb 18       		.uleb128 0x18
 1770 07cc 70060000 		.4byte	.LASF131
 1771 07d0 0E       		.byte	0xe
 1772 07d1 FF03     		.2byte	0x3ff
 1773 07d3 80020000 		.4byte	0x280
 1774 07d7 02       		.byte	0x2
 1775 07d8 23       		.byte	0x23
 1776 07d9 1C       		.uleb128 0x1c
 1777 07da 18       		.uleb128 0x18
 1778 07db 16070000 		.4byte	.LASF132
 1779 07df 0E       		.byte	0xe
 1780 07e0 0004     		.2byte	0x400
 1781 07e2 80020000 		.4byte	0x280
 1782 07e6 02       		.byte	0x2
 1783 07e7 23       		.byte	0x23
 1784 07e8 20       		.uleb128 0x20
 1785 07e9 0E       		.uleb128 0xe
 1786 07ea 43535200 		.ascii	"CSR\000"
 1787 07ee 0E       		.byte	0xe
 1788 07ef 0104     		.2byte	0x401
 1789 07f1 80020000 		.4byte	0x280
 1790 07f5 02       		.byte	0x2
 1791 07f6 23       		.byte	0x23
 1792 07f7 24       		.uleb128 0x24
 1793 07f8 00       		.byte	0x0
 1794 07f9 0B       		.uleb128 0xb
 1795 07fa 23010000 		.4byte	.LASF133
 1796 07fe 0E       		.byte	0xe
 1797 07ff 0C04     		.2byte	0x40c
 1798 0801 5A070000 		.4byte	0x75a
 1799 0805 17       		.uleb128 0x17
 1800 0806 1C       		.byte	0x1c
 1801 0807 0E       		.byte	0xe
 1802 0808 9404     		.2byte	0x494
 1803 080a DF080000 		.4byte	0x8df
 1804 080e 0E       		.uleb128 0xe
 1805 080f 535200   		.ascii	"SR\000"
 1806 0812 0E       		.byte	0xe
 1807 0813 9604     		.2byte	0x496
 1808 0815 55070000 		.4byte	0x755
 1809 0819 02       		.byte	0x2
 1810 081a 23       		.byte	0x23
 1811 081b 00       		.uleb128 0x0
 1812 081c 18       		.uleb128 0x18
ARM GAS  /tmp/ccWEGza2.s 			page 33


 1813 081d 52040000 		.4byte	.LASF134
 1814 0821 0E       		.byte	0xe
 1815 0822 9704     		.2byte	0x497
 1816 0824 62000000 		.4byte	0x62
 1817 0828 02       		.byte	0x2
 1818 0829 23       		.byte	0x23
 1819 082a 02       		.uleb128 0x2
 1820 082b 0E       		.uleb128 0xe
 1821 082c 445200   		.ascii	"DR\000"
 1822 082f 0E       		.byte	0xe
 1823 0830 9804     		.2byte	0x498
 1824 0832 55070000 		.4byte	0x755
 1825 0836 02       		.byte	0x2
 1826 0837 23       		.byte	0x23
 1827 0838 04       		.uleb128 0x4
 1828 0839 18       		.uleb128 0x18
 1829 083a 5C040000 		.4byte	.LASF135
 1830 083e 0E       		.byte	0xe
 1831 083f 9904     		.2byte	0x499
 1832 0841 62000000 		.4byte	0x62
 1833 0845 02       		.byte	0x2
 1834 0846 23       		.byte	0x23
 1835 0847 06       		.uleb128 0x6
 1836 0848 0E       		.uleb128 0xe
 1837 0849 42525200 		.ascii	"BRR\000"
 1838 084d 0E       		.byte	0xe
 1839 084e 9A04     		.2byte	0x49a
 1840 0850 55070000 		.4byte	0x755
 1841 0854 02       		.byte	0x2
 1842 0855 23       		.byte	0x23
 1843 0856 08       		.uleb128 0x8
 1844 0857 18       		.uleb128 0x18
 1845 0858 66040000 		.4byte	.LASF136
 1846 085c 0E       		.byte	0xe
 1847 085d 9B04     		.2byte	0x49b
 1848 085f 62000000 		.4byte	0x62
 1849 0863 02       		.byte	0x2
 1850 0864 23       		.byte	0x23
 1851 0865 0A       		.uleb128 0xa
 1852 0866 0E       		.uleb128 0xe
 1853 0867 43523100 		.ascii	"CR1\000"
 1854 086b 0E       		.byte	0xe
 1855 086c 9C04     		.2byte	0x49c
 1856 086e 55070000 		.4byte	0x755
 1857 0872 02       		.byte	0x2
 1858 0873 23       		.byte	0x23
 1859 0874 0C       		.uleb128 0xc
 1860 0875 18       		.uleb128 0x18
 1861 0876 70040000 		.4byte	.LASF137
 1862 087a 0E       		.byte	0xe
 1863 087b 9D04     		.2byte	0x49d
 1864 087d 62000000 		.4byte	0x62
 1865 0881 02       		.byte	0x2
 1866 0882 23       		.byte	0x23
 1867 0883 0E       		.uleb128 0xe
 1868 0884 0E       		.uleb128 0xe
 1869 0885 43523200 		.ascii	"CR2\000"
ARM GAS  /tmp/ccWEGza2.s 			page 34


 1870 0889 0E       		.byte	0xe
 1871 088a 9E04     		.2byte	0x49e
 1872 088c 55070000 		.4byte	0x755
 1873 0890 02       		.byte	0x2
 1874 0891 23       		.byte	0x23
 1875 0892 10       		.uleb128 0x10
 1876 0893 18       		.uleb128 0x18
 1877 0894 7A040000 		.4byte	.LASF138
 1878 0898 0E       		.byte	0xe
 1879 0899 9F04     		.2byte	0x49f
 1880 089b 62000000 		.4byte	0x62
 1881 089f 02       		.byte	0x2
 1882 08a0 23       		.byte	0x23
 1883 08a1 12       		.uleb128 0x12
 1884 08a2 0E       		.uleb128 0xe
 1885 08a3 43523300 		.ascii	"CR3\000"
 1886 08a7 0E       		.byte	0xe
 1887 08a8 A004     		.2byte	0x4a0
 1888 08aa 55070000 		.4byte	0x755
 1889 08ae 02       		.byte	0x2
 1890 08af 23       		.byte	0x23
 1891 08b0 14       		.uleb128 0x14
 1892 08b1 18       		.uleb128 0x18
 1893 08b2 A6050000 		.4byte	.LASF139
 1894 08b6 0E       		.byte	0xe
 1895 08b7 A104     		.2byte	0x4a1
 1896 08b9 62000000 		.4byte	0x62
 1897 08bd 02       		.byte	0x2
 1898 08be 23       		.byte	0x23
 1899 08bf 16       		.uleb128 0x16
 1900 08c0 18       		.uleb128 0x18
 1901 08c1 FA000000 		.4byte	.LASF140
 1902 08c5 0E       		.byte	0xe
 1903 08c6 A204     		.2byte	0x4a2
 1904 08c8 55070000 		.4byte	0x755
 1905 08cc 02       		.byte	0x2
 1906 08cd 23       		.byte	0x23
 1907 08ce 18       		.uleb128 0x18
 1908 08cf 18       		.uleb128 0x18
 1909 08d0 8B040000 		.4byte	.LASF141
 1910 08d4 0E       		.byte	0xe
 1911 08d5 A304     		.2byte	0x4a3
 1912 08d7 62000000 		.4byte	0x62
 1913 08db 02       		.byte	0x2
 1914 08dc 23       		.byte	0x23
 1915 08dd 1A       		.uleb128 0x1a
 1916 08de 00       		.byte	0x0
 1917 08df 0B       		.uleb128 0xb
 1918 08e0 C8020000 		.4byte	.LASF142
 1919 08e4 0E       		.byte	0xe
 1920 08e5 A404     		.2byte	0x4a4
 1921 08e7 05080000 		.4byte	0x805
 1922 08eb 19       		.uleb128 0x19
 1923 08ec 01       		.byte	0x1
 1924 08ed 0F       		.byte	0xf
 1925 08ee 5E       		.byte	0x5e
 1926 08ef 06090000 		.4byte	0x906
ARM GAS  /tmp/ccWEGza2.s 			page 35


 1927 08f3 16       		.uleb128 0x16
 1928 08f4 9C050000 		.4byte	.LASF143
 1929 08f8 00       		.sleb128 0
 1930 08f9 16       		.uleb128 0x16
 1931 08fa 5F050000 		.4byte	.LASF144
 1932 08fe 01       		.sleb128 1
 1933 08ff 16       		.uleb128 0x16
 1934 0900 B1060000 		.4byte	.LASF145
 1935 0904 02       		.sleb128 2
 1936 0905 00       		.byte	0x0
 1937 0906 03       		.uleb128 0x3
 1938 0907 DD060000 		.4byte	.LASF146
 1939 090b 0F       		.byte	0xf
 1940 090c 62       		.byte	0x62
 1941 090d EB080000 		.4byte	0x8eb
 1942 0911 03       		.uleb128 0x3
 1943 0912 D5050000 		.4byte	.LASF147
 1944 0916 0F       		.byte	0xf
 1945 0917 67       		.byte	0x67
 1946 0918 1C090000 		.4byte	0x91c
 1947 091c 05       		.uleb128 0x5
 1948 091d D5050000 		.4byte	.LASF147
 1949 0921 74       		.byte	0x74
 1950 0922 0F       		.byte	0xf
 1951 0923 7F       		.byte	0x7f
 1952 0924 A5090000 		.4byte	0x9a5
 1953 0928 07       		.uleb128 0x7
 1954 0929 766D7400 		.ascii	"vmt\000"
 1955 092d 0F       		.byte	0xf
 1956 092e 81       		.byte	0x81
 1957 092f 7C0A0000 		.4byte	0xa7c
 1958 0933 02       		.byte	0x2
 1959 0934 23       		.byte	0x23
 1960 0935 00       		.uleb128 0x0
 1961 0936 06       		.uleb128 0x6
 1962 0937 64020000 		.4byte	.LASF148
 1963 093b 0F       		.byte	0xf
 1964 093c 82       		.byte	0x82
 1965 093d 1E040000 		.4byte	0x41e
 1966 0941 02       		.byte	0x2
 1967 0942 23       		.byte	0x23
 1968 0943 04       		.uleb128 0x4
 1969 0944 06       		.uleb128 0x6
 1970 0945 3D070000 		.4byte	.LASF149
 1971 0949 0F       		.byte	0xf
 1972 094a 82       		.byte	0x82
 1973 094b F5050000 		.4byte	0x5f5
 1974 094f 02       		.byte	0x2
 1975 0950 23       		.byte	0x23
 1976 0951 08       		.uleb128 0x8
 1977 0952 06       		.uleb128 0x6
 1978 0953 3E010000 		.4byte	.LASF150
 1979 0957 0F       		.byte	0xf
 1980 0958 82       		.byte	0x82
 1981 0959 06090000 		.4byte	0x906
 1982 095d 02       		.byte	0x2
 1983 095e 23       		.byte	0x23
ARM GAS  /tmp/ccWEGza2.s 			page 36


 1984 095f 0C       		.uleb128 0xc
 1985 0960 06       		.uleb128 0x6
 1986 0961 40020000 		.4byte	.LASF151
 1987 0965 0F       		.byte	0xf
 1988 0966 82       		.byte	0x82
 1989 0967 F9040000 		.4byte	0x4f9
 1990 096b 02       		.byte	0x2
 1991 096c 23       		.byte	0x23
 1992 096d 10       		.uleb128 0x10
 1993 096e 06       		.uleb128 0x6
 1994 096f A8020000 		.4byte	.LASF152
 1995 0973 0F       		.byte	0xf
 1996 0974 82       		.byte	0x82
 1997 0975 04050000 		.4byte	0x504
 1998 0979 02       		.byte	0x2
 1999 097a 23       		.byte	0x23
 2000 097b 30       		.uleb128 0x30
 2001 097c 07       		.uleb128 0x7
 2002 097d 696200   		.ascii	"ib\000"
 2003 0980 0F       		.byte	0xf
 2004 0981 82       		.byte	0x82
 2005 0982 870A0000 		.4byte	0xa87
 2006 0986 02       		.byte	0x2
 2007 0987 23       		.byte	0x23
 2008 0988 50       		.uleb128 0x50
 2009 0989 07       		.uleb128 0x7
 2010 098a 6F6200   		.ascii	"ob\000"
 2011 098d 0F       		.byte	0xf
 2012 098e 82       		.byte	0x82
 2013 098f 870A0000 		.4byte	0xa87
 2014 0993 02       		.byte	0x2
 2015 0994 23       		.byte	0x23
 2016 0995 60       		.uleb128 0x60
 2017 0996 06       		.uleb128 0x6
 2018 0997 F7010000 		.4byte	.LASF153
 2019 099b 0F       		.byte	0xf
 2020 099c 82       		.byte	0x82
 2021 099d 970A0000 		.4byte	0xa97
 2022 09a1 02       		.byte	0x2
 2023 09a2 23       		.byte	0x23
 2024 09a3 70       		.uleb128 0x70
 2025 09a4 00       		.byte	0x0
 2026 09a5 08       		.uleb128 0x8
 2027 09a6 0C       		.byte	0xc
 2028 09a7 10       		.byte	0x10
 2029 09a8 AA       		.byte	0xaa
 2030 09a9 E6090000 		.4byte	0x9e6
 2031 09ad 06       		.uleb128 0x6
 2032 09ae A5000000 		.4byte	.LASF154
 2033 09b2 10       		.byte	0x10
 2034 09b3 AE       		.byte	0xae
 2035 09b4 86000000 		.4byte	0x86
 2036 09b8 02       		.byte	0x2
 2037 09b9 23       		.byte	0x23
 2038 09ba 00       		.uleb128 0x0
 2039 09bb 06       		.uleb128 0x6
 2040 09bc C5000000 		.4byte	.LASF155
ARM GAS  /tmp/ccWEGza2.s 			page 37


 2041 09c0 10       		.byte	0x10
 2042 09c1 B2       		.byte	0xb2
 2043 09c2 62000000 		.4byte	0x62
 2044 09c6 02       		.byte	0x2
 2045 09c7 23       		.byte	0x23
 2046 09c8 04       		.uleb128 0x4
 2047 09c9 06       		.uleb128 0x6
 2048 09ca 97070000 		.4byte	.LASF156
 2049 09ce 10       		.byte	0x10
 2050 09cf B6       		.byte	0xb6
 2051 09d0 62000000 		.4byte	0x62
 2052 09d4 02       		.byte	0x2
 2053 09d5 23       		.byte	0x23
 2054 09d6 06       		.uleb128 0x6
 2055 09d7 06       		.uleb128 0x6
 2056 09d8 9E070000 		.4byte	.LASF157
 2057 09dc 10       		.byte	0x10
 2058 09dd BA       		.byte	0xba
 2059 09de 62000000 		.4byte	0x62
 2060 09e2 02       		.byte	0x2
 2061 09e3 23       		.byte	0x23
 2062 09e4 08       		.uleb128 0x8
 2063 09e5 00       		.byte	0x0
 2064 09e6 03       		.uleb128 0x3
 2065 09e7 22040000 		.4byte	.LASF158
 2066 09eb 10       		.byte	0x10
 2067 09ec BB       		.byte	0xbb
 2068 09ed A5090000 		.4byte	0x9a5
 2069 09f1 05       		.uleb128 0x5
 2070 09f2 13020000 		.4byte	.LASF159
 2071 09f6 24       		.byte	0x24
 2072 09f7 0F       		.byte	0xf
 2073 09f8 74       		.byte	0x74
 2074 09f9 7C0A0000 		.4byte	0xa7c
 2075 09fd 06       		.uleb128 0x6
 2076 09fe 6D030000 		.4byte	.LASF160
 2077 0a02 0F       		.byte	0xf
 2078 0a03 75       		.byte	0x75
 2079 0a04 34050000 		.4byte	0x534
 2080 0a08 02       		.byte	0x2
 2081 0a09 23       		.byte	0x23
 2082 0a0a 00       		.uleb128 0x0
 2083 0a0b 06       		.uleb128 0x6
 2084 0a0c F4050000 		.4byte	.LASF161
 2085 0a10 0F       		.byte	0xf
 2086 0a11 75       		.byte	0x75
 2087 0a12 54050000 		.4byte	0x554
 2088 0a16 02       		.byte	0x2
 2089 0a17 23       		.byte	0x23
 2090 0a18 04       		.uleb128 0x4
 2091 0a19 06       		.uleb128 0x6
 2092 0a1a 5F030000 		.4byte	.LASF162
 2093 0a1e 0F       		.byte	0xf
 2094 0a1f 75       		.byte	0x75
 2095 0a20 6A050000 		.4byte	0x56a
 2096 0a24 02       		.byte	0x2
 2097 0a25 23       		.byte	0x23
ARM GAS  /tmp/ccWEGza2.s 			page 38


 2098 0a26 08       		.uleb128 0x8
 2099 0a27 06       		.uleb128 0x6
 2100 0a28 7C070000 		.4byte	.LASF163
 2101 0a2c 0F       		.byte	0xf
 2102 0a2d 75       		.byte	0x75
 2103 0a2e 6A050000 		.4byte	0x56a
 2104 0a32 02       		.byte	0x2
 2105 0a33 23       		.byte	0x23
 2106 0a34 0C       		.uleb128 0xc
 2107 0a35 07       		.uleb128 0x7
 2108 0a36 70757400 		.ascii	"put\000"
 2109 0a3a 0F       		.byte	0xf
 2110 0a3b 75       		.byte	0x75
 2111 0a3c 8A050000 		.4byte	0x58a
 2112 0a40 02       		.byte	0x2
 2113 0a41 23       		.byte	0x23
 2114 0a42 10       		.uleb128 0x10
 2115 0a43 07       		.uleb128 0x7
 2116 0a44 67657400 		.ascii	"get\000"
 2117 0a48 0F       		.byte	0xf
 2118 0a49 75       		.byte	0x75
 2119 0a4a A5050000 		.4byte	0x5a5
 2120 0a4e 02       		.byte	0x2
 2121 0a4f 23       		.byte	0x23
 2122 0a50 14       		.uleb128 0x14
 2123 0a51 06       		.uleb128 0x6
 2124 0a52 D6020000 		.4byte	.LASF164
 2125 0a56 0F       		.byte	0xf
 2126 0a57 75       		.byte	0x75
 2127 0a58 CA050000 		.4byte	0x5ca
 2128 0a5c 02       		.byte	0x2
 2129 0a5d 23       		.byte	0x23
 2130 0a5e 18       		.uleb128 0x18
 2131 0a5f 06       		.uleb128 0x6
 2132 0a60 DA000000 		.4byte	.LASF165
 2133 0a64 0F       		.byte	0xf
 2134 0a65 75       		.byte	0x75
 2135 0a66 EF050000 		.4byte	0x5ef
 2136 0a6a 02       		.byte	0x2
 2137 0a6b 23       		.byte	0x23
 2138 0a6c 1C       		.uleb128 0x1c
 2139 0a6d 06       		.uleb128 0x6
 2140 0a6e 8A060000 		.4byte	.LASF166
 2141 0a72 0F       		.byte	0xf
 2142 0a73 75       		.byte	0x75
 2143 0a74 10060000 		.4byte	0x610
 2144 0a78 02       		.byte	0x2
 2145 0a79 23       		.byte	0x23
 2146 0a7a 20       		.uleb128 0x20
 2147 0a7b 00       		.byte	0x0
 2148 0a7c 09       		.uleb128 0x9
 2149 0a7d 04       		.byte	0x4
 2150 0a7e 820A0000 		.4byte	0xa82
 2151 0a82 14       		.uleb128 0x14
 2152 0a83 F1090000 		.4byte	0x9f1
 2153 0a87 1A       		.uleb128 0x1a
 2154 0a88 49000000 		.4byte	0x49
ARM GAS  /tmp/ccWEGza2.s 			page 39


 2155 0a8c 970A0000 		.4byte	0xa97
 2156 0a90 1B       		.uleb128 0x1b
 2157 0a91 3B000000 		.4byte	0x3b
 2158 0a95 0F       		.byte	0xf
 2159 0a96 00       		.byte	0x0
 2160 0a97 09       		.uleb128 0x9
 2161 0a98 04       		.byte	0x4
 2162 0a99 DF080000 		.4byte	0x8df
 2163 0a9d 1C       		.uleb128 0x1c
 2164 0a9e 78030000 		.4byte	.LASF168
 2165 0aa2 01       		.byte	0x1
 2166 0aa3 5D       		.byte	0x5d
 2167 0aa4 01       		.byte	0x1
 2168 0aa5 01       		.byte	0x1
 2169 0aa6 CA0A0000 		.4byte	0xaca
 2170 0aaa 1D       		.uleb128 0x1d
 2171 0aab 73647000 		.ascii	"sdp\000"
 2172 0aaf 01       		.byte	0x1
 2173 0ab0 5D       		.byte	0x5d
 2174 0ab1 CA0A0000 		.4byte	0xaca
 2175 0ab5 1E       		.uleb128 0x1e
 2176 0ab6 07060000 		.4byte	.LASF167
 2177 0aba 01       		.byte	0x1
 2178 0abb 5D       		.byte	0x5d
 2179 0abc D00A0000 		.4byte	0xad0
 2180 0ac0 1F       		.uleb128 0x1f
 2181 0ac1 7500     		.ascii	"u\000"
 2182 0ac3 01       		.byte	0x1
 2183 0ac4 5E       		.byte	0x5e
 2184 0ac5 970A0000 		.4byte	0xa97
 2185 0ac9 00       		.byte	0x0
 2186 0aca 09       		.uleb128 0x9
 2187 0acb 04       		.byte	0x4
 2188 0acc 11090000 		.4byte	0x911
 2189 0ad0 09       		.uleb128 0x9
 2190 0ad1 04       		.byte	0x4
 2191 0ad2 D60A0000 		.4byte	0xad6
 2192 0ad6 14       		.uleb128 0x14
 2193 0ad7 E6090000 		.4byte	0x9e6
 2194 0adb 1C       		.uleb128 0x1c
 2195 0adc 3B000000 		.4byte	.LASF169
 2196 0ae0 01       		.byte	0x1
 2197 0ae1 8B       		.byte	0x8b
 2198 0ae2 01       		.byte	0x1
 2199 0ae3 01       		.byte	0x1
 2200 0ae4 270B0000 		.4byte	0xb27
 2201 0ae8 1D       		.uleb128 0x1d
 2202 0ae9 73647000 		.ascii	"sdp\000"
 2203 0aed 01       		.byte	0x1
 2204 0aee 8B       		.byte	0x8b
 2205 0aef CA0A0000 		.4byte	0xaca
 2206 0af3 1D       		.uleb128 0x1d
 2207 0af4 737200   		.ascii	"sr\000"
 2208 0af7 01       		.byte	0x1
 2209 0af8 8B       		.byte	0x8b
 2210 0af9 62000000 		.4byte	0x62
 2211 0afd 1F       		.uleb128 0x1f
ARM GAS  /tmp/ccWEGza2.s 			page 40


 2212 0afe 73747300 		.ascii	"sts\000"
 2213 0b02 01       		.byte	0x1
 2214 0b03 8C       		.byte	0x8c
 2215 0b04 F5050000 		.4byte	0x5f5
 2216 0b08 20       		.uleb128 0x20
 2217 0b09 190B0000 		.4byte	0xb19
 2218 0b0d 1F       		.uleb128 0x1f
 2219 0b0e 746D7000 		.ascii	"tmp\000"
 2220 0b12 01       		.byte	0x1
 2221 0b13 98       		.byte	0x98
 2222 0b14 86000000 		.4byte	0x86
 2223 0b18 00       		.byte	0x0
 2224 0b19 21       		.uleb128 0x21
 2225 0b1a 1F       		.uleb128 0x1f
 2226 0b1b 746D7000 		.ascii	"tmp\000"
 2227 0b1f 01       		.byte	0x1
 2228 0b20 9A       		.byte	0x9a
 2229 0b21 86000000 		.4byte	0x86
 2230 0b25 00       		.byte	0x0
 2231 0b26 00       		.byte	0x0
 2232 0b27 1C       		.uleb128 0x1c
 2233 0b28 D8010000 		.4byte	.LASF170
 2234 0b2c 01       		.byte	0x1
 2235 0b2d 7B       		.byte	0x7b
 2236 0b2e 01       		.byte	0x1
 2237 0b2f 01       		.byte	0x1
 2238 0b30 3E0B0000 		.4byte	0xb3e
 2239 0b34 1D       		.uleb128 0x1d
 2240 0b35 7500     		.ascii	"u\000"
 2241 0b37 01       		.byte	0x1
 2242 0b38 7B       		.byte	0x7b
 2243 0b39 970A0000 		.4byte	0xa97
 2244 0b3d 00       		.byte	0x0
 2245 0b3e 1C       		.uleb128 0x1c
 2246 0b3f 76050000 		.4byte	.LASF171
 2247 0b43 01       		.byte	0x1
 2248 0b44 A2       		.byte	0xa2
 2249 0b45 01       		.byte	0x1
 2250 0b46 01       		.byte	0x1
 2251 0b47 CA0B0000 		.4byte	0xbca
 2252 0b4b 1D       		.uleb128 0x1d
 2253 0b4c 73647000 		.ascii	"sdp\000"
 2254 0b50 01       		.byte	0x1
 2255 0b51 A2       		.byte	0xa2
 2256 0b52 CA0A0000 		.4byte	0xaca
 2257 0b56 1F       		.uleb128 0x1f
 2258 0b57 7500     		.ascii	"u\000"
 2259 0b59 01       		.byte	0x1
 2260 0b5a A3       		.byte	0xa3
 2261 0b5b 970A0000 		.4byte	0xa97
 2262 0b5f 1F       		.uleb128 0x1f
 2263 0b60 63723100 		.ascii	"cr1\000"
 2264 0b64 01       		.byte	0x1
 2265 0b65 A4       		.byte	0xa4
 2266 0b66 62000000 		.4byte	0x62
 2267 0b6a 1F       		.uleb128 0x1f
 2268 0b6b 737200   		.ascii	"sr\000"
ARM GAS  /tmp/ccWEGza2.s 			page 41


 2269 0b6e 01       		.byte	0x1
 2270 0b6f A5       		.byte	0xa5
 2271 0b70 62000000 		.4byte	0x62
 2272 0b74 1F       		.uleb128 0x1f
 2273 0b75 647200   		.ascii	"dr\000"
 2274 0b78 01       		.byte	0x1
 2275 0b79 A6       		.byte	0xa6
 2276 0b7a 62000000 		.4byte	0x62
 2277 0b7e 20       		.uleb128 0x20
 2278 0b7f 8F0B0000 		.4byte	0xb8f
 2279 0b83 1F       		.uleb128 0x1f
 2280 0b84 746D7000 		.ascii	"tmp\000"
 2281 0b88 01       		.byte	0x1
 2282 0b89 AE       		.byte	0xae
 2283 0b8a 86000000 		.4byte	0x86
 2284 0b8e 00       		.byte	0x0
 2285 0b8f 20       		.uleb128 0x20
 2286 0b90 A00B0000 		.4byte	0xba0
 2287 0b94 1F       		.uleb128 0x1f
 2288 0b95 746D7000 		.ascii	"tmp\000"
 2289 0b99 01       		.byte	0x1
 2290 0b9a B0       		.byte	0xb0
 2291 0b9b 86000000 		.4byte	0x86
 2292 0b9f 00       		.byte	0x0
 2293 0ba0 21       		.uleb128 0x21
 2294 0ba1 1F       		.uleb128 0x1f
 2295 0ba2 6200     		.ascii	"b\000"
 2296 0ba4 01       		.byte	0x1
 2297 0ba5 B3       		.byte	0xb3
 2298 0ba6 E8000000 		.4byte	0xe8
 2299 0baa 20       		.uleb128 0x20
 2300 0bab BB0B0000 		.4byte	0xbbb
 2301 0baf 1F       		.uleb128 0x1f
 2302 0bb0 746D7000 		.ascii	"tmp\000"
 2303 0bb4 01       		.byte	0x1
 2304 0bb5 B4       		.byte	0xb4
 2305 0bb6 86000000 		.4byte	0x86
 2306 0bba 00       		.byte	0x0
 2307 0bbb 21       		.uleb128 0x21
 2308 0bbc 1F       		.uleb128 0x1f
 2309 0bbd 746D7000 		.ascii	"tmp\000"
 2310 0bc1 01       		.byte	0x1
 2311 0bc2 BC       		.byte	0xbc
 2312 0bc3 86000000 		.4byte	0x86
 2313 0bc7 00       		.byte	0x0
 2314 0bc8 00       		.byte	0x0
 2315 0bc9 00       		.byte	0x0
 2316 0bca 22       		.uleb128 0x22
 2317 0bcb 2F040000 		.4byte	.LASF180
 2318 0bcf 01       		.byte	0x1
 2319 0bd0 C2       		.byte	0xc2
 2320 0bd1 01       		.byte	0x1
 2321 0bd2 00000000 		.4byte	.LFB40
 2322 0bd6 14000000 		.4byte	.LFE40
 2323 0bda 02       		.byte	0x2
 2324 0bdb 7D       		.byte	0x7d
 2325 0bdc 00       		.sleb128 0
ARM GAS  /tmp/ccWEGza2.s 			page 42


 2326 0bdd F00B0000 		.4byte	0xbf0
 2327 0be1 23       		.uleb128 0x23
 2328 0be2 717000   		.ascii	"qp\000"
 2329 0be5 01       		.byte	0x1
 2330 0be6 C2       		.byte	0xc2
 2331 0be7 ED040000 		.4byte	0x4ed
 2332 0beb 00000000 		.4byte	.LLST0
 2333 0bef 00       		.byte	0x0
 2334 0bf0 24       		.uleb128 0x24
 2335 0bf1 01       		.byte	0x1
 2336 0bf2 29030000 		.4byte	.LASF172
 2337 0bf6 01       		.byte	0x1
 2338 0bf7 F3       		.byte	0xf3
 2339 0bf8 01       		.byte	0x1
 2340 0bf9 00000000 		.4byte	.LFB41
 2341 0bfd F0000000 		.4byte	.LFE41
 2342 0c01 13000000 		.4byte	.LLST1
 2343 0c05 140D0000 		.4byte	0xd14
 2344 0c09 25       		.uleb128 0x25
 2345 0c0a 3E0B0000 		.4byte	0xb3e
 2346 0c0e 04000000 		.4byte	.LBB44
 2347 0c12 00000000 		.4byte	.Ldebug_ranges0+0x0
 2348 0c16 01       		.byte	0x1
 2349 0c17 F7       		.byte	0xf7
 2350 0c18 26       		.uleb128 0x26
 2351 0c19 18000000 		.4byte	.Ldebug_ranges0+0x18
 2352 0c1d 27       		.uleb128 0x27
 2353 0c1e 560B0000 		.4byte	0xb56
 2354 0c22 33000000 		.4byte	.LLST2
 2355 0c26 28       		.uleb128 0x28
 2356 0c27 5F0B0000 		.4byte	0xb5f
 2357 0c2b 01       		.byte	0x1
 2358 0c2c 57       		.byte	0x57
 2359 0c2d 28       		.uleb128 0x28
 2360 0c2e 6A0B0000 		.4byte	0xb6a
 2361 0c32 01       		.byte	0x1
 2362 0c33 54       		.byte	0x54
 2363 0c34 28       		.uleb128 0x28
 2364 0c35 740B0000 		.4byte	0xb74
 2365 0c39 01       		.byte	0x1
 2366 0c3a 58       		.byte	0x58
 2367 0c3b 29       		.uleb128 0x29
 2368 0c3c 4B0B0000 		.4byte	0xb4b
 2369 0c40 06       		.byte	0x6
 2370 0c41 03       		.byte	0x3
 2371 0c42 00000000 		.4byte	SD1
 2372 0c46 9F       		.byte	0x9f
 2373 0c47 2A       		.uleb128 0x2a
 2374 0c48 DB0A0000 		.4byte	0xadb
 2375 0c4c 28000000 		.4byte	.LBB46
 2376 0c50 72000000 		.4byte	.LBE46
 2377 0c54 01       		.byte	0x1
 2378 0c55 AA       		.byte	0xaa
 2379 0c56 AA0C0000 		.4byte	0xcaa
 2380 0c5a 2B       		.uleb128 0x2b
 2381 0c5b E80A0000 		.4byte	0xae8
 2382 0c5f 55000000 		.4byte	.LLST3
ARM GAS  /tmp/ccWEGza2.s 			page 43


 2383 0c63 2B       		.uleb128 0x2b
 2384 0c64 F30A0000 		.4byte	0xaf3
 2385 0c68 6D000000 		.4byte	.LLST4
 2386 0c6c 2C       		.uleb128 0x2c
 2387 0c6d 28000000 		.4byte	.LBB47
 2388 0c71 72000000 		.4byte	.LBE47
 2389 0c75 27       		.uleb128 0x27
 2390 0c76 FD0A0000 		.4byte	0xafd
 2391 0c7a 80000000 		.4byte	.LLST5
 2392 0c7e 2D       		.uleb128 0x2d
 2393 0c7f 58000000 		.4byte	.LBB48
 2394 0c83 5E000000 		.4byte	.LBE48
 2395 0c87 950C0000 		.4byte	0xc95
 2396 0c8b 27       		.uleb128 0x27
 2397 0c8c 0D0B0000 		.4byte	0xb0d
 2398 0c90 CB000000 		.4byte	.LLST6
 2399 0c94 00       		.byte	0x0
 2400 0c95 2C       		.uleb128 0x2c
 2401 0c96 6C000000 		.4byte	.LBB49
 2402 0c9a 72000000 		.4byte	.LBE49
 2403 0c9e 27       		.uleb128 0x27
 2404 0c9f 1A0B0000 		.4byte	0xb1a
 2405 0ca3 DE000000 		.4byte	.LLST7
 2406 0ca7 00       		.byte	0x0
 2407 0ca8 00       		.byte	0x0
 2408 0ca9 00       		.byte	0x0
 2409 0caa 2E       		.uleb128 0x2e
 2410 0cab 30000000 		.4byte	.Ldebug_ranges0+0x30
 2411 0caf E70C0000 		.4byte	0xce7
 2412 0cb3 27       		.uleb128 0x27
 2413 0cb4 A10B0000 		.4byte	0xba1
 2414 0cb8 07010000 		.4byte	.LLST8
 2415 0cbc 2D       		.uleb128 0x2d
 2416 0cbd A4000000 		.4byte	.LBB51
 2417 0cc1 AC000000 		.4byte	.LBE51
 2418 0cc5 D30C0000 		.4byte	0xcd3
 2419 0cc9 27       		.uleb128 0x27
 2420 0cca BC0B0000 		.4byte	0xbbc
 2421 0cce 1A010000 		.4byte	.LLST9
 2422 0cd2 00       		.byte	0x0
 2423 0cd3 2C       		.uleb128 0x2c
 2424 0cd4 8E000000 		.4byte	.LBB52
 2425 0cd8 94000000 		.4byte	.LBE52
 2426 0cdc 27       		.uleb128 0x27
 2427 0cdd AF0B0000 		.4byte	0xbaf
 2428 0ce1 38010000 		.4byte	.LLST10
 2429 0ce5 00       		.byte	0x0
 2430 0ce6 00       		.byte	0x0
 2431 0ce7 2D       		.uleb128 0x2d
 2432 0ce8 AC000000 		.4byte	.LBB53
 2433 0cec B2000000 		.4byte	.LBE53
 2434 0cf0 FE0C0000 		.4byte	0xcfe
 2435 0cf4 27       		.uleb128 0x27
 2436 0cf5 830B0000 		.4byte	0xb83
 2437 0cf9 4B010000 		.4byte	.LLST11
 2438 0cfd 00       		.byte	0x0
 2439 0cfe 2C       		.uleb128 0x2c
ARM GAS  /tmp/ccWEGza2.s 			page 44


 2440 0cff C2000000 		.4byte	.LBB54
 2441 0d03 CA000000 		.4byte	.LBE54
 2442 0d07 27       		.uleb128 0x27
 2443 0d08 940B0000 		.4byte	0xb94
 2444 0d0c 5E010000 		.4byte	.LLST12
 2445 0d10 00       		.byte	0x0
 2446 0d11 00       		.byte	0x0
 2447 0d12 00       		.byte	0x0
 2448 0d13 00       		.byte	0x0
 2449 0d14 2F       		.uleb128 0x2f
 2450 0d15 01       		.byte	0x1
 2451 0d16 52020000 		.4byte	.LASF181
 2452 0d1a 01       		.byte	0x1
 2453 0d1b 4601     		.2byte	0x146
 2454 0d1d 01       		.byte	0x1
 2455 0d1e 00000000 		.4byte	.LFB42
 2456 0d22 26000000 		.4byte	.LFE42
 2457 0d26 87010000 		.4byte	.LLST13
 2458 0d2a 30       		.uleb128 0x30
 2459 0d2b 01       		.byte	0x1
 2460 0d2c E2040000 		.4byte	.LASF173
 2461 0d30 01       		.byte	0x1
 2462 0d31 6C01     		.2byte	0x16c
 2463 0d33 01       		.byte	0x1
 2464 0d34 00000000 		.4byte	.LFB43
 2465 0d38 84000000 		.4byte	.LFE43
 2466 0d3c A7010000 		.4byte	.LLST14
 2467 0d40 8A0D0000 		.4byte	0xd8a
 2468 0d44 31       		.uleb128 0x31
 2469 0d45 73647000 		.ascii	"sdp\000"
 2470 0d49 01       		.byte	0x1
 2471 0d4a 6C01     		.2byte	0x16c
 2472 0d4c CA0A0000 		.4byte	0xaca
 2473 0d50 C7010000 		.4byte	.LLST15
 2474 0d54 32       		.uleb128 0x32
 2475 0d55 07060000 		.4byte	.LASF167
 2476 0d59 01       		.byte	0x1
 2477 0d5a 6C01     		.2byte	0x16c
 2478 0d5c D00A0000 		.4byte	0xad0
 2479 0d60 E5010000 		.4byte	.LLST16
 2480 0d64 33       		.uleb128 0x33
 2481 0d65 9D0A0000 		.4byte	0xa9d
 2482 0d69 18000000 		.4byte	.LBB58
 2483 0d6d 48000000 		.4byte	.Ldebug_ranges0+0x48
 2484 0d71 01       		.byte	0x1
 2485 0d72 9601     		.2byte	0x196
 2486 0d74 34       		.uleb128 0x34
 2487 0d75 B50A0000 		.4byte	0xab5
 2488 0d79 26       		.uleb128 0x26
 2489 0d7a 60000000 		.4byte	.Ldebug_ranges0+0x60
 2490 0d7e 27       		.uleb128 0x27
 2491 0d7f C00A0000 		.4byte	0xac0
 2492 0d83 F8010000 		.4byte	.LLST17
 2493 0d87 00       		.byte	0x0
 2494 0d88 00       		.byte	0x0
 2495 0d89 00       		.byte	0x0
 2496 0d8a 35       		.uleb128 0x35
ARM GAS  /tmp/ccWEGza2.s 			page 45


 2497 0d8b 01       		.byte	0x1
 2498 0d8c 6B070000 		.4byte	.LASF174
 2499 0d90 01       		.byte	0x1
 2500 0d91 A201     		.2byte	0x1a2
 2501 0d93 01       		.byte	0x1
 2502 0d94 00000000 		.4byte	.LFB44
 2503 0d98 34000000 		.4byte	.LFE44
 2504 0d9c 02       		.byte	0x2
 2505 0d9d 7D       		.byte	0x7d
 2506 0d9e 00       		.sleb128 0
 2507 0d9f CE0D0000 		.4byte	0xdce
 2508 0da3 31       		.uleb128 0x31
 2509 0da4 73647000 		.ascii	"sdp\000"
 2510 0da8 01       		.byte	0x1
 2511 0da9 A201     		.2byte	0x1a2
 2512 0dab CA0A0000 		.4byte	0xaca
 2513 0daf 0D020000 		.4byte	.LLST18
 2514 0db3 33       		.uleb128 0x33
 2515 0db4 270B0000 		.4byte	0xb27
 2516 0db8 12000000 		.4byte	.LBB62
 2517 0dbc 78000000 		.4byte	.Ldebug_ranges0+0x78
 2518 0dc0 01       		.byte	0x1
 2519 0dc1 A501     		.2byte	0x1a5
 2520 0dc3 2B       		.uleb128 0x2b
 2521 0dc4 340B0000 		.4byte	0xb34
 2522 0dc8 2B020000 		.4byte	.LLST19
 2523 0dcc 00       		.byte	0x0
 2524 0dcd 00       		.byte	0x0
 2525 0dce 36       		.uleb128 0x36
 2526 0dcf 98000000 		.4byte	.LASF175
 2527 0dd3 11       		.byte	0x11
 2528 0dd4 ED06     		.2byte	0x6ed
 2529 0dd6 DC0D0000 		.4byte	0xddc
 2530 0dda 01       		.byte	0x1
 2531 0ddb 01       		.byte	0x1
 2532 0ddc 0A       		.uleb128 0xa
 2533 0ddd 29000000 		.4byte	0x29
 2534 0de1 37       		.uleb128 0x37
 2535 0de2 53443100 		.ascii	"SD1\000"
 2536 0de6 10       		.byte	0x10
 2537 0de7 E1       		.byte	0xe1
 2538 0de8 11090000 		.4byte	0x911
 2539 0dec 01       		.byte	0x1
 2540 0ded 01       		.byte	0x1
 2541 0dee 38       		.uleb128 0x38
 2542 0def 2F010000 		.4byte	.LASF182
 2543 0df3 01       		.byte	0x1
 2544 0df4 4A       		.byte	0x4a
 2545 0df5 D60A0000 		.4byte	0xad6
 2546 0df9 05       		.byte	0x5
 2547 0dfa 03       		.byte	0x3
 2548 0dfb 00000000 		.4byte	default_config
 2549 0dff 36       		.uleb128 0x36
 2550 0e00 98000000 		.4byte	.LASF175
 2551 0e04 11       		.byte	0x11
 2552 0e05 ED06     		.2byte	0x6ed
 2553 0e07 DC0D0000 		.4byte	0xddc
ARM GAS  /tmp/ccWEGza2.s 			page 46


 2554 0e0b 01       		.byte	0x1
 2555 0e0c 01       		.byte	0x1
 2556 0e0d 39       		.uleb128 0x39
 2557 0e0e 53443100 		.ascii	"SD1\000"
 2558 0e12 01       		.byte	0x1
 2559 0e13 2E       		.byte	0x2e
 2560 0e14 11090000 		.4byte	0x911
 2561 0e18 01       		.byte	0x1
 2562 0e19 05       		.byte	0x5
 2563 0e1a 03       		.byte	0x3
 2564 0e1b 00000000 		.4byte	SD1
 2565 0e1f 00       		.byte	0x0
 2566              		.section	.debug_abbrev
 2567 0000 01       		.uleb128 0x1
 2568 0001 11       		.uleb128 0x11
 2569 0002 01       		.byte	0x1
 2570 0003 25       		.uleb128 0x25
 2571 0004 0E       		.uleb128 0xe
 2572 0005 13       		.uleb128 0x13
 2573 0006 0B       		.uleb128 0xb
 2574 0007 03       		.uleb128 0x3
 2575 0008 0E       		.uleb128 0xe
 2576 0009 1B       		.uleb128 0x1b
 2577 000a 0E       		.uleb128 0xe
 2578 000b 11       		.uleb128 0x11
 2579 000c 01       		.uleb128 0x1
 2580 000d 52       		.uleb128 0x52
 2581 000e 01       		.uleb128 0x1
 2582 000f 55       		.uleb128 0x55
 2583 0010 06       		.uleb128 0x6
 2584 0011 10       		.uleb128 0x10
 2585 0012 06       		.uleb128 0x6
 2586 0013 00       		.byte	0x0
 2587 0014 00       		.byte	0x0
 2588 0015 02       		.uleb128 0x2
 2589 0016 24       		.uleb128 0x24
 2590 0017 00       		.byte	0x0
 2591 0018 0B       		.uleb128 0xb
 2592 0019 0B       		.uleb128 0xb
 2593 001a 3E       		.uleb128 0x3e
 2594 001b 0B       		.uleb128 0xb
 2595 001c 03       		.uleb128 0x3
 2596 001d 08       		.uleb128 0x8
 2597 001e 00       		.byte	0x0
 2598 001f 00       		.byte	0x0
 2599 0020 03       		.uleb128 0x3
 2600 0021 16       		.uleb128 0x16
 2601 0022 00       		.byte	0x0
 2602 0023 03       		.uleb128 0x3
 2603 0024 0E       		.uleb128 0xe
 2604 0025 3A       		.uleb128 0x3a
 2605 0026 0B       		.uleb128 0xb
 2606 0027 3B       		.uleb128 0x3b
 2607 0028 0B       		.uleb128 0xb
 2608 0029 49       		.uleb128 0x49
 2609 002a 13       		.uleb128 0x13
 2610 002b 00       		.byte	0x0
ARM GAS  /tmp/ccWEGza2.s 			page 47


 2611 002c 00       		.byte	0x0
 2612 002d 04       		.uleb128 0x4
 2613 002e 24       		.uleb128 0x24
 2614 002f 00       		.byte	0x0
 2615 0030 0B       		.uleb128 0xb
 2616 0031 0B       		.uleb128 0xb
 2617 0032 3E       		.uleb128 0x3e
 2618 0033 0B       		.uleb128 0xb
 2619 0034 03       		.uleb128 0x3
 2620 0035 0E       		.uleb128 0xe
 2621 0036 00       		.byte	0x0
 2622 0037 00       		.byte	0x0
 2623 0038 05       		.uleb128 0x5
 2624 0039 13       		.uleb128 0x13
 2625 003a 01       		.byte	0x1
 2626 003b 03       		.uleb128 0x3
 2627 003c 0E       		.uleb128 0xe
 2628 003d 0B       		.uleb128 0xb
 2629 003e 0B       		.uleb128 0xb
 2630 003f 3A       		.uleb128 0x3a
 2631 0040 0B       		.uleb128 0xb
 2632 0041 3B       		.uleb128 0x3b
 2633 0042 0B       		.uleb128 0xb
 2634 0043 01       		.uleb128 0x1
 2635 0044 13       		.uleb128 0x13
 2636 0045 00       		.byte	0x0
 2637 0046 00       		.byte	0x0
 2638 0047 06       		.uleb128 0x6
 2639 0048 0D       		.uleb128 0xd
 2640 0049 00       		.byte	0x0
 2641 004a 03       		.uleb128 0x3
 2642 004b 0E       		.uleb128 0xe
 2643 004c 3A       		.uleb128 0x3a
 2644 004d 0B       		.uleb128 0xb
 2645 004e 3B       		.uleb128 0x3b
 2646 004f 0B       		.uleb128 0xb
 2647 0050 49       		.uleb128 0x49
 2648 0051 13       		.uleb128 0x13
 2649 0052 38       		.uleb128 0x38
 2650 0053 0A       		.uleb128 0xa
 2651 0054 00       		.byte	0x0
 2652 0055 00       		.byte	0x0
 2653 0056 07       		.uleb128 0x7
 2654 0057 0D       		.uleb128 0xd
 2655 0058 00       		.byte	0x0
 2656 0059 03       		.uleb128 0x3
 2657 005a 08       		.uleb128 0x8
 2658 005b 3A       		.uleb128 0x3a
 2659 005c 0B       		.uleb128 0xb
 2660 005d 3B       		.uleb128 0x3b
 2661 005e 0B       		.uleb128 0xb
 2662 005f 49       		.uleb128 0x49
 2663 0060 13       		.uleb128 0x13
 2664 0061 38       		.uleb128 0x38
 2665 0062 0A       		.uleb128 0xa
 2666 0063 00       		.byte	0x0
 2667 0064 00       		.byte	0x0
ARM GAS  /tmp/ccWEGza2.s 			page 48


 2668 0065 08       		.uleb128 0x8
 2669 0066 13       		.uleb128 0x13
 2670 0067 01       		.byte	0x1
 2671 0068 0B       		.uleb128 0xb
 2672 0069 0B       		.uleb128 0xb
 2673 006a 3A       		.uleb128 0x3a
 2674 006b 0B       		.uleb128 0xb
 2675 006c 3B       		.uleb128 0x3b
 2676 006d 0B       		.uleb128 0xb
 2677 006e 01       		.uleb128 0x1
 2678 006f 13       		.uleb128 0x13
 2679 0070 00       		.byte	0x0
 2680 0071 00       		.byte	0x0
 2681 0072 09       		.uleb128 0x9
 2682 0073 0F       		.uleb128 0xf
 2683 0074 00       		.byte	0x0
 2684 0075 0B       		.uleb128 0xb
 2685 0076 0B       		.uleb128 0xb
 2686 0077 49       		.uleb128 0x49
 2687 0078 13       		.uleb128 0x13
 2688 0079 00       		.byte	0x0
 2689 007a 00       		.byte	0x0
 2690 007b 0A       		.uleb128 0xa
 2691 007c 35       		.uleb128 0x35
 2692 007d 00       		.byte	0x0
 2693 007e 49       		.uleb128 0x49
 2694 007f 13       		.uleb128 0x13
 2695 0080 00       		.byte	0x0
 2696 0081 00       		.byte	0x0
 2697 0082 0B       		.uleb128 0xb
 2698 0083 16       		.uleb128 0x16
 2699 0084 00       		.byte	0x0
 2700 0085 03       		.uleb128 0x3
 2701 0086 0E       		.uleb128 0xe
 2702 0087 3A       		.uleb128 0x3a
 2703 0088 0B       		.uleb128 0xb
 2704 0089 3B       		.uleb128 0x3b
 2705 008a 05       		.uleb128 0x5
 2706 008b 49       		.uleb128 0x49
 2707 008c 13       		.uleb128 0x13
 2708 008d 00       		.byte	0x0
 2709 008e 00       		.byte	0x0
 2710 008f 0C       		.uleb128 0xc
 2711 0090 0F       		.uleb128 0xf
 2712 0091 00       		.byte	0x0
 2713 0092 0B       		.uleb128 0xb
 2714 0093 0B       		.uleb128 0xb
 2715 0094 00       		.byte	0x0
 2716 0095 00       		.byte	0x0
 2717 0096 0D       		.uleb128 0xd
 2718 0097 13       		.uleb128 0x13
 2719 0098 01       		.byte	0x1
 2720 0099 03       		.uleb128 0x3
 2721 009a 0E       		.uleb128 0xe
 2722 009b 0B       		.uleb128 0xb
 2723 009c 0B       		.uleb128 0xb
 2724 009d 3A       		.uleb128 0x3a
ARM GAS  /tmp/ccWEGza2.s 			page 49


 2725 009e 0B       		.uleb128 0xb
 2726 009f 3B       		.uleb128 0x3b
 2727 00a0 05       		.uleb128 0x5
 2728 00a1 01       		.uleb128 0x1
 2729 00a2 13       		.uleb128 0x13
 2730 00a3 00       		.byte	0x0
 2731 00a4 00       		.byte	0x0
 2732 00a5 0E       		.uleb128 0xe
 2733 00a6 0D       		.uleb128 0xd
 2734 00a7 00       		.byte	0x0
 2735 00a8 03       		.uleb128 0x3
 2736 00a9 08       		.uleb128 0x8
 2737 00aa 3A       		.uleb128 0x3a
 2738 00ab 0B       		.uleb128 0xb
 2739 00ac 3B       		.uleb128 0x3b
 2740 00ad 05       		.uleb128 0x5
 2741 00ae 49       		.uleb128 0x49
 2742 00af 13       		.uleb128 0x13
 2743 00b0 38       		.uleb128 0x38
 2744 00b1 0A       		.uleb128 0xa
 2745 00b2 00       		.byte	0x0
 2746 00b3 00       		.byte	0x0
 2747 00b4 0F       		.uleb128 0xf
 2748 00b5 17       		.uleb128 0x17
 2749 00b6 01       		.byte	0x1
 2750 00b7 0B       		.uleb128 0xb
 2751 00b8 0B       		.uleb128 0xb
 2752 00b9 3A       		.uleb128 0x3a
 2753 00ba 0B       		.uleb128 0xb
 2754 00bb 3B       		.uleb128 0x3b
 2755 00bc 0B       		.uleb128 0xb
 2756 00bd 01       		.uleb128 0x1
 2757 00be 13       		.uleb128 0x13
 2758 00bf 00       		.byte	0x0
 2759 00c0 00       		.byte	0x0
 2760 00c1 10       		.uleb128 0x10
 2761 00c2 0D       		.uleb128 0xd
 2762 00c3 00       		.byte	0x0
 2763 00c4 03       		.uleb128 0x3
 2764 00c5 0E       		.uleb128 0xe
 2765 00c6 3A       		.uleb128 0x3a
 2766 00c7 0B       		.uleb128 0xb
 2767 00c8 3B       		.uleb128 0x3b
 2768 00c9 0B       		.uleb128 0xb
 2769 00ca 49       		.uleb128 0x49
 2770 00cb 13       		.uleb128 0x13
 2771 00cc 00       		.byte	0x0
 2772 00cd 00       		.byte	0x0
 2773 00ce 11       		.uleb128 0x11
 2774 00cf 15       		.uleb128 0x15
 2775 00d0 01       		.byte	0x1
 2776 00d1 27       		.uleb128 0x27
 2777 00d2 0C       		.uleb128 0xc
 2778 00d3 01       		.uleb128 0x1
 2779 00d4 13       		.uleb128 0x13
 2780 00d5 00       		.byte	0x0
 2781 00d6 00       		.byte	0x0
ARM GAS  /tmp/ccWEGza2.s 			page 50


 2782 00d7 12       		.uleb128 0x12
 2783 00d8 05       		.uleb128 0x5
 2784 00d9 00       		.byte	0x0
 2785 00da 49       		.uleb128 0x49
 2786 00db 13       		.uleb128 0x13
 2787 00dc 00       		.byte	0x0
 2788 00dd 00       		.byte	0x0
 2789 00de 13       		.uleb128 0x13
 2790 00df 15       		.uleb128 0x15
 2791 00e0 01       		.byte	0x1
 2792 00e1 27       		.uleb128 0x27
 2793 00e2 0C       		.uleb128 0xc
 2794 00e3 49       		.uleb128 0x49
 2795 00e4 13       		.uleb128 0x13
 2796 00e5 01       		.uleb128 0x1
 2797 00e6 13       		.uleb128 0x13
 2798 00e7 00       		.byte	0x0
 2799 00e8 00       		.byte	0x0
 2800 00e9 14       		.uleb128 0x14
 2801 00ea 26       		.uleb128 0x26
 2802 00eb 00       		.byte	0x0
 2803 00ec 49       		.uleb128 0x49
 2804 00ed 13       		.uleb128 0x13
 2805 00ee 00       		.byte	0x0
 2806 00ef 00       		.byte	0x0
 2807 00f0 15       		.uleb128 0x15
 2808 00f1 04       		.uleb128 0x4
 2809 00f2 01       		.byte	0x1
 2810 00f3 03       		.uleb128 0x3
 2811 00f4 0E       		.uleb128 0xe
 2812 00f5 0B       		.uleb128 0xb
 2813 00f6 0B       		.uleb128 0xb
 2814 00f7 3A       		.uleb128 0x3a
 2815 00f8 0B       		.uleb128 0xb
 2816 00f9 3B       		.uleb128 0x3b
 2817 00fa 0B       		.uleb128 0xb
 2818 00fb 01       		.uleb128 0x1
 2819 00fc 13       		.uleb128 0x13
 2820 00fd 00       		.byte	0x0
 2821 00fe 00       		.byte	0x0
 2822 00ff 16       		.uleb128 0x16
 2823 0100 28       		.uleb128 0x28
 2824 0101 00       		.byte	0x0
 2825 0102 03       		.uleb128 0x3
 2826 0103 0E       		.uleb128 0xe
 2827 0104 1C       		.uleb128 0x1c
 2828 0105 0D       		.uleb128 0xd
 2829 0106 00       		.byte	0x0
 2830 0107 00       		.byte	0x0
 2831 0108 17       		.uleb128 0x17
 2832 0109 13       		.uleb128 0x13
 2833 010a 01       		.byte	0x1
 2834 010b 0B       		.uleb128 0xb
 2835 010c 0B       		.uleb128 0xb
 2836 010d 3A       		.uleb128 0x3a
 2837 010e 0B       		.uleb128 0xb
 2838 010f 3B       		.uleb128 0x3b
ARM GAS  /tmp/ccWEGza2.s 			page 51


 2839 0110 05       		.uleb128 0x5
 2840 0111 01       		.uleb128 0x1
 2841 0112 13       		.uleb128 0x13
 2842 0113 00       		.byte	0x0
 2843 0114 00       		.byte	0x0
 2844 0115 18       		.uleb128 0x18
 2845 0116 0D       		.uleb128 0xd
 2846 0117 00       		.byte	0x0
 2847 0118 03       		.uleb128 0x3
 2848 0119 0E       		.uleb128 0xe
 2849 011a 3A       		.uleb128 0x3a
 2850 011b 0B       		.uleb128 0xb
 2851 011c 3B       		.uleb128 0x3b
 2852 011d 05       		.uleb128 0x5
 2853 011e 49       		.uleb128 0x49
 2854 011f 13       		.uleb128 0x13
 2855 0120 38       		.uleb128 0x38
 2856 0121 0A       		.uleb128 0xa
 2857 0122 00       		.byte	0x0
 2858 0123 00       		.byte	0x0
 2859 0124 19       		.uleb128 0x19
 2860 0125 04       		.uleb128 0x4
 2861 0126 01       		.byte	0x1
 2862 0127 0B       		.uleb128 0xb
 2863 0128 0B       		.uleb128 0xb
 2864 0129 3A       		.uleb128 0x3a
 2865 012a 0B       		.uleb128 0xb
 2866 012b 3B       		.uleb128 0x3b
 2867 012c 0B       		.uleb128 0xb
 2868 012d 01       		.uleb128 0x1
 2869 012e 13       		.uleb128 0x13
 2870 012f 00       		.byte	0x0
 2871 0130 00       		.byte	0x0
 2872 0131 1A       		.uleb128 0x1a
 2873 0132 01       		.uleb128 0x1
 2874 0133 01       		.byte	0x1
 2875 0134 49       		.uleb128 0x49
 2876 0135 13       		.uleb128 0x13
 2877 0136 01       		.uleb128 0x1
 2878 0137 13       		.uleb128 0x13
 2879 0138 00       		.byte	0x0
 2880 0139 00       		.byte	0x0
 2881 013a 1B       		.uleb128 0x1b
 2882 013b 21       		.uleb128 0x21
 2883 013c 00       		.byte	0x0
 2884 013d 49       		.uleb128 0x49
 2885 013e 13       		.uleb128 0x13
 2886 013f 2F       		.uleb128 0x2f
 2887 0140 0B       		.uleb128 0xb
 2888 0141 00       		.byte	0x0
 2889 0142 00       		.byte	0x0
 2890 0143 1C       		.uleb128 0x1c
 2891 0144 2E       		.uleb128 0x2e
 2892 0145 01       		.byte	0x1
 2893 0146 03       		.uleb128 0x3
 2894 0147 0E       		.uleb128 0xe
 2895 0148 3A       		.uleb128 0x3a
ARM GAS  /tmp/ccWEGza2.s 			page 52


 2896 0149 0B       		.uleb128 0xb
 2897 014a 3B       		.uleb128 0x3b
 2898 014b 0B       		.uleb128 0xb
 2899 014c 27       		.uleb128 0x27
 2900 014d 0C       		.uleb128 0xc
 2901 014e 20       		.uleb128 0x20
 2902 014f 0B       		.uleb128 0xb
 2903 0150 01       		.uleb128 0x1
 2904 0151 13       		.uleb128 0x13
 2905 0152 00       		.byte	0x0
 2906 0153 00       		.byte	0x0
 2907 0154 1D       		.uleb128 0x1d
 2908 0155 05       		.uleb128 0x5
 2909 0156 00       		.byte	0x0
 2910 0157 03       		.uleb128 0x3
 2911 0158 08       		.uleb128 0x8
 2912 0159 3A       		.uleb128 0x3a
 2913 015a 0B       		.uleb128 0xb
 2914 015b 3B       		.uleb128 0x3b
 2915 015c 0B       		.uleb128 0xb
 2916 015d 49       		.uleb128 0x49
 2917 015e 13       		.uleb128 0x13
 2918 015f 00       		.byte	0x0
 2919 0160 00       		.byte	0x0
 2920 0161 1E       		.uleb128 0x1e
 2921 0162 05       		.uleb128 0x5
 2922 0163 00       		.byte	0x0
 2923 0164 03       		.uleb128 0x3
 2924 0165 0E       		.uleb128 0xe
 2925 0166 3A       		.uleb128 0x3a
 2926 0167 0B       		.uleb128 0xb
 2927 0168 3B       		.uleb128 0x3b
 2928 0169 0B       		.uleb128 0xb
 2929 016a 49       		.uleb128 0x49
 2930 016b 13       		.uleb128 0x13
 2931 016c 00       		.byte	0x0
 2932 016d 00       		.byte	0x0
 2933 016e 1F       		.uleb128 0x1f
 2934 016f 34       		.uleb128 0x34
 2935 0170 00       		.byte	0x0
 2936 0171 03       		.uleb128 0x3
 2937 0172 08       		.uleb128 0x8
 2938 0173 3A       		.uleb128 0x3a
 2939 0174 0B       		.uleb128 0xb
 2940 0175 3B       		.uleb128 0x3b
 2941 0176 0B       		.uleb128 0xb
 2942 0177 49       		.uleb128 0x49
 2943 0178 13       		.uleb128 0x13
 2944 0179 00       		.byte	0x0
 2945 017a 00       		.byte	0x0
 2946 017b 20       		.uleb128 0x20
 2947 017c 0B       		.uleb128 0xb
 2948 017d 01       		.byte	0x1
 2949 017e 01       		.uleb128 0x1
 2950 017f 13       		.uleb128 0x13
 2951 0180 00       		.byte	0x0
 2952 0181 00       		.byte	0x0
ARM GAS  /tmp/ccWEGza2.s 			page 53


 2953 0182 21       		.uleb128 0x21
 2954 0183 0B       		.uleb128 0xb
 2955 0184 01       		.byte	0x1
 2956 0185 00       		.byte	0x0
 2957 0186 00       		.byte	0x0
 2958 0187 22       		.uleb128 0x22
 2959 0188 2E       		.uleb128 0x2e
 2960 0189 01       		.byte	0x1
 2961 018a 03       		.uleb128 0x3
 2962 018b 0E       		.uleb128 0xe
 2963 018c 3A       		.uleb128 0x3a
 2964 018d 0B       		.uleb128 0xb
 2965 018e 3B       		.uleb128 0x3b
 2966 018f 0B       		.uleb128 0xb
 2967 0190 27       		.uleb128 0x27
 2968 0191 0C       		.uleb128 0xc
 2969 0192 11       		.uleb128 0x11
 2970 0193 01       		.uleb128 0x1
 2971 0194 12       		.uleb128 0x12
 2972 0195 01       		.uleb128 0x1
 2973 0196 40       		.uleb128 0x40
 2974 0197 0A       		.uleb128 0xa
 2975 0198 01       		.uleb128 0x1
 2976 0199 13       		.uleb128 0x13
 2977 019a 00       		.byte	0x0
 2978 019b 00       		.byte	0x0
 2979 019c 23       		.uleb128 0x23
 2980 019d 05       		.uleb128 0x5
 2981 019e 00       		.byte	0x0
 2982 019f 03       		.uleb128 0x3
 2983 01a0 08       		.uleb128 0x8
 2984 01a1 3A       		.uleb128 0x3a
 2985 01a2 0B       		.uleb128 0xb
 2986 01a3 3B       		.uleb128 0x3b
 2987 01a4 0B       		.uleb128 0xb
 2988 01a5 49       		.uleb128 0x49
 2989 01a6 13       		.uleb128 0x13
 2990 01a7 02       		.uleb128 0x2
 2991 01a8 06       		.uleb128 0x6
 2992 01a9 00       		.byte	0x0
 2993 01aa 00       		.byte	0x0
 2994 01ab 24       		.uleb128 0x24
 2995 01ac 2E       		.uleb128 0x2e
 2996 01ad 01       		.byte	0x1
 2997 01ae 3F       		.uleb128 0x3f
 2998 01af 0C       		.uleb128 0xc
 2999 01b0 03       		.uleb128 0x3
 3000 01b1 0E       		.uleb128 0xe
 3001 01b2 3A       		.uleb128 0x3a
 3002 01b3 0B       		.uleb128 0xb
 3003 01b4 3B       		.uleb128 0x3b
 3004 01b5 0B       		.uleb128 0xb
 3005 01b6 27       		.uleb128 0x27
 3006 01b7 0C       		.uleb128 0xc
 3007 01b8 11       		.uleb128 0x11
 3008 01b9 01       		.uleb128 0x1
 3009 01ba 12       		.uleb128 0x12
ARM GAS  /tmp/ccWEGza2.s 			page 54


 3010 01bb 01       		.uleb128 0x1
 3011 01bc 40       		.uleb128 0x40
 3012 01bd 06       		.uleb128 0x6
 3013 01be 01       		.uleb128 0x1
 3014 01bf 13       		.uleb128 0x13
 3015 01c0 00       		.byte	0x0
 3016 01c1 00       		.byte	0x0
 3017 01c2 25       		.uleb128 0x25
 3018 01c3 1D       		.uleb128 0x1d
 3019 01c4 01       		.byte	0x1
 3020 01c5 31       		.uleb128 0x31
 3021 01c6 13       		.uleb128 0x13
 3022 01c7 52       		.uleb128 0x52
 3023 01c8 01       		.uleb128 0x1
 3024 01c9 55       		.uleb128 0x55
 3025 01ca 06       		.uleb128 0x6
 3026 01cb 58       		.uleb128 0x58
 3027 01cc 0B       		.uleb128 0xb
 3028 01cd 59       		.uleb128 0x59
 3029 01ce 0B       		.uleb128 0xb
 3030 01cf 00       		.byte	0x0
 3031 01d0 00       		.byte	0x0
 3032 01d1 26       		.uleb128 0x26
 3033 01d2 0B       		.uleb128 0xb
 3034 01d3 01       		.byte	0x1
 3035 01d4 55       		.uleb128 0x55
 3036 01d5 06       		.uleb128 0x6
 3037 01d6 00       		.byte	0x0
 3038 01d7 00       		.byte	0x0
 3039 01d8 27       		.uleb128 0x27
 3040 01d9 34       		.uleb128 0x34
 3041 01da 00       		.byte	0x0
 3042 01db 31       		.uleb128 0x31
 3043 01dc 13       		.uleb128 0x13
 3044 01dd 02       		.uleb128 0x2
 3045 01de 06       		.uleb128 0x6
 3046 01df 00       		.byte	0x0
 3047 01e0 00       		.byte	0x0
 3048 01e1 28       		.uleb128 0x28
 3049 01e2 34       		.uleb128 0x34
 3050 01e3 00       		.byte	0x0
 3051 01e4 31       		.uleb128 0x31
 3052 01e5 13       		.uleb128 0x13
 3053 01e6 02       		.uleb128 0x2
 3054 01e7 0A       		.uleb128 0xa
 3055 01e8 00       		.byte	0x0
 3056 01e9 00       		.byte	0x0
 3057 01ea 29       		.uleb128 0x29
 3058 01eb 05       		.uleb128 0x5
 3059 01ec 00       		.byte	0x0
 3060 01ed 31       		.uleb128 0x31
 3061 01ee 13       		.uleb128 0x13
 3062 01ef 02       		.uleb128 0x2
 3063 01f0 0A       		.uleb128 0xa
 3064 01f1 00       		.byte	0x0
 3065 01f2 00       		.byte	0x0
 3066 01f3 2A       		.uleb128 0x2a
ARM GAS  /tmp/ccWEGza2.s 			page 55


 3067 01f4 1D       		.uleb128 0x1d
 3068 01f5 01       		.byte	0x1
 3069 01f6 31       		.uleb128 0x31
 3070 01f7 13       		.uleb128 0x13
 3071 01f8 11       		.uleb128 0x11
 3072 01f9 01       		.uleb128 0x1
 3073 01fa 12       		.uleb128 0x12
 3074 01fb 01       		.uleb128 0x1
 3075 01fc 58       		.uleb128 0x58
 3076 01fd 0B       		.uleb128 0xb
 3077 01fe 59       		.uleb128 0x59
 3078 01ff 0B       		.uleb128 0xb
 3079 0200 01       		.uleb128 0x1
 3080 0201 13       		.uleb128 0x13
 3081 0202 00       		.byte	0x0
 3082 0203 00       		.byte	0x0
 3083 0204 2B       		.uleb128 0x2b
 3084 0205 05       		.uleb128 0x5
 3085 0206 00       		.byte	0x0
 3086 0207 31       		.uleb128 0x31
 3087 0208 13       		.uleb128 0x13
 3088 0209 02       		.uleb128 0x2
 3089 020a 06       		.uleb128 0x6
 3090 020b 00       		.byte	0x0
 3091 020c 00       		.byte	0x0
 3092 020d 2C       		.uleb128 0x2c
 3093 020e 0B       		.uleb128 0xb
 3094 020f 01       		.byte	0x1
 3095 0210 11       		.uleb128 0x11
 3096 0211 01       		.uleb128 0x1
 3097 0212 12       		.uleb128 0x12
 3098 0213 01       		.uleb128 0x1
 3099 0214 00       		.byte	0x0
 3100 0215 00       		.byte	0x0
 3101 0216 2D       		.uleb128 0x2d
 3102 0217 0B       		.uleb128 0xb
 3103 0218 01       		.byte	0x1
 3104 0219 11       		.uleb128 0x11
 3105 021a 01       		.uleb128 0x1
 3106 021b 12       		.uleb128 0x12
 3107 021c 01       		.uleb128 0x1
 3108 021d 01       		.uleb128 0x1
 3109 021e 13       		.uleb128 0x13
 3110 021f 00       		.byte	0x0
 3111 0220 00       		.byte	0x0
 3112 0221 2E       		.uleb128 0x2e
 3113 0222 0B       		.uleb128 0xb
 3114 0223 01       		.byte	0x1
 3115 0224 55       		.uleb128 0x55
 3116 0225 06       		.uleb128 0x6
 3117 0226 01       		.uleb128 0x1
 3118 0227 13       		.uleb128 0x13
 3119 0228 00       		.byte	0x0
 3120 0229 00       		.byte	0x0
 3121 022a 2F       		.uleb128 0x2f
 3122 022b 2E       		.uleb128 0x2e
 3123 022c 00       		.byte	0x0
ARM GAS  /tmp/ccWEGza2.s 			page 56


 3124 022d 3F       		.uleb128 0x3f
 3125 022e 0C       		.uleb128 0xc
 3126 022f 03       		.uleb128 0x3
 3127 0230 0E       		.uleb128 0xe
 3128 0231 3A       		.uleb128 0x3a
 3129 0232 0B       		.uleb128 0xb
 3130 0233 3B       		.uleb128 0x3b
 3131 0234 05       		.uleb128 0x5
 3132 0235 27       		.uleb128 0x27
 3133 0236 0C       		.uleb128 0xc
 3134 0237 11       		.uleb128 0x11
 3135 0238 01       		.uleb128 0x1
 3136 0239 12       		.uleb128 0x12
 3137 023a 01       		.uleb128 0x1
 3138 023b 40       		.uleb128 0x40
 3139 023c 06       		.uleb128 0x6
 3140 023d 00       		.byte	0x0
 3141 023e 00       		.byte	0x0
 3142 023f 30       		.uleb128 0x30
 3143 0240 2E       		.uleb128 0x2e
 3144 0241 01       		.byte	0x1
 3145 0242 3F       		.uleb128 0x3f
 3146 0243 0C       		.uleb128 0xc
 3147 0244 03       		.uleb128 0x3
 3148 0245 0E       		.uleb128 0xe
 3149 0246 3A       		.uleb128 0x3a
 3150 0247 0B       		.uleb128 0xb
 3151 0248 3B       		.uleb128 0x3b
 3152 0249 05       		.uleb128 0x5
 3153 024a 27       		.uleb128 0x27
 3154 024b 0C       		.uleb128 0xc
 3155 024c 11       		.uleb128 0x11
 3156 024d 01       		.uleb128 0x1
 3157 024e 12       		.uleb128 0x12
 3158 024f 01       		.uleb128 0x1
 3159 0250 40       		.uleb128 0x40
 3160 0251 06       		.uleb128 0x6
 3161 0252 01       		.uleb128 0x1
 3162 0253 13       		.uleb128 0x13
 3163 0254 00       		.byte	0x0
 3164 0255 00       		.byte	0x0
 3165 0256 31       		.uleb128 0x31
 3166 0257 05       		.uleb128 0x5
 3167 0258 00       		.byte	0x0
 3168 0259 03       		.uleb128 0x3
 3169 025a 08       		.uleb128 0x8
 3170 025b 3A       		.uleb128 0x3a
 3171 025c 0B       		.uleb128 0xb
 3172 025d 3B       		.uleb128 0x3b
 3173 025e 05       		.uleb128 0x5
 3174 025f 49       		.uleb128 0x49
 3175 0260 13       		.uleb128 0x13
 3176 0261 02       		.uleb128 0x2
 3177 0262 06       		.uleb128 0x6
 3178 0263 00       		.byte	0x0
 3179 0264 00       		.byte	0x0
 3180 0265 32       		.uleb128 0x32
ARM GAS  /tmp/ccWEGza2.s 			page 57


 3181 0266 05       		.uleb128 0x5
 3182 0267 00       		.byte	0x0
 3183 0268 03       		.uleb128 0x3
 3184 0269 0E       		.uleb128 0xe
 3185 026a 3A       		.uleb128 0x3a
 3186 026b 0B       		.uleb128 0xb
 3187 026c 3B       		.uleb128 0x3b
 3188 026d 05       		.uleb128 0x5
 3189 026e 49       		.uleb128 0x49
 3190 026f 13       		.uleb128 0x13
 3191 0270 02       		.uleb128 0x2
 3192 0271 06       		.uleb128 0x6
 3193 0272 00       		.byte	0x0
 3194 0273 00       		.byte	0x0
 3195 0274 33       		.uleb128 0x33
 3196 0275 1D       		.uleb128 0x1d
 3197 0276 01       		.byte	0x1
 3198 0277 31       		.uleb128 0x31
 3199 0278 13       		.uleb128 0x13
 3200 0279 52       		.uleb128 0x52
 3201 027a 01       		.uleb128 0x1
 3202 027b 55       		.uleb128 0x55
 3203 027c 06       		.uleb128 0x6
 3204 027d 58       		.uleb128 0x58
 3205 027e 0B       		.uleb128 0xb
 3206 027f 59       		.uleb128 0x59
 3207 0280 05       		.uleb128 0x5
 3208 0281 00       		.byte	0x0
 3209 0282 00       		.byte	0x0
 3210 0283 34       		.uleb128 0x34
 3211 0284 05       		.uleb128 0x5
 3212 0285 00       		.byte	0x0
 3213 0286 31       		.uleb128 0x31
 3214 0287 13       		.uleb128 0x13
 3215 0288 00       		.byte	0x0
 3216 0289 00       		.byte	0x0
 3217 028a 35       		.uleb128 0x35
 3218 028b 2E       		.uleb128 0x2e
 3219 028c 01       		.byte	0x1
 3220 028d 3F       		.uleb128 0x3f
 3221 028e 0C       		.uleb128 0xc
 3222 028f 03       		.uleb128 0x3
 3223 0290 0E       		.uleb128 0xe
 3224 0291 3A       		.uleb128 0x3a
 3225 0292 0B       		.uleb128 0xb
 3226 0293 3B       		.uleb128 0x3b
 3227 0294 05       		.uleb128 0x5
 3228 0295 27       		.uleb128 0x27
 3229 0296 0C       		.uleb128 0xc
 3230 0297 11       		.uleb128 0x11
 3231 0298 01       		.uleb128 0x1
 3232 0299 12       		.uleb128 0x12
 3233 029a 01       		.uleb128 0x1
 3234 029b 40       		.uleb128 0x40
 3235 029c 0A       		.uleb128 0xa
 3236 029d 01       		.uleb128 0x1
 3237 029e 13       		.uleb128 0x13
ARM GAS  /tmp/ccWEGza2.s 			page 58


 3238 029f 00       		.byte	0x0
 3239 02a0 00       		.byte	0x0
 3240 02a1 36       		.uleb128 0x36
 3241 02a2 34       		.uleb128 0x34
 3242 02a3 00       		.byte	0x0
 3243 02a4 03       		.uleb128 0x3
 3244 02a5 0E       		.uleb128 0xe
 3245 02a6 3A       		.uleb128 0x3a
 3246 02a7 0B       		.uleb128 0xb
 3247 02a8 3B       		.uleb128 0x3b
 3248 02a9 05       		.uleb128 0x5
 3249 02aa 49       		.uleb128 0x49
 3250 02ab 13       		.uleb128 0x13
 3251 02ac 3F       		.uleb128 0x3f
 3252 02ad 0C       		.uleb128 0xc
 3253 02ae 3C       		.uleb128 0x3c
 3254 02af 0C       		.uleb128 0xc
 3255 02b0 00       		.byte	0x0
 3256 02b1 00       		.byte	0x0
 3257 02b2 37       		.uleb128 0x37
 3258 02b3 34       		.uleb128 0x34
 3259 02b4 00       		.byte	0x0
 3260 02b5 03       		.uleb128 0x3
 3261 02b6 08       		.uleb128 0x8
 3262 02b7 3A       		.uleb128 0x3a
 3263 02b8 0B       		.uleb128 0xb
 3264 02b9 3B       		.uleb128 0x3b
 3265 02ba 0B       		.uleb128 0xb
 3266 02bb 49       		.uleb128 0x49
 3267 02bc 13       		.uleb128 0x13
 3268 02bd 3F       		.uleb128 0x3f
 3269 02be 0C       		.uleb128 0xc
 3270 02bf 3C       		.uleb128 0x3c
 3271 02c0 0C       		.uleb128 0xc
 3272 02c1 00       		.byte	0x0
 3273 02c2 00       		.byte	0x0
 3274 02c3 38       		.uleb128 0x38
 3275 02c4 34       		.uleb128 0x34
 3276 02c5 00       		.byte	0x0
 3277 02c6 03       		.uleb128 0x3
 3278 02c7 0E       		.uleb128 0xe
 3279 02c8 3A       		.uleb128 0x3a
 3280 02c9 0B       		.uleb128 0xb
 3281 02ca 3B       		.uleb128 0x3b
 3282 02cb 0B       		.uleb128 0xb
 3283 02cc 49       		.uleb128 0x49
 3284 02cd 13       		.uleb128 0x13
 3285 02ce 02       		.uleb128 0x2
 3286 02cf 0A       		.uleb128 0xa
 3287 02d0 00       		.byte	0x0
 3288 02d1 00       		.byte	0x0
 3289 02d2 39       		.uleb128 0x39
 3290 02d3 34       		.uleb128 0x34
 3291 02d4 00       		.byte	0x0
 3292 02d5 03       		.uleb128 0x3
 3293 02d6 08       		.uleb128 0x8
 3294 02d7 3A       		.uleb128 0x3a
ARM GAS  /tmp/ccWEGza2.s 			page 59


 3295 02d8 0B       		.uleb128 0xb
 3296 02d9 3B       		.uleb128 0x3b
 3297 02da 0B       		.uleb128 0xb
 3298 02db 49       		.uleb128 0x49
 3299 02dc 13       		.uleb128 0x13
 3300 02dd 3F       		.uleb128 0x3f
 3301 02de 0C       		.uleb128 0xc
 3302 02df 02       		.uleb128 0x2
 3303 02e0 0A       		.uleb128 0xa
 3304 02e1 00       		.byte	0x0
 3305 02e2 00       		.byte	0x0
 3306 02e3 00       		.byte	0x0
 3307              		.section	.debug_pubnames,"",%progbits
 3308 0000 54000000 		.4byte	0x54
 3309 0004 0200     		.2byte	0x2
 3310 0006 00000000 		.4byte	.Ldebug_info0
 3311 000a 200E0000 		.4byte	0xe20
 3312 000e F00B0000 		.4byte	0xbf0
 3313 0012 56656374 		.ascii	"VectorD4\000"
 3313      6F724434 
 3313      00
 3314 001b 140D0000 		.4byte	0xd14
 3315 001f 73645F6C 		.ascii	"sd_lld_init\000"
 3315      6C645F69 
 3315      6E697400 
 3316 002b 2A0D0000 		.4byte	0xd2a
 3317 002f 73645F6C 		.ascii	"sd_lld_start\000"
 3317      6C645F73 
 3317      74617274 
 3317      00
 3318 003c 8A0D0000 		.4byte	0xd8a
 3319 0040 73645F6C 		.ascii	"sd_lld_stop\000"
 3319      6C645F73 
 3319      746F7000 
 3320 004c 0D0E0000 		.4byte	0xe0d
 3321 0050 53443100 		.ascii	"SD1\000"
 3322 0054 00000000 		.4byte	0x0
 3323              		.section	.debug_pubtypes,"",%progbits
 3324 0000 77020000 		.4byte	0x277
 3325 0004 0200     		.2byte	0x2
 3326 0006 00000000 		.4byte	.Ldebug_info0
 3327 000a 200E0000 		.4byte	0xe20
 3328 000e 30000000 		.4byte	0x30
 3329 0012 73697A65 		.ascii	"size_t\000"
 3329      5F7400
 3330 0019 49000000 		.4byte	0x49
 3331 001d 75696E74 		.ascii	"uint8_t\000"
 3331      385F7400 
 3332 0025 62000000 		.4byte	0x62
 3333 0029 75696E74 		.ascii	"uint16_t\000"
 3333      31365F74 
 3333      00
 3334 0032 74000000 		.4byte	0x74
 3335 0036 696E7433 		.ascii	"int32_t\000"
 3335      325F7400 
 3336 003e 86000000 		.4byte	0x86
 3337 0042 75696E74 		.ascii	"uint32_t\000"
ARM GAS  /tmp/ccWEGza2.s 			page 60


 3337      33325F74 
 3337      00
 3338 004b A6000000 		.4byte	0xa6
 3339 004f 75696E74 		.ascii	"uint_fast16_t\000"
 3339      5F666173 
 3339      7431365F 
 3339      7400
 3340 005d B1000000 		.4byte	0xb1
 3341 0061 626F6F6C 		.ascii	"bool_t\000"
 3341      5F7400
 3342 0068 BC000000 		.4byte	0xbc
 3343 006c 746D6F64 		.ascii	"tmode_t\000"
 3343      655F7400 
 3344 0074 C7000000 		.4byte	0xc7
 3345 0078 74737461 		.ascii	"tstate_t\000"
 3345      74655F74 
 3345      00
 3346 0081 D2000000 		.4byte	0xd2
 3347 0085 74726566 		.ascii	"trefs_t\000"
 3347      735F7400 
 3348 008d DD000000 		.4byte	0xdd
 3349 0091 74707269 		.ascii	"tprio_t\000"
 3349      6F5F7400 
 3350 0099 E8000000 		.4byte	0xe8
 3351 009d 6D73675F 		.ascii	"msg_t\000"
 3351      7400
 3352 00a3 F3000000 		.4byte	0xf3
 3353 00a7 6576656E 		.ascii	"eventmask_t\000"
 3353      746D6173 
 3353      6B5F7400 
 3354 00b3 FE000000 		.4byte	0xfe
 3355 00b7 73797374 		.ascii	"systime_t\000"
 3355      696D655F 
 3355      7400
 3356 00c1 09010000 		.4byte	0x109
 3357 00c5 636E745F 		.ascii	"cnt_t\000"
 3357      7400
 3358 00cb 14010000 		.4byte	0x114
 3359 00cf 54687265 		.ascii	"Thread\000"
 3359      616400
 3360 00d6 53020000 		.4byte	0x253
 3361 00da 54687265 		.ascii	"ThreadsQueue\000"
 3361      61647351 
 3361      75657565 
 3361      00
 3362 00e7 75020000 		.4byte	0x275
 3363 00eb 54687265 		.ascii	"ThreadsList\000"
 3363      6164734C 
 3363      69737400 
 3364 00f7 85020000 		.4byte	0x285
 3365 00fb 72656761 		.ascii	"regarm_t\000"
 3365      726D5F74 
 3365      00
 3366 0104 93020000 		.4byte	0x293
 3367 0108 636F6E74 		.ascii	"context\000"
 3367      65787400 
 3368 0110 B0020000 		.4byte	0x2b0
ARM GAS  /tmp/ccWEGza2.s 			page 61


 3369 0114 696E7463 		.ascii	"intctx\000"
 3369      747800
 3370 011b 3F030000 		.4byte	0x33f
 3371 011f 53656D61 		.ascii	"Semaphore\000"
 3371      70686F72 
 3371      6500
 3372 0129 68030000 		.4byte	0x368
 3373 012d 53656D61 		.ascii	"Semaphore\000"
 3373      70686F72 
 3373      6500
 3374 0137 73030000 		.4byte	0x373
 3375 013b 4D757465 		.ascii	"Mutex\000"
 3375      7800
 3376 0141 B0030000 		.4byte	0x3b0
 3377 0145 4D757465 		.ascii	"Mutex\000"
 3377      7800
 3378 014b BB030000 		.4byte	0x3bb
 3379 014f 4576656E 		.ascii	"EventListener\000"
 3379      744C6973 
 3379      74656E65 
 3379      7200
 3380 015d C6030000 		.4byte	0x3c6
 3381 0161 4576656E 		.ascii	"EventListener\000"
 3381      744C6973 
 3381      74656E65 
 3381      7200
 3382 016f 03040000 		.4byte	0x403
 3383 0173 4576656E 		.ascii	"EventSource\000"
 3383      74536F75 
 3383      72636500 
 3384 017f 1E040000 		.4byte	0x41e
 3385 0183 4576656E 		.ascii	"EventSource\000"
 3385      74536F75 
 3385      72636500 
 3386 018f 1F010000 		.4byte	0x11f
 3387 0193 54687265 		.ascii	"Thread\000"
 3387      616400
 3388 019a 64040000 		.4byte	0x464
 3389 019e 47656E65 		.ascii	"GenericQueue\000"
 3389      72696351 
 3389      75657565 
 3389      00
 3390 01ab D0040000 		.4byte	0x4d0
 3391 01af 716E6F74 		.ascii	"qnotify_t\000"
 3391      6966795F 
 3391      7400
 3392 01b9 6F040000 		.4byte	0x46f
 3393 01bd 47656E65 		.ascii	"GenericQueue\000"
 3393      72696351 
 3393      75657565 
 3393      00
 3394 01ca F9040000 		.4byte	0x4f9
 3395 01ce 496E7075 		.ascii	"InputQueue\000"
 3395      74517565 
 3395      756500
 3396 01d9 04050000 		.4byte	0x504
 3397 01dd 4F757470 		.ascii	"OutputQueue\000"
ARM GAS  /tmp/ccWEGza2.s 			page 62


 3397      75745175 
 3397      65756500 
 3398 01e9 F5050000 		.4byte	0x5f5
 3399 01ed 696F666C 		.ascii	"ioflags_t\000"
 3399      6167735F 
 3399      7400
 3400 01f7 16060000 		.4byte	0x616
 3401 01fb 4952516E 		.ascii	"IRQn\000"
 3401      00
 3402 0200 F9070000 		.4byte	0x7f9
 3403 0204 5243435F 		.ascii	"RCC_TypeDef\000"
 3403      54797065 
 3403      44656600 
 3404 0210 DF080000 		.4byte	0x8df
 3405 0214 55534152 		.ascii	"USART_TypeDef\000"
 3405      545F5479 
 3405      70654465 
 3405      6600
 3406 0222 06090000 		.4byte	0x906
 3407 0226 73647374 		.ascii	"sdstate_t\000"
 3407      6174655F 
 3407      7400
 3408 0230 11090000 		.4byte	0x911
 3409 0234 53657269 		.ascii	"SerialDriver\000"
 3409      616C4472 
 3409      69766572 
 3409      00
 3410 0241 E6090000 		.4byte	0x9e6
 3411 0245 53657269 		.ascii	"SerialConfig\000"
 3411      616C436F 
 3411      6E666967 
 3411      00
 3412 0252 F1090000 		.4byte	0x9f1
 3413 0256 53657269 		.ascii	"SerialDriverVMT\000"
 3413      616C4472 
 3413      69766572 
 3413      564D5400 
 3414 0266 1C090000 		.4byte	0x91c
 3415 026a 53657269 		.ascii	"SerialDriver\000"
 3415      616C4472 
 3415      69766572 
 3415      00
 3416 0277 00000000 		.4byte	0x0
 3417              		.section	.debug_aranges,"",%progbits
 3418 0000 3C000000 		.4byte	0x3c
 3419 0004 0200     		.2byte	0x2
 3420 0006 00000000 		.4byte	.Ldebug_info0
 3421 000a 04       		.byte	0x4
 3422 000b 00       		.byte	0x0
 3423 000c 0000     		.2byte	0x0
 3424 000e 0000     		.2byte	0x0
 3425 0010 00000000 		.4byte	.LFB40
 3426 0014 14000000 		.4byte	.LFE40-.LFB40
 3427 0018 00000000 		.4byte	.LFB41
 3428 001c F0000000 		.4byte	.LFE41-.LFB41
 3429 0020 00000000 		.4byte	.LFB42
 3430 0024 26000000 		.4byte	.LFE42-.LFB42
ARM GAS  /tmp/ccWEGza2.s 			page 63


 3431 0028 00000000 		.4byte	.LFB43
 3432 002c 84000000 		.4byte	.LFE43-.LFB43
 3433 0030 00000000 		.4byte	.LFB44
 3434 0034 34000000 		.4byte	.LFE44-.LFB44
 3435 0038 00000000 		.4byte	0x0
 3436 003c 00000000 		.4byte	0x0
 3437              		.section	.debug_ranges,"",%progbits
 3438              	.Ldebug_ranges0:
 3439 0000 04000000 		.4byte	.LBB44
 3440 0004 86000000 		.4byte	.LBE44
 3441 0008 8E000000 		.4byte	.LBB57
 3442 000c F0000000 		.4byte	.LBE57
 3443 0010 00000000 		.4byte	0x0
 3444 0014 00000000 		.4byte	0x0
 3445 0018 04000000 		.4byte	.LBB45
 3446 001c 86000000 		.4byte	.LBE45
 3447 0020 8E000000 		.4byte	.LBB56
 3448 0024 F0000000 		.4byte	.LBE56
 3449 0028 00000000 		.4byte	0x0
 3450 002c 00000000 		.4byte	0x0
 3451 0030 8E000000 		.4byte	.LBB50
 3452 0034 AC000000 		.4byte	.LBE50
 3453 0038 CA000000 		.4byte	.LBB55
 3454 003c F0000000 		.4byte	.LBE55
 3455 0040 00000000 		.4byte	0x0
 3456 0044 00000000 		.4byte	0x0
 3457 0048 18000000 		.4byte	.LBB58
 3458 004c 22000000 		.4byte	.LBE58
 3459 0050 24000000 		.4byte	.LBB61
 3460 0054 5C000000 		.4byte	.LBE61
 3461 0058 00000000 		.4byte	0x0
 3462 005c 00000000 		.4byte	0x0
 3463 0060 18000000 		.4byte	.LBB59
 3464 0064 22000000 		.4byte	.LBE59
 3465 0068 24000000 		.4byte	.LBB60
 3466 006c 5C000000 		.4byte	.LBE60
 3467 0070 00000000 		.4byte	0x0
 3468 0074 00000000 		.4byte	0x0
 3469 0078 12000000 		.4byte	.LBB62
 3470 007c 14000000 		.4byte	.LBE62
 3471 0080 16000000 		.4byte	.LBB65
 3472 0084 1C000000 		.4byte	.LBE65
 3473 0088 00000000 		.4byte	0x0
 3474 008c 00000000 		.4byte	0x0
 3475 0090 00000000 		.4byte	.LFB40
 3476 0094 14000000 		.4byte	.LFE40
 3477 0098 00000000 		.4byte	.LFB41
 3478 009c F0000000 		.4byte	.LFE41
 3479 00a0 00000000 		.4byte	.LFB42
 3480 00a4 26000000 		.4byte	.LFE42
 3481 00a8 00000000 		.4byte	.LFB43
 3482 00ac 84000000 		.4byte	.LFE43
 3483 00b0 00000000 		.4byte	.LFB44
 3484 00b4 34000000 		.4byte	.LFE44
 3485 00b8 00000000 		.4byte	0x0
 3486 00bc 00000000 		.4byte	0x0
 3487              		.section	.debug_str,"MS",%progbits,1
ARM GAS  /tmp/ccWEGza2.s 			page 64


 3488              	.LASF84:
 3489 0000 5056445F 		.ascii	"PVD_IRQn\000"
 3489      4952516E 
 3489      00
 3490              	.LASF40:
 3491 0009 705F7265 		.ascii	"p_realprio\000"
 3491      616C7072 
 3491      696F00
 3492              	.LASF2:
 3493 0014 73697A65 		.ascii	"size_t\000"
 3493      5F7400
 3494              	.LASF60:
 3495 001b 7264796D 		.ascii	"rdymsg\000"
 3495      736700
 3496              	.LASF73:
 3497 0022 4F757470 		.ascii	"OutputQueue\000"
 3497      75745175 
 3497      65756500 
 3498              	.LASF114:
 3499 002e 49324331 		.ascii	"I2C1_EV_IRQn\000"
 3499      5F45565F 
 3499      4952516E 
 3499      00
 3500              	.LASF169:
 3501 003b 7365745F 		.ascii	"set_error\000"
 3501      6572726F 
 3501      7200
 3502              	.LASF104:
 3503 0045 43414E31 		.ascii	"CAN1_RX1_IRQn\000"
 3503      5F525831 
 3503      5F495251 
 3503      6E00
 3504              	.LASF14:
 3505 0053 75696E74 		.ascii	"uint_fast16_t\000"
 3505      5F666173 
 3505      7431365F 
 3505      7400
 3506              	.LASF13:
 3507 0061 6C6F6E67 		.ascii	"long long unsigned int\000"
 3507      206C6F6E 
 3507      6720756E 
 3507      7369676E 
 3507      65642069 
 3508              	.LASF61:
 3509 0078 65786974 		.ascii	"exitcode\000"
 3509      636F6465 
 3509      00
 3510              	.LASF117:
 3511 0081 49324332 		.ascii	"I2C2_ER_IRQn\000"
 3511      5F45525F 
 3511      4952516E 
 3511      00
 3512              	.LASF113:
 3513 008e 54494D34 		.ascii	"TIM4_IRQn\000"
 3513      5F495251 
 3513      6E00
 3514              	.LASF175:
ARM GAS  /tmp/ccWEGza2.s 			page 65


 3515 0098 49544D5F 		.ascii	"ITM_RxBuffer\000"
 3515      52784275 
 3515      66666572 
 3515      00
 3516              	.LASF154:
 3517 00a5 73635F73 		.ascii	"sc_speed\000"
 3517      70656564 
 3517      00
 3518              	.LASF108:
 3519 00ae 54494D31 		.ascii	"TIM1_UP_IRQn\000"
 3519      5F55505F 
 3519      4952516E 
 3519      00
 3520              	.LASF83:
 3521 00bb 57574447 		.ascii	"WWDG_IRQn\000"
 3521      5F495251 
 3521      6E00
 3522              	.LASF155:
 3523 00c5 73635F63 		.ascii	"sc_cr1\000"
 3523      723100
 3524              	.LASF15:
 3525 00cc 626F6F6C 		.ascii	"bool_t\000"
 3525      5F7400
 3526              	.LASF27:
 3527 00d3 705F7072 		.ascii	"p_prio\000"
 3527      696F00
 3528              	.LASF165:
 3529 00da 72656164 		.ascii	"readt\000"
 3529      7400
 3530              	.LASF12:
 3531 00e0 6C6F6E67 		.ascii	"long long int\000"
 3531      206C6F6E 
 3531      6720696E 
 3531      7400
 3532              	.LASF1:
 3533 00ee 7369676E 		.ascii	"signed char\000"
 3533      65642063 
 3533      68617200 
 3534              	.LASF140:
 3535 00fa 47545052 		.ascii	"GTPR\000"
 3535      00
 3536              	.LASF31:
 3537 00ff 705F7374 		.ascii	"p_state\000"
 3537      61746500 
 3538              	.LASF41:
 3539 0107 705F6D70 		.ascii	"p_mpool\000"
 3539      6F6F6C00 
 3540              	.LASF51:
 3541 010f 6D5F7175 		.ascii	"m_queue\000"
 3541      65756500 
 3542              	.LASF176:
 3543 0117 474E5520 		.ascii	"GNU C 4.5.1\000"
 3543      4320342E 
 3543      352E3100 
 3544              	.LASF133:
 3545 0123 5243435F 		.ascii	"RCC_TypeDef\000"
 3545      54797065 
ARM GAS  /tmp/ccWEGza2.s 			page 66


 3545      44656600 
 3546              	.LASF182:
 3547 012f 64656661 		.ascii	"default_config\000"
 3547      756C745F 
 3547      636F6E66 
 3547      696700
 3548              	.LASF150:
 3549 013e 73746174 		.ascii	"state\000"
 3549      6500
 3550              	.LASF9:
 3551 0144 6C6F6E67 		.ascii	"long int\000"
 3551      20696E74 
 3551      00
 3552              	.LASF127:
 3553 014d 41504232 		.ascii	"APB2RSTR\000"
 3553      52535452 
 3553      00
 3554              	.LASF56:
 3555 0156 656C5F6C 		.ascii	"el_listener\000"
 3555      69737465 
 3555      6E657200 
 3556              	.LASF17:
 3557 0162 74737461 		.ascii	"tstate_t\000"
 3557      74655F74 
 3557      00
 3558              	.LASF106:
 3559 016b 45585449 		.ascii	"EXTI9_5_IRQn\000"
 3559      395F355F 
 3559      4952516E 
 3559      00
 3560              	.LASF33:
 3561 0178 705F7265 		.ascii	"p_refs\000"
 3561      667300
 3562              	.LASF65:
 3563 017f 715F6275 		.ascii	"q_buffer\000"
 3563      66666572 
 3563      00
 3564              	.LASF67:
 3565 0188 715F7772 		.ascii	"q_wrptr\000"
 3565      70747200 
 3566              	.LASF101:
 3567 0190 41444331 		.ascii	"ADC1_2_IRQn\000"
 3567      5F325F49 
 3567      52516E00 
 3568              	.LASF29:
 3569 019c 705F6E65 		.ascii	"p_newer\000"
 3569      77657200 
 3570              	.LASF64:
 3571 01a4 47656E65 		.ascii	"GenericQueue\000"
 3571      72696351 
 3571      75657565 
 3571      00
 3572              	.LASF48:
 3573 01b1 735F7175 		.ascii	"s_queue\000"
 3573      65756500 
 3574              	.LASF81:
 3575 01b9 50656E64 		.ascii	"PendSV_IRQn\000"
ARM GAS  /tmp/ccWEGza2.s 			page 67


 3575      53565F49 
 3575      52516E00 
 3576              	.LASF44:
 3577 01c5 72656761 		.ascii	"regarm_t\000"
 3577      726D5F74 
 3577      00
 3578              	.LASF71:
 3579 01ce 716E6F74 		.ascii	"qnotify_t\000"
 3579      6966795F 
 3579      7400
 3580              	.LASF170:
 3581 01d8 75736172 		.ascii	"usart_deinit\000"
 3581      745F6465 
 3581      696E6974 
 3581      00
 3582              	.LASF58:
 3583 01e5 4576656E 		.ascii	"EventSource\000"
 3583      74536F75 
 3583      72636500 
 3584              	.LASF23:
 3585 01f1 636E745F 		.ascii	"cnt_t\000"
 3585      7400
 3586              	.LASF153:
 3587 01f7 75736172 		.ascii	"usart\000"
 3587      7400
 3588              	.LASF0:
 3589 01fd 756E7369 		.ascii	"unsigned int\000"
 3589      676E6564 
 3589      20696E74 
 3589      00
 3590              	.LASF6:
 3591 020a 75696E74 		.ascii	"uint16_t\000"
 3591      31365F74 
 3591      00
 3592              	.LASF159:
 3593 0213 53657269 		.ascii	"SerialDriverVMT\000"
 3593      616C4472 
 3593      69766572 
 3593      564D5400 
 3594              	.LASF34:
 3595 0223 705F7469 		.ascii	"p_time\000"
 3595      6D6500
 3596              	.LASF76:
 3597 022a 4D656D6F 		.ascii	"MemoryManagement_IRQn\000"
 3597      72794D61 
 3597      6E616765 
 3597      6D656E74 
 3597      5F495251 
 3598              	.LASF151:
 3599 0240 69717565 		.ascii	"iqueue\000"
 3599      756500
 3600              	.LASF36:
 3601 0247 705F6D73 		.ascii	"p_msgqueue\000"
 3601      67717565 
 3601      756500
 3602              	.LASF181:
 3603 0252 73645F6C 		.ascii	"sd_lld_init\000"
ARM GAS  /tmp/ccWEGza2.s 			page 68


 3603      6C645F69 
 3603      6E697400 
 3604              	.LASF49:
 3605 025e 735F636E 		.ascii	"s_cnt\000"
 3605      7400
 3606              	.LASF148:
 3607 0264 6576656E 		.ascii	"event\000"
 3607      7400
 3608              	.LASF98:
 3609 026a 444D4131 		.ascii	"DMA1_Channel5_IRQn\000"
 3609      5F436861 
 3609      6E6E656C 
 3609      355F4952 
 3609      516E00
 3610              	.LASF7:
 3611 027d 73686F72 		.ascii	"short unsigned int\000"
 3611      7420756E 
 3611      7369676E 
 3611      65642069 
 3611      6E7400
 3612              	.LASF109:
 3613 0290 54494D31 		.ascii	"TIM1_TRG_COM_IRQn\000"
 3613      5F545247 
 3613      5F434F4D 
 3613      5F495251 
 3613      6E00
 3614              	.LASF20:
 3615 02a2 6D73675F 		.ascii	"msg_t\000"
 3615      7400
 3616              	.LASF152:
 3617 02a8 6F717565 		.ascii	"oqueue\000"
 3617      756500
 3618              	.LASF123:
 3619 02af 45585449 		.ascii	"EXTI15_10_IRQn\000"
 3619      31355F31 
 3619      305F4952 
 3619      516E00
 3620              	.LASF118:
 3621 02be 53504931 		.ascii	"SPI1_IRQn\000"
 3621      5F495251 
 3621      6E00
 3622              	.LASF142:
 3623 02c8 55534152 		.ascii	"USART_TypeDef\000"
 3623      545F5479 
 3623      70654465 
 3623      6600
 3624              	.LASF164:
 3625 02d6 77726974 		.ascii	"writet\000"
 3625      657400
 3626              	.LASF177:
 3627 02dd 63686962 		.ascii	"chibios/os/hal/platforms/STM32/serial_lld.c\000"
 3627      696F732F 
 3627      6F732F68 
 3627      616C2F70 
 3627      6C617466 
 3628              	.LASF16:
 3629 0309 746D6F64 		.ascii	"tmode_t\000"
ARM GAS  /tmp/ccWEGza2.s 			page 69


 3629      655F7400 
 3630              	.LASF43:
 3631 0311 54687265 		.ascii	"ThreadsList\000"
 3631      6164734C 
 3631      69737400 
 3632              	.LASF21:
 3633 031d 6576656E 		.ascii	"eventmask_t\000"
 3633      746D6173 
 3633      6B5F7400 
 3634              	.LASF172:
 3635 0329 56656374 		.ascii	"VectorD4\000"
 3635      6F724434 
 3635      00
 3636              	.LASF97:
 3637 0332 444D4131 		.ascii	"DMA1_Channel4_IRQn\000"
 3637      5F436861 
 3637      6E6E656C 
 3637      345F4952 
 3637      516E00
 3638              	.LASF82:
 3639 0345 53797354 		.ascii	"SysTick_IRQn\000"
 3639      69636B5F 
 3639      4952516E 
 3639      00
 3640              	.LASF110:
 3641 0352 54494D31 		.ascii	"TIM1_CC_IRQn\000"
 3641      5F43435F 
 3641      4952516E 
 3641      00
 3642              	.LASF162:
 3643 035f 70757477 		.ascii	"putwouldblock\000"
 3643      6F756C64 
 3643      626C6F63 
 3643      6B00
 3644              	.LASF160:
 3645 036d 77726974 		.ascii	"write\000"
 3645      6500
 3646              	.LASF179:
 3647 0373 4952516E 		.ascii	"IRQn\000"
 3647      00
 3648              	.LASF168:
 3649 0378 75736172 		.ascii	"usart_init\000"
 3649      745F696E 
 3649      697400
 3650              	.LASF95:
 3651 0383 444D4131 		.ascii	"DMA1_Channel2_IRQn\000"
 3651      5F436861 
 3651      6E6E656C 
 3651      325F4952 
 3651      516E00
 3652              	.LASF79:
 3653 0396 53564361 		.ascii	"SVCall_IRQn\000"
 3653      6C6C5F49 
 3653      52516E00 
 3654              	.LASF50:
 3655 03a2 4D757465 		.ascii	"Mutex\000"
 3655      7800
ARM GAS  /tmp/ccWEGza2.s 			page 70


 3656              	.LASF178:
 3657 03a8 2F686F6D 		.ascii	"/home/dan/github/github-projects/Quad-Rotor/QuadRot"
 3657      652F6461 
 3657      6E2F6769 
 3657      74687562 
 3657      2F676974 
 3658 03db 6F7200   		.ascii	"or\000"
 3659              	.LASF25:
 3660 03de 705F6E65 		.ascii	"p_next\000"
 3660      787400
 3661              	.LASF92:
 3662 03e5 45585449 		.ascii	"EXTI3_IRQn\000"
 3662      335F4952 
 3662      516E00
 3663              	.LASF119:
 3664 03f0 53504932 		.ascii	"SPI2_IRQn\000"
 3664      5F495251 
 3664      6E00
 3665              	.LASF74:
 3666 03fa 696F666C 		.ascii	"ioflags_t\000"
 3666      6167735F 
 3666      7400
 3667              	.LASF42:
 3668 0404 54687265 		.ascii	"ThreadsQueue\000"
 3668      61647351 
 3668      75657565 
 3668      00
 3669              	.LASF128:
 3670 0411 41504231 		.ascii	"APB1RSTR\000"
 3670      52535452 
 3670      00
 3671              	.LASF57:
 3672 041a 656C5F6D 		.ascii	"el_mask\000"
 3672      61736B00 
 3673              	.LASF158:
 3674 0422 53657269 		.ascii	"SerialConfig\000"
 3674      616C436F 
 3674      6E666967 
 3674      00
 3675              	.LASF180:
 3676 042f 6E6F7469 		.ascii	"notify1\000"
 3676      66793100 
 3677              	.LASF94:
 3678 0437 444D4131 		.ascii	"DMA1_Channel1_IRQn\000"
 3678      5F436861 
 3678      6E6E656C 
 3678      315F4952 
 3678      516E00
 3679              	.LASF18:
 3680 044a 74726566 		.ascii	"trefs_t\000"
 3680      735F7400 
 3681              	.LASF134:
 3682 0452 52455345 		.ascii	"RESERVED0\000"
 3682      52564544 
 3682      3000
 3683              	.LASF135:
 3684 045c 52455345 		.ascii	"RESERVED1\000"
ARM GAS  /tmp/ccWEGza2.s 			page 71


 3684      52564544 
 3684      3100
 3685              	.LASF136:
 3686 0466 52455345 		.ascii	"RESERVED2\000"
 3686      52564544 
 3686      3200
 3687              	.LASF137:
 3688 0470 52455345 		.ascii	"RESERVED3\000"
 3688      52564544 
 3688      3300
 3689              	.LASF138:
 3690 047a 52455345 		.ascii	"RESERVED4\000"
 3690      52564544 
 3690      3400
 3691              	.LASF26:
 3692 0484 705F7072 		.ascii	"p_prev\000"
 3692      657600
 3693              	.LASF141:
 3694 048b 52455345 		.ascii	"RESERVED6\000"
 3694      52564544 
 3694      3600
 3695              	.LASF19:
 3696 0495 74707269 		.ascii	"tprio_t\000"
 3696      6F5F7400 
 3697              	.LASF68:
 3698 049d 715F7264 		.ascii	"q_rdptr\000"
 3698      70747200 
 3699              	.LASF80:
 3700 04a5 44656275 		.ascii	"DebugMonitor_IRQn\000"
 3700      674D6F6E 
 3700      69746F72 
 3700      5F495251 
 3700      6E00
 3701              	.LASF8:
 3702 04b7 696E7433 		.ascii	"int32_t\000"
 3702      325F7400 
 3703              	.LASF4:
 3704 04bf 756E7369 		.ascii	"unsigned char\000"
 3704      676E6564 
 3704      20636861 
 3704      7200
 3705              	.LASF103:
 3706 04cd 5553425F 		.ascii	"USB_LP_CAN1_RX0_IRQn\000"
 3706      4C505F43 
 3706      414E315F 
 3706      5258305F 
 3706      4952516E 
 3707              	.LASF173:
 3708 04e2 73645F6C 		.ascii	"sd_lld_start\000"
 3708      6C645F73 
 3708      74617274 
 3708      00
 3709              	.LASF102:
 3710 04ef 5553425F 		.ascii	"USB_HP_CAN1_TX_IRQn\000"
 3710      48505F43 
 3710      414E315F 
 3710      54585F49 
ARM GAS  /tmp/ccWEGza2.s 			page 72


 3710      52516E00 
 3711              	.LASF93:
 3712 0503 45585449 		.ascii	"EXTI4_IRQn\000"
 3712      345F4952 
 3712      516E00
 3713              	.LASF39:
 3714 050e 705F6D74 		.ascii	"p_mtxlist\000"
 3714      786C6973 
 3714      7400
 3715              	.LASF5:
 3716 0518 73686F72 		.ascii	"short int\000"
 3716      7420696E 
 3716      7400
 3717              	.LASF30:
 3718 0522 705F6F6C 		.ascii	"p_older\000"
 3718      64657200 
 3719              	.LASF96:
 3720 052a 444D4131 		.ascii	"DMA1_Channel3_IRQn\000"
 3720      5F436861 
 3720      6E6E656C 
 3720      335F4952 
 3720      516E00
 3721              	.LASF63:
 3722 053d 65776D61 		.ascii	"ewmask\000"
 3722      736B00
 3723              	.LASF32:
 3724 0544 705F666C 		.ascii	"p_flags\000"
 3724      61677300 
 3725              	.LASF55:
 3726 054c 656C5F6E 		.ascii	"el_next\000"
 3726      65787400 
 3727              	.LASF91:
 3728 0554 45585449 		.ascii	"EXTI2_IRQn\000"
 3728      325F4952 
 3728      516E00
 3729              	.LASF144:
 3730 055f 53445F53 		.ascii	"SD_STOP\000"
 3730      544F5000 
 3731              	.LASF130:
 3732 0567 41504232 		.ascii	"APB2ENR\000"
 3732      454E5200 
 3733              	.LASF24:
 3734 056f 54687265 		.ascii	"Thread\000"
 3734      616400
 3735              	.LASF171:
 3736 0576 73657276 		.ascii	"serve_interrupt\000"
 3736      655F696E 
 3736      74657272 
 3736      75707400 
 3737              	.LASF87:
 3738 0586 464C4153 		.ascii	"FLASH_IRQn\000"
 3738      485F4952 
 3738      516E00
 3739              	.LASF38:
 3740 0591 705F6570 		.ascii	"p_epending\000"
 3740      656E6469 
 3740      6E6700
ARM GAS  /tmp/ccWEGza2.s 			page 73


 3741              	.LASF143:
 3742 059c 53445F55 		.ascii	"SD_UNINIT\000"
 3742      4E494E49 
 3742      5400
 3743              	.LASF139:
 3744 05a6 52455345 		.ascii	"RESERVED5\000"
 3744      52564544 
 3744      3500
 3745              	.LASF10:
 3746 05b0 75696E74 		.ascii	"uint32_t\000"
 3746      33325F74 
 3746      00
 3747              	.LASF121:
 3748 05b9 55534152 		.ascii	"USART2_IRQn\000"
 3748      54325F49 
 3748      52516E00 
 3749              	.LASF78:
 3750 05c5 55736167 		.ascii	"UsageFault_IRQn\000"
 3750      65466175 
 3750      6C745F49 
 3750      52516E00 
 3751              	.LASF147:
 3752 05d5 53657269 		.ascii	"SerialDriver\000"
 3752      616C4472 
 3752      69766572 
 3752      00
 3753              	.LASF11:
 3754 05e2 6C6F6E67 		.ascii	"long unsigned int\000"
 3754      20756E73 
 3754      69676E65 
 3754      6420696E 
 3754      7400
 3755              	.LASF161:
 3756 05f4 72656164 		.ascii	"read\000"
 3756      00
 3757              	.LASF77:
 3758 05f9 42757346 		.ascii	"BusFault_IRQn\000"
 3758      61756C74 
 3758      5F495251 
 3758      6E00
 3759              	.LASF167:
 3760 0607 636F6E66 		.ascii	"config\000"
 3760      696700
 3761              	.LASF107:
 3762 060e 54494D31 		.ascii	"TIM1_BRK_IRQn\000"
 3762      5F42524B 
 3762      5F495251 
 3762      6E00
 3763              	.LASF124:
 3764 061c 52544341 		.ascii	"RTCAlarm_IRQn\000"
 3764      6C61726D 
 3764      5F495251 
 3764      6E00
 3765              	.LASF105:
 3766 062a 43414E31 		.ascii	"CAN1_SCE_IRQn\000"
 3766      5F534345 
 3766      5F495251 
ARM GAS  /tmp/ccWEGza2.s 			page 74


 3766      6E00
 3767              	.LASF53:
 3768 0638 6D5F6E65 		.ascii	"m_next\000"
 3768      787400
 3769              	.LASF22:
 3770 063f 73797374 		.ascii	"systime_t\000"
 3770      696D655F 
 3770      7400
 3771              	.LASF75:
 3772 0649 4E6F6E4D 		.ascii	"NonMaskableInt_IRQn\000"
 3772      61736B61 
 3772      626C6549 
 3772      6E745F49 
 3772      52516E00 
 3773              	.LASF99:
 3774 065d 444D4131 		.ascii	"DMA1_Channel6_IRQn\000"
 3774      5F436861 
 3774      6E6E656C 
 3774      365F4952 
 3774      516E00
 3775              	.LASF131:
 3776 0670 41504231 		.ascii	"APB1ENR\000"
 3776      454E5200 
 3777              	.LASF69:
 3778 0678 715F7365 		.ascii	"q_sem\000"
 3778      6D00
 3779              	.LASF85:
 3780 067e 54414D50 		.ascii	"TAMPER_IRQn\000"
 3780      45525F49 
 3780      52516E00 
 3781              	.LASF166:
 3782 068a 67657466 		.ascii	"getflags\000"
 3782      6C616773 
 3782      00
 3783              	.LASF45:
 3784 0693 636F6E74 		.ascii	"context\000"
 3784      65787400 
 3785              	.LASF125:
 3786 069b 55534257 		.ascii	"USBWakeUp_IRQn\000"
 3786      616B6555 
 3786      705F4952 
 3786      516E00
 3787              	.LASF46:
 3788 06aa 696E7463 		.ascii	"intctx\000"
 3788      747800
 3789              	.LASF145:
 3790 06b1 53445F52 		.ascii	"SD_READY\000"
 3790      45414459 
 3790      00
 3791              	.LASF47:
 3792 06ba 53656D61 		.ascii	"Semaphore\000"
 3792      70686F72 
 3792      6500
 3793              	.LASF116:
 3794 06c4 49324332 		.ascii	"I2C2_EV_IRQn\000"
 3794      5F45565F 
 3794      4952516E 
ARM GAS  /tmp/ccWEGza2.s 			page 75


 3794      00
 3795              	.LASF122:
 3796 06d1 55534152 		.ascii	"USART3_IRQn\000"
 3796      54335F49 
 3796      52516E00 
 3797              	.LASF146:
 3798 06dd 73647374 		.ascii	"sdstate_t\000"
 3798      6174655F 
 3798      7400
 3799              	.LASF111:
 3800 06e7 54494D32 		.ascii	"TIM2_IRQn\000"
 3800      5F495251 
 3800      6E00
 3801              	.LASF66:
 3802 06f1 715F746F 		.ascii	"q_top\000"
 3802      7000
 3803              	.LASF89:
 3804 06f7 45585449 		.ascii	"EXTI0_IRQn\000"
 3804      305F4952 
 3804      516E00
 3805              	.LASF59:
 3806 0702 65735F6E 		.ascii	"es_next\000"
 3806      65787400 
 3807              	.LASF120:
 3808 070a 55534152 		.ascii	"USART1_IRQn\000"
 3808      54315F49 
 3808      52516E00 
 3809              	.LASF132:
 3810 0716 42444352 		.ascii	"BDCR\000"
 3810      00
 3811              	.LASF70:
 3812 071b 715F6E6F 		.ascii	"q_notify\000"
 3812      74696679 
 3812      00
 3813              	.LASF37:
 3814 0724 705F6D73 		.ascii	"p_msg\000"
 3814      6700
 3815              	.LASF3:
 3816 072a 75696E74 		.ascii	"uint8_t\000"
 3816      385F7400 
 3817              	.LASF72:
 3818 0732 496E7075 		.ascii	"InputQueue\000"
 3818      74517565 
 3818      756500
 3819              	.LASF149:
 3820 073d 666C6167 		.ascii	"flags\000"
 3820      7300
 3821              	.LASF54:
 3822 0743 4576656E 		.ascii	"EventListener\000"
 3822      744C6973 
 3822      74656E65 
 3822      7200
 3823              	.LASF62:
 3824 0751 77746F62 		.ascii	"wtobjp\000"
 3824      6A7000
 3825              	.LASF100:
 3826 0758 444D4131 		.ascii	"DMA1_Channel7_IRQn\000"
ARM GAS  /tmp/ccWEGza2.s 			page 76


 3826      5F436861 
 3826      6E6E656C 
 3826      375F4952 
 3826      516E00
 3827              	.LASF174:
 3828 076b 73645F6C 		.ascii	"sd_lld_stop\000"
 3828      6C645F73 
 3828      746F7000 
 3829              	.LASF126:
 3830 0777 43464752 		.ascii	"CFGR\000"
 3830      00
 3831              	.LASF163:
 3832 077c 67657477 		.ascii	"getwouldblock\000"
 3832      6F756C64 
 3832      626C6F63 
 3832      6B00
 3833              	.LASF115:
 3834 078a 49324331 		.ascii	"I2C1_ER_IRQn\000"
 3834      5F45525F 
 3834      4952516E 
 3834      00
 3835              	.LASF156:
 3836 0797 73635F63 		.ascii	"sc_cr2\000"
 3836      723200
 3837              	.LASF157:
 3838 079e 73635F63 		.ascii	"sc_cr3\000"
 3838      723300
 3839              	.LASF86:
 3840 07a5 5254435F 		.ascii	"RTC_IRQn\000"
 3840      4952516E 
 3840      00
 3841              	.LASF112:
 3842 07ae 54494D33 		.ascii	"TIM3_IRQn\000"
 3842      5F495251 
 3842      6E00
 3843              	.LASF52:
 3844 07b8 6D5F6F77 		.ascii	"m_owner\000"
 3844      6E657200 
 3845              	.LASF88:
 3846 07c0 5243435F 		.ascii	"RCC_IRQn\000"
 3846      4952516E 
 3846      00
 3847              	.LASF28:
 3848 07c9 705F6374 		.ascii	"p_ctx\000"
 3848      7800
 3849              	.LASF35:
 3850 07cf 705F7761 		.ascii	"p_waiting\000"
 3850      6974696E 
 3850      6700
 3851              	.LASF129:
 3852 07d9 41484245 		.ascii	"AHBENR\000"
 3852      4E5200
 3853              	.LASF90:
 3854 07e0 45585449 		.ascii	"EXTI1_IRQn\000"
 3854      315F4952 
 3854      516E00
 3855              		.ident	"GCC: (GNU) 4.5.1"
ARM GAS  /tmp/ccWEGza2.s 			page 77


ARM GAS  /tmp/ccWEGza2.s 			page 78


DEFINED SYMBOLS
                            *ABS*:0000000000000000 serial_lld.c
     /tmp/ccWEGza2.s:24     .text.notify1:0000000000000000 $t
     /tmp/ccWEGza2.s:29     .text.notify1:0000000000000000 notify1
     /tmp/ccWEGza2.s:52     .text.VectorD4:0000000000000000 $t
     /tmp/ccWEGza2.s:58     .text.VectorD4:0000000000000000 VectorD4
                            *COM*:0000000000000074 SD1
     /tmp/ccWEGza2.s:270    .text.VectorD4:00000000000000e8 $d
     /tmp/ccWEGza2.s:279    .text.sd_lld_init:0000000000000000 $t
     /tmp/ccWEGza2.s:285    .text.sd_lld_init:0000000000000000 sd_lld_init
     /tmp/ccWEGza2.s:314    .text.sd_lld_start:0000000000000000 $t
     /tmp/ccWEGza2.s:320    .text.sd_lld_start:0000000000000000 sd_lld_start
     /tmp/ccWEGza2.s:498    .rodata.default_config:0000000000000000 .LANCHOR0
     /tmp/ccWEGza2.s:429    .text.sd_lld_stop:0000000000000000 $t
     /tmp/ccWEGza2.s:435    .text.sd_lld_stop:0000000000000000 sd_lld_stop
     /tmp/ccWEGza2.s:497    .rodata.default_config:0000000000000000 $d
     /tmp/ccWEGza2.s:501    .rodata.default_config:0000000000000000 default_config
                     .debug_frame:0000000000000010 $d

UNDEFINED SYMBOLS
chEvtBroadcastI
_port_irq_epilogue
chOQGetI
sdIncomingDataI
sdObjectInit
NVICEnableVector
NVICDisableVector
