ARM GAS  /tmp/ccoYWhpD.s 			page 1


   1              		.syntax unified
   2              		.cpu cortex-m3
   3              		.fpu softvfp
   4              		.eabi_attribute 20, 1
   5              		.eabi_attribute 21, 1
   6              		.eabi_attribute 23, 3
   7              		.eabi_attribute 24, 1
   8              		.eabi_attribute 25, 1
   9              		.eabi_attribute 26, 1
  10              		.eabi_attribute 30, 2
  11              		.eabi_attribute 18, 4
  12              		.thumb
  13              		.file	"stm32_dma.c"
  20 0000 42010000 		.text
  20      0200F700 
  20      00000201 
  20      FB0E0D00 
  20      01010101 
  21              	.Ltext0:
  22              		.cfi_sections	.debug_frame
  23              		.section	.text.dmaInit,"ax",%progbits
  24              		.align	2
  25              		.p2align 4,,15
  26              		.global	dmaInit
  27              		.thumb
  28              		.thumb_func
  29              		.type	dmaInit, %function
  30              	dmaInit:
  31              	.LFB36:
  32              		.file 1 "chibios/os/hal/platforms/STM32/stm32_dma.c"
  33              		.loc 1 68 0
  34              		.cfi_startproc
  35              		@ args = 0, pretend = 0, frame = 0
  36              		@ frame_needed = 0, uses_anonymous_args = 0
  37              		@ link register save eliminated.
  38 0000 2DE9F001 		push	{r4, r5, r6, r7, r8}
  39              	.LCFI0:
  40              		.cfi_def_cfa_offset 20
  41              		.loc 1 74 0
  42 0004 0021     		movs	r1, #0
  43              		.loc 1 71 0
  44 0006 40F20002 		movw	r2, #:lower16:.LANCHOR0
  45              		.loc 1 73 0
  46 000a 4FF08008 		mov	r8, #128
  47              		.cfi_offset 8, -4
  48              		.cfi_offset 7, -8
  49              		.cfi_offset 6, -12
  50              		.cfi_offset 5, -16
  51              		.cfi_offset 4, -20
  52 000e 4FF06C0C 		mov	ip, #108
  53 0012 5827     		movs	r7, #88
ARM GAS  /tmp/ccoYWhpD.s 			page 2


  54 0014 4426     		movs	r6, #68
  55 0016 3025     		movs	r5, #48
  56 0018 1C24     		movs	r4, #28
  57 001a 0820     		movs	r0, #8
  58              		.loc 1 71 0
  59 001c 0B46     		mov	r3, r1
  60 001e C0F20002 		movt	r2, #:upper16:.LANCHOR0
  61              		.loc 1 73 0
  62 0022 C4F20208 		movt	r8, 16386
  63 0026 C4F2020C 		movt	ip, 16386
  64 002a C4F20207 		movt	r7, 16386
  65 002e C4F20206 		movt	r6, 16386
  66 0032 C4F20205 		movt	r5, 16386
  67 0036 C4F20204 		movt	r4, 16386
  68 003a C4F20200 		movt	r0, 16386
  69              		.loc 1 71 0
  70 003e 1360     		str	r3, [r2, #0]
  71              	.LVL0:
  72              		.loc 1 74 0
  73 0040 C4F20201 		movt	r1, 16386
  74              		.loc 1 73 0
  75 0044 C8F80030 		str	r3, [r8, #0]
  76              	.LVL1:
  77 0048 CCF80030 		str	r3, [ip, #0]
  78              	.LVL2:
  79 004c 3B60     		str	r3, [r7, #0]
  80              	.LVL3:
  81 004e 3360     		str	r3, [r6, #0]
  82              	.LVL4:
  83 0050 2B60     		str	r3, [r5, #0]
  84              	.LVL5:
  85 0052 2360     		str	r3, [r4, #0]
  86              	.LVL6:
  87 0054 0360     		str	r3, [r0, #0]
  88              	.LVL7:
  89              		.loc 1 74 0
  90 0056 4FF0FF33 		mov	r3, #-1
  91 005a 4B60     		str	r3, [r1, #4]
  92              		.loc 1 81 0
  93 005c BDE8F001 		pop	{r4, r5, r6, r7, r8}
  94 0060 7047     		bx	lr
  95              		.cfi_endproc
  96              	.LFE36:
  97              		.size	dmaInit, .-dmaInit
  98 0062 00BFAFF3 		.section	.text.dmaEnable,"ax",%progbits
  98      0080AFF3 
  98      0080AFF3 
  98      0080
  99              		.align	2
 100              		.p2align 4,,15
 101              		.global	dmaEnable
 102              		.thumb
 103              		.thumb_func
 104              		.type	dmaEnable, %function
 105              	dmaEnable:
 106              	.LFB37:
 107              		.loc 1 90 0
ARM GAS  /tmp/ccoYWhpD.s 			page 3


 108              		.cfi_startproc
 109              		@ args = 0, pretend = 0, frame = 0
 110              		@ frame_needed = 0, uses_anonymous_args = 0
 111              		@ link register save eliminated.
 112              	.LVL8:
 113              		.loc 1 92 0
 114 0000 B0B9     		cbnz	r0, .L2
 115              		.loc 1 94 0
 116 0002 40F20003 		movw	r3, #:lower16:.LANCHOR0
 117 0006 C0F20003 		movt	r3, #:upper16:.LANCHOR0
 118 000a 1A68     		ldr	r2, [r3, #0]
 119 000c 511C     		adds	r1, r2, #1
 120 000e 1960     		str	r1, [r3, #0]
 121 0010 72B9     		cbnz	r2, .L2
 122              		.loc 1 95 0
 123 0012 4FF4805C 		mov	ip, #4096
 124 0016 C4F2020C 		movt	ip, 16386
 125 001a DCF81430 		ldr	r3, [ip, #20]
 126              		.loc 1 96 0
 127 001e C4F20202 		movt	r2, 16386
 128              		.loc 1 95 0
 129 0022 43F00101 		orr	r1, r3, #1
 130              		.loc 1 96 0
 131 0026 6FF07040 		mvn	r0, #-268435456
 132              	.LVL9:
 133              		.loc 1 95 0
 134 002a CCF81410 		str	r1, [ip, #20]
 135              		.loc 1 96 0
 136 002e 5060     		str	r0, [r2, #4]
 137              	.L2:
 138 0030 7047     		bx	lr
 139              		.cfi_endproc
 140              	.LFE37:
 141              		.size	dmaEnable, .-dmaEnable
 142 0032 00BFAFF3 		.section	.text.dmaDisable,"ax",%progbits
 142      0080AFF3 
 142      0080AFF3 
 142      0080
 143              		.align	2
 144              		.p2align 4,,15
 145              		.global	dmaDisable
 146              		.thumb
 147              		.thumb_func
 148              		.type	dmaDisable, %function
 149              	dmaDisable:
 150              	.LFB38:
 151              		.loc 1 117 0
 152              		.cfi_startproc
 153              		@ args = 0, pretend = 0, frame = 0
 154              		@ frame_needed = 0, uses_anonymous_args = 0
 155              		@ link register save eliminated.
 156              	.LVL10:
 157              		.loc 1 119 0
 158 0000 88B9     		cbnz	r0, .L6
 159              		.loc 1 121 0
 160 0002 40F20003 		movw	r3, #:lower16:.LANCHOR0
 161 0006 C0F20003 		movt	r3, #:upper16:.LANCHOR0
ARM GAS  /tmp/ccoYWhpD.s 			page 4


 162 000a 1868     		ldr	r0, [r3, #0]
 163              	.LVL11:
 164 000c 421E     		subs	r2, r0, #1
 165 000e 1A60     		str	r2, [r3, #0]
 166 0010 4AB9     		cbnz	r2, .L6
 167              		.loc 1 122 0
 168 0012 4FF4805C 		mov	ip, #4096
 169 0016 C4F2020C 		movt	ip, 16386
 170 001a DCF81420 		ldr	r2, [ip, #20]
 171 001e 22F00101 		bic	r1, r2, #1
 172 0022 CCF81410 		str	r1, [ip, #20]
 173              	.L6:
 174 0026 7047     		bx	lr
 175              		.cfi_endproc
 176              	.LFE38:
 177              		.size	dmaDisable, .-dmaDisable
 178 0028 AFF30080 		.section	.bss.dmacnt1,"aw",%nobits
 178      AFF30080 
 179              		.align	2
 180              		.set	.LANCHOR0,. + 0
 181              		.type	dmacnt1, %object
 182              		.size	dmacnt1, 4
 183              	dmacnt1:
 184 0000 00000000 		.space	4
 185              		.text
 186              	.Letext0: