ARM GAS  /tmp/ccoYWhpD.s 			page 1


   1              		.syntax unified
   2              		.cpu cortex-m3
   3              		.fpu softvfp
   4              		.eabi_attribute 20, 1
   5              		.eabi_attribute 21, 1
   6              		.eabi_attribute 23, 3
   7              		.eabi_attribute 24, 1
   8              		.eabi_attribute 25, 1
   9              		.eabi_attribute 26, 1
  10              		.eabi_attribute 30, 2
  11              		.eabi_attribute 18, 4
  12              		.thumb
  13              		.file	"stm32_dma.c"
  14              		.section	.debug_abbrev,"",%progbits
  15              	.Ldebug_abbrev0:
  16              		.section	.debug_info,"",%progbits
  17              	.Ldebug_info0:
  18              		.section	.debug_line,"",%progbits
  19              	.Ldebug_line0:
  20 0000 42010000 		.text
  20      0200F700 
  20      00000201 
  20      FB0E0D00 
  20      01010101 
  21              	.Ltext0:
  22              		.cfi_sections	.debug_frame
  23              		.section	.text.dmaInit,"ax",%progbits
  24              		.align	2
  25              		.p2align 4,,15
  26              		.global	dmaInit
  27              		.thumb
  28              		.thumb_func
  29              		.type	dmaInit, %function
  30              	dmaInit:
  31              	.LFB36:
  32              		.file 1 "chibios/os/hal/platforms/STM32/stm32_dma.c"
  33              		.loc 1 68 0
  34              		.cfi_startproc
  35              		@ args = 0, pretend = 0, frame = 0
  36              		@ frame_needed = 0, uses_anonymous_args = 0
  37              		@ link register save eliminated.
  38 0000 2DE9F001 		push	{r4, r5, r6, r7, r8}
  39              	.LCFI0:
  40              		.cfi_def_cfa_offset 20
  41              		.loc 1 74 0
  42 0004 0021     		movs	r1, #0
  43              		.loc 1 71 0
  44 0006 40F20002 		movw	r2, #:lower16:.LANCHOR0
  45              		.loc 1 73 0
  46 000a 4FF08008 		mov	r8, #128
  47              		.cfi_offset 8, -4
  48              		.cfi_offset 7, -8
  49              		.cfi_offset 6, -12
  50              		.cfi_offset 5, -16
  51              		.cfi_offset 4, -20
  52 000e 4FF06C0C 		mov	ip, #108
  53 0012 5827     		movs	r7, #88
ARM GAS  /tmp/ccoYWhpD.s 			page 2


  54 0014 4426     		movs	r6, #68
  55 0016 3025     		movs	r5, #48
  56 0018 1C24     		movs	r4, #28
  57 001a 0820     		movs	r0, #8
  58              		.loc 1 71 0
  59 001c 0B46     		mov	r3, r1
  60 001e C0F20002 		movt	r2, #:upper16:.LANCHOR0
  61              		.loc 1 73 0
  62 0022 C4F20208 		movt	r8, 16386
  63 0026 C4F2020C 		movt	ip, 16386
  64 002a C4F20207 		movt	r7, 16386
  65 002e C4F20206 		movt	r6, 16386
  66 0032 C4F20205 		movt	r5, 16386
  67 0036 C4F20204 		movt	r4, 16386
  68 003a C4F20200 		movt	r0, 16386
  69              		.loc 1 71 0
  70 003e 1360     		str	r3, [r2, #0]
  71              	.LVL0:
  72              		.loc 1 74 0
  73 0040 C4F20201 		movt	r1, 16386
  74              		.loc 1 73 0
  75 0044 C8F80030 		str	r3, [r8, #0]
  76              	.LVL1:
  77 0048 CCF80030 		str	r3, [ip, #0]
  78              	.LVL2:
  79 004c 3B60     		str	r3, [r7, #0]
  80              	.LVL3:
  81 004e 3360     		str	r3, [r6, #0]
  82              	.LVL4:
  83 0050 2B60     		str	r3, [r5, #0]
  84              	.LVL5:
  85 0052 2360     		str	r3, [r4, #0]
  86              	.LVL6:
  87 0054 0360     		str	r3, [r0, #0]
  88              	.LVL7:
  89              		.loc 1 74 0
  90 0056 4FF0FF33 		mov	r3, #-1
  91 005a 4B60     		str	r3, [r1, #4]
  92              		.loc 1 81 0
  93 005c BDE8F001 		pop	{r4, r5, r6, r7, r8}
  94 0060 7047     		bx	lr
  95              		.cfi_endproc
  96              	.LFE36:
  97              		.size	dmaInit, .-dmaInit
  98 0062 00BFAFF3 		.section	.text.dmaEnable,"ax",%progbits
  98      0080AFF3 
  98      0080AFF3 
  98      0080
  99              		.align	2
 100              		.p2align 4,,15
 101              		.global	dmaEnable
 102              		.thumb
 103              		.thumb_func
 104              		.type	dmaEnable, %function
 105              	dmaEnable:
 106              	.LFB37:
 107              		.loc 1 90 0
ARM GAS  /tmp/ccoYWhpD.s 			page 3


 108              		.cfi_startproc
 109              		@ args = 0, pretend = 0, frame = 0
 110              		@ frame_needed = 0, uses_anonymous_args = 0
 111              		@ link register save eliminated.
 112              	.LVL8:
 113              		.loc 1 92 0
 114 0000 B0B9     		cbnz	r0, .L2
 115              		.loc 1 94 0
 116 0002 40F20003 		movw	r3, #:lower16:.LANCHOR0
 117 0006 C0F20003 		movt	r3, #:upper16:.LANCHOR0
 118 000a 1A68     		ldr	r2, [r3, #0]
 119 000c 511C     		adds	r1, r2, #1
 120 000e 1960     		str	r1, [r3, #0]
 121 0010 72B9     		cbnz	r2, .L2
 122              		.loc 1 95 0
 123 0012 4FF4805C 		mov	ip, #4096
 124 0016 C4F2020C 		movt	ip, 16386
 125 001a DCF81430 		ldr	r3, [ip, #20]
 126              		.loc 1 96 0
 127 001e C4F20202 		movt	r2, 16386
 128              		.loc 1 95 0
 129 0022 43F00101 		orr	r1, r3, #1
 130              		.loc 1 96 0
 131 0026 6FF07040 		mvn	r0, #-268435456
 132              	.LVL9:
 133              		.loc 1 95 0
 134 002a CCF81410 		str	r1, [ip, #20]
 135              		.loc 1 96 0
 136 002e 5060     		str	r0, [r2, #4]
 137              	.L2:
 138 0030 7047     		bx	lr
 139              		.cfi_endproc
 140              	.LFE37:
 141              		.size	dmaEnable, .-dmaEnable
 142 0032 00BFAFF3 		.section	.text.dmaDisable,"ax",%progbits
 142      0080AFF3 
 142      0080AFF3 
 142      0080
 143              		.align	2
 144              		.p2align 4,,15
 145              		.global	dmaDisable
 146              		.thumb
 147              		.thumb_func
 148              		.type	dmaDisable, %function
 149              	dmaDisable:
 150              	.LFB38:
 151              		.loc 1 117 0
 152              		.cfi_startproc
 153              		@ args = 0, pretend = 0, frame = 0
 154              		@ frame_needed = 0, uses_anonymous_args = 0
 155              		@ link register save eliminated.
 156              	.LVL10:
 157              		.loc 1 119 0
 158 0000 88B9     		cbnz	r0, .L6
 159              		.loc 1 121 0
 160 0002 40F20003 		movw	r3, #:lower16:.LANCHOR0
 161 0006 C0F20003 		movt	r3, #:upper16:.LANCHOR0
ARM GAS  /tmp/ccoYWhpD.s 			page 4


 162 000a 1868     		ldr	r0, [r3, #0]
 163              	.LVL11:
 164 000c 421E     		subs	r2, r0, #1
 165 000e 1A60     		str	r2, [r3, #0]
 166 0010 4AB9     		cbnz	r2, .L6
 167              		.loc 1 122 0
 168 0012 4FF4805C 		mov	ip, #4096
 169 0016 C4F2020C 		movt	ip, 16386
 170 001a DCF81420 		ldr	r2, [ip, #20]
 171 001e 22F00101 		bic	r1, r2, #1
 172 0022 CCF81410 		str	r1, [ip, #20]
 173              	.L6:
 174 0026 7047     		bx	lr
 175              		.cfi_endproc
 176              	.LFE38:
 177              		.size	dmaDisable, .-dmaDisable
 178 0028 AFF30080 		.section	.bss.dmacnt1,"aw",%nobits
 178      AFF30080 
 179              		.align	2
 180              		.set	.LANCHOR0,. + 0
 181              		.type	dmacnt1, %object
 182              		.size	dmacnt1, 4
 183              	dmacnt1:
 184 0000 00000000 		.space	4
 185              		.text
 186              	.Letext0:
 187              		.section	.debug_loc,"",%progbits
 188              	.Ldebug_loc0:
 189              	.LLST0:
 190 0000 00000000 		.4byte	.LFB36
 191 0004 04000000 		.4byte	.LCFI0
 192 0008 0200     		.2byte	0x2
 193 000a 7D       		.byte	0x7d
 194 000b 00       		.sleb128 0
 195 000c 04000000 		.4byte	.LCFI0
 196 0010 62000000 		.4byte	.LFE36
 197 0014 0200     		.2byte	0x2
 198 0016 7D       		.byte	0x7d
 199 0017 14       		.sleb128 20
 200 0018 00000000 		.4byte	0x0
 201 001c 00000000 		.4byte	0x0
 202              	.LLST1:
 203 0020 40000000 		.4byte	.LVL0
 204 0024 48000000 		.4byte	.LVL1
 205 0028 0200     		.2byte	0x2
 206 002a 36       		.byte	0x36
 207 002b 9F       		.byte	0x9f
 208 002c 48000000 		.4byte	.LVL1
 209 0030 4C000000 		.4byte	.LVL2
 210 0034 0200     		.2byte	0x2
 211 0036 35       		.byte	0x35
 212 0037 9F       		.byte	0x9f
 213 0038 4C000000 		.4byte	.LVL2
 214 003c 4E000000 		.4byte	.LVL3
 215 0040 0200     		.2byte	0x2
 216 0042 34       		.byte	0x34
 217 0043 9F       		.byte	0x9f
ARM GAS  /tmp/ccoYWhpD.s 			page 5


 218 0044 4E000000 		.4byte	.LVL3
 219 0048 50000000 		.4byte	.LVL4
 220 004c 0200     		.2byte	0x2
 221 004e 33       		.byte	0x33
 222 004f 9F       		.byte	0x9f
 223 0050 50000000 		.4byte	.LVL4
 224 0054 52000000 		.4byte	.LVL5
 225 0058 0200     		.2byte	0x2
 226 005a 32       		.byte	0x32
 227 005b 9F       		.byte	0x9f
 228 005c 52000000 		.4byte	.LVL5
 229 0060 54000000 		.4byte	.LVL6
 230 0064 0200     		.2byte	0x2
 231 0066 31       		.byte	0x31
 232 0067 9F       		.byte	0x9f
 233 0068 54000000 		.4byte	.LVL6
 234 006c 56000000 		.4byte	.LVL7
 235 0070 0200     		.2byte	0x2
 236 0072 30       		.byte	0x30
 237 0073 9F       		.byte	0x9f
 238 0074 56000000 		.4byte	.LVL7
 239 0078 62000000 		.4byte	.LFE36
 240 007c 0300     		.2byte	0x3
 241 007e 09       		.byte	0x9
 242 007f FF       		.byte	0xff
 243 0080 9F       		.byte	0x9f
 244 0081 00000000 		.4byte	0x0
 245 0085 00000000 		.4byte	0x0
 246              	.LLST2:
 247 0089 00000000 		.4byte	.LVL8
 248 008d 2A000000 		.4byte	.LVL9
 249 0091 0100     		.2byte	0x1
 250 0093 50       		.byte	0x50
 251 0094 00000000 		.4byte	0x0
 252 0098 00000000 		.4byte	0x0
 253              	.LLST3:
 254 009c 00000000 		.4byte	.LVL10
 255 00a0 0C000000 		.4byte	.LVL11
 256 00a4 0100     		.2byte	0x1
 257 00a6 50       		.byte	0x50
 258 00a7 00000000 		.4byte	0x0
 259 00ab 00000000 		.4byte	0x0
 260              		.file 2 "/home/dan/arm-cs-tools/lib/gcc/arm-none-eabi/4.5.1/../../../../arm-none-eabi/include/stdi
 261              		.file 3 "chibios/os/ports/GCC/ARMCMx/chtypes.h"
 262              		.file 4 "chibios/os/hal/platforms/STM32/stm32f10x.h"
 263              		.file 5 "chibios/os/hal/platforms/STM32/stm32_dma.h"
 264              		.file 6 "chibios/os/hal/platforms/STM32/core_cm3.h"
 265              		.section	.debug_info
 266 0000 CD020000 		.4byte	0x2cd
 267 0004 0200     		.2byte	0x2
 268 0006 00000000 		.4byte	.Ldebug_abbrev0
 269 000a 04       		.byte	0x4
 270 000b 01       		.uleb128 0x1
 271 000c CC000000 		.4byte	.LASF35
 272 0010 01       		.byte	0x1
 273 0011 07010000 		.4byte	.LASF36
 274 0015 89000000 		.4byte	.LASF37
ARM GAS  /tmp/ccoYWhpD.s 			page 6


 275 0019 00000000 		.4byte	0x0
 276 001d 00000000 		.4byte	0x0
 277 0021 00000000 		.4byte	.Ldebug_ranges0+0x0
 278 0025 00000000 		.4byte	.Ldebug_line0
 279 0029 02       		.uleb128 0x2
 280 002a 04       		.byte	0x4
 281 002b 05       		.byte	0x5
 282 002c 696E7400 		.ascii	"int\000"
 283 0030 03       		.uleb128 0x3
 284 0031 04       		.byte	0x4
 285 0032 07       		.byte	0x7
 286 0033 32010000 		.4byte	.LASF0
 287 0037 03       		.uleb128 0x3
 288 0038 01       		.byte	0x1
 289 0039 06       		.byte	0x6
 290 003a AE010000 		.4byte	.LASF1
 291 003e 03       		.uleb128 0x3
 292 003f 01       		.byte	0x1
 293 0040 08       		.byte	0x8
 294 0041 58000000 		.4byte	.LASF2
 295 0045 03       		.uleb128 0x3
 296 0046 02       		.byte	0x2
 297 0047 05       		.byte	0x5
 298 0048 75010000 		.4byte	.LASF3
 299 004c 04       		.uleb128 0x4
 300 004d 7F010000 		.4byte	.LASF5
 301 0051 02       		.byte	0x2
 302 0052 36       		.byte	0x36
 303 0053 57000000 		.4byte	0x57
 304 0057 03       		.uleb128 0x3
 305 0058 02       		.byte	0x2
 306 0059 07       		.byte	0x7
 307 005a 37000000 		.4byte	.LASF4
 308 005e 04       		.uleb128 0x4
 309 005f 5C010000 		.4byte	.LASF6
 310 0063 02       		.byte	0x2
 311 0064 4F       		.byte	0x4f
 312 0065 69000000 		.4byte	0x69
 313 0069 03       		.uleb128 0x3
 314 006a 04       		.byte	0x4
 315 006b 05       		.byte	0x5
 316 006c 9D010000 		.4byte	.LASF7
 317 0070 04       		.uleb128 0x4
 318 0071 94010000 		.4byte	.LASF8
 319 0075 02       		.byte	0x2
 320 0076 50       		.byte	0x50
 321 0077 7B000000 		.4byte	0x7b
 322 007b 03       		.uleb128 0x3
 323 007c 04       		.byte	0x4
 324 007d 07       		.byte	0x7
 325 007e 71000000 		.4byte	.LASF9
 326 0082 03       		.uleb128 0x3
 327 0083 08       		.byte	0x8
 328 0084 05       		.byte	0x5
 329 0085 00000000 		.4byte	.LASF10
 330 0089 03       		.uleb128 0x3
 331 008a 08       		.byte	0x8
ARM GAS  /tmp/ccoYWhpD.s 			page 7


 332 008b 07       		.byte	0x7
 333 008c 3F010000 		.4byte	.LASF11
 334 0090 04       		.uleb128 0x4
 335 0091 56010000 		.4byte	.LASF12
 336 0095 03       		.byte	0x3
 337 0096 36       		.byte	0x36
 338 0097 5E000000 		.4byte	0x5e
 339 009b 05       		.uleb128 0x5
 340 009c 70000000 		.4byte	0x70
 341 00a0 06       		.uleb128 0x6
 342 00a1 08       		.byte	0x8
 343 00a2 04       		.byte	0x4
 344 00a3 E802     		.2byte	0x2e8
 345 00a5 C8000000 		.4byte	0xc8
 346 00a9 07       		.uleb128 0x7
 347 00aa 49535200 		.ascii	"ISR\000"
 348 00ae 04       		.byte	0x4
 349 00af EA02     		.2byte	0x2ea
 350 00b1 9B000000 		.4byte	0x9b
 351 00b5 02       		.byte	0x2
 352 00b6 23       		.byte	0x23
 353 00b7 00       		.uleb128 0x0
 354 00b8 08       		.uleb128 0x8
 355 00b9 4A000000 		.4byte	.LASF13
 356 00bd 04       		.byte	0x4
 357 00be EB02     		.2byte	0x2eb
 358 00c0 9B000000 		.4byte	0x9b
 359 00c4 02       		.byte	0x2
 360 00c5 23       		.byte	0x23
 361 00c6 04       		.uleb128 0x4
 362 00c7 00       		.byte	0x0
 363 00c8 09       		.uleb128 0x9
 364 00c9 BA010000 		.4byte	.LASF14
 365 00cd 04       		.byte	0x4
 366 00ce EC02     		.2byte	0x2ec
 367 00d0 A0000000 		.4byte	0xa0
 368 00d4 06       		.uleb128 0x6
 369 00d5 28       		.byte	0x28
 370 00d6 04       		.byte	0x4
 371 00d7 F603     		.2byte	0x3f6
 372 00d9 73010000 		.4byte	0x173
 373 00dd 07       		.uleb128 0x7
 374 00de 435200   		.ascii	"CR\000"
 375 00e1 04       		.byte	0x4
 376 00e2 F803     		.2byte	0x3f8
 377 00e4 9B000000 		.4byte	0x9b
 378 00e8 02       		.byte	0x2
 379 00e9 23       		.byte	0x23
 380 00ea 00       		.uleb128 0x0
 381 00eb 08       		.uleb128 0x8
 382 00ec 13000000 		.4byte	.LASF15
 383 00f0 04       		.byte	0x4
 384 00f1 F903     		.2byte	0x3f9
 385 00f3 9B000000 		.4byte	0x9b
 386 00f7 02       		.byte	0x2
 387 00f8 23       		.byte	0x23
 388 00f9 04       		.uleb128 0x4
ARM GAS  /tmp/ccoYWhpD.s 			page 8


 389 00fa 07       		.uleb128 0x7
 390 00fb 43495200 		.ascii	"CIR\000"
 391 00ff 04       		.byte	0x4
 392 0100 FA03     		.2byte	0x3fa
 393 0102 9B000000 		.4byte	0x9b
 394 0106 02       		.byte	0x2
 395 0107 23       		.byte	0x23
 396 0108 08       		.uleb128 0x8
 397 0109 08       		.uleb128 0x8
 398 010a FE000000 		.4byte	.LASF16
 399 010e 04       		.byte	0x4
 400 010f FB03     		.2byte	0x3fb
 401 0111 9B000000 		.4byte	0x9b
 402 0115 02       		.byte	0x2
 403 0116 23       		.byte	0x23
 404 0117 0C       		.uleb128 0xc
 405 0118 08       		.uleb128 0x8
 406 0119 4F000000 		.4byte	.LASF17
 407 011d 04       		.byte	0x4
 408 011e FC03     		.2byte	0x3fc
 409 0120 9B000000 		.4byte	0x9b
 410 0124 02       		.byte	0x2
 411 0125 23       		.byte	0x23
 412 0126 10       		.uleb128 0x10
 413 0127 08       		.uleb128 0x8
 414 0128 18000000 		.4byte	.LASF18
 415 012c 04       		.byte	0x4
 416 012d FD03     		.2byte	0x3fd
 417 012f 9B000000 		.4byte	0x9b
 418 0133 02       		.byte	0x2
 419 0134 23       		.byte	0x23
 420 0135 14       		.uleb128 0x14
 421 0136 08       		.uleb128 0x8
 422 0137 64010000 		.4byte	.LASF19
 423 013b 04       		.byte	0x4
 424 013c FE03     		.2byte	0x3fe
 425 013e 9B000000 		.4byte	0x9b
 426 0142 02       		.byte	0x2
 427 0143 23       		.byte	0x23
 428 0144 18       		.uleb128 0x18
 429 0145 08       		.uleb128 0x8
 430 0146 D8000000 		.4byte	.LASF20
 431 014a 04       		.byte	0x4
 432 014b FF03     		.2byte	0x3ff
 433 014d 9B000000 		.4byte	0x9b
 434 0151 02       		.byte	0x2
 435 0152 23       		.byte	0x23
 436 0153 1C       		.uleb128 0x1c
 437 0154 08       		.uleb128 0x8
 438 0155 0E000000 		.4byte	.LASF21
 439 0159 04       		.byte	0x4
 440 015a 0004     		.2byte	0x400
 441 015c 9B000000 		.4byte	0x9b
 442 0160 02       		.byte	0x2
 443 0161 23       		.byte	0x23
 444 0162 20       		.uleb128 0x20
 445 0163 07       		.uleb128 0x7
ARM GAS  /tmp/ccoYWhpD.s 			page 9


 446 0164 43535200 		.ascii	"CSR\000"
 447 0168 04       		.byte	0x4
 448 0169 0104     		.2byte	0x401
 449 016b 9B000000 		.4byte	0x9b
 450 016f 02       		.byte	0x2
 451 0170 23       		.byte	0x23
 452 0171 24       		.uleb128 0x24
 453 0172 00       		.byte	0x0
 454 0173 09       		.uleb128 0x9
 455 0174 88010000 		.4byte	.LASF22
 456 0178 04       		.byte	0x4
 457 0179 0C04     		.2byte	0x40c
 458 017b D4000000 		.4byte	0xd4
 459 017f 0A       		.uleb128 0xa
 460 0180 14       		.byte	0x14
 461 0181 05       		.byte	0x5
 462 0182 43       		.byte	0x43
 463 0183 CE010000 		.4byte	0x1ce
 464 0187 0B       		.uleb128 0xb
 465 0188 43435200 		.ascii	"CCR\000"
 466 018c 05       		.byte	0x5
 467 018d 44       		.byte	0x44
 468 018e 9B000000 		.4byte	0x9b
 469 0192 02       		.byte	0x2
 470 0193 23       		.byte	0x23
 471 0194 00       		.uleb128 0x0
 472 0195 0C       		.uleb128 0xc
 473 0196 66000000 		.4byte	.LASF23
 474 019a 05       		.byte	0x5
 475 019b 45       		.byte	0x45
 476 019c 9B000000 		.4byte	0x9b
 477 01a0 02       		.byte	0x2
 478 01a1 23       		.byte	0x23
 479 01a2 04       		.uleb128 0x4
 480 01a3 0C       		.uleb128 0xc
 481 01a4 6C000000 		.4byte	.LASF24
 482 01a8 05       		.byte	0x5
 483 01a9 46       		.byte	0x46
 484 01aa 9B000000 		.4byte	0x9b
 485 01ae 02       		.byte	0x2
 486 01af 23       		.byte	0x23
 487 01b0 08       		.uleb128 0x8
 488 01b1 0C       		.uleb128 0xc
 489 01b2 1F000000 		.4byte	.LASF25
 490 01b6 05       		.byte	0x5
 491 01b7 47       		.byte	0x47
 492 01b8 9B000000 		.4byte	0x9b
 493 01bc 02       		.byte	0x2
 494 01bd 23       		.byte	0x23
 495 01be 0C       		.uleb128 0xc
 496 01bf 0C       		.uleb128 0xc
 497 01c0 83000000 		.4byte	.LASF26
 498 01c4 05       		.byte	0x5
 499 01c5 48       		.byte	0x48
 500 01c6 9B000000 		.4byte	0x9b
 501 01ca 02       		.byte	0x2
 502 01cb 23       		.byte	0x23
ARM GAS  /tmp/ccoYWhpD.s 			page 10


 503 01cc 10       		.uleb128 0x10
 504 01cd 00       		.byte	0x0
 505 01ce 04       		.uleb128 0x4
 506 01cf E0000000 		.4byte	.LASF27
 507 01d3 05       		.byte	0x5
 508 01d4 49       		.byte	0x49
 509 01d5 7F010000 		.4byte	0x17f
 510 01d9 0A       		.uleb128 0xa
 511 01da 94       		.byte	0x94
 512 01db 05       		.byte	0x5
 513 01dc 51       		.byte	0x51
 514 01dd 0C020000 		.4byte	0x20c
 515 01e1 0B       		.uleb128 0xb
 516 01e2 49535200 		.ascii	"ISR\000"
 517 01e6 05       		.byte	0x5
 518 01e7 52       		.byte	0x52
 519 01e8 9B000000 		.4byte	0x9b
 520 01ec 02       		.byte	0x2
 521 01ed 23       		.byte	0x23
 522 01ee 00       		.uleb128 0x0
 523 01ef 0C       		.uleb128 0xc
 524 01f0 4A000000 		.4byte	.LASF13
 525 01f4 05       		.byte	0x5
 526 01f5 53       		.byte	0x53
 527 01f6 9B000000 		.4byte	0x9b
 528 01fa 02       		.byte	0x2
 529 01fb 23       		.byte	0x23
 530 01fc 04       		.uleb128 0x4
 531 01fd 0C       		.uleb128 0xc
 532 01fe 6C010000 		.4byte	.LASF28
 533 0202 05       		.byte	0x5
 534 0203 54       		.byte	0x54
 535 0204 0C020000 		.4byte	0x20c
 536 0208 02       		.byte	0x2
 537 0209 23       		.byte	0x23
 538 020a 08       		.uleb128 0x8
 539 020b 00       		.byte	0x0
 540 020c 0D       		.uleb128 0xd
 541 020d CE010000 		.4byte	0x1ce
 542 0211 1C020000 		.4byte	0x21c
 543 0215 0E       		.uleb128 0xe
 544 0216 30000000 		.4byte	0x30
 545 021a 06       		.byte	0x6
 546 021b 00       		.byte	0x0
 547 021c 04       		.uleb128 0x4
 548 021d C6010000 		.4byte	.LASF29
 549 0221 05       		.byte	0x5
 550 0222 55       		.byte	0x55
 551 0223 D9010000 		.4byte	0x1d9
 552 0227 0F       		.uleb128 0xf
 553 0228 01       		.byte	0x1
 554 0229 24000000 		.4byte	.LASF30
 555 022d 01       		.byte	0x1
 556 022e 44       		.byte	0x44
 557 022f 01       		.byte	0x1
 558 0230 00000000 		.4byte	.LFB36
 559 0234 62000000 		.4byte	.LFE36
ARM GAS  /tmp/ccoYWhpD.s 			page 11


 560 0238 00000000 		.4byte	.LLST0
 561 023c 4E020000 		.4byte	0x24e
 562 0240 10       		.uleb128 0x10
 563 0241 6900     		.ascii	"i\000"
 564 0243 01       		.byte	0x1
 565 0244 45       		.byte	0x45
 566 0245 29000000 		.4byte	0x29
 567 0249 20000000 		.4byte	.LLST1
 568 024d 00       		.byte	0x0
 569 024e 11       		.uleb128 0x11
 570 024f 01       		.byte	0x1
 571 0250 F4000000 		.4byte	.LASF31
 572 0254 01       		.byte	0x1
 573 0255 5A       		.byte	0x5a
 574 0256 01       		.byte	0x1
 575 0257 00000000 		.4byte	.LFB37
 576 025b 32000000 		.4byte	.LFE37
 577 025f 02       		.byte	0x2
 578 0260 7D       		.byte	0x7d
 579 0261 00       		.sleb128 0
 580 0262 76020000 		.4byte	0x276
 581 0266 12       		.uleb128 0x12
 582 0267 646D6100 		.ascii	"dma\000"
 583 026b 01       		.byte	0x1
 584 026c 5A       		.byte	0x5a
 585 026d 70000000 		.4byte	0x70
 586 0271 89000000 		.4byte	.LLST2
 587 0275 00       		.byte	0x0
 588 0276 11       		.uleb128 0x11
 589 0277 01       		.byte	0x1
 590 0278 2C000000 		.4byte	.LASF32
 591 027c 01       		.byte	0x1
 592 027d 75       		.byte	0x75
 593 027e 01       		.byte	0x1
 594 027f 00000000 		.4byte	.LFB38
 595 0283 28000000 		.4byte	.LFE38
 596 0287 02       		.byte	0x2
 597 0288 7D       		.byte	0x7d
 598 0289 00       		.sleb128 0
 599 028a 9E020000 		.4byte	0x29e
 600 028e 12       		.uleb128 0x12
 601 028f 646D6100 		.ascii	"dma\000"
 602 0293 01       		.byte	0x1
 603 0294 75       		.byte	0x75
 604 0295 70000000 		.4byte	0x70
 605 0299 9C000000 		.4byte	.LLST3
 606 029d 00       		.byte	0x0
 607 029e 13       		.uleb128 0x13
 608 029f BF000000 		.4byte	.LASF34
 609 02a3 06       		.byte	0x6
 610 02a4 ED06     		.2byte	0x6ed
 611 02a6 AC020000 		.4byte	0x2ac
 612 02aa 01       		.byte	0x1
 613 02ab 01       		.byte	0x1
 614 02ac 05       		.uleb128 0x5
 615 02ad 29000000 		.4byte	0x29
 616 02b1 14       		.uleb128 0x14
ARM GAS  /tmp/ccoYWhpD.s 			page 12


 617 02b2 A6010000 		.4byte	.LASF33
 618 02b6 01       		.byte	0x1
 619 02b7 2E       		.byte	0x2e
 620 02b8 90000000 		.4byte	0x90
 621 02bc 05       		.byte	0x5
 622 02bd 03       		.byte	0x3
 623 02be 00000000 		.4byte	dmacnt1
 624 02c2 13       		.uleb128 0x13
 625 02c3 BF000000 		.4byte	.LASF34
 626 02c7 06       		.byte	0x6
 627 02c8 ED06     		.2byte	0x6ed
 628 02ca AC020000 		.4byte	0x2ac
 629 02ce 01       		.byte	0x1
 630 02cf 01       		.byte	0x1
 631 02d0 00       		.byte	0x0
 632              		.section	.debug_abbrev
 633 0000 01       		.uleb128 0x1
 634 0001 11       		.uleb128 0x11
 635 0002 01       		.byte	0x1
 636 0003 25       		.uleb128 0x25
 637 0004 0E       		.uleb128 0xe
 638 0005 13       		.uleb128 0x13
 639 0006 0B       		.uleb128 0xb
 640 0007 03       		.uleb128 0x3
 641 0008 0E       		.uleb128 0xe
 642 0009 1B       		.uleb128 0x1b
 643 000a 0E       		.uleb128 0xe
 644 000b 11       		.uleb128 0x11
 645 000c 01       		.uleb128 0x1
 646 000d 52       		.uleb128 0x52
 647 000e 01       		.uleb128 0x1
 648 000f 55       		.uleb128 0x55
 649 0010 06       		.uleb128 0x6
 650 0011 10       		.uleb128 0x10
 651 0012 06       		.uleb128 0x6
 652 0013 00       		.byte	0x0
 653 0014 00       		.byte	0x0
 654 0015 02       		.uleb128 0x2
 655 0016 24       		.uleb128 0x24
 656 0017 00       		.byte	0x0
 657 0018 0B       		.uleb128 0xb
 658 0019 0B       		.uleb128 0xb
 659 001a 3E       		.uleb128 0x3e
 660 001b 0B       		.uleb128 0xb
 661 001c 03       		.uleb128 0x3
 662 001d 08       		.uleb128 0x8
 663 001e 00       		.byte	0x0
 664 001f 00       		.byte	0x0
 665 0020 03       		.uleb128 0x3
 666 0021 24       		.uleb128 0x24
 667 0022 00       		.byte	0x0
 668 0023 0B       		.uleb128 0xb
 669 0024 0B       		.uleb128 0xb
 670 0025 3E       		.uleb128 0x3e
 671 0026 0B       		.uleb128 0xb
 672 0027 03       		.uleb128 0x3
 673 0028 0E       		.uleb128 0xe
ARM GAS  /tmp/ccoYWhpD.s 			page 13


 674 0029 00       		.byte	0x0
 675 002a 00       		.byte	0x0
 676 002b 04       		.uleb128 0x4
 677 002c 16       		.uleb128 0x16
 678 002d 00       		.byte	0x0
 679 002e 03       		.uleb128 0x3
 680 002f 0E       		.uleb128 0xe
 681 0030 3A       		.uleb128 0x3a
 682 0031 0B       		.uleb128 0xb
 683 0032 3B       		.uleb128 0x3b
 684 0033 0B       		.uleb128 0xb
 685 0034 49       		.uleb128 0x49
 686 0035 13       		.uleb128 0x13
 687 0036 00       		.byte	0x0
 688 0037 00       		.byte	0x0
 689 0038 05       		.uleb128 0x5
 690 0039 35       		.uleb128 0x35
 691 003a 00       		.byte	0x0
 692 003b 49       		.uleb128 0x49
 693 003c 13       		.uleb128 0x13
 694 003d 00       		.byte	0x0
 695 003e 00       		.byte	0x0
 696 003f 06       		.uleb128 0x6
 697 0040 13       		.uleb128 0x13
 698 0041 01       		.byte	0x1
 699 0042 0B       		.uleb128 0xb
 700 0043 0B       		.uleb128 0xb
 701 0044 3A       		.uleb128 0x3a
 702 0045 0B       		.uleb128 0xb
 703 0046 3B       		.uleb128 0x3b
 704 0047 05       		.uleb128 0x5
 705 0048 01       		.uleb128 0x1
 706 0049 13       		.uleb128 0x13
 707 004a 00       		.byte	0x0
 708 004b 00       		.byte	0x0
 709 004c 07       		.uleb128 0x7
 710 004d 0D       		.uleb128 0xd
 711 004e 00       		.byte	0x0
 712 004f 03       		.uleb128 0x3
 713 0050 08       		.uleb128 0x8
 714 0051 3A       		.uleb128 0x3a
 715 0052 0B       		.uleb128 0xb
 716 0053 3B       		.uleb128 0x3b
 717 0054 05       		.uleb128 0x5
 718 0055 49       		.uleb128 0x49
 719 0056 13       		.uleb128 0x13
 720 0057 38       		.uleb128 0x38
 721 0058 0A       		.uleb128 0xa
 722 0059 00       		.byte	0x0
 723 005a 00       		.byte	0x0
 724 005b 08       		.uleb128 0x8
 725 005c 0D       		.uleb128 0xd
 726 005d 00       		.byte	0x0
 727 005e 03       		.uleb128 0x3
 728 005f 0E       		.uleb128 0xe
 729 0060 3A       		.uleb128 0x3a
 730 0061 0B       		.uleb128 0xb
ARM GAS  /tmp/ccoYWhpD.s 			page 14


 731 0062 3B       		.uleb128 0x3b
 732 0063 05       		.uleb128 0x5
 733 0064 49       		.uleb128 0x49
 734 0065 13       		.uleb128 0x13
 735 0066 38       		.uleb128 0x38
 736 0067 0A       		.uleb128 0xa
 737 0068 00       		.byte	0x0
 738 0069 00       		.byte	0x0
 739 006a 09       		.uleb128 0x9
 740 006b 16       		.uleb128 0x16
 741 006c 00       		.byte	0x0
 742 006d 03       		.uleb128 0x3
 743 006e 0E       		.uleb128 0xe
 744 006f 3A       		.uleb128 0x3a
 745 0070 0B       		.uleb128 0xb
 746 0071 3B       		.uleb128 0x3b
 747 0072 05       		.uleb128 0x5
 748 0073 49       		.uleb128 0x49
 749 0074 13       		.uleb128 0x13
 750 0075 00       		.byte	0x0
 751 0076 00       		.byte	0x0
 752 0077 0A       		.uleb128 0xa
 753 0078 13       		.uleb128 0x13
 754 0079 01       		.byte	0x1
 755 007a 0B       		.uleb128 0xb
 756 007b 0B       		.uleb128 0xb
 757 007c 3A       		.uleb128 0x3a
 758 007d 0B       		.uleb128 0xb
 759 007e 3B       		.uleb128 0x3b
 760 007f 0B       		.uleb128 0xb
 761 0080 01       		.uleb128 0x1
 762 0081 13       		.uleb128 0x13
 763 0082 00       		.byte	0x0
 764 0083 00       		.byte	0x0
 765 0084 0B       		.uleb128 0xb
 766 0085 0D       		.uleb128 0xd
 767 0086 00       		.byte	0x0
 768 0087 03       		.uleb128 0x3
 769 0088 08       		.uleb128 0x8
 770 0089 3A       		.uleb128 0x3a
 771 008a 0B       		.uleb128 0xb
 772 008b 3B       		.uleb128 0x3b
 773 008c 0B       		.uleb128 0xb
 774 008d 49       		.uleb128 0x49
 775 008e 13       		.uleb128 0x13
 776 008f 38       		.uleb128 0x38
 777 0090 0A       		.uleb128 0xa
 778 0091 00       		.byte	0x0
 779 0092 00       		.byte	0x0
 780 0093 0C       		.uleb128 0xc
 781 0094 0D       		.uleb128 0xd
 782 0095 00       		.byte	0x0
 783 0096 03       		.uleb128 0x3
 784 0097 0E       		.uleb128 0xe
 785 0098 3A       		.uleb128 0x3a
 786 0099 0B       		.uleb128 0xb
 787 009a 3B       		.uleb128 0x3b
ARM GAS  /tmp/ccoYWhpD.s 			page 15


 788 009b 0B       		.uleb128 0xb
 789 009c 49       		.uleb128 0x49
 790 009d 13       		.uleb128 0x13
 791 009e 38       		.uleb128 0x38
 792 009f 0A       		.uleb128 0xa
 793 00a0 00       		.byte	0x0
 794 00a1 00       		.byte	0x0
 795 00a2 0D       		.uleb128 0xd
 796 00a3 01       		.uleb128 0x1
 797 00a4 01       		.byte	0x1
 798 00a5 49       		.uleb128 0x49
 799 00a6 13       		.uleb128 0x13
 800 00a7 01       		.uleb128 0x1
 801 00a8 13       		.uleb128 0x13
 802 00a9 00       		.byte	0x0
 803 00aa 00       		.byte	0x0
 804 00ab 0E       		.uleb128 0xe
 805 00ac 21       		.uleb128 0x21
 806 00ad 00       		.byte	0x0
 807 00ae 49       		.uleb128 0x49
 808 00af 13       		.uleb128 0x13
 809 00b0 2F       		.uleb128 0x2f
 810 00b1 0B       		.uleb128 0xb
 811 00b2 00       		.byte	0x0
 812 00b3 00       		.byte	0x0
 813 00b4 0F       		.uleb128 0xf
 814 00b5 2E       		.uleb128 0x2e
 815 00b6 01       		.byte	0x1
 816 00b7 3F       		.uleb128 0x3f
 817 00b8 0C       		.uleb128 0xc
 818 00b9 03       		.uleb128 0x3
 819 00ba 0E       		.uleb128 0xe
 820 00bb 3A       		.uleb128 0x3a
 821 00bc 0B       		.uleb128 0xb
 822 00bd 3B       		.uleb128 0x3b
 823 00be 0B       		.uleb128 0xb
 824 00bf 27       		.uleb128 0x27
 825 00c0 0C       		.uleb128 0xc
 826 00c1 11       		.uleb128 0x11
 827 00c2 01       		.uleb128 0x1
 828 00c3 12       		.uleb128 0x12
 829 00c4 01       		.uleb128 0x1
 830 00c5 40       		.uleb128 0x40
 831 00c6 06       		.uleb128 0x6
 832 00c7 01       		.uleb128 0x1
 833 00c8 13       		.uleb128 0x13
 834 00c9 00       		.byte	0x0
 835 00ca 00       		.byte	0x0
 836 00cb 10       		.uleb128 0x10
 837 00cc 34       		.uleb128 0x34
 838 00cd 00       		.byte	0x0
 839 00ce 03       		.uleb128 0x3
 840 00cf 08       		.uleb128 0x8
 841 00d0 3A       		.uleb128 0x3a
 842 00d1 0B       		.uleb128 0xb
 843 00d2 3B       		.uleb128 0x3b
 844 00d3 0B       		.uleb128 0xb
ARM GAS  /tmp/ccoYWhpD.s 			page 16


 845 00d4 49       		.uleb128 0x49
 846 00d5 13       		.uleb128 0x13
 847 00d6 02       		.uleb128 0x2
 848 00d7 06       		.uleb128 0x6
 849 00d8 00       		.byte	0x0
 850 00d9 00       		.byte	0x0
 851 00da 11       		.uleb128 0x11
 852 00db 2E       		.uleb128 0x2e
 853 00dc 01       		.byte	0x1
 854 00dd 3F       		.uleb128 0x3f
 855 00de 0C       		.uleb128 0xc
 856 00df 03       		.uleb128 0x3
 857 00e0 0E       		.uleb128 0xe
 858 00e1 3A       		.uleb128 0x3a
 859 00e2 0B       		.uleb128 0xb
 860 00e3 3B       		.uleb128 0x3b
 861 00e4 0B       		.uleb128 0xb
 862 00e5 27       		.uleb128 0x27
 863 00e6 0C       		.uleb128 0xc
 864 00e7 11       		.uleb128 0x11
 865 00e8 01       		.uleb128 0x1
 866 00e9 12       		.uleb128 0x12
 867 00ea 01       		.uleb128 0x1
 868 00eb 40       		.uleb128 0x40
 869 00ec 0A       		.uleb128 0xa
 870 00ed 01       		.uleb128 0x1
 871 00ee 13       		.uleb128 0x13
 872 00ef 00       		.byte	0x0
 873 00f0 00       		.byte	0x0
 874 00f1 12       		.uleb128 0x12
 875 00f2 05       		.uleb128 0x5
 876 00f3 00       		.byte	0x0
 877 00f4 03       		.uleb128 0x3
 878 00f5 08       		.uleb128 0x8
 879 00f6 3A       		.uleb128 0x3a
 880 00f7 0B       		.uleb128 0xb
 881 00f8 3B       		.uleb128 0x3b
 882 00f9 0B       		.uleb128 0xb
 883 00fa 49       		.uleb128 0x49
 884 00fb 13       		.uleb128 0x13
 885 00fc 02       		.uleb128 0x2
 886 00fd 06       		.uleb128 0x6
 887 00fe 00       		.byte	0x0
 888 00ff 00       		.byte	0x0
 889 0100 13       		.uleb128 0x13
 890 0101 34       		.uleb128 0x34
 891 0102 00       		.byte	0x0
 892 0103 03       		.uleb128 0x3
 893 0104 0E       		.uleb128 0xe
 894 0105 3A       		.uleb128 0x3a
 895 0106 0B       		.uleb128 0xb
 896 0107 3B       		.uleb128 0x3b
 897 0108 05       		.uleb128 0x5
 898 0109 49       		.uleb128 0x49
 899 010a 13       		.uleb128 0x13
 900 010b 3F       		.uleb128 0x3f
 901 010c 0C       		.uleb128 0xc
ARM GAS  /tmp/ccoYWhpD.s 			page 17


 902 010d 3C       		.uleb128 0x3c
 903 010e 0C       		.uleb128 0xc
 904 010f 00       		.byte	0x0
 905 0110 00       		.byte	0x0
 906 0111 14       		.uleb128 0x14
 907 0112 34       		.uleb128 0x34
 908 0113 00       		.byte	0x0
 909 0114 03       		.uleb128 0x3
 910 0115 0E       		.uleb128 0xe
 911 0116 3A       		.uleb128 0x3a
 912 0117 0B       		.uleb128 0xb
 913 0118 3B       		.uleb128 0x3b
 914 0119 0B       		.uleb128 0xb
 915 011a 49       		.uleb128 0x49
 916 011b 13       		.uleb128 0x13
 917 011c 02       		.uleb128 0x2
 918 011d 0A       		.uleb128 0xa
 919 011e 00       		.byte	0x0
 920 011f 00       		.byte	0x0
 921 0120 00       		.byte	0x0
 922              		.section	.debug_pubnames,"",%progbits
 923 0000 37000000 		.4byte	0x37
 924 0004 0200     		.2byte	0x2
 925 0006 00000000 		.4byte	.Ldebug_info0
 926 000a D1020000 		.4byte	0x2d1
 927 000e 27020000 		.4byte	0x227
 928 0012 646D6149 		.ascii	"dmaInit\000"
 928      6E697400 
 929 001a 4E020000 		.4byte	0x24e
 930 001e 646D6145 		.ascii	"dmaEnable\000"
 930      6E61626C 
 930      6500
 931 0028 76020000 		.4byte	0x276
 932 002c 646D6144 		.ascii	"dmaDisable\000"
 932      69736162 
 932      6C6500
 933 0037 00000000 		.4byte	0x0
 934              		.section	.debug_pubtypes,"",%progbits
 935 0000 86000000 		.4byte	0x86
 936 0004 0200     		.2byte	0x2
 937 0006 00000000 		.4byte	.Ldebug_info0
 938 000a D1020000 		.4byte	0x2d1
 939 000e 4C000000 		.4byte	0x4c
 940 0012 75696E74 		.ascii	"uint16_t\000"
 940      31365F74 
 940      00
 941 001b 5E000000 		.4byte	0x5e
 942 001f 696E7433 		.ascii	"int32_t\000"
 942      325F7400 
 943 0027 70000000 		.4byte	0x70
 944 002b 75696E74 		.ascii	"uint32_t\000"
 944      33325F74 
 944      00
 945 0034 90000000 		.4byte	0x90
 946 0038 636E745F 		.ascii	"cnt_t\000"
 946      7400
 947 003e C8000000 		.4byte	0xc8
ARM GAS  /tmp/ccoYWhpD.s 			page 18


 948 0042 444D415F 		.ascii	"DMA_TypeDef\000"
 948      54797065 
 948      44656600 
 949 004e 73010000 		.4byte	0x173
 950 0052 5243435F 		.ascii	"RCC_TypeDef\000"
 950      54797065 
 950      44656600 
 951 005e CE010000 		.4byte	0x1ce
 952 0062 73746D33 		.ascii	"stm32_dma_channel_t\000"
 952      325F646D 
 952      615F6368 
 952      616E6E65 
 952      6C5F7400 
 953 0076 1C020000 		.4byte	0x21c
 954 007a 73746D33 		.ascii	"stm32_dma_t\000"
 954      325F646D 
 954      615F7400 
 955 0086 00000000 		.4byte	0x0
 956              		.section	.debug_aranges,"",%progbits
 957 0000 2C000000 		.4byte	0x2c
 958 0004 0200     		.2byte	0x2
 959 0006 00000000 		.4byte	.Ldebug_info0
 960 000a 04       		.byte	0x4
 961 000b 00       		.byte	0x0
 962 000c 0000     		.2byte	0x0
 963 000e 0000     		.2byte	0x0
 964 0010 00000000 		.4byte	.LFB36
 965 0014 62000000 		.4byte	.LFE36-.LFB36
 966 0018 00000000 		.4byte	.LFB37
 967 001c 32000000 		.4byte	.LFE37-.LFB37
 968 0020 00000000 		.4byte	.LFB38
 969 0024 28000000 		.4byte	.LFE38-.LFB38
 970 0028 00000000 		.4byte	0x0
 971 002c 00000000 		.4byte	0x0
 972              		.section	.debug_ranges,"",%progbits
 973              	.Ldebug_ranges0:
 974 0000 00000000 		.4byte	.LFB36
 975 0004 62000000 		.4byte	.LFE36
 976 0008 00000000 		.4byte	.LFB37
 977 000c 32000000 		.4byte	.LFE37
 978 0010 00000000 		.4byte	.LFB38
 979 0014 28000000 		.4byte	.LFE38
 980 0018 00000000 		.4byte	0x0
 981 001c 00000000 		.4byte	0x0
 982              		.section	.debug_str,"MS",%progbits,1
 983              	.LASF10:
 984 0000 6C6F6E67 		.ascii	"long long int\000"
 984      206C6F6E 
 984      6720696E 
 984      7400
 985              	.LASF21:
 986 000e 42444352 		.ascii	"BDCR\000"
 986      00
 987              	.LASF15:
 988 0013 43464752 		.ascii	"CFGR\000"
 988      00
 989              	.LASF18:
ARM GAS  /tmp/ccoYWhpD.s 			page 19


 990 0018 41484245 		.ascii	"AHBENR\000"
 990      4E5200
 991              	.LASF25:
 992 001f 434D4152 		.ascii	"CMAR\000"
 992      00
 993              	.LASF30:
 994 0024 646D6149 		.ascii	"dmaInit\000"
 994      6E697400 
 995              	.LASF32:
 996 002c 646D6144 		.ascii	"dmaDisable\000"
 996      69736162 
 996      6C6500
 997              	.LASF4:
 998 0037 73686F72 		.ascii	"short unsigned int\000"
 998      7420756E 
 998      7369676E 
 998      65642069 
 998      6E7400
 999              	.LASF13:
 1000 004a 49464352 		.ascii	"IFCR\000"
 1000      00
 1001              	.LASF17:
 1002 004f 41504231 		.ascii	"APB1RSTR\000"
 1002      52535452 
 1002      00
 1003              	.LASF2:
 1004 0058 756E7369 		.ascii	"unsigned char\000"
 1004      676E6564 
 1004      20636861 
 1004      7200
 1005              	.LASF23:
 1006 0066 434E4454 		.ascii	"CNDTR\000"
 1006      5200
 1007              	.LASF24:
 1008 006c 43504152 		.ascii	"CPAR\000"
 1008      00
 1009              	.LASF9:
 1010 0071 6C6F6E67 		.ascii	"long unsigned int\000"
 1010      20756E73 
 1010      69676E65 
 1010      6420696E 
 1010      7400
 1011              	.LASF26:
 1012 0083 64756D6D 		.ascii	"dummy\000"
 1012      7900
 1013              	.LASF37:
 1014 0089 2F686F6D 		.ascii	"/home/dan/github/github-projects/Quad-Rotor/QuadRot"
 1014      652F6461 
 1014      6E2F6769 
 1014      74687562 
 1014      2F676974 
 1015 00bc 6F7200   		.ascii	"or\000"
 1016              	.LASF34:
 1017 00bf 49544D5F 		.ascii	"ITM_RxBuffer\000"
 1017      52784275 
 1017      66666572 
 1017      00
ARM GAS  /tmp/ccoYWhpD.s 			page 20


 1018              	.LASF35:
 1019 00cc 474E5520 		.ascii	"GNU C 4.5.1\000"
 1019      4320342E 
 1019      352E3100 
 1020              	.LASF20:
 1021 00d8 41504231 		.ascii	"APB1ENR\000"
 1021      454E5200 
 1022              	.LASF27:
 1023 00e0 73746D33 		.ascii	"stm32_dma_channel_t\000"
 1023      325F646D 
 1023      615F6368 
 1023      616E6E65 
 1023      6C5F7400 
 1024              	.LASF31:
 1025 00f4 646D6145 		.ascii	"dmaEnable\000"
 1025      6E61626C 
 1025      6500
 1026              	.LASF16:
 1027 00fe 41504232 		.ascii	"APB2RSTR\000"
 1027      52535452 
 1027      00
 1028              	.LASF36:
 1029 0107 63686962 		.ascii	"chibios/os/hal/platforms/STM32/stm32_dma.c\000"
 1029      696F732F 
 1029      6F732F68 
 1029      616C2F70 
 1029      6C617466 
 1030              	.LASF0:
 1031 0132 756E7369 		.ascii	"unsigned int\000"
 1031      676E6564 
 1031      20696E74 
 1031      00
 1032              	.LASF11:
 1033 013f 6C6F6E67 		.ascii	"long long unsigned int\000"
 1033      206C6F6E 
 1033      6720756E 
 1033      7369676E 
 1033      65642069 
 1034              	.LASF12:
 1035 0156 636E745F 		.ascii	"cnt_t\000"
 1035      7400
 1036              	.LASF6:
 1037 015c 696E7433 		.ascii	"int32_t\000"
 1037      325F7400 
 1038              	.LASF19:
 1039 0164 41504232 		.ascii	"APB2ENR\000"
 1039      454E5200 
 1040              	.LASF28:
 1041 016c 6368616E 		.ascii	"channels\000"
 1041      6E656C73 
 1041      00
 1042              	.LASF3:
 1043 0175 73686F72 		.ascii	"short int\000"
 1043      7420696E 
 1043      7400
 1044              	.LASF5:
 1045 017f 75696E74 		.ascii	"uint16_t\000"
ARM GAS  /tmp/ccoYWhpD.s 			page 21


 1045      31365F74 
 1045      00
 1046              	.LASF22:
 1047 0188 5243435F 		.ascii	"RCC_TypeDef\000"
 1047      54797065 
 1047      44656600 
 1048              	.LASF8:
 1049 0194 75696E74 		.ascii	"uint32_t\000"
 1049      33325F74 
 1049      00
 1050              	.LASF7:
 1051 019d 6C6F6E67 		.ascii	"long int\000"
 1051      20696E74 
 1051      00
 1052              	.LASF33:
 1053 01a6 646D6163 		.ascii	"dmacnt1\000"
 1053      6E743100 
 1054              	.LASF1:
 1055 01ae 7369676E 		.ascii	"signed char\000"
 1055      65642063 
 1055      68617200 
 1056              	.LASF14:
 1057 01ba 444D415F 		.ascii	"DMA_TypeDef\000"
 1057      54797065 
 1057      44656600 
 1058              	.LASF29:
 1059 01c6 73746D33 		.ascii	"stm32_dma_t\000"
 1059      325F646D 
 1059      615F7400 
 1060              		.ident	"GCC: (GNU) 4.5.1"
ARM GAS  /tmp/ccoYWhpD.s 			page 22


DEFINED SYMBOLS
                            *ABS*:0000000000000000 stm32_dma.c
     /tmp/ccoYWhpD.s:24     .text.dmaInit:0000000000000000 $t
     /tmp/ccoYWhpD.s:30     .text.dmaInit:0000000000000000 dmaInit
     /tmp/ccoYWhpD.s:180    .bss.dmacnt1:0000000000000000 .LANCHOR0
     /tmp/ccoYWhpD.s:99     .text.dmaEnable:0000000000000000 $t
     /tmp/ccoYWhpD.s:105    .text.dmaEnable:0000000000000000 dmaEnable
     /tmp/ccoYWhpD.s:143    .text.dmaDisable:0000000000000000 $t
     /tmp/ccoYWhpD.s:149    .text.dmaDisable:0000000000000000 dmaDisable
     /tmp/ccoYWhpD.s:179    .bss.dmacnt1:0000000000000000 $d
     /tmp/ccoYWhpD.s:183    .bss.dmacnt1:0000000000000000 dmacnt1
                     .debug_frame:0000000000000010 $d

NO UNDEFINED SYMBOLS
