ARM GAS  /tmp/ccyaT5cV.s 			page 1


   1              		.syntax unified
   2              		.cpu cortex-m3
   3              		.fpu softvfp
   4              		.eabi_attribute 20, 1
   5              		.eabi_attribute 21, 1
   6              		.eabi_attribute 23, 3
   7              		.eabi_attribute 24, 1
   8              		.eabi_attribute 25, 1
   9              		.eabi_attribute 26, 1
  10              		.eabi_attribute 30, 2
  11              		.eabi_attribute 18, 4
  12              		.thumb
  13              		.file	"pal.c"
  14              		.section	.debug_abbrev,"",%progbits
  15              	.Ldebug_abbrev0:
  16              		.section	.debug_info,"",%progbits
  17              	.Ldebug_info0:
  18              		.section	.debug_line,"",%progbits
  19              	.Ldebug_line0:
  20 0000 39010000 		.text
  20      0200F900 
  20      00000201 
  20      FB0E0D00 
  20      01010101 
  21              	.Ltext0:
  22              		.cfi_sections	.debug_frame
  23              		.section	.text.palReadBus,"ax",%progbits
  24              		.align	2
  25              		.p2align 4,,15
  26              		.global	palReadBus
  27              		.thumb
  28              		.thumb_func
  29              		.type	palReadBus, %function
  30              	palReadBus:
  31              	.LFB36:
  32              		.file 1 "chibios/os/hal/src/pal.c"
  33              		.loc 1 71 0
  34              		.cfi_startproc
  35              		@ args = 0, pretend = 0, frame = 0
  36              		@ frame_needed = 0, uses_anonymous_args = 0
  37              		@ link register save eliminated.
  38              	.LVL0:
  39              		.loc 1 76 0
  40 0000 0368     		ldr	r3, [r0, #0]
  41 0002 8268     		ldr	r2, [r0, #8]
  42 0004 9968     		ldr	r1, [r3, #8]
  43 0006 4368     		ldr	r3, [r0, #4]
  44 0008 31FA02F0 		lsrs	r0, r1, r2
  45              	.LVL1:
  46              		.loc 1 77 0
  47 000c 1840     		ands	r0, r0, r3
  48 000e 7047     		bx	lr
  49              		.cfi_endproc
  50              	.LFE36:
  51              		.size	palReadBus, .-palReadBus
  52              		.section	.text.palWriteBus,"ax",%progbits
  53              		.align	2
ARM GAS  /tmp/ccyaT5cV.s 			page 2


  54              		.p2align 4,,15
  55              		.global	palWriteBus
  56              		.thumb
  57              		.thumb_func
  58              		.type	palWriteBus, %function
  59              	palWriteBus:
  60              	.LFB37:
  61              		.loc 1 96 0
  62              		.cfi_startproc
  63              		@ args = 0, pretend = 0, frame = 0
  64              		@ frame_needed = 0, uses_anonymous_args = 0
  65              		@ link register save eliminated.
  66              	.LVL2:
  67              		.loc 1 101 0
  68 0000 8368     		ldr	r3, [r0, #8]
  69 0002 4268     		ldr	r2, [r0, #4]
  70              		.loc 1 96 0
  71 0004 30B4     		push	{r4, r5}
  72              	.LCFI0:
  73              		.cfi_def_cfa_offset 8
  74              		.loc 1 101 0
  75 0006 22EA0105 		bic	r5, r2, r1
  76              		.cfi_offset 5, -4
  77              		.cfi_offset 4, -8
  78 000a 03F11004 		add	r4, r3, #16
  79 000e 01EA0202 		and	r2, r1, r2
  80 0012 15FA04F4 		lsls	r4, r5, r4
  81 0016 12FA03F1 		lsls	r1, r2, r3
  82              	.LVL3:
  83 001a 0068     		ldr	r0, [r0, #0]
  84              	.LVL4:
  85 001c 44EA0103 		orr	r3, r4, r1
  86 0020 0361     		str	r3, [r0, #16]
  87              		.loc 1 102 0
  88 0022 30BC     		pop	{r4, r5}
  89 0024 7047     		bx	lr
  90              		.cfi_endproc
  91              	.LFE37:
  92              		.size	palWriteBus, .-palWriteBus
  93 0026 00BFAFF3 		.section	.text.palSetBusMode,"ax",%progbits
  93      0080AFF3 
  93      0080
  94              		.align	2
  95              		.p2align 4,,15
  96              		.global	palSetBusMode
  97              		.thumb
  98              		.thumb_func
  99              		.type	palSetBusMode, %function
 100              	palSetBusMode:
 101              	.LFB38:
 102              		.loc 1 119 0
 103              		.cfi_startproc
 104              		@ args = 0, pretend = 0, frame = 0
 105              		@ frame_needed = 0, uses_anonymous_args = 0
 106              		@ link register save eliminated.
 107              	.LVL5:
 108              		.loc 1 119 0
ARM GAS  /tmp/ccyaT5cV.s 			page 3


 109 0000 0346     		mov	r3, r0
 110 0002 0A46     		mov	r2, r1
 111              		.loc 1 124 0
 112 0004 0068     		ldr	r0, [r0, #0]
 113              	.LVL6:
 114 0006 5968     		ldr	r1, [r3, #4]
 115              	.LVL7:
 116              		.loc 1 125 0
 117              		.loc 1 124 0
 118 0008 FFF7FEBF 		b	_pal_lld_setgroupmode
 119              		.cfi_endproc
 120              	.LFE38:
 121              		.size	palSetBusMode, .-palSetBusMode
 122 000c AFF30080 		.text
 123              	.Letext0:
 124              		.section	.debug_loc,"",%progbits
 125              	.Ldebug_loc0:
 126              	.LLST0:
 127 0000 00000000 		.4byte	.LVL0
 128 0004 0C000000 		.4byte	.LVL1
 129 0008 0100     		.2byte	0x1
 130 000a 50       		.byte	0x50
 131 000b 00000000 		.4byte	0x0
 132 000f 00000000 		.4byte	0x0
 133              	.LLST1:
 134 0013 00000000 		.4byte	.LFB37
 135 0017 06000000 		.4byte	.LCFI0
 136 001b 0200     		.2byte	0x2
 137 001d 7D       		.byte	0x7d
 138 001e 00       		.sleb128 0
 139 001f 06000000 		.4byte	.LCFI0
 140 0023 26000000 		.4byte	.LFE37
 141 0027 0200     		.2byte	0x2
 142 0029 7D       		.byte	0x7d
 143 002a 08       		.sleb128 8
 144 002b 00000000 		.4byte	0x0
 145 002f 00000000 		.4byte	0x0
 146              	.LLST2:
 147 0033 00000000 		.4byte	.LVL2
 148 0037 1C000000 		.4byte	.LVL4
 149 003b 0100     		.2byte	0x1
 150 003d 50       		.byte	0x50
 151 003e 00000000 		.4byte	0x0
 152 0042 00000000 		.4byte	0x0
 153              	.LLST3:
 154 0046 00000000 		.4byte	.LVL2
 155 004a 1A000000 		.4byte	.LVL3
 156 004e 0100     		.2byte	0x1
 157 0050 51       		.byte	0x51
 158 0051 00000000 		.4byte	0x0
 159 0055 00000000 		.4byte	0x0
 160              	.LLST4:
 161 0059 00000000 		.4byte	.LVL5
 162 005d 06000000 		.4byte	.LVL6
 163 0061 0100     		.2byte	0x1
 164 0063 50       		.byte	0x50
 165 0064 06000000 		.4byte	.LVL6
ARM GAS  /tmp/ccyaT5cV.s 			page 4


 166 0068 0C000000 		.4byte	.LFE38
 167 006c 0100     		.2byte	0x1
 168 006e 53       		.byte	0x53
 169 006f 00000000 		.4byte	0x0
 170 0073 00000000 		.4byte	0x0
 171              	.LLST5:
 172 0077 00000000 		.4byte	.LVL5
 173 007b 08000000 		.4byte	.LVL7
 174 007f 0100     		.2byte	0x1
 175 0081 51       		.byte	0x51
 176 0082 08000000 		.4byte	.LVL7
 177 0086 0C000000 		.4byte	.LFE38
 178 008a 0100     		.2byte	0x1
 179 008c 52       		.byte	0x52
 180 008d 00000000 		.4byte	0x0
 181 0091 00000000 		.4byte	0x0
 182              		.file 2 "/home/dan/arm-cs-tools/lib/gcc/arm-none-eabi/4.5.1/../../../../arm-none-eabi/include/stdi
 183              		.file 3 "chibios/os/hal/platforms/STM32/stm32f10x.h"
 184              		.file 4 "chibios/os/hal/platforms/STM32/pal_lld.h"
 185              		.file 5 "chibios/os/hal/include/pal.h"
 186              		.file 6 "chibios/os/hal/platforms/STM32/core_cm3.h"
 187              		.section	.debug_info
 188 0000 22020000 		.4byte	0x222
 189 0004 0200     		.2byte	0x2
 190 0006 00000000 		.4byte	.Ldebug_abbrev0
 191 000a 04       		.byte	0x4
 192 000b 01       		.uleb128 0x1
 193 000c 05000000 		.4byte	.LASF25
 194 0010 01       		.byte	0x1
 195 0011 66010000 		.4byte	.LASF26
 196 0015 86000000 		.4byte	.LASF27
 197 0019 00000000 		.4byte	0x0
 198 001d 00000000 		.4byte	0x0
 199 0021 00000000 		.4byte	.Ldebug_ranges0+0x0
 200 0025 00000000 		.4byte	.Ldebug_line0
 201 0029 02       		.uleb128 0x2
 202 002a 04       		.byte	0x4
 203 002b 05       		.byte	0x5
 204 002c 696E7400 		.ascii	"int\000"
 205 0030 03       		.uleb128 0x3
 206 0031 04       		.byte	0x4
 207 0032 07       		.byte	0x7
 208 0033 D4000000 		.4byte	.LASF0
 209 0037 03       		.uleb128 0x3
 210 0038 01       		.byte	0x1
 211 0039 06       		.byte	0x6
 212 003a 5A010000 		.4byte	.LASF1
 213 003e 03       		.uleb128 0x3
 214 003f 01       		.byte	0x1
 215 0040 08       		.byte	0x8
 216 0041 53000000 		.4byte	.LASF2
 217 0045 03       		.uleb128 0x3
 218 0046 02       		.byte	0x2
 219 0047 05       		.byte	0x5
 220 0048 1D010000 		.4byte	.LASF3
 221 004c 03       		.uleb128 0x3
 222 004d 02       		.byte	0x2
ARM GAS  /tmp/ccyaT5cV.s 			page 5


 223 004e 07       		.byte	0x7
 224 004f 73000000 		.4byte	.LASF4
 225 0053 03       		.uleb128 0x3
 226 0054 04       		.byte	0x4
 227 0055 05       		.byte	0x5
 228 0056 46010000 		.4byte	.LASF5
 229 005a 04       		.uleb128 0x4
 230 005b 3D010000 		.4byte	.LASF9
 231 005f 02       		.byte	0x2
 232 0060 50       		.byte	0x50
 233 0061 65000000 		.4byte	0x65
 234 0065 03       		.uleb128 0x3
 235 0066 04       		.byte	0x4
 236 0067 07       		.byte	0x7
 237 0068 61000000 		.4byte	.LASF6
 238 006c 03       		.uleb128 0x3
 239 006d 08       		.byte	0x8
 240 006e 05       		.byte	0x5
 241 006f 0A010000 		.4byte	.LASF7
 242 0073 03       		.uleb128 0x3
 243 0074 08       		.byte	0x8
 244 0075 07       		.byte	0x7
 245 0076 EE000000 		.4byte	.LASF8
 246 007a 04       		.uleb128 0x4
 247 007b 11000000 		.4byte	.LASF10
 248 007f 02       		.byte	0x2
 249 0080 A0       		.byte	0xa0
 250 0081 30000000 		.4byte	0x30
 251 0085 05       		.uleb128 0x5
 252 0086 5A000000 		.4byte	0x5a
 253 008a 06       		.uleb128 0x6
 254 008b 1C       		.byte	0x1c
 255 008c 03       		.byte	0x3
 256 008d AB03     		.2byte	0x3ab
 257 008f FD000000 		.4byte	0xfd
 258 0093 07       		.uleb128 0x7
 259 0094 43524C00 		.ascii	"CRL\000"
 260 0098 03       		.byte	0x3
 261 0099 AD03     		.2byte	0x3ad
 262 009b 85000000 		.4byte	0x85
 263 009f 02       		.byte	0x2
 264 00a0 23       		.byte	0x23
 265 00a1 00       		.uleb128 0x0
 266 00a2 07       		.uleb128 0x7
 267 00a3 43524800 		.ascii	"CRH\000"
 268 00a7 03       		.byte	0x3
 269 00a8 AE03     		.2byte	0x3ae
 270 00aa 85000000 		.4byte	0x85
 271 00ae 02       		.byte	0x2
 272 00af 23       		.byte	0x23
 273 00b0 04       		.uleb128 0x4
 274 00b1 07       		.uleb128 0x7
 275 00b2 49445200 		.ascii	"IDR\000"
 276 00b6 03       		.byte	0x3
 277 00b7 AF03     		.2byte	0x3af
 278 00b9 85000000 		.4byte	0x85
 279 00bd 02       		.byte	0x2
ARM GAS  /tmp/ccyaT5cV.s 			page 6


 280 00be 23       		.byte	0x23
 281 00bf 08       		.uleb128 0x8
 282 00c0 07       		.uleb128 0x7
 283 00c1 4F445200 		.ascii	"ODR\000"
 284 00c5 03       		.byte	0x3
 285 00c6 B003     		.2byte	0x3b0
 286 00c8 85000000 		.4byte	0x85
 287 00cc 02       		.byte	0x2
 288 00cd 23       		.byte	0x23
 289 00ce 0C       		.uleb128 0xc
 290 00cf 08       		.uleb128 0x8
 291 00d0 1E000000 		.4byte	.LASF11
 292 00d4 03       		.byte	0x3
 293 00d5 B103     		.2byte	0x3b1
 294 00d7 85000000 		.4byte	0x85
 295 00db 02       		.byte	0x2
 296 00dc 23       		.byte	0x23
 297 00dd 10       		.uleb128 0x10
 298 00de 07       		.uleb128 0x7
 299 00df 42525200 		.ascii	"BRR\000"
 300 00e3 03       		.byte	0x3
 301 00e4 B203     		.2byte	0x3b2
 302 00e6 85000000 		.4byte	0x85
 303 00ea 02       		.byte	0x2
 304 00eb 23       		.byte	0x23
 305 00ec 14       		.uleb128 0x14
 306 00ed 08       		.uleb128 0x8
 307 00ee 00000000 		.4byte	.LASF12
 308 00f2 03       		.byte	0x3
 309 00f3 B303     		.2byte	0x3b3
 310 00f5 85000000 		.4byte	0x85
 311 00f9 02       		.byte	0x2
 312 00fa 23       		.byte	0x23
 313 00fb 18       		.uleb128 0x18
 314 00fc 00       		.byte	0x0
 315 00fd 09       		.uleb128 0x9
 316 00fe E1000000 		.4byte	.LASF13
 317 0102 03       		.byte	0x3
 318 0103 B403     		.2byte	0x3b4
 319 0105 8A000000 		.4byte	0x8a
 320 0109 04       		.uleb128 0x4
 321 010a 46000000 		.4byte	.LASF14
 322 010e 04       		.byte	0x4
 323 010f 72       		.byte	0x72
 324 0110 5A000000 		.4byte	0x5a
 325 0114 04       		.uleb128 0x4
 326 0115 27010000 		.4byte	.LASF15
 327 0119 04       		.byte	0x4
 328 011a 7A       		.byte	0x7a
 329 011b 1F010000 		.4byte	0x11f
 330 011f 0A       		.uleb128 0xa
 331 0120 04       		.byte	0x4
 332 0121 FD000000 		.4byte	0xfd
 333 0125 0B       		.uleb128 0xb
 334 0126 0C       		.byte	0xc
 335 0127 05       		.byte	0x5
 336 0128 81       		.byte	0x81
ARM GAS  /tmp/ccyaT5cV.s 			page 7


 337 0129 58010000 		.4byte	0x158
 338 012d 0C       		.uleb128 0xc
 339 012e 32010000 		.4byte	.LASF16
 340 0132 05       		.byte	0x5
 341 0133 85       		.byte	0x85
 342 0134 14010000 		.4byte	0x114
 343 0138 02       		.byte	0x2
 344 0139 23       		.byte	0x23
 345 013a 00       		.uleb128 0x0
 346 013b 0C       		.uleb128 0xc
 347 013c 2F000000 		.4byte	.LASF17
 348 0140 05       		.byte	0x5
 349 0141 8B       		.byte	0x8b
 350 0142 09010000 		.4byte	0x109
 351 0146 02       		.byte	0x2
 352 0147 23       		.byte	0x23
 353 0148 04       		.uleb128 0x4
 354 0149 0C       		.uleb128 0xc
 355 014a C9000000 		.4byte	.LASF18
 356 014e 05       		.byte	0x5
 357 014f 8F       		.byte	0x8f
 358 0150 7A000000 		.4byte	0x7a
 359 0154 02       		.byte	0x2
 360 0155 23       		.byte	0x23
 361 0156 08       		.uleb128 0x8
 362 0157 00       		.byte	0x0
 363 0158 04       		.uleb128 0x4
 364 0159 7F010000 		.4byte	.LASF19
 365 015d 05       		.byte	0x5
 366 015e 90       		.byte	0x90
 367 015f 25010000 		.4byte	0x125
 368 0163 0D       		.uleb128 0xd
 369 0164 01       		.byte	0x1
 370 0165 4F010000 		.4byte	.LASF28
 371 0169 01       		.byte	0x1
 372 016a 47       		.byte	0x47
 373 016b 01       		.byte	0x1
 374 016c 09010000 		.4byte	0x109
 375 0170 00000000 		.4byte	.LFB36
 376 0174 10000000 		.4byte	.LFE36
 377 0178 02       		.byte	0x2
 378 0179 7D       		.byte	0x7d
 379 017a 00       		.sleb128 0
 380 017b 8F010000 		.4byte	0x18f
 381 017f 0E       		.uleb128 0xe
 382 0180 62757300 		.ascii	"bus\000"
 383 0184 01       		.byte	0x1
 384 0185 47       		.byte	0x47
 385 0186 8F010000 		.4byte	0x18f
 386 018a 00000000 		.4byte	.LLST0
 387 018e 00       		.byte	0x0
 388 018f 0A       		.uleb128 0xa
 389 0190 04       		.byte	0x4
 390 0191 58010000 		.4byte	0x158
 391 0195 0F       		.uleb128 0xf
 392 0196 01       		.byte	0x1
 393 0197 23000000 		.4byte	.LASF21
ARM GAS  /tmp/ccyaT5cV.s 			page 8


 394 019b 01       		.byte	0x1
 395 019c 60       		.byte	0x60
 396 019d 01       		.byte	0x1
 397 019e 00000000 		.4byte	.LFB37
 398 01a2 26000000 		.4byte	.LFE37
 399 01a6 13000000 		.4byte	.LLST1
 400 01aa CD010000 		.4byte	0x1cd
 401 01ae 0E       		.uleb128 0xe
 402 01af 62757300 		.ascii	"bus\000"
 403 01b3 01       		.byte	0x1
 404 01b4 60       		.byte	0x60
 405 01b5 8F010000 		.4byte	0x18f
 406 01b9 33000000 		.4byte	.LLST2
 407 01bd 10       		.uleb128 0x10
 408 01be 18010000 		.4byte	.LASF20
 409 01c2 01       		.byte	0x1
 410 01c3 60       		.byte	0x60
 411 01c4 09010000 		.4byte	0x109
 412 01c8 46000000 		.4byte	.LLST3
 413 01cc 00       		.byte	0x0
 414 01cd 11       		.uleb128 0x11
 415 01ce 01       		.byte	0x1
 416 01cf 38000000 		.4byte	.LASF22
 417 01d3 01       		.byte	0x1
 418 01d4 77       		.byte	0x77
 419 01d5 01       		.byte	0x1
 420 01d6 00000000 		.4byte	.LFB38
 421 01da 0C000000 		.4byte	.LFE38
 422 01de 02       		.byte	0x2
 423 01df 7D       		.byte	0x7d
 424 01e0 00       		.sleb128 0
 425 01e1 04020000 		.4byte	0x204
 426 01e5 0E       		.uleb128 0xe
 427 01e6 62757300 		.ascii	"bus\000"
 428 01ea 01       		.byte	0x1
 429 01eb 77       		.byte	0x77
 430 01ec 8F010000 		.4byte	0x18f
 431 01f0 59000000 		.4byte	.LLST4
 432 01f4 10       		.uleb128 0x10
 433 01f5 05010000 		.4byte	.LASF23
 434 01f9 01       		.byte	0x1
 435 01fa 77       		.byte	0x77
 436 01fb 7A000000 		.4byte	0x7a
 437 01ff 77000000 		.4byte	.LLST5
 438 0203 00       		.byte	0x0
 439 0204 12       		.uleb128 0x12
 440 0205 BC000000 		.4byte	.LASF24
 441 0209 06       		.byte	0x6
 442 020a ED06     		.2byte	0x6ed
 443 020c 12020000 		.4byte	0x212
 444 0210 01       		.byte	0x1
 445 0211 01       		.byte	0x1
 446 0212 05       		.uleb128 0x5
 447 0213 29000000 		.4byte	0x29
 448 0217 12       		.uleb128 0x12
 449 0218 BC000000 		.4byte	.LASF24
 450 021c 06       		.byte	0x6
ARM GAS  /tmp/ccyaT5cV.s 			page 9


 451 021d ED06     		.2byte	0x6ed
 452 021f 12020000 		.4byte	0x212
 453 0223 01       		.byte	0x1
 454 0224 01       		.byte	0x1
 455 0225 00       		.byte	0x0
 456              		.section	.debug_abbrev
 457 0000 01       		.uleb128 0x1
 458 0001 11       		.uleb128 0x11
 459 0002 01       		.byte	0x1
 460 0003 25       		.uleb128 0x25
 461 0004 0E       		.uleb128 0xe
 462 0005 13       		.uleb128 0x13
 463 0006 0B       		.uleb128 0xb
 464 0007 03       		.uleb128 0x3
 465 0008 0E       		.uleb128 0xe
 466 0009 1B       		.uleb128 0x1b
 467 000a 0E       		.uleb128 0xe
 468 000b 11       		.uleb128 0x11
 469 000c 01       		.uleb128 0x1
 470 000d 52       		.uleb128 0x52
 471 000e 01       		.uleb128 0x1
 472 000f 55       		.uleb128 0x55
 473 0010 06       		.uleb128 0x6
 474 0011 10       		.uleb128 0x10
 475 0012 06       		.uleb128 0x6
 476 0013 00       		.byte	0x0
 477 0014 00       		.byte	0x0
 478 0015 02       		.uleb128 0x2
 479 0016 24       		.uleb128 0x24
 480 0017 00       		.byte	0x0
 481 0018 0B       		.uleb128 0xb
 482 0019 0B       		.uleb128 0xb
 483 001a 3E       		.uleb128 0x3e
 484 001b 0B       		.uleb128 0xb
 485 001c 03       		.uleb128 0x3
 486 001d 08       		.uleb128 0x8
 487 001e 00       		.byte	0x0
 488 001f 00       		.byte	0x0
 489 0020 03       		.uleb128 0x3
 490 0021 24       		.uleb128 0x24
 491 0022 00       		.byte	0x0
 492 0023 0B       		.uleb128 0xb
 493 0024 0B       		.uleb128 0xb
 494 0025 3E       		.uleb128 0x3e
 495 0026 0B       		.uleb128 0xb
 496 0027 03       		.uleb128 0x3
 497 0028 0E       		.uleb128 0xe
 498 0029 00       		.byte	0x0
 499 002a 00       		.byte	0x0
 500 002b 04       		.uleb128 0x4
 501 002c 16       		.uleb128 0x16
 502 002d 00       		.byte	0x0
 503 002e 03       		.uleb128 0x3
 504 002f 0E       		.uleb128 0xe
 505 0030 3A       		.uleb128 0x3a
 506 0031 0B       		.uleb128 0xb
 507 0032 3B       		.uleb128 0x3b
ARM GAS  /tmp/ccyaT5cV.s 			page 10


 508 0033 0B       		.uleb128 0xb
 509 0034 49       		.uleb128 0x49
 510 0035 13       		.uleb128 0x13
 511 0036 00       		.byte	0x0
 512 0037 00       		.byte	0x0
 513 0038 05       		.uleb128 0x5
 514 0039 35       		.uleb128 0x35
 515 003a 00       		.byte	0x0
 516 003b 49       		.uleb128 0x49
 517 003c 13       		.uleb128 0x13
 518 003d 00       		.byte	0x0
 519 003e 00       		.byte	0x0
 520 003f 06       		.uleb128 0x6
 521 0040 13       		.uleb128 0x13
 522 0041 01       		.byte	0x1
 523 0042 0B       		.uleb128 0xb
 524 0043 0B       		.uleb128 0xb
 525 0044 3A       		.uleb128 0x3a
 526 0045 0B       		.uleb128 0xb
 527 0046 3B       		.uleb128 0x3b
 528 0047 05       		.uleb128 0x5
 529 0048 01       		.uleb128 0x1
 530 0049 13       		.uleb128 0x13
 531 004a 00       		.byte	0x0
 532 004b 00       		.byte	0x0
 533 004c 07       		.uleb128 0x7
 534 004d 0D       		.uleb128 0xd
 535 004e 00       		.byte	0x0
 536 004f 03       		.uleb128 0x3
 537 0050 08       		.uleb128 0x8
 538 0051 3A       		.uleb128 0x3a
 539 0052 0B       		.uleb128 0xb
 540 0053 3B       		.uleb128 0x3b
 541 0054 05       		.uleb128 0x5
 542 0055 49       		.uleb128 0x49
 543 0056 13       		.uleb128 0x13
 544 0057 38       		.uleb128 0x38
 545 0058 0A       		.uleb128 0xa
 546 0059 00       		.byte	0x0
 547 005a 00       		.byte	0x0
 548 005b 08       		.uleb128 0x8
 549 005c 0D       		.uleb128 0xd
 550 005d 00       		.byte	0x0
 551 005e 03       		.uleb128 0x3
 552 005f 0E       		.uleb128 0xe
 553 0060 3A       		.uleb128 0x3a
 554 0061 0B       		.uleb128 0xb
 555 0062 3B       		.uleb128 0x3b
 556 0063 05       		.uleb128 0x5
 557 0064 49       		.uleb128 0x49
 558 0065 13       		.uleb128 0x13
 559 0066 38       		.uleb128 0x38
 560 0067 0A       		.uleb128 0xa
 561 0068 00       		.byte	0x0
 562 0069 00       		.byte	0x0
 563 006a 09       		.uleb128 0x9
 564 006b 16       		.uleb128 0x16
ARM GAS  /tmp/ccyaT5cV.s 			page 11


 565 006c 00       		.byte	0x0
 566 006d 03       		.uleb128 0x3
 567 006e 0E       		.uleb128 0xe
 568 006f 3A       		.uleb128 0x3a
 569 0070 0B       		.uleb128 0xb
 570 0071 3B       		.uleb128 0x3b
 571 0072 05       		.uleb128 0x5
 572 0073 49       		.uleb128 0x49
 573 0074 13       		.uleb128 0x13
 574 0075 00       		.byte	0x0
 575 0076 00       		.byte	0x0
 576 0077 0A       		.uleb128 0xa
 577 0078 0F       		.uleb128 0xf
 578 0079 00       		.byte	0x0
 579 007a 0B       		.uleb128 0xb
 580 007b 0B       		.uleb128 0xb
 581 007c 49       		.uleb128 0x49
 582 007d 13       		.uleb128 0x13
 583 007e 00       		.byte	0x0
 584 007f 00       		.byte	0x0
 585 0080 0B       		.uleb128 0xb
 586 0081 13       		.uleb128 0x13
 587 0082 01       		.byte	0x1
 588 0083 0B       		.uleb128 0xb
 589 0084 0B       		.uleb128 0xb
 590 0085 3A       		.uleb128 0x3a
 591 0086 0B       		.uleb128 0xb
 592 0087 3B       		.uleb128 0x3b
 593 0088 0B       		.uleb128 0xb
 594 0089 01       		.uleb128 0x1
 595 008a 13       		.uleb128 0x13
 596 008b 00       		.byte	0x0
 597 008c 00       		.byte	0x0
 598 008d 0C       		.uleb128 0xc
 599 008e 0D       		.uleb128 0xd
 600 008f 00       		.byte	0x0
 601 0090 03       		.uleb128 0x3
 602 0091 0E       		.uleb128 0xe
 603 0092 3A       		.uleb128 0x3a
 604 0093 0B       		.uleb128 0xb
 605 0094 3B       		.uleb128 0x3b
 606 0095 0B       		.uleb128 0xb
 607 0096 49       		.uleb128 0x49
 608 0097 13       		.uleb128 0x13
 609 0098 38       		.uleb128 0x38
 610 0099 0A       		.uleb128 0xa
 611 009a 00       		.byte	0x0
 612 009b 00       		.byte	0x0
 613 009c 0D       		.uleb128 0xd
 614 009d 2E       		.uleb128 0x2e
 615 009e 01       		.byte	0x1
 616 009f 3F       		.uleb128 0x3f
 617 00a0 0C       		.uleb128 0xc
 618 00a1 03       		.uleb128 0x3
 619 00a2 0E       		.uleb128 0xe
 620 00a3 3A       		.uleb128 0x3a
 621 00a4 0B       		.uleb128 0xb
ARM GAS  /tmp/ccyaT5cV.s 			page 12


 622 00a5 3B       		.uleb128 0x3b
 623 00a6 0B       		.uleb128 0xb
 624 00a7 27       		.uleb128 0x27
 625 00a8 0C       		.uleb128 0xc
 626 00a9 49       		.uleb128 0x49
 627 00aa 13       		.uleb128 0x13
 628 00ab 11       		.uleb128 0x11
 629 00ac 01       		.uleb128 0x1
 630 00ad 12       		.uleb128 0x12
 631 00ae 01       		.uleb128 0x1
 632 00af 40       		.uleb128 0x40
 633 00b0 0A       		.uleb128 0xa
 634 00b1 01       		.uleb128 0x1
 635 00b2 13       		.uleb128 0x13
 636 00b3 00       		.byte	0x0
 637 00b4 00       		.byte	0x0
 638 00b5 0E       		.uleb128 0xe
 639 00b6 05       		.uleb128 0x5
 640 00b7 00       		.byte	0x0
 641 00b8 03       		.uleb128 0x3
 642 00b9 08       		.uleb128 0x8
 643 00ba 3A       		.uleb128 0x3a
 644 00bb 0B       		.uleb128 0xb
 645 00bc 3B       		.uleb128 0x3b
 646 00bd 0B       		.uleb128 0xb
 647 00be 49       		.uleb128 0x49
 648 00bf 13       		.uleb128 0x13
 649 00c0 02       		.uleb128 0x2
 650 00c1 06       		.uleb128 0x6
 651 00c2 00       		.byte	0x0
 652 00c3 00       		.byte	0x0
 653 00c4 0F       		.uleb128 0xf
 654 00c5 2E       		.uleb128 0x2e
 655 00c6 01       		.byte	0x1
 656 00c7 3F       		.uleb128 0x3f
 657 00c8 0C       		.uleb128 0xc
 658 00c9 03       		.uleb128 0x3
 659 00ca 0E       		.uleb128 0xe
 660 00cb 3A       		.uleb128 0x3a
 661 00cc 0B       		.uleb128 0xb
 662 00cd 3B       		.uleb128 0x3b
 663 00ce 0B       		.uleb128 0xb
 664 00cf 27       		.uleb128 0x27
 665 00d0 0C       		.uleb128 0xc
 666 00d1 11       		.uleb128 0x11
 667 00d2 01       		.uleb128 0x1
 668 00d3 12       		.uleb128 0x12
 669 00d4 01       		.uleb128 0x1
 670 00d5 40       		.uleb128 0x40
 671 00d6 06       		.uleb128 0x6
 672 00d7 01       		.uleb128 0x1
 673 00d8 13       		.uleb128 0x13
 674 00d9 00       		.byte	0x0
 675 00da 00       		.byte	0x0
 676 00db 10       		.uleb128 0x10
 677 00dc 05       		.uleb128 0x5
 678 00dd 00       		.byte	0x0
ARM GAS  /tmp/ccyaT5cV.s 			page 13


 679 00de 03       		.uleb128 0x3
 680 00df 0E       		.uleb128 0xe
 681 00e0 3A       		.uleb128 0x3a
 682 00e1 0B       		.uleb128 0xb
 683 00e2 3B       		.uleb128 0x3b
 684 00e3 0B       		.uleb128 0xb
 685 00e4 49       		.uleb128 0x49
 686 00e5 13       		.uleb128 0x13
 687 00e6 02       		.uleb128 0x2
 688 00e7 06       		.uleb128 0x6
 689 00e8 00       		.byte	0x0
 690 00e9 00       		.byte	0x0
 691 00ea 11       		.uleb128 0x11
 692 00eb 2E       		.uleb128 0x2e
 693 00ec 01       		.byte	0x1
 694 00ed 3F       		.uleb128 0x3f
 695 00ee 0C       		.uleb128 0xc
 696 00ef 03       		.uleb128 0x3
 697 00f0 0E       		.uleb128 0xe
 698 00f1 3A       		.uleb128 0x3a
 699 00f2 0B       		.uleb128 0xb
 700 00f3 3B       		.uleb128 0x3b
 701 00f4 0B       		.uleb128 0xb
 702 00f5 27       		.uleb128 0x27
 703 00f6 0C       		.uleb128 0xc
 704 00f7 11       		.uleb128 0x11
 705 00f8 01       		.uleb128 0x1
 706 00f9 12       		.uleb128 0x12
 707 00fa 01       		.uleb128 0x1
 708 00fb 40       		.uleb128 0x40
 709 00fc 0A       		.uleb128 0xa
 710 00fd 01       		.uleb128 0x1
 711 00fe 13       		.uleb128 0x13
 712 00ff 00       		.byte	0x0
 713 0100 00       		.byte	0x0
 714 0101 12       		.uleb128 0x12
 715 0102 34       		.uleb128 0x34
 716 0103 00       		.byte	0x0
 717 0104 03       		.uleb128 0x3
 718 0105 0E       		.uleb128 0xe
 719 0106 3A       		.uleb128 0x3a
 720 0107 0B       		.uleb128 0xb
 721 0108 3B       		.uleb128 0x3b
 722 0109 05       		.uleb128 0x5
 723 010a 49       		.uleb128 0x49
 724 010b 13       		.uleb128 0x13
 725 010c 3F       		.uleb128 0x3f
 726 010d 0C       		.uleb128 0xc
 727 010e 3C       		.uleb128 0x3c
 728 010f 0C       		.uleb128 0xc
 729 0110 00       		.byte	0x0
 730 0111 00       		.byte	0x0
 731 0112 00       		.byte	0x0
 732              		.section	.debug_pubnames,"",%progbits
 733 0000 3F000000 		.4byte	0x3f
 734 0004 0200     		.2byte	0x2
 735 0006 00000000 		.4byte	.Ldebug_info0
ARM GAS  /tmp/ccyaT5cV.s 			page 14


 736 000a 26020000 		.4byte	0x226
 737 000e 63010000 		.4byte	0x163
 738 0012 70616C52 		.ascii	"palReadBus\000"
 738      65616442 
 738      757300
 739 001d 95010000 		.4byte	0x195
 740 0021 70616C57 		.ascii	"palWriteBus\000"
 740      72697465 
 740      42757300 
 741 002d CD010000 		.4byte	0x1cd
 742 0031 70616C53 		.ascii	"palSetBusMode\000"
 742      65744275 
 742      734D6F64 
 742      6500
 743 003f 00000000 		.4byte	0x0
 744              		.section	.debug_pubtypes,"",%progbits
 745 0000 67000000 		.4byte	0x67
 746 0004 0200     		.2byte	0x2
 747 0006 00000000 		.4byte	.Ldebug_info0
 748 000a 26020000 		.4byte	0x226
 749 000e 5A000000 		.4byte	0x5a
 750 0012 75696E74 		.ascii	"uint32_t\000"
 750      33325F74 
 750      00
 751 001b 7A000000 		.4byte	0x7a
 752 001f 75696E74 		.ascii	"uint_fast8_t\000"
 752      5F666173 
 752      74385F74 
 752      00
 753 002c FD000000 		.4byte	0xfd
 754 0030 4750494F 		.ascii	"GPIO_TypeDef\000"
 754      5F547970 
 754      65446566 
 754      00
 755 003d 09010000 		.4byte	0x109
 756 0041 696F706F 		.ascii	"ioportmask_t\000"
 756      72746D61 
 756      736B5F74 
 756      00
 757 004e 14010000 		.4byte	0x114
 758 0052 696F706F 		.ascii	"ioportid_t\000"
 758      72746964 
 758      5F7400
 759 005d 58010000 		.4byte	0x158
 760 0061 494F4275 		.ascii	"IOBus\000"
 760      7300
 761 0067 00000000 		.4byte	0x0
 762              		.section	.debug_aranges,"",%progbits
 763 0000 2C000000 		.4byte	0x2c
 764 0004 0200     		.2byte	0x2
 765 0006 00000000 		.4byte	.Ldebug_info0
 766 000a 04       		.byte	0x4
 767 000b 00       		.byte	0x0
 768 000c 0000     		.2byte	0x0
 769 000e 0000     		.2byte	0x0
 770 0010 00000000 		.4byte	.LFB36
 771 0014 10000000 		.4byte	.LFE36-.LFB36
ARM GAS  /tmp/ccyaT5cV.s 			page 15


 772 0018 00000000 		.4byte	.LFB37
 773 001c 26000000 		.4byte	.LFE37-.LFB37
 774 0020 00000000 		.4byte	.LFB38
 775 0024 0C000000 		.4byte	.LFE38-.LFB38
 776 0028 00000000 		.4byte	0x0
 777 002c 00000000 		.4byte	0x0
 778              		.section	.debug_ranges,"",%progbits
 779              	.Ldebug_ranges0:
 780 0000 00000000 		.4byte	.LFB36
 781 0004 10000000 		.4byte	.LFE36
 782 0008 00000000 		.4byte	.LFB37
 783 000c 26000000 		.4byte	.LFE37
 784 0010 00000000 		.4byte	.LFB38
 785 0014 0C000000 		.4byte	.LFE38
 786 0018 00000000 		.4byte	0x0
 787 001c 00000000 		.4byte	0x0
 788              		.section	.debug_str,"MS",%progbits,1
 789              	.LASF12:
 790 0000 4C434B52 		.ascii	"LCKR\000"
 790      00
 791              	.LASF25:
 792 0005 474E5520 		.ascii	"GNU C 4.5.1\000"
 792      4320342E 
 792      352E3100 
 793              	.LASF10:
 794 0011 75696E74 		.ascii	"uint_fast8_t\000"
 794      5F666173 
 794      74385F74 
 794      00
 795              	.LASF11:
 796 001e 42535252 		.ascii	"BSRR\000"
 796      00
 797              	.LASF21:
 798 0023 70616C57 		.ascii	"palWriteBus\000"
 798      72697465 
 798      42757300 
 799              	.LASF17:
 800 002f 6275735F 		.ascii	"bus_mask\000"
 800      6D61736B 
 800      00
 801              	.LASF22:
 802 0038 70616C53 		.ascii	"palSetBusMode\000"
 802      65744275 
 802      734D6F64 
 802      6500
 803              	.LASF14:
 804 0046 696F706F 		.ascii	"ioportmask_t\000"
 804      72746D61 
 804      736B5F74 
 804      00
 805              	.LASF2:
 806 0053 756E7369 		.ascii	"unsigned char\000"
 806      676E6564 
 806      20636861 
 806      7200
 807              	.LASF6:
 808 0061 6C6F6E67 		.ascii	"long unsigned int\000"
ARM GAS  /tmp/ccyaT5cV.s 			page 16


 808      20756E73 
 808      69676E65 
 808      6420696E 
 808      7400
 809              	.LASF4:
 810 0073 73686F72 		.ascii	"short unsigned int\000"
 810      7420756E 
 810      7369676E 
 810      65642069 
 810      6E7400
 811              	.LASF27:
 812 0086 2F686F6D 		.ascii	"/home/dan/github/github-projects/Quad-Rotor/QuadRot"
 812      652F6461 
 812      6E2F6769 
 812      74687562 
 812      2F676974 
 813 00b9 6F7200   		.ascii	"or\000"
 814              	.LASF24:
 815 00bc 49544D5F 		.ascii	"ITM_RxBuffer\000"
 815      52784275 
 815      66666572 
 815      00
 816              	.LASF18:
 817 00c9 6275735F 		.ascii	"bus_offset\000"
 817      6F666673 
 817      657400
 818              	.LASF0:
 819 00d4 756E7369 		.ascii	"unsigned int\000"
 819      676E6564 
 819      20696E74 
 819      00
 820              	.LASF13:
 821 00e1 4750494F 		.ascii	"GPIO_TypeDef\000"
 821      5F547970 
 821      65446566 
 821      00
 822              	.LASF8:
 823 00ee 6C6F6E67 		.ascii	"long long unsigned int\000"
 823      206C6F6E 
 823      6720756E 
 823      7369676E 
 823      65642069 
 824              	.LASF23:
 825 0105 6D6F6465 		.ascii	"mode\000"
 825      00
 826              	.LASF7:
 827 010a 6C6F6E67 		.ascii	"long long int\000"
 827      206C6F6E 
 827      6720696E 
 827      7400
 828              	.LASF20:
 829 0118 62697473 		.ascii	"bits\000"
 829      00
 830              	.LASF3:
 831 011d 73686F72 		.ascii	"short int\000"
 831      7420696E 
 831      7400
ARM GAS  /tmp/ccyaT5cV.s 			page 17


 832              	.LASF15:
 833 0127 696F706F 		.ascii	"ioportid_t\000"
 833      72746964 
 833      5F7400
 834              	.LASF16:
 835 0132 6275735F 		.ascii	"bus_portid\000"
 835      706F7274 
 835      696400
 836              	.LASF9:
 837 013d 75696E74 		.ascii	"uint32_t\000"
 837      33325F74 
 837      00
 838              	.LASF5:
 839 0146 6C6F6E67 		.ascii	"long int\000"
 839      20696E74 
 839      00
 840              	.LASF28:
 841 014f 70616C52 		.ascii	"palReadBus\000"
 841      65616442 
 841      757300
 842              	.LASF1:
 843 015a 7369676E 		.ascii	"signed char\000"
 843      65642063 
 843      68617200 
 844              	.LASF26:
 845 0166 63686962 		.ascii	"chibios/os/hal/src/pal.c\000"
 845      696F732F 
 845      6F732F68 
 845      616C2F73 
 845      72632F70 
 846              	.LASF19:
 847 017f 494F4275 		.ascii	"IOBus\000"
 847      7300
 848              		.ident	"GCC: (GNU) 4.5.1"
ARM GAS  /tmp/ccyaT5cV.s 			page 18


DEFINED SYMBOLS
                            *ABS*:0000000000000000 pal.c
     /tmp/ccyaT5cV.s:24     .text.palReadBus:0000000000000000 $t
     /tmp/ccyaT5cV.s:30     .text.palReadBus:0000000000000000 palReadBus
     /tmp/ccyaT5cV.s:53     .text.palWriteBus:0000000000000000 $t
     /tmp/ccyaT5cV.s:59     .text.palWriteBus:0000000000000000 palWriteBus
     /tmp/ccyaT5cV.s:94     .text.palSetBusMode:0000000000000000 $t
     /tmp/ccyaT5cV.s:100    .text.palSetBusMode:0000000000000000 palSetBusMode
                     .debug_frame:0000000000000010 $d

UNDEFINED SYMBOLS
_pal_lld_setgroupmode
