ARM GAS  /tmp/ccmaQ3oP.s 			page 1


   1              		.syntax unified
   2              		.cpu cortex-m3
   3              		.fpu softvfp
   4              		.eabi_attribute 20, 1
   5              		.eabi_attribute 21, 1
   6              		.eabi_attribute 23, 3
   7              		.eabi_attribute 24, 1
   8              		.eabi_attribute 25, 1
   9              		.eabi_attribute 26, 1
  10              		.eabi_attribute 30, 2
  11              		.eabi_attribute 18, 4
  12              		.thumb
  13              		.file	"serial.c"
  20 0000 5C030000 		.text
  20      02001E02 
  20      00000201 
  20      FB0E0D00 
  20      01010101 
  21              	.Ltext0:
  22              		.cfi_sections	.debug_frame
  23              		.section	.text.putwouldblock,"ax",%progbits
  24              		.align	2
  25              		.p2align 4,,15
  26              		.thumb
  27              		.thumb_func
  28              		.type	putwouldblock, %function
  29              	putwouldblock:
  30              	.LFB38:
  31              		.file 1 "../../os/hal/src/serial.c"
  32              		.loc 1 69 0
  33              		.cfi_startproc
  34              		@ args = 0, pretend = 0, frame = 0
  35              		@ frame_needed = 0, uses_anonymous_args = 0
  36              		@ link register save eliminated.
  37              	.LVL0:
  38              		.loc 1 69 0
  39 0000 806C     		ldr	r0, [r0, #72]
  40              	.LVL1:
  41              		.loc 1 72 0
  42 0002 0028     		cmp	r0, #0
  43 0004 CCBF     		ite	gt
  44 0006 0020     		movgt	r0, #0
  45 0008 0120     		movle	r0, #1
  46 000a 7047     		bx	lr
  47              		.cfi_endproc
  48              	.LFE38:
  49              		.size	putwouldblock, .-putwouldblock
  50 000c AFF30080 		.section	.text.getwouldblock,"ax",%progbits
  51              		.align	2
  52              		.p2align 4,,15
  53              		.thumb
ARM GAS  /tmp/ccmaQ3oP.s 			page 2


  54              		.thumb_func
  55              		.type	getwouldblock, %function
  56              	getwouldblock:
  57              	.LFB39:
  58              		.loc 1 74 0
  59              		.cfi_startproc
  60              		@ args = 0, pretend = 0, frame = 0
  61              		@ frame_needed = 0, uses_anonymous_args = 0
  62              		@ link register save eliminated.
  63              	.LVL2:
  64              		.loc 1 74 0
  65 0000 806A     		ldr	r0, [r0, #40]
  66              	.LVL3:
  67              		.loc 1 77 0
  68 0002 0028     		cmp	r0, #0
  69 0004 CCBF     		ite	gt
  70 0006 0020     		movgt	r0, #0
  71 0008 0120     		movle	r0, #1
  72 000a 7047     		bx	lr
  73              		.cfi_endproc
  74              	.LFE39:
  75              		.size	getwouldblock, .-getwouldblock
  76 000c AFF30080 		.section	.text.getflags,"ax",%progbits
  77              		.align	2
  78              		.p2align 4,,15
  79              		.thumb
  80              		.thumb_func
  81              		.type	getflags, %function
  82              	getflags:
  83              	.LFB44:
  84              		.loc 1 99 0
  85              		.cfi_startproc
  86              		@ args = 0, pretend = 0, frame = 0
  87              		@ frame_needed = 0, uses_anonymous_args = 0
  88              		@ link register save eliminated.
  89              	.LVL4:
  90              		.loc 1 99 0
  91 0000 0246     		mov	r2, r0
  92              	.LBB2:
  93              		.loc 1 100 0
  94 0002 2023     		movs	r3, #32
  95              	.LVL5:
  96              	@ 100 "../../os/hal/src/serial.c" 1
  97 0004 83F31188 		msr     BASEPRI, r3
  98              	@ 0 "" 2
  99              		.thumb
 100              	.LBE2:
 101 0008 0021     		movs	r1, #0
 102 000a 8068     		ldr	r0, [r0, #8]
 103              	.LVL6:
 104              	.LBB3:
 105 000c 0B46     		mov	r3, r1
 106              	.LVL7:
 107              	.LBE3:
 108 000e 9160     		str	r1, [r2, #8]
 109              	.LBB4:
 110              	@ 100 "../../os/hal/src/serial.c" 1
ARM GAS  /tmp/ccmaQ3oP.s 			page 3


 111 0010 83F31188 		msr     BASEPRI, r3
 112              	@ 0 "" 2
 113              	.LVL8:
 114              		.thumb
 115              	.LBE4:
 116              		.loc 1 101 0
 117 0014 7047     		bx	lr
 118              		.cfi_endproc
 119              	.LFE44:
 120              		.size	getflags, .-getflags
 121 0016 00BFAFF3 		.section	.text.sdRequestDataI,"ax",%progbits
 121      0080AFF3 
 121      0080
 122              		.align	2
 123              		.p2align 4,,15
 124              		.global	sdRequestDataI
 125              		.thumb
 126              		.thumb_func
 127              		.type	sdRequestDataI, %function
 128              	sdRequestDataI:
 129              	.LFB50:
 130              		.loc 1 239 0
 131              		.cfi_startproc
 132              		@ args = 0, pretend = 0, frame = 0
 133              		@ frame_needed = 0, uses_anonymous_args = 0
 134              	.LVL9:
 135 0000 38B5     		push	{r3, r4, r5, lr}
 136              	.LCFI0:
 137              		.cfi_def_cfa_offset 16
 138              		.loc 1 239 0
 139 0002 0446     		mov	r4, r0
 140              		.cfi_offset 14, -4
 141              		.cfi_offset 5, -8
 142              		.cfi_offset 4, -12
 143              		.cfi_offset 3, -16
 144              		.loc 1 244 0
 145 0004 3030     		adds	r0, r0, #48
 146              	.LVL10:
 147 0006 FFF7FEFF 		bl	chOQGetI
 148              		.loc 1 245 0
 149 000a 051E     		subs	r5, r0, #0
 150              	.LVL11:
 151 000c 01DB     		blt	.L11
 152              		.loc 1 248 0
 153 000e 2846     		mov	r0, r5
 154 0010 38BD     		pop	{r3, r4, r5, pc}
 155              	.L11:
 156              		.loc 1 246 0
 157 0012 A168     		ldr	r1, [r4, #8]
 158 0014 201D     		adds	r0, r4, #4
 159 0016 41F00803 		orr	r3, r1, #8
 160 001a A360     		str	r3, [r4, #8]
 161 001c FFF7FEFF 		bl	chEvtBroadcastI
 162              		.loc 1 248 0
 163 0020 2846     		mov	r0, r5
 164 0022 38BD     		pop	{r3, r4, r5, pc}
 165              		.cfi_endproc
ARM GAS  /tmp/ccmaQ3oP.s 			page 4


 166              	.LFE50:
 167              		.size	sdRequestDataI, .-sdRequestDataI
 168 0024 AFF30080 		.section	.text.sdIncomingDataI,"ax",%progbits
 168      AFF30080 
 168      AFF30080 
 169              		.align	2
 170              		.p2align 4,,15
 171              		.global	sdIncomingDataI
 172              		.thumb
 173              		.thumb_func
 174              		.type	sdIncomingDataI, %function
 175              	sdIncomingDataI:
 176              	.LFB49:
 177              		.loc 1 214 0
 178              		.cfi_startproc
 179              		@ args = 0, pretend = 0, frame = 8
 180              		@ frame_needed = 0, uses_anonymous_args = 0
 181              	.LVL12:
 182 0000 10B5     		push	{r4, lr}
 183              	.LCFI1:
 184              		.cfi_def_cfa_offset 8
 185              		.loc 1 218 0
 186 0002 836A     		ldr	r3, [r0, #40]
 187              		.loc 1 214 0
 188 0004 82B0     		sub	sp, sp, #8
 189              	.LCFI2:
 190              		.cfi_def_cfa_offset 16
 191              		.loc 1 218 0
 192 0006 002B     		cmp	r3, #0
 193              		.loc 1 214 0
 194 0008 0446     		mov	r4, r0
 195              		.cfi_offset 14, -4
 196              		.cfi_offset 4, -8
 197              		.loc 1 218 0
 198 000a 11DD     		ble	.L16
 199              	.LVL13:
 200              	.L13:
 201              		.loc 1 220 0
 202 000c 04F11000 		add	r0, r4, #16
 203 0010 FFF7FEFF 		bl	chIQPutI
 204              	.LVL14:
 205 0014 0028     		cmp	r0, #0
 206 0016 01DB     		blt	.L17
 207              		.loc 1 222 0
 208 0018 02B0     		add	sp, sp, #8
 209 001a 10BD     		pop	{r4, pc}
 210              	.L17:
 211              		.loc 1 221 0
 212 001c A268     		ldr	r2, [r4, #8]
 213 001e 201D     		adds	r0, r4, #4
 214 0020 42F04001 		orr	r1, r2, #64
 215 0024 A160     		str	r1, [r4, #8]
 216              		.loc 1 222 0
 217 0026 02B0     		add	sp, sp, #8
 218 0028 BDE81040 		pop	{r4, lr}
 219              		.loc 1 221 0
 220 002c FFF7FEBF 		b	chEvtBroadcastI
ARM GAS  /tmp/ccmaQ3oP.s 			page 5


 221              	.LVL15:
 222              	.L16:
 223              		.loc 1 219 0
 224 0030 8368     		ldr	r3, [r0, #8]
 225 0032 0430     		adds	r0, r0, #4
 226 0034 43F00402 		orr	r2, r3, #4
 227 0038 A260     		str	r2, [r4, #8]
 228 003a 0191     		str	r1, [sp, #4]
 229              	.LVL16:
 230 003c FFF7FEFF 		bl	chEvtBroadcastI
 231 0040 0199     		ldr	r1, [sp, #4]
 232 0042 E3E7     		b	.L13
 233              		.cfi_endproc
 234              	.LFE49:
 235              		.size	sdIncomingDataI, .-sdIncomingDataI
 236 0044 AFF30080 		.section	.text.sdStop,"ax",%progbits
 236      AFF30080 
 236      AFF30080 
 237              		.align	2
 238              		.p2align 4,,15
 239              		.global	sdStop
 240              		.thumb
 241              		.thumb_func
 242              		.type	sdStop, %function
 243              	sdStop:
 244              	.LFB48:
 245              		.loc 1 182 0
 246              		.cfi_startproc
 247              		@ args = 0, pretend = 0, frame = 0
 248              		@ frame_needed = 0, uses_anonymous_args = 0
 249              	.LVL17:
 250 0000 10B5     		push	{r4, lr}
 251              	.LCFI3:
 252              		.cfi_def_cfa_offset 8
 253              	.LBB5:
 254              		.loc 1 186 0
 255 0002 2023     		movs	r3, #32
 256              	.LVL18:
 257              	.LBE5:
 258              		.loc 1 182 0
 259 0004 0446     		mov	r4, r0
 260              		.cfi_offset 14, -4
 261              		.cfi_offset 4, -8
 262              	.LBB6:
 263              		.loc 1 186 0
 264              	@ 186 "../../os/hal/src/serial.c" 1
 265 0006 83F31188 		msr     BASEPRI, r3
 266              	@ 0 "" 2
 267              		.thumb
 268              	.LBE6:
 269              		.loc 1 190 0
 270 000a FFF7FEFF 		bl	sd_lld_stop
 271              	.LVL19:
 272              		.loc 1 191 0
 273 000e 0123     		movs	r3, #1
 274 0010 2373     		strb	r3, [r4, #12]
 275              		.loc 1 192 0
ARM GAS  /tmp/ccmaQ3oP.s 			page 6


 276 0012 04F13000 		add	r0, r4, #48
 277 0016 FFF7FEFF 		bl	chOQResetI
 278              		.loc 1 193 0
 279 001a 04F11000 		add	r0, r4, #16
 280 001e FFF7FEFF 		bl	chIQResetI
 281              		.loc 1 194 0
 282 0022 FFF7FEFF 		bl	chSchRescheduleS
 283              	.LBB7:
 284              		.loc 1 195 0
 285 0026 0023     		movs	r3, #0
 286              	.LVL20:
 287              	@ 195 "../../os/hal/src/serial.c" 1
 288 0028 83F31188 		msr     BASEPRI, r3
 289              	@ 0 "" 2
 290              		.thumb
 291              	.LBE7:
 292              		.loc 1 196 0
 293 002c 10BD     		pop	{r4, pc}
 294              		.cfi_endproc
 295              	.LFE48:
 296              		.size	sdStop, .-sdStop
 297 002e 00BF     		.section	.text.sdStart,"ax",%progbits
 298              		.align	2
 299              		.p2align 4,,15
 300              		.global	sdStart
 301              		.thumb
 302              		.thumb_func
 303              		.type	sdStart, %function
 304              	sdStart:
 305              	.LFB47:
 306              		.loc 1 160 0
 307              		.cfi_startproc
 308              		@ args = 0, pretend = 0, frame = 0
 309              		@ frame_needed = 0, uses_anonymous_args = 0
 310              	.LVL21:
 311 0000 10B5     		push	{r4, lr}
 312              	.LCFI4:
 313              		.cfi_def_cfa_offset 8
 314              	.LBB8:
 315              		.loc 1 164 0
 316 0002 2023     		movs	r3, #32
 317              	.LVL22:
 318              	.LBE8:
 319              		.loc 1 160 0
 320 0004 0446     		mov	r4, r0
 321              		.cfi_offset 14, -4
 322              		.cfi_offset 4, -8
 323              	.LBB9:
 324              		.loc 1 164 0
 325              	@ 164 "../../os/hal/src/serial.c" 1
 326 0006 83F31188 		msr     BASEPRI, r3
 327              	@ 0 "" 2
 328              		.thumb
 329              	.LBE9:
 330              		.loc 1 168 0
 331 000a FFF7FEFF 		bl	sd_lld_start
 332              	.LVL23:
ARM GAS  /tmp/ccmaQ3oP.s 			page 7


 333              		.loc 1 169 0
 334 000e 0223     		movs	r3, #2
 335 0010 2373     		strb	r3, [r4, #12]
 336              	.LBB10:
 337              		.loc 1 170 0
 338 0012 0023     		movs	r3, #0
 339              	.LVL24:
 340              	@ 170 "../../os/hal/src/serial.c" 1
 341 0014 83F31188 		msr     BASEPRI, r3
 342              	@ 0 "" 2
 343              		.thumb
 344              	.LBE10:
 345              		.loc 1 171 0
 346 0018 10BD     		pop	{r4, pc}
 347              		.cfi_endproc
 348              	.LFE47:
 349              		.size	sdStart, .-sdStart
 350 001a 00BFAFF3 		.section	.text.sdObjectInit,"ax",%progbits
 350      0080
 351              		.align	2
 352              		.p2align 4,,15
 353              		.global	sdObjectInit
 354              		.thumb
 355              		.thumb_func
 356              		.type	sdObjectInit, %function
 357              	sdObjectInit:
 358              	.LFB46:
 359              		.loc 1 140 0
 360              		.cfi_startproc
 361              		@ args = 0, pretend = 0, frame = 0
 362              		@ frame_needed = 0, uses_anonymous_args = 0
 363              	.LVL25:
 364              		.loc 1 142 0
 365 0000 40F20003 		movw	r3, #:lower16:.LANCHOR0
 366              		.loc 1 140 0
 367 0004 70B5     		push	{r4, r5, r6, lr}
 368              	.LCFI5:
 369              		.cfi_def_cfa_offset 16
 370              		.loc 1 142 0
 371 0006 C0F20003 		movt	r3, #:upper16:.LANCHOR0
 372 000a 0546     		mov	r5, r0
 373              		.cfi_offset 14, -4
 374              		.cfi_offset 6, -8
 375              		.cfi_offset 5, -12
 376              		.cfi_offset 4, -16
 377 000c 45F8043B 		str	r3, [r5], #4
 378              		.loc 1 140 0
 379 0010 0446     		mov	r4, r0
 380 0012 0B46     		mov	r3, r1
 381              		.loc 1 143 0
 382 0014 4560     		str	r5, [r0, #4]
 383              		.loc 1 145 0
 384 0016 0121     		movs	r1, #1
 385              	.LVL26:
 386              		.loc 1 144 0
 387 0018 0020     		movs	r0, #0
 388              	.LVL27:
ARM GAS  /tmp/ccmaQ3oP.s 			page 8


 389 001a A060     		str	r0, [r4, #8]
 390              		.loc 1 145 0
 391 001c 2173     		strb	r1, [r4, #12]
 392              		.loc 1 140 0
 393 001e 1546     		mov	r5, r2
 394              		.loc 1 146 0
 395 0020 04F11000 		add	r0, r4, #16
 396 0024 04F15001 		add	r1, r4, #80
 397 0028 1022     		movs	r2, #16
 398              	.LVL28:
 399 002a FFF7FEFF 		bl	chIQInit
 400              	.LVL29:
 401              		.loc 1 147 0
 402 002e 04F16001 		add	r1, r4, #96
 403 0032 2B46     		mov	r3, r5
 404 0034 04F13000 		add	r0, r4, #48
 405 0038 1022     		movs	r2, #16
 406              		.loc 1 148 0
 407 003a BDE87040 		pop	{r4, r5, r6, lr}
 408              		.loc 1 147 0
 409 003e FFF7FEBF 		b	chOQInit
 410              		.cfi_endproc
 411              	.LFE46:
 412              		.size	sdObjectInit, .-sdObjectInit
 413 0042 00BFAFF3 		.section	.text.readt,"ax",%progbits
 413      0080AFF3 
 413      0080AFF3 
 413      0080
 414              		.align	2
 415              		.p2align 4,,15
 416              		.thumb
 417              		.thumb_func
 418              		.type	readt, %function
 419              	readt:
 420              	.LFB43:
 421              		.loc 1 94 0
 422              		.cfi_startproc
 423              		@ args = 0, pretend = 0, frame = 0
 424              		@ frame_needed = 0, uses_anonymous_args = 0
 425              		@ link register save eliminated.
 426              	.LVL30:
 427              		.loc 1 96 0
 428 0000 1030     		adds	r0, r0, #16
 429              	.LVL31:
 430              		.loc 1 97 0
 431              		.loc 1 96 0
 432 0002 FFF7FEBF 		b	chIQReadTimeout
 433              	.LVL32:
 434              		.cfi_endproc
 435              	.LFE43:
 436              		.size	readt, .-readt
 437 0006 00BFAFF3 		.section	.text.reads,"ax",%progbits
 437      0080AFF3 
 437      0080
 438              		.align	2
 439              		.p2align 4,,15
 440              		.thumb
ARM GAS  /tmp/ccmaQ3oP.s 			page 9


 441              		.thumb_func
 442              		.type	reads, %function
 443              	reads:
 444              	.LFB37:
 445              		.loc 1 63 0
 446              		.cfi_startproc
 447              		@ args = 0, pretend = 0, frame = 0
 448              		@ frame_needed = 0, uses_anonymous_args = 0
 449              		@ link register save eliminated.
 450              	.LVL33:
 451              		.loc 1 65 0
 452 0000 1030     		adds	r0, r0, #16
 453              	.LVL34:
 454 0002 4FF0FF33 		mov	r3, #-1
 455              		.loc 1 67 0
 456              		.loc 1 65 0
 457 0006 FFF7FEBF 		b	chIQReadTimeout
 458              	.LVL35:
 459              		.cfi_endproc
 460              	.LFE37:
 461              		.size	reads, .-reads
 462 000a 00BFAFF3 		.section	.text.writet,"ax",%progbits
 462      0080
 463              		.align	2
 464              		.p2align 4,,15
 465              		.thumb
 466              		.thumb_func
 467              		.type	writet, %function
 468              	writet:
 469              	.LFB42:
 470              		.loc 1 89 0
 471              		.cfi_startproc
 472              		@ args = 0, pretend = 0, frame = 0
 473              		@ frame_needed = 0, uses_anonymous_args = 0
 474              		@ link register save eliminated.
 475              	.LVL36:
 476              		.loc 1 91 0
 477 0000 3030     		adds	r0, r0, #48
 478              	.LVL37:
 479              		.loc 1 92 0
 480              		.loc 1 91 0
 481 0002 FFF7FEBF 		b	chOQWriteTimeout
 482              	.LVL38:
 483              		.cfi_endproc
 484              	.LFE42:
 485              		.size	writet, .-writet
 486 0006 00BFAFF3 		.section	.text.writes,"ax",%progbits
 486      0080AFF3 
 486      0080
 487              		.align	2
 488              		.p2align 4,,15
 489              		.thumb
 490              		.thumb_func
 491              		.type	writes, %function
 492              	writes:
 493              	.LFB36:
 494              		.loc 1 57 0
ARM GAS  /tmp/ccmaQ3oP.s 			page 10


 495              		.cfi_startproc
 496              		@ args = 0, pretend = 0, frame = 0
 497              		@ frame_needed = 0, uses_anonymous_args = 0
 498              		@ link register save eliminated.
 499              	.LVL39:
 500              		.loc 1 59 0
 501 0000 3030     		adds	r0, r0, #48
 502              	.LVL40:
 503 0002 4FF0FF33 		mov	r3, #-1
 504              		.loc 1 61 0
 505              		.loc 1 59 0
 506 0006 FFF7FEBF 		b	chOQWriteTimeout
 507              	.LVL41:
 508              		.cfi_endproc
 509              	.LFE36:
 510              		.size	writes, .-writes
 511 000a 00BFAFF3 		.section	.text.gett,"ax",%progbits
 511      0080
 512              		.align	2
 513              		.p2align 4,,15
 514              		.thumb
 515              		.thumb_func
 516              		.type	gett, %function
 517              	gett:
 518              	.LFB41:
 519              		.loc 1 84 0
 520              		.cfi_startproc
 521              		@ args = 0, pretend = 0, frame = 0
 522              		@ frame_needed = 0, uses_anonymous_args = 0
 523              		@ link register save eliminated.
 524              	.LVL42:
 525              		.loc 1 86 0
 526 0000 1030     		adds	r0, r0, #16
 527              	.LVL43:
 528              		.loc 1 87 0
 529              		.loc 1 86 0
 530 0002 FFF7FEBF 		b	chIQGetTimeout
 531              	.LVL44:
 532              		.cfi_endproc
 533              	.LFE41:
 534              		.size	gett, .-gett
 535 0006 00BFAFF3 		.section	.text.putt,"ax",%progbits
 535      0080AFF3 
 535      0080
 536              		.align	2
 537              		.p2align 4,,15
 538              		.thumb
 539              		.thumb_func
 540              		.type	putt, %function
 541              	putt:
 542              	.LFB40:
 543              		.loc 1 79 0
 544              		.cfi_startproc
 545              		@ args = 0, pretend = 0, frame = 0
 546              		@ frame_needed = 0, uses_anonymous_args = 0
 547              		@ link register save eliminated.
 548              	.LVL45:
ARM GAS  /tmp/ccmaQ3oP.s 			page 11


 549              		.loc 1 81 0
 550 0000 3030     		adds	r0, r0, #48
 551              	.LVL46:
 552              		.loc 1 82 0
 553              		.loc 1 81 0
 554 0002 FFF7FEBF 		b	chOQPutTimeout
 555              	.LVL47:
 556              		.cfi_endproc
 557              	.LFE40:
 558              		.size	putt, .-putt
 559 0006 00BFAFF3 		.section	.text.sdInit,"ax",%progbits
 559      0080AFF3 
 559      0080
 560              		.align	2
 561              		.p2align 4,,15
 562              		.global	sdInit
 563              		.thumb
 564              		.thumb_func
 565              		.type	sdInit, %function
 566              	sdInit:
 567              	.LFB45:
 568              		.loc 1 120 0
 569              		.cfi_startproc
 570              		@ args = 0, pretend = 0, frame = 0
 571              		@ frame_needed = 0, uses_anonymous_args = 0
 572              		@ link register save eliminated.
 573              		.loc 1 123 0
 574              		.loc 1 122 0
 575 0000 FFF7FEBF 		b	sd_lld_init
 576              		.cfi_endproc
 577              	.LFE45:
 578              		.size	sdInit, .-sdInit
 579 0004 AFF30080 		.section	.rodata.vmt,"a",%progbits
 579      AFF30080 
 579      AFF30080 
 580              		.align	2
 581              		.set	.LANCHOR0,. + 0
 582              		.type	vmt, %object
 583              		.size	vmt, 36
 584              	vmt:
 585 0000 00000000 		.word	writes
 586 0004 00000000 		.word	reads
 587 0008 00000000 		.word	putwouldblock
 588 000c 00000000 		.word	getwouldblock
 589 0010 00000000 		.word	putt
 590 0014 00000000 		.word	gett
 591 0018 00000000 		.word	writet
 592 001c 00000000 		.word	readt
 593 0020 00000000 		.word	getflags
 594              		.text
 595              	.Letext0: