ARM GAS  /tmp/ccXiuyJh.s 			page 1


   1              		.syntax unified
   2              		.cpu cortex-m3
   3              		.fpu softvfp
   4              		.eabi_attribute 20, 1
   5              		.eabi_attribute 21, 1
   6              		.eabi_attribute 23, 3
   7              		.eabi_attribute 24, 1
   8              		.eabi_attribute 25, 1
   9              		.eabi_attribute 26, 1
  10              		.eabi_attribute 30, 2
  11              		.eabi_attribute 18, 4
  12              		.thumb
  13              		.file	"chcore_v7m.c"
  20 0000 A6010000 		.text
  20      02001401 
  20      00000201 
  20      FB0E0D00 
  20      01010101 
  21              	.Ltext0:
  22              		.cfi_sections	.debug_frame
  23              		.section	.text._port_switch_from_isr,"ax",%progbits
  24              		.align	2
  25              		.p2align 4,,15
  26              		.global	_port_switch_from_isr
  27              		.thumb
  28              		.thumb_func
  29              		.type	_port_switch_from_isr, %function
  30              	_port_switch_from_isr:
  31              	.LFB10:
  32              		.file 1 "chibios/os/ports/GCC/ARMCMx/chcore_v7m.c"
  33              		.loc 1 140 0
  34              		.cfi_startproc
  35              		@ Naked Function: prologue and epilogue provided by programmer.
  36              		@ args = 0, pretend = 0, frame = 0
  37              		@ frame_needed = 0, uses_anonymous_args = 0
  38              		.loc 1 142 0
  39 0000 FFF7FEFF 		bl	chSchDoRescheduleI
  40              		.loc 1 143 0
  41              	@ 143 "chibios/os/ports/GCC/ARMCMx/chcore_v7m.c" 1
  42 0004 00DF     		svc     #0
  43              	@ 0 "" 2
  44              		.loc 1 144 0
  45              		.thumb
  46              		.cfi_endproc
  47              	.LFE10:
  48              		.size	_port_switch_from_isr, .-_port_switch_from_isr
  49 0006 00BFAFF3 		.section	.text.SVCallVector,"ax",%progbits
  49      0080AFF3 
  49      0080
  50              		.align	2
  51              		.p2align 4,,15
ARM GAS  /tmp/ccXiuyJh.s 			page 2


  52              		.global	SVCallVector
  53              		.thumb
  54              		.thumb_func
  55              		.type	SVCallVector, %function
  56              	SVCallVector:
  57              	.LFB8:
  58              		.loc 1 98 0
  59              		.cfi_startproc
  60              		@ args = 0, pretend = 0, frame = 0
  61              		@ frame_needed = 0, uses_anonymous_args = 0
  62              		@ link register save eliminated.
  63              		.loc 1 103 0
  64              	@ 103 "chibios/os/ports/GCC/ARMCMx/chcore_v7m.c" 1
  65 0000 EFF30983 		mrs     r3, PSP
  66              	@ 0 "" 2
  67              	.LVL0:
  68              		.loc 1 104 0
  69              		.thumb
  70 0004 2033     		adds	r3, r3, #32
  71              	.LVL1:
  72              		.loc 1 105 0
  73              	@ 105 "chibios/os/ports/GCC/ARMCMx/chcore_v7m.c" 1
  74 0006 83F30988 		msr     PSP, r3
  75              	@ 0 "" 2
  76              		.thumb
  77              	.LBB2:
  78              		.loc 1 106 0
  79 000a 0023     		movs	r3, #0
  80              	.LVL2:
  81              	@ 106 "chibios/os/ports/GCC/ARMCMx/chcore_v7m.c" 1
  82 000c 83F31188 		msr     BASEPRI, r3
  83              	@ 0 "" 2
  84              	.LVL3:
  85              		.thumb
  86              	.LBE2:
  87              		.loc 1 107 0
  88 0010 7047     		bx	lr
  89              		.cfi_endproc
  90              	.LFE8:
  91              		.size	SVCallVector, .-SVCallVector
  92 0012 00BFAFF3 		.section	.text._port_irq_epilogue,"ax",%progbits
  92      0080AFF3 
  92      0080AFF3 
  92      0080
  93              		.align	2
  94              		.p2align 4,,15
  95              		.global	_port_irq_epilogue
  96              		.thumb
  97              		.thumb_func
  98              		.type	_port_irq_epilogue, %function
  99              	_port_irq_epilogue:
 100              	.LFB9:
 101              		.loc 1 112 0
 102              		.cfi_startproc
 103              		@ args = 0, pretend = 0, frame = 0
 104              		@ frame_needed = 0, uses_anonymous_args = 0
 105 0000 08B5     		push	{r3, lr}
ARM GAS  /tmp/ccXiuyJh.s 			page 3


 106              	.LCFI0:
 107              		.cfi_def_cfa_offset 8
 108              	.LBB3:
 109              		.loc 1 114 0
 110 0002 2023     		movs	r3, #32
 111              		.cfi_offset 14, -4
 112              		.cfi_offset 3, -8
 113              	.LVL4:
 114              	@ 114 "chibios/os/ports/GCC/ARMCMx/chcore_v7m.c" 1
 115 0004 83F31188 		msr     BASEPRI, r3
 116              	@ 0 "" 2
 117              	.LVL5:
 118              		.thumb
 119              	.LBE3:
 120              		.loc 1 115 0
 121 0008 4FF46D40 		mov	r0, #60672
 122 000c CEF20000 		movt	r0, 57344
 123 0010 4368     		ldr	r3, [r0, #4]
 124              	.LVL6:
 125 0012 13F4006F 		tst	r3, #2048
 126 0016 03D1     		bne	.L7
 127              	.L4:
 128              	.LBB4:
 129              		.loc 1 130 0
 130 0018 0023     		movs	r3, #0
 131              	.LVL7:
 132              	@ 130 "chibios/os/ports/GCC/ARMCMx/chcore_v7m.c" 1
 133 001a 83F31188 		msr     BASEPRI, r3
 134              	@ 0 "" 2
 135              	.LVL8:
 136              		.thumb
 137 001e 08BD     		pop	{r3, pc}
 138              	.LVL9:
 139              	.L7:
 140              	.LBE4:
 141              		.loc 1 115 0 discriminator 1
 142 0020 FFF7FEFF 		bl	chSchIsRescRequiredExI
 143 0024 0028     		cmp	r0, #0
 144 0026 F7D0     		beq	.L4
 145              	.LBB5:
 146              		.loc 1 120 0
 147              	@ 120 "chibios/os/ports/GCC/ARMCMx/chcore_v7m.c" 1
 148 0028 EFF30981 		mrs     r1, PSP
 149              	@ 0 "" 2
 150              	.LVL10:
 151              		.loc 1 121 0
 152              		.thumb
 153 002c 2039     		subs	r1, r1, #32
 154              	.LVL11:
 155              		.loc 1 122 0
 156              	@ 122 "chibios/os/ports/GCC/ARMCMx/chcore_v7m.c" 1
 157 002e 81F30988 		msr     PSP, r1
 158              	@ 0 "" 2
 159              		.loc 1 123 0
 160              		.thumb
 161 0032 40F20003 		movw	r3, #:lower16:_port_switch_from_isr
 162 0036 C0F20003 		movt	r3, #:upper16:_port_switch_from_isr
ARM GAS  /tmp/ccXiuyJh.s 			page 4


 163              		.loc 1 124 0
 164 003a 4FF08072 		mov	r2, #16777216
 165              		.loc 1 123 0
 166 003e 8B61     		str	r3, [r1, #24]
 167              		.loc 1 124 0
 168 0040 CA61     		str	r2, [r1, #28]
 169              		.loc 1 127 0
 170 0042 08BD     		pop	{r3, pc}
 171              	.LBE5:
 172              		.cfi_endproc
 173              	.LFE9:
 174              		.size	_port_irq_epilogue, .-_port_irq_epilogue
 175 0044 AFF30080 		.section	.text.SysTickVector,"ax",%progbits
 175      AFF30080 
 175      AFF30080 
 176              		.align	2
 177              		.p2align 4,,15
 178              		.global	SysTickVector
 179              		.thumb
 180              		.thumb_func
 181              		.type	SysTickVector, %function
 182              	SysTickVector:
 183              	.LFB7:
 184              		.loc 1 82 0
 185              		.cfi_startproc
 186              		@ args = 0, pretend = 0, frame = 0
 187              		@ frame_needed = 0, uses_anonymous_args = 0
 188 0000 10B5     		push	{r4, lr}
 189              	.LCFI1:
 190              		.cfi_def_cfa_offset 8
 191              	.LBB6:
 192              		.loc 1 86 0
 193 0002 2023     		movs	r3, #32
 194              	.LVL12:
 195              	@ 86 "chibios/os/ports/GCC/ARMCMx/chcore_v7m.c" 1
 196 0004 83F31188 		msr     BASEPRI, r3
 197              	@ 0 "" 2
 198              	.LVL13:
 199              		.thumb
 200              	.LBE6:
 201              		.loc 1 87 0
 202              		.cfi_offset 14, -4
 203              		.cfi_offset 4, -8
 204 0008 FFF7FEFF 		bl	chSysTimerHandlerI
 205              	.LVL14:
 206              	.LBB7:
 207              		.loc 1 88 0
 208 000c 0023     		movs	r3, #0
 209              	.LVL15:
 210              	@ 88 "chibios/os/ports/GCC/ARMCMx/chcore_v7m.c" 1
 211 000e 83F31188 		msr     BASEPRI, r3
 212              	@ 0 "" 2
 213              	.LVL16:
 214              		.thumb
 215              	.LBE7:
 216              		.loc 1 91 0
 217 0012 BDE81040 		pop	{r4, lr}
ARM GAS  /tmp/ccXiuyJh.s 			page 5


 218              		.loc 1 90 0
 219 0016 FFF7FEBF 		b	_port_irq_epilogue
 220              		.cfi_endproc
 221              	.LFE7:
 222              		.size	SysTickVector, .-SysTickVector
 223 001a 00BFAFF3 		.section	.text.port_switch,"ax",%progbits
 223      0080
 224              		.align	2
 225              		.p2align 4,,15
 226              		.global	port_switch
 227              		.thumb
 228              		.thumb_func
 229              		.type	port_switch, %function
 230              	port_switch:
 231              	.LFB11:
 232              		.loc 1 159 0
 233              		.cfi_startproc
 234              		@ Naked Function: prologue and epilogue provided by programmer.
 235              		@ args = 0, pretend = 0, frame = 0
 236              		@ frame_needed = 0, uses_anonymous_args = 0
 237              	.LVL17:
 238              		.loc 1 169 0
 239              	@ 169 "chibios/os/ports/GCC/ARMCMx/chcore_v7m.c" 1
 240 0000 2DE9F04F 		push    {r4, r5, r6, r7, r8, r9, r10, r11, lr}
 241              	@ 0 "" 2
 242              		.loc 1 171 0
 243              	@ 171 "chibios/os/ports/GCC/ARMCMx/chcore_v7m.c" 1
 244 0004 C1F80CD0 		str     sp, [r1, #12]                          
 245 0008 D0F80CD0 		ldr     sp, [r0, #12]
 246              	@ 0 "" 2
 247              		.loc 1 174 0
 248              	@ 174 "chibios/os/ports/GCC/ARMCMx/chcore_v7m.c" 1
 249 000c BDE8F08F 		pop     {r4, r5, r6, r7, r8, r9, r10, r11, pc}
 250              	@ 0 "" 2
 251              		.loc 1 175 0
 252              		.thumb
 253              		.cfi_endproc
 254              	.LFE11:
 255              		.size	port_switch, .-port_switch
 256              		.section	.text._port_thread_start,"ax",%progbits
 257              		.align	2
 258              		.p2align 4,,15
 259              		.global	_port_thread_start
 260              		.thumb
 261              		.thumb_func
 262              		.type	_port_thread_start, %function
 263              	_port_thread_start:
 264              	.LFB12:
 265              		.loc 1 182 0
 266              		.cfi_startproc
 267              		@ args = 0, pretend = 0, frame = 0
 268              		@ frame_needed = 0, uses_anonymous_args = 0
 269              		@ link register save eliminated.
 270              	.LBB8:
 271              		.loc 1 184 0
 272 0000 0023     		movs	r3, #0
 273              	.LVL18:
ARM GAS  /tmp/ccXiuyJh.s 			page 6


 274              	@ 184 "chibios/os/ports/GCC/ARMCMx/chcore_v7m.c" 1
 275 0002 83F31188 		msr     BASEPRI, r3
 276              	@ 0 "" 2
 277              	.LVL19:
 278              		.thumb
 279              	.LBE8:
 280              		.loc 1 185 0
 281              	@ 185 "chibios/os/ports/GCC/ARMCMx/chcore_v7m.c" 1
 282 0006 2846     		mov     r0, r5                                 
 283 0008 A047     		blx     r4                                     
 284 000a FFF7FEFF 		bl      chThdExit
 285              	@ 0 "" 2
 286              		.loc 1 188 0
 287              		.thumb
 288 000e 7047     		bx	lr
 289              		.cfi_endproc
 290              	.LFE12:
 291              		.size	_port_thread_start, .-_port_thread_start
 292              		.text
 293              	.Letext0: