ARM GAS  /tmp/ccMe68iL.s 			page 1


   1              		.syntax unified
   2              		.cpu cortex-m3
   3              		.fpu softvfp
   4              		.eabi_attribute 20, 1
   5              		.eabi_attribute 21, 1
   6              		.eabi_attribute 23, 3
   7              		.eabi_attribute 24, 1
   8              		.eabi_attribute 25, 1
   9              		.eabi_attribute 26, 1
  10              		.eabi_attribute 30, 2
  11              		.eabi_attribute 18, 4
  12              		.thumb
  13              		.file	"nvic.c"
  20 0000 02010000 		.text
  20      0200B500 
  20      00000201 
  20      FB0E0D00 
  20      01010101 
  21              	.Ltext0:
  22              		.cfi_sections	.debug_frame
  23              		.section	.text.NVICEnableVector,"ax",%progbits
  24              		.align	2
  25              		.p2align 4,,15
  26              		.global	NVICEnableVector
  27              		.thumb
  28              		.thumb_func
  29              		.type	NVICEnableVector, %function
  30              	NVICEnableVector:
  31              	.LFB7:
  32              		.file 1 "../../os/ports/GCC/ARMCMx/nvic.c"
  33              		.loc 1 46 0
  34              		.cfi_startproc
  35              		@ args = 0, pretend = 0, frame = 0
  36              		@ frame_needed = 0, uses_anonymous_args = 0
  37              		@ link register save eliminated.
  38              	.LVL0:
  39 0000 30B4     		push	{r4, r5}
  40              	.LCFI0:
  41              		.cfi_def_cfa_offset 8
  42              		.loc 1 49 0
  43 0002 00F00305 		and	r5, r0, #3
  44              		.cfi_offset 5, -4
  45              		.cfi_offset 4, -8
  46 0006 EB00     		lsls	r3, r5, #3
  47 0008 FF22     		movs	r2, #255
  48 000a 9A40     		lsls	r2, r2, r3
  49 000c 9940     		lsls	r1, r1, r3
  50              	.LVL1:
  51              		.loc 1 50 0
  52 000e 00F01F04 		and	r4, r0, #31
  53 0012 0125     		movs	r5, #1
ARM GAS  /tmp/ccMe68iL.s 			page 2


  54 0014 A540     		lsls	r5, r5, r4
  55              		.loc 1 49 0
  56 0016 4FEA900C 		lsr	ip, r0, #2
  57 001a 4EF20014 		movw	r4, #:lower16:-536813312
  58 001e CEF20004 		movt	r4, #:upper16:-536813312
  59 0022 0CF1C00C 		add	ip, ip, #192
  60 0026 54F82C30 		ldr	r3, [r4, ip, lsl #2]
  61              		.loc 1 50 0
  62 002a 4009     		lsrs	r0, r0, #5
  63              	.LVL2:
  64              		.loc 1 49 0
  65 002c 23EA0203 		bic	r3, r3, r2
  66 0030 0B43     		orrs	r3, r3, r1
  67              		.loc 1 50 0
  68 0032 00F16001 		add	r1, r0, #96
  69              		.loc 1 49 0
  70 0036 44F82C30 		str	r3, [r4, ip, lsl #2]
  71              		.loc 1 50 0
  72 003a 44F82150 		str	r5, [r4, r1, lsl #2]
  73              		.loc 1 51 0
  74 003e 44F82050 		str	r5, [r4, r0, lsl #2]
  75              		.loc 1 52 0
  76 0042 30BC     		pop	{r4, r5}
  77 0044 7047     		bx	lr
  78              		.cfi_endproc
  79              	.LFE7:
  80              		.size	NVICEnableVector, .-NVICEnableVector
  81 0046 00BFAFF3 		.section	.text.NVICDisableVector,"ax",%progbits
  81      0080AFF3 
  81      0080
  82              		.align	2
  83              		.p2align 4,,15
  84              		.global	NVICDisableVector
  85              		.thumb
  86              		.thumb_func
  87              		.type	NVICDisableVector, %function
  88              	NVICDisableVector:
  89              	.LFB8:
  90              		.loc 1 61 0
  91              		.cfi_startproc
  92              		@ args = 0, pretend = 0, frame = 0
  93              		@ frame_needed = 0, uses_anonymous_args = 0
  94              		@ link register save eliminated.
  95              	.LVL3:
  96              		.loc 1 64 0
  97 0000 00F01F02 		and	r2, r0, #31
  98              		.loc 1 61 0
  99 0004 10B4     		push	{r4}
 100              	.LCFI1:
 101              		.cfi_def_cfa_offset 4
 102              		.loc 1 64 0
 103 0006 0124     		movs	r4, #1
 104              		.cfi_offset 4, -4
 105 0008 9440     		lsls	r4, r4, r2
 106              		.loc 1 65 0
 107 000a 00F00301 		and	r1, r0, #3
 108 000e CA00     		lsls	r2, r1, #3
ARM GAS  /tmp/ccMe68iL.s 			page 3


 109 0010 FF23     		movs	r3, #255
 110 0012 13FA02F2 		lsls	r2, r3, r2
 111              		.loc 1 64 0
 112 0016 4109     		lsrs	r1, r0, #5
 113 0018 4EF20013 		movw	r3, #:lower16:-536813312
 114 001c CEF20003 		movt	r3, #:upper16:-536813312
 115 0020 2031     		adds	r1, r1, #32
 116              		.loc 1 65 0
 117 0022 8008     		lsrs	r0, r0, #2
 118              	.LVL4:
 119              		.loc 1 64 0
 120 0024 43F82140 		str	r4, [r3, r1, lsl #2]
 121              		.loc 1 65 0
 122 0028 C030     		adds	r0, r0, #192
 123 002a 53F82010 		ldr	r1, [r3, r0, lsl #2]
 124 002e 21EA0202 		bic	r2, r1, r2
 125 0032 43F82020 		str	r2, [r3, r0, lsl #2]
 126              		.loc 1 66 0
 127 0036 10BC     		pop	{r4}
 128 0038 7047     		bx	lr
 129              		.cfi_endproc
 130              	.LFE8:
 131              		.size	NVICDisableVector, .-NVICDisableVector
 132 003a 00BFAFF3 		.section	.text.NVICSetSystemHandlerPriority,"ax",%progbits
 132      0080
 133              		.align	2
 134              		.p2align 4,,15
 135              		.global	NVICSetSystemHandlerPriority
 136              		.thumb
 137              		.thumb_func
 138              		.type	NVICSetSystemHandlerPriority, %function
 139              	NVICSetSystemHandlerPriority:
 140              	.LFB9:
 141              		.loc 1 75 0
 142              		.cfi_startproc
 143              		@ args = 0, pretend = 0, frame = 0
 144              		@ frame_needed = 0, uses_anonymous_args = 0
 145              		@ link register save eliminated.
 146              	.LVL5:
 147              		.loc 1 79 0
 148 0000 00F00303 		and	r3, r0, #3
 149              		.loc 1 75 0
 150 0004 10B4     		push	{r4}
 151              	.LCFI2:
 152              		.cfi_def_cfa_offset 4
 153              		.loc 1 78 0
 154 0006 FF22     		movs	r2, #255
 155              		.loc 1 79 0
 156 0008 DC00     		lsls	r4, r3, #3
 157              		.cfi_offset 4, -4
 158              		.loc 1 78 0
 159 000a A240     		lsls	r2, r2, r4
 160 000c A140     		lsls	r1, r1, r4
 161              	.LVL6:
 162 000e 8008     		lsrs	r0, r0, #2
 163              	.LVL7:
 164 0010 4EF60054 		movw	r4, #:lower16:-536810240
ARM GAS  /tmp/ccMe68iL.s 			page 4


 165 0014 CEF20004 		movt	r4, #:upper16:-536810240
 166 0018 0630     		adds	r0, r0, #6
 167 001a 54F82030 		ldr	r3, [r4, r0, lsl #2]
 168 001e 23EA0203 		bic	r3, r3, r2
 169 0022 0B43     		orrs	r3, r3, r1
 170 0024 44F82030 		str	r3, [r4, r0, lsl #2]
 171              		.loc 1 80 0
 172 0028 10BC     		pop	{r4}
 173 002a 7047     		bx	lr
 174              		.cfi_endproc
 175              	.LFE9:
 176              		.size	NVICSetSystemHandlerPriority, .-NVICSetSystemHandlerPriority
 177 002c AFF30080 		.text
 178              	.Letext0: