ARM GAS  /tmp/ccMe68iL.s 			page 1


   1              		.syntax unified
   2              		.cpu cortex-m3
   3              		.fpu softvfp
   4              		.eabi_attribute 20, 1
   5              		.eabi_attribute 21, 1
   6              		.eabi_attribute 23, 3
   7              		.eabi_attribute 24, 1
   8              		.eabi_attribute 25, 1
   9              		.eabi_attribute 26, 1
  10              		.eabi_attribute 30, 2
  11              		.eabi_attribute 18, 4
  12              		.thumb
  13              		.file	"nvic.c"
  14              		.section	.debug_abbrev,"",%progbits
  15              	.Ldebug_abbrev0:
  16              		.section	.debug_info,"",%progbits
  17              	.Ldebug_info0:
  18              		.section	.debug_line,"",%progbits
  19              	.Ldebug_line0:
  20 0000 02010000 		.text
  20      0200B500 
  20      00000201 
  20      FB0E0D00 
  20      01010101 
  21              	.Ltext0:
  22              		.cfi_sections	.debug_frame
  23              		.section	.text.NVICEnableVector,"ax",%progbits
  24              		.align	2
  25              		.p2align 4,,15
  26              		.global	NVICEnableVector
  27              		.thumb
  28              		.thumb_func
  29              		.type	NVICEnableVector, %function
  30              	NVICEnableVector:
  31              	.LFB7:
  32              		.file 1 "../../os/ports/GCC/ARMCMx/nvic.c"
  33              		.loc 1 46 0
  34              		.cfi_startproc
  35              		@ args = 0, pretend = 0, frame = 0
  36              		@ frame_needed = 0, uses_anonymous_args = 0
  37              		@ link register save eliminated.
  38              	.LVL0:
  39 0000 30B4     		push	{r4, r5}
  40              	.LCFI0:
  41              		.cfi_def_cfa_offset 8
  42              		.loc 1 49 0
  43 0002 00F00305 		and	r5, r0, #3
  44              		.cfi_offset 5, -4
  45              		.cfi_offset 4, -8
  46 0006 EB00     		lsls	r3, r5, #3
  47 0008 FF22     		movs	r2, #255
  48 000a 9A40     		lsls	r2, r2, r3
  49 000c 9940     		lsls	r1, r1, r3
  50              	.LVL1:
  51              		.loc 1 50 0
  52 000e 00F01F04 		and	r4, r0, #31
  53 0012 0125     		movs	r5, #1
ARM GAS  /tmp/ccMe68iL.s 			page 2


  54 0014 A540     		lsls	r5, r5, r4
  55              		.loc 1 49 0
  56 0016 4FEA900C 		lsr	ip, r0, #2
  57 001a 4EF20014 		movw	r4, #:lower16:-536813312
  58 001e CEF20004 		movt	r4, #:upper16:-536813312
  59 0022 0CF1C00C 		add	ip, ip, #192
  60 0026 54F82C30 		ldr	r3, [r4, ip, lsl #2]
  61              		.loc 1 50 0
  62 002a 4009     		lsrs	r0, r0, #5
  63              	.LVL2:
  64              		.loc 1 49 0
  65 002c 23EA0203 		bic	r3, r3, r2
  66 0030 0B43     		orrs	r3, r3, r1
  67              		.loc 1 50 0
  68 0032 00F16001 		add	r1, r0, #96
  69              		.loc 1 49 0
  70 0036 44F82C30 		str	r3, [r4, ip, lsl #2]
  71              		.loc 1 50 0
  72 003a 44F82150 		str	r5, [r4, r1, lsl #2]
  73              		.loc 1 51 0
  74 003e 44F82050 		str	r5, [r4, r0, lsl #2]
  75              		.loc 1 52 0
  76 0042 30BC     		pop	{r4, r5}
  77 0044 7047     		bx	lr
  78              		.cfi_endproc
  79              	.LFE7:
  80              		.size	NVICEnableVector, .-NVICEnableVector
  81 0046 00BFAFF3 		.section	.text.NVICDisableVector,"ax",%progbits
  81      0080AFF3 
  81      0080
  82              		.align	2
  83              		.p2align 4,,15
  84              		.global	NVICDisableVector
  85              		.thumb
  86              		.thumb_func
  87              		.type	NVICDisableVector, %function
  88              	NVICDisableVector:
  89              	.LFB8:
  90              		.loc 1 61 0
  91              		.cfi_startproc
  92              		@ args = 0, pretend = 0, frame = 0
  93              		@ frame_needed = 0, uses_anonymous_args = 0
  94              		@ link register save eliminated.
  95              	.LVL3:
  96              		.loc 1 64 0
  97 0000 00F01F02 		and	r2, r0, #31
  98              		.loc 1 61 0
  99 0004 10B4     		push	{r4}
 100              	.LCFI1:
 101              		.cfi_def_cfa_offset 4
 102              		.loc 1 64 0
 103 0006 0124     		movs	r4, #1
 104              		.cfi_offset 4, -4
 105 0008 9440     		lsls	r4, r4, r2
 106              		.loc 1 65 0
 107 000a 00F00301 		and	r1, r0, #3
 108 000e CA00     		lsls	r2, r1, #3
ARM GAS  /tmp/ccMe68iL.s 			page 3


 109 0010 FF23     		movs	r3, #255
 110 0012 13FA02F2 		lsls	r2, r3, r2
 111              		.loc 1 64 0
 112 0016 4109     		lsrs	r1, r0, #5
 113 0018 4EF20013 		movw	r3, #:lower16:-536813312
 114 001c CEF20003 		movt	r3, #:upper16:-536813312
 115 0020 2031     		adds	r1, r1, #32
 116              		.loc 1 65 0
 117 0022 8008     		lsrs	r0, r0, #2
 118              	.LVL4:
 119              		.loc 1 64 0
 120 0024 43F82140 		str	r4, [r3, r1, lsl #2]
 121              		.loc 1 65 0
 122 0028 C030     		adds	r0, r0, #192
 123 002a 53F82010 		ldr	r1, [r3, r0, lsl #2]
 124 002e 21EA0202 		bic	r2, r1, r2
 125 0032 43F82020 		str	r2, [r3, r0, lsl #2]
 126              		.loc 1 66 0
 127 0036 10BC     		pop	{r4}
 128 0038 7047     		bx	lr
 129              		.cfi_endproc
 130              	.LFE8:
 131              		.size	NVICDisableVector, .-NVICDisableVector
 132 003a 00BFAFF3 		.section	.text.NVICSetSystemHandlerPriority,"ax",%progbits
 132      0080
 133              		.align	2
 134              		.p2align 4,,15
 135              		.global	NVICSetSystemHandlerPriority
 136              		.thumb
 137              		.thumb_func
 138              		.type	NVICSetSystemHandlerPriority, %function
 139              	NVICSetSystemHandlerPriority:
 140              	.LFB9:
 141              		.loc 1 75 0
 142              		.cfi_startproc
 143              		@ args = 0, pretend = 0, frame = 0
 144              		@ frame_needed = 0, uses_anonymous_args = 0
 145              		@ link register save eliminated.
 146              	.LVL5:
 147              		.loc 1 79 0
 148 0000 00F00303 		and	r3, r0, #3
 149              		.loc 1 75 0
 150 0004 10B4     		push	{r4}
 151              	.LCFI2:
 152              		.cfi_def_cfa_offset 4
 153              		.loc 1 78 0
 154 0006 FF22     		movs	r2, #255
 155              		.loc 1 79 0
 156 0008 DC00     		lsls	r4, r3, #3
 157              		.cfi_offset 4, -4
 158              		.loc 1 78 0
 159 000a A240     		lsls	r2, r2, r4
 160 000c A140     		lsls	r1, r1, r4
 161              	.LVL6:
 162 000e 8008     		lsrs	r0, r0, #2
 163              	.LVL7:
 164 0010 4EF60054 		movw	r4, #:lower16:-536810240
ARM GAS  /tmp/ccMe68iL.s 			page 4


 165 0014 CEF20004 		movt	r4, #:upper16:-536810240
 166 0018 0630     		adds	r0, r0, #6
 167 001a 54F82030 		ldr	r3, [r4, r0, lsl #2]
 168 001e 23EA0203 		bic	r3, r3, r2
 169 0022 0B43     		orrs	r3, r3, r1
 170 0024 44F82030 		str	r3, [r4, r0, lsl #2]
 171              		.loc 1 80 0
 172 0028 10BC     		pop	{r4}
 173 002a 7047     		bx	lr
 174              		.cfi_endproc
 175              	.LFE9:
 176              		.size	NVICSetSystemHandlerPriority, .-NVICSetSystemHandlerPriority
 177 002c AFF30080 		.text
 178              	.Letext0:
 179              		.section	.debug_loc,"",%progbits
 180              	.Ldebug_loc0:
 181              	.LLST0:
 182 0000 00000000 		.4byte	.LFB7
 183 0004 02000000 		.4byte	.LCFI0
 184 0008 0100     		.2byte	0x1
 185 000a 5D       		.byte	0x5d
 186 000b 02000000 		.4byte	.LCFI0
 187 000f 46000000 		.4byte	.LFE7
 188 0013 0200     		.2byte	0x2
 189 0015 7D       		.byte	0x7d
 190 0016 08       		.sleb128 8
 191 0017 00000000 		.4byte	0x0
 192 001b 00000000 		.4byte	0x0
 193              	.LLST1:
 194 001f 00000000 		.4byte	.LVL0
 195 0023 2C000000 		.4byte	.LVL2
 196 0027 0100     		.2byte	0x1
 197 0029 50       		.byte	0x50
 198 002a 00000000 		.4byte	0x0
 199 002e 00000000 		.4byte	0x0
 200              	.LLST2:
 201 0032 00000000 		.4byte	.LVL0
 202 0036 0E000000 		.4byte	.LVL1
 203 003a 0100     		.2byte	0x1
 204 003c 51       		.byte	0x51
 205 003d 00000000 		.4byte	0x0
 206 0041 00000000 		.4byte	0x0
 207              	.LLST3:
 208 0045 00000000 		.4byte	.LFB8
 209 0049 06000000 		.4byte	.LCFI1
 210 004d 0100     		.2byte	0x1
 211 004f 5D       		.byte	0x5d
 212 0050 06000000 		.4byte	.LCFI1
 213 0054 3A000000 		.4byte	.LFE8
 214 0058 0200     		.2byte	0x2
 215 005a 7D       		.byte	0x7d
 216 005b 04       		.sleb128 4
 217 005c 00000000 		.4byte	0x0
 218 0060 00000000 		.4byte	0x0
 219              	.LLST4:
 220 0064 00000000 		.4byte	.LVL3
 221 0068 24000000 		.4byte	.LVL4
ARM GAS  /tmp/ccMe68iL.s 			page 5


 222 006c 0100     		.2byte	0x1
 223 006e 50       		.byte	0x50
 224 006f 00000000 		.4byte	0x0
 225 0073 00000000 		.4byte	0x0
 226              	.LLST5:
 227 0077 00000000 		.4byte	.LFB9
 228 007b 06000000 		.4byte	.LCFI2
 229 007f 0100     		.2byte	0x1
 230 0081 5D       		.byte	0x5d
 231 0082 06000000 		.4byte	.LCFI2
 232 0086 2C000000 		.4byte	.LFE9
 233 008a 0200     		.2byte	0x2
 234 008c 7D       		.byte	0x7d
 235 008d 04       		.sleb128 4
 236 008e 00000000 		.4byte	0x0
 237 0092 00000000 		.4byte	0x0
 238              	.LLST6:
 239 0096 00000000 		.4byte	.LVL5
 240 009a 10000000 		.4byte	.LVL7
 241 009e 0100     		.2byte	0x1
 242 00a0 50       		.byte	0x50
 243 00a1 00000000 		.4byte	0x0
 244 00a5 00000000 		.4byte	0x0
 245              	.LLST7:
 246 00a9 00000000 		.4byte	.LVL5
 247 00ad 0E000000 		.4byte	.LVL6
 248 00b1 0100     		.2byte	0x1
 249 00b3 51       		.byte	0x51
 250 00b4 00000000 		.4byte	0x0
 251 00b8 00000000 		.4byte	0x0
 252              		.file 2 "../../os/ports/GCC/ARMCMx/nvic.h"
 253              		.file 3 "/usr/local/LPCXpresso/tools/bin/../lib/gcc/arm-none-eabi/4.4.1/../../../../arm-none-eabi/
 254              		.section	.debug_info
 255 0000 34030000 		.4byte	0x334
 256 0004 0200     		.2byte	0x2
 257 0006 00000000 		.4byte	.Ldebug_abbrev0
 258 000a 04       		.byte	0x4
 259 000b 01       		.uleb128 0x1
 260 000c 65010000 		.4byte	.LASF35
 261 0010 01       		.byte	0x1
 262 0011 23000000 		.4byte	.LASF36
 263 0015 F7000000 		.4byte	.LASF37
 264 0019 00000000 		.4byte	0x0
 265 001d 00000000 		.4byte	0x0
 266 0021 00000000 		.4byte	.Ldebug_ranges0+0x0
 267 0025 00000000 		.4byte	.Ldebug_line0
 268 0029 02       		.uleb128 0x2
 269 002a 04       		.byte	0x4
 270 002b 05       		.byte	0x5
 271 002c 696E7400 		.ascii	"int\000"
 272 0030 03       		.uleb128 0x3
 273 0031 04       		.byte	0x4
 274 0032 07       		.byte	0x7
 275 0033 C9000000 		.4byte	.LASF0
 276 0037 03       		.uleb128 0x3
 277 0038 01       		.byte	0x1
 278 0039 06       		.byte	0x6
ARM GAS  /tmp/ccMe68iL.s 			page 6


 279 003a 9E010000 		.4byte	.LASF1
 280 003e 03       		.uleb128 0x3
 281 003f 01       		.byte	0x1
 282 0040 08       		.byte	0x8
 283 0041 49000000 		.4byte	.LASF2
 284 0045 03       		.uleb128 0x3
 285 0046 02       		.byte	0x2
 286 0047 05       		.byte	0x5
 287 0048 AE000000 		.4byte	.LASF3
 288 004c 03       		.uleb128 0x3
 289 004d 02       		.byte	0x2
 290 004e 07       		.byte	0x7
 291 004f 7F000000 		.4byte	.LASF4
 292 0053 03       		.uleb128 0x3
 293 0054 04       		.byte	0x4
 294 0055 05       		.byte	0x5
 295 0056 90010000 		.4byte	.LASF5
 296 005a 04       		.uleb128 0x4
 297 005b 87010000 		.4byte	.LASF38
 298 005f 03       		.byte	0x3
 299 0060 50       		.byte	0x50
 300 0061 65000000 		.4byte	0x65
 301 0065 03       		.uleb128 0x3
 302 0066 04       		.byte	0x4
 303 0067 07       		.byte	0x7
 304 0068 9C000000 		.4byte	.LASF6
 305 006c 03       		.uleb128 0x3
 306 006d 08       		.byte	0x8
 307 006e 05       		.byte	0x5
 308 006f 00000000 		.4byte	.LASF7
 309 0073 03       		.uleb128 0x3
 310 0074 08       		.byte	0x8
 311 0075 07       		.byte	0x7
 312 0076 E0000000 		.4byte	.LASF8
 313 007a 05       		.uleb128 0x5
 314 007b 65000000 		.4byte	0x65
 315 007f 06       		.uleb128 0x6
 316 0080 F003     		.2byte	0x3f0
 317 0082 02       		.byte	0x2
 318 0083 6C       		.byte	0x6c
 319 0084 2C010000 		.4byte	0x12c
 320 0088 07       		.uleb128 0x7
 321 0089 77010000 		.4byte	.LASF9
 322 008d 02       		.byte	0x2
 323 008e 6D       		.byte	0x6d
 324 008f 3F010000 		.4byte	0x13f
 325 0093 02       		.byte	0x2
 326 0094 23       		.byte	0x23
 327 0095 00       		.uleb128 0x0
 328 0096 07       		.uleb128 0x7
 329 0097 57000000 		.4byte	.LASF10
 330 009b 02       		.byte	0x2
 331 009c 6E       		.byte	0x6e
 332 009d 54010000 		.4byte	0x154
 333 00a1 02       		.byte	0x2
 334 00a2 23       		.byte	0x23
 335 00a3 20       		.uleb128 0x20
ARM GAS  /tmp/ccMe68iL.s 			page 7


 336 00a4 07       		.uleb128 0x7
 337 00a5 44000000 		.4byte	.LASF11
 338 00a9 02       		.byte	0x2
 339 00aa 6F       		.byte	0x6f
 340 00ab 59010000 		.4byte	0x159
 341 00af 03       		.byte	0x3
 342 00b0 23       		.byte	0x23
 343 00b1 8001     		.uleb128 0x80
 344 00b3 07       		.uleb128 0x7
 345 00b4 5F000000 		.4byte	.LASF12
 346 00b8 02       		.byte	0x2
 347 00b9 70       		.byte	0x70
 348 00ba 5E010000 		.4byte	0x15e
 349 00be 03       		.byte	0x3
 350 00bf 23       		.byte	0x23
 351 00c0 A001     		.uleb128 0xa0
 352 00c2 07       		.uleb128 0x7
 353 00c3 D6000000 		.4byte	.LASF13
 354 00c7 02       		.byte	0x2
 355 00c8 71       		.byte	0x71
 356 00c9 63010000 		.4byte	0x163
 357 00cd 03       		.byte	0x3
 358 00ce 23       		.byte	0x23
 359 00cf 8002     		.uleb128 0x100
 360 00d1 07       		.uleb128 0x7
 361 00d2 67000000 		.4byte	.LASF14
 362 00d6 02       		.byte	0x2
 363 00d7 72       		.byte	0x72
 364 00d8 68010000 		.4byte	0x168
 365 00dc 03       		.byte	0x3
 366 00dd 23       		.byte	0x23
 367 00de A002     		.uleb128 0x120
 368 00e0 07       		.uleb128 0x7
 369 00e1 13000000 		.4byte	.LASF15
 370 00e5 02       		.byte	0x2
 371 00e6 73       		.byte	0x73
 372 00e7 6D010000 		.4byte	0x16d
 373 00eb 03       		.byte	0x3
 374 00ec 23       		.byte	0x23
 375 00ed 8003     		.uleb128 0x180
 376 00ef 07       		.uleb128 0x7
 377 00f0 6F000000 		.4byte	.LASF16
 378 00f4 02       		.byte	0x2
 379 00f5 74       		.byte	0x74
 380 00f6 72010000 		.4byte	0x172
 381 00fa 03       		.byte	0x3
 382 00fb 23       		.byte	0x23
 383 00fc A003     		.uleb128 0x1a0
 384 00fe 07       		.uleb128 0x7
 385 00ff BC010000 		.4byte	.LASF17
 386 0103 02       		.byte	0x2
 387 0104 75       		.byte	0x75
 388 0105 77010000 		.4byte	0x177
 389 0109 03       		.byte	0x3
 390 010a 23       		.byte	0x23
 391 010b 8004     		.uleb128 0x200
 392 010d 07       		.uleb128 0x7
ARM GAS  /tmp/ccMe68iL.s 			page 8


 393 010e 77000000 		.4byte	.LASF18
 394 0112 02       		.byte	0x2
 395 0113 76       		.byte	0x76
 396 0114 8C010000 		.4byte	0x18c
 397 0118 03       		.byte	0x3
 398 0119 23       		.byte	0x23
 399 011a A004     		.uleb128 0x220
 400 011c 08       		.uleb128 0x8
 401 011d 49505200 		.ascii	"IPR\000"
 402 0121 02       		.byte	0x2
 403 0122 77       		.byte	0x77
 404 0123 A1010000 		.4byte	0x1a1
 405 0127 03       		.byte	0x3
 406 0128 23       		.byte	0x23
 407 0129 8006     		.uleb128 0x300
 408 012b 00       		.byte	0x0
 409 012c 09       		.uleb128 0x9
 410 012d 65000000 		.4byte	0x65
 411 0131 3C010000 		.4byte	0x13c
 412 0135 0A       		.uleb128 0xa
 413 0136 3C010000 		.4byte	0x13c
 414 013a 07       		.byte	0x7
 415 013b 00       		.byte	0x0
 416 013c 0B       		.uleb128 0xb
 417 013d 04       		.byte	0x4
 418 013e 07       		.byte	0x7
 419 013f 05       		.uleb128 0x5
 420 0140 2C010000 		.4byte	0x12c
 421 0144 09       		.uleb128 0x9
 422 0145 65000000 		.4byte	0x65
 423 0149 54010000 		.4byte	0x154
 424 014d 0A       		.uleb128 0xa
 425 014e 3C010000 		.4byte	0x13c
 426 0152 17       		.byte	0x17
 427 0153 00       		.byte	0x0
 428 0154 05       		.uleb128 0x5
 429 0155 44010000 		.4byte	0x144
 430 0159 05       		.uleb128 0x5
 431 015a 2C010000 		.4byte	0x12c
 432 015e 05       		.uleb128 0x5
 433 015f 44010000 		.4byte	0x144
 434 0163 05       		.uleb128 0x5
 435 0164 2C010000 		.4byte	0x12c
 436 0168 05       		.uleb128 0x5
 437 0169 44010000 		.4byte	0x144
 438 016d 05       		.uleb128 0x5
 439 016e 2C010000 		.4byte	0x12c
 440 0172 05       		.uleb128 0x5
 441 0173 44010000 		.4byte	0x144
 442 0177 05       		.uleb128 0x5
 443 0178 2C010000 		.4byte	0x12c
 444 017c 09       		.uleb128 0x9
 445 017d 65000000 		.4byte	0x65
 446 0181 8C010000 		.4byte	0x18c
 447 0185 0A       		.uleb128 0xa
 448 0186 3C010000 		.4byte	0x13c
 449 018a 37       		.byte	0x37
ARM GAS  /tmp/ccMe68iL.s 			page 9


 450 018b 00       		.byte	0x0
 451 018c 05       		.uleb128 0x5
 452 018d 7C010000 		.4byte	0x17c
 453 0191 09       		.uleb128 0x9
 454 0192 65000000 		.4byte	0x65
 455 0196 A1010000 		.4byte	0x1a1
 456 019a 0A       		.uleb128 0xa
 457 019b 3C010000 		.4byte	0x13c
 458 019f 3B       		.byte	0x3b
 459 01a0 00       		.byte	0x0
 460 01a1 05       		.uleb128 0x5
 461 01a2 91010000 		.4byte	0x191
 462 01a6 0C       		.uleb128 0xc
 463 01a7 40       		.byte	0x40
 464 01a8 02       		.byte	0x2
 465 01a9 88       		.byte	0x88
 466 01aa 73020000 		.4byte	0x273
 467 01ae 07       		.uleb128 0x7
 468 01af 71010000 		.4byte	.LASF19
 469 01b3 02       		.byte	0x2
 470 01b4 89       		.byte	0x89
 471 01b5 7A000000 		.4byte	0x7a
 472 01b9 02       		.byte	0x2
 473 01ba 23       		.byte	0x23
 474 01bb 00       		.uleb128 0x0
 475 01bc 07       		.uleb128 0x7
 476 01bd 30010000 		.4byte	.LASF20
 477 01c1 02       		.byte	0x2
 478 01c2 8A       		.byte	0x8a
 479 01c3 7A000000 		.4byte	0x7a
 480 01c7 02       		.byte	0x2
 481 01c8 23       		.byte	0x23
 482 01c9 04       		.uleb128 0x4
 483 01ca 07       		.uleb128 0x7
 484 01cb 1E000000 		.4byte	.LASF21
 485 01cf 02       		.byte	0x2
 486 01d0 8B       		.byte	0x8b
 487 01d1 7A000000 		.4byte	0x7a
 488 01d5 02       		.byte	0x2
 489 01d6 23       		.byte	0x23
 490 01d7 08       		.uleb128 0x8
 491 01d8 07       		.uleb128 0x7
 492 01d9 52010000 		.4byte	.LASF22
 493 01dd 02       		.byte	0x2
 494 01de 8C       		.byte	0x8c
 495 01df 7A000000 		.4byte	0x7a
 496 01e3 02       		.byte	0x2
 497 01e4 23       		.byte	0x23
 498 01e5 0C       		.uleb128 0xc
 499 01e6 08       		.uleb128 0x8
 500 01e7 53435200 		.ascii	"SCR\000"
 501 01eb 02       		.byte	0x2
 502 01ec 8D       		.byte	0x8d
 503 01ed 7A000000 		.4byte	0x7a
 504 01f1 02       		.byte	0x2
 505 01f2 23       		.byte	0x23
 506 01f3 10       		.uleb128 0x10
ARM GAS  /tmp/ccMe68iL.s 			page 10


 507 01f4 08       		.uleb128 0x8
 508 01f5 43435200 		.ascii	"CCR\000"
 509 01f9 02       		.byte	0x2
 510 01fa 8E       		.byte	0x8e
 511 01fb 7A000000 		.4byte	0x7a
 512 01ff 02       		.byte	0x2
 513 0200 23       		.byte	0x23
 514 0201 14       		.uleb128 0x14
 515 0202 07       		.uleb128 0x7
 516 0203 99010000 		.4byte	.LASF23
 517 0207 02       		.byte	0x2
 518 0208 8F       		.byte	0x8f
 519 0209 83020000 		.4byte	0x283
 520 020d 02       		.byte	0x2
 521 020e 23       		.byte	0x23
 522 020f 18       		.uleb128 0x18
 523 0210 07       		.uleb128 0x7
 524 0211 18000000 		.4byte	.LASF24
 525 0215 02       		.byte	0x2
 526 0216 90       		.byte	0x90
 527 0217 7A000000 		.4byte	0x7a
 528 021b 02       		.byte	0x2
 529 021c 23       		.byte	0x23
 530 021d 24       		.uleb128 0x24
 531 021e 07       		.uleb128 0x7
 532 021f 92000000 		.4byte	.LASF25
 533 0223 02       		.byte	0x2
 534 0224 91       		.byte	0x91
 535 0225 7A000000 		.4byte	0x7a
 536 0229 02       		.byte	0x2
 537 022a 23       		.byte	0x23
 538 022b 28       		.uleb128 0x28
 539 022c 07       		.uleb128 0x7
 540 022d 97000000 		.4byte	.LASF26
 541 0231 02       		.byte	0x2
 542 0232 92       		.byte	0x92
 543 0233 7A000000 		.4byte	0x7a
 544 0237 02       		.byte	0x2
 545 0238 23       		.byte	0x23
 546 0239 2C       		.uleb128 0x2c
 547 023a 07       		.uleb128 0x7
 548 023b DB000000 		.4byte	.LASF27
 549 023f 02       		.byte	0x2
 550 0240 93       		.byte	0x93
 551 0241 7A000000 		.4byte	0x7a
 552 0245 02       		.byte	0x2
 553 0246 23       		.byte	0x23
 554 0247 30       		.uleb128 0x30
 555 0248 07       		.uleb128 0x7
 556 0249 81010000 		.4byte	.LASF28
 557 024d 02       		.byte	0x2
 558 024e 94       		.byte	0x94
 559 024f 7A000000 		.4byte	0x7a
 560 0253 02       		.byte	0x2
 561 0254 23       		.byte	0x23
 562 0255 34       		.uleb128 0x34
 563 0256 07       		.uleb128 0x7
ARM GAS  /tmp/ccMe68iL.s 			page 11


 564 0257 58010000 		.4byte	.LASF29
 565 025b 02       		.byte	0x2
 566 025c 95       		.byte	0x95
 567 025d 7A000000 		.4byte	0x7a
 568 0261 02       		.byte	0x2
 569 0262 23       		.byte	0x23
 570 0263 38       		.uleb128 0x38
 571 0264 07       		.uleb128 0x7
 572 0265 7C010000 		.4byte	.LASF30
 573 0269 02       		.byte	0x2
 574 026a 96       		.byte	0x96
 575 026b 7A000000 		.4byte	0x7a
 576 026f 02       		.byte	0x2
 577 0270 23       		.byte	0x23
 578 0271 3C       		.uleb128 0x3c
 579 0272 00       		.byte	0x0
 580 0273 09       		.uleb128 0x9
 581 0274 65000000 		.4byte	0x65
 582 0278 83020000 		.4byte	0x283
 583 027c 0A       		.uleb128 0xa
 584 027d 3C010000 		.4byte	0x13c
 585 0281 02       		.byte	0x2
 586 0282 00       		.byte	0x0
 587 0283 05       		.uleb128 0x5
 588 0284 73020000 		.4byte	0x273
 589 0288 0D       		.uleb128 0xd
 590 0289 01       		.byte	0x1
 591 028a B8000000 		.4byte	.LASF32
 592 028e 01       		.byte	0x1
 593 028f 2E       		.byte	0x2e
 594 0290 01       		.byte	0x1
 595 0291 00000000 		.4byte	.LFB7
 596 0295 46000000 		.4byte	.LFE7
 597 0299 00000000 		.4byte	.LLST0
 598 029d C8020000 		.4byte	0x2c8
 599 02a1 0E       		.uleb128 0xe
 600 02a2 6E00     		.ascii	"n\000"
 601 02a4 01       		.byte	0x1
 602 02a5 2E       		.byte	0x2e
 603 02a6 5A000000 		.4byte	0x5a
 604 02aa 1F000000 		.4byte	.LLST1
 605 02ae 0F       		.uleb128 0xf
 606 02af 0E000000 		.4byte	.LASF31
 607 02b3 01       		.byte	0x1
 608 02b4 2E       		.byte	0x2e
 609 02b5 5A000000 		.4byte	0x5a
 610 02b9 32000000 		.4byte	.LLST2
 611 02bd 10       		.uleb128 0x10
 612 02be 736800   		.ascii	"sh\000"
 613 02c1 01       		.byte	0x1
 614 02c2 2F       		.byte	0x2f
 615 02c3 30000000 		.4byte	0x30
 616 02c7 00       		.byte	0x0
 617 02c8 0D       		.uleb128 0xd
 618 02c9 01       		.byte	0x1
 619 02ca AA010000 		.4byte	.LASF33
 620 02ce 01       		.byte	0x1
ARM GAS  /tmp/ccMe68iL.s 			page 12


 621 02cf 3D       		.byte	0x3d
 622 02d0 01       		.byte	0x1
 623 02d1 00000000 		.4byte	.LFB8
 624 02d5 3A000000 		.4byte	.LFE8
 625 02d9 45000000 		.4byte	.LLST3
 626 02dd F9020000 		.4byte	0x2f9
 627 02e1 0E       		.uleb128 0xe
 628 02e2 6E00     		.ascii	"n\000"
 629 02e4 01       		.byte	0x1
 630 02e5 3D       		.byte	0x3d
 631 02e6 5A000000 		.4byte	0x5a
 632 02ea 64000000 		.4byte	.LLST4
 633 02ee 10       		.uleb128 0x10
 634 02ef 736800   		.ascii	"sh\000"
 635 02f2 01       		.byte	0x1
 636 02f3 3E       		.byte	0x3e
 637 02f4 30000000 		.4byte	0x30
 638 02f8 00       		.byte	0x0
 639 02f9 11       		.uleb128 0x11
 640 02fa 01       		.byte	0x1
 641 02fb 35010000 		.4byte	.LASF39
 642 02ff 01       		.byte	0x1
 643 0300 4B       		.byte	0x4b
 644 0301 01       		.byte	0x1
 645 0302 00000000 		.4byte	.LFB9
 646 0306 2C000000 		.4byte	.LFE9
 647 030a 77000000 		.4byte	.LLST5
 648 030e 0F       		.uleb128 0xf
 649 030f 5D010000 		.4byte	.LASF34
 650 0313 01       		.byte	0x1
 651 0314 4B       		.byte	0x4b
 652 0315 5A000000 		.4byte	0x5a
 653 0319 96000000 		.4byte	.LLST6
 654 031d 0F       		.uleb128 0xf
 655 031e 0E000000 		.4byte	.LASF31
 656 0322 01       		.byte	0x1
 657 0323 4B       		.byte	0x4b
 658 0324 5A000000 		.4byte	0x5a
 659 0328 A9000000 		.4byte	.LLST7
 660 032c 10       		.uleb128 0x10
 661 032d 736800   		.ascii	"sh\000"
 662 0330 01       		.byte	0x1
 663 0331 4C       		.byte	0x4c
 664 0332 30000000 		.4byte	0x30
 665 0336 00       		.byte	0x0
 666 0337 00       		.byte	0x0
 667              		.section	.debug_abbrev
 668 0000 01       		.uleb128 0x1
 669 0001 11       		.uleb128 0x11
 670 0002 01       		.byte	0x1
 671 0003 25       		.uleb128 0x25
 672 0004 0E       		.uleb128 0xe
 673 0005 13       		.uleb128 0x13
 674 0006 0B       		.uleb128 0xb
 675 0007 03       		.uleb128 0x3
 676 0008 0E       		.uleb128 0xe
 677 0009 1B       		.uleb128 0x1b
ARM GAS  /tmp/ccMe68iL.s 			page 13


 678 000a 0E       		.uleb128 0xe
 679 000b 11       		.uleb128 0x11
 680 000c 01       		.uleb128 0x1
 681 000d 52       		.uleb128 0x52
 682 000e 01       		.uleb128 0x1
 683 000f 55       		.uleb128 0x55
 684 0010 06       		.uleb128 0x6
 685 0011 10       		.uleb128 0x10
 686 0012 06       		.uleb128 0x6
 687 0013 00       		.byte	0x0
 688 0014 00       		.byte	0x0
 689 0015 02       		.uleb128 0x2
 690 0016 24       		.uleb128 0x24
 691 0017 00       		.byte	0x0
 692 0018 0B       		.uleb128 0xb
 693 0019 0B       		.uleb128 0xb
 694 001a 3E       		.uleb128 0x3e
 695 001b 0B       		.uleb128 0xb
 696 001c 03       		.uleb128 0x3
 697 001d 08       		.uleb128 0x8
 698 001e 00       		.byte	0x0
 699 001f 00       		.byte	0x0
 700 0020 03       		.uleb128 0x3
 701 0021 24       		.uleb128 0x24
 702 0022 00       		.byte	0x0
 703 0023 0B       		.uleb128 0xb
 704 0024 0B       		.uleb128 0xb
 705 0025 3E       		.uleb128 0x3e
 706 0026 0B       		.uleb128 0xb
 707 0027 03       		.uleb128 0x3
 708 0028 0E       		.uleb128 0xe
 709 0029 00       		.byte	0x0
 710 002a 00       		.byte	0x0
 711 002b 04       		.uleb128 0x4
 712 002c 16       		.uleb128 0x16
 713 002d 00       		.byte	0x0
 714 002e 03       		.uleb128 0x3
 715 002f 0E       		.uleb128 0xe
 716 0030 3A       		.uleb128 0x3a
 717 0031 0B       		.uleb128 0xb
 718 0032 3B       		.uleb128 0x3b
 719 0033 0B       		.uleb128 0xb
 720 0034 49       		.uleb128 0x49
 721 0035 13       		.uleb128 0x13
 722 0036 00       		.byte	0x0
 723 0037 00       		.byte	0x0
 724 0038 05       		.uleb128 0x5
 725 0039 35       		.uleb128 0x35
 726 003a 00       		.byte	0x0
 727 003b 49       		.uleb128 0x49
 728 003c 13       		.uleb128 0x13
 729 003d 00       		.byte	0x0
 730 003e 00       		.byte	0x0
 731 003f 06       		.uleb128 0x6
 732 0040 13       		.uleb128 0x13
 733 0041 01       		.byte	0x1
 734 0042 0B       		.uleb128 0xb
ARM GAS  /tmp/ccMe68iL.s 			page 14


 735 0043 05       		.uleb128 0x5
 736 0044 3A       		.uleb128 0x3a
 737 0045 0B       		.uleb128 0xb
 738 0046 3B       		.uleb128 0x3b
 739 0047 0B       		.uleb128 0xb
 740 0048 01       		.uleb128 0x1
 741 0049 13       		.uleb128 0x13
 742 004a 00       		.byte	0x0
 743 004b 00       		.byte	0x0
 744 004c 07       		.uleb128 0x7
 745 004d 0D       		.uleb128 0xd
 746 004e 00       		.byte	0x0
 747 004f 03       		.uleb128 0x3
 748 0050 0E       		.uleb128 0xe
 749 0051 3A       		.uleb128 0x3a
 750 0052 0B       		.uleb128 0xb
 751 0053 3B       		.uleb128 0x3b
 752 0054 0B       		.uleb128 0xb
 753 0055 49       		.uleb128 0x49
 754 0056 13       		.uleb128 0x13
 755 0057 38       		.uleb128 0x38
 756 0058 0A       		.uleb128 0xa
 757 0059 00       		.byte	0x0
 758 005a 00       		.byte	0x0
 759 005b 08       		.uleb128 0x8
 760 005c 0D       		.uleb128 0xd
 761 005d 00       		.byte	0x0
 762 005e 03       		.uleb128 0x3
 763 005f 08       		.uleb128 0x8
 764 0060 3A       		.uleb128 0x3a
 765 0061 0B       		.uleb128 0xb
 766 0062 3B       		.uleb128 0x3b
 767 0063 0B       		.uleb128 0xb
 768 0064 49       		.uleb128 0x49
 769 0065 13       		.uleb128 0x13
 770 0066 38       		.uleb128 0x38
 771 0067 0A       		.uleb128 0xa
 772 0068 00       		.byte	0x0
 773 0069 00       		.byte	0x0
 774 006a 09       		.uleb128 0x9
 775 006b 01       		.uleb128 0x1
 776 006c 01       		.byte	0x1
 777 006d 49       		.uleb128 0x49
 778 006e 13       		.uleb128 0x13
 779 006f 01       		.uleb128 0x1
 780 0070 13       		.uleb128 0x13
 781 0071 00       		.byte	0x0
 782 0072 00       		.byte	0x0
 783 0073 0A       		.uleb128 0xa
 784 0074 21       		.uleb128 0x21
 785 0075 00       		.byte	0x0
 786 0076 49       		.uleb128 0x49
 787 0077 13       		.uleb128 0x13
 788 0078 2F       		.uleb128 0x2f
 789 0079 0B       		.uleb128 0xb
 790 007a 00       		.byte	0x0
 791 007b 00       		.byte	0x0
ARM GAS  /tmp/ccMe68iL.s 			page 15


 792 007c 0B       		.uleb128 0xb
 793 007d 24       		.uleb128 0x24
 794 007e 00       		.byte	0x0
 795 007f 0B       		.uleb128 0xb
 796 0080 0B       		.uleb128 0xb
 797 0081 3E       		.uleb128 0x3e
 798 0082 0B       		.uleb128 0xb
 799 0083 00       		.byte	0x0
 800 0084 00       		.byte	0x0
 801 0085 0C       		.uleb128 0xc
 802 0086 13       		.uleb128 0x13
 803 0087 01       		.byte	0x1
 804 0088 0B       		.uleb128 0xb
 805 0089 0B       		.uleb128 0xb
 806 008a 3A       		.uleb128 0x3a
 807 008b 0B       		.uleb128 0xb
 808 008c 3B       		.uleb128 0x3b
 809 008d 0B       		.uleb128 0xb
 810 008e 01       		.uleb128 0x1
 811 008f 13       		.uleb128 0x13
 812 0090 00       		.byte	0x0
 813 0091 00       		.byte	0x0
 814 0092 0D       		.uleb128 0xd
 815 0093 2E       		.uleb128 0x2e
 816 0094 01       		.byte	0x1
 817 0095 3F       		.uleb128 0x3f
 818 0096 0C       		.uleb128 0xc
 819 0097 03       		.uleb128 0x3
 820 0098 0E       		.uleb128 0xe
 821 0099 3A       		.uleb128 0x3a
 822 009a 0B       		.uleb128 0xb
 823 009b 3B       		.uleb128 0x3b
 824 009c 0B       		.uleb128 0xb
 825 009d 27       		.uleb128 0x27
 826 009e 0C       		.uleb128 0xc
 827 009f 11       		.uleb128 0x11
 828 00a0 01       		.uleb128 0x1
 829 00a1 12       		.uleb128 0x12
 830 00a2 01       		.uleb128 0x1
 831 00a3 40       		.uleb128 0x40
 832 00a4 06       		.uleb128 0x6
 833 00a5 01       		.uleb128 0x1
 834 00a6 13       		.uleb128 0x13
 835 00a7 00       		.byte	0x0
 836 00a8 00       		.byte	0x0
 837 00a9 0E       		.uleb128 0xe
 838 00aa 05       		.uleb128 0x5
 839 00ab 00       		.byte	0x0
 840 00ac 03       		.uleb128 0x3
 841 00ad 08       		.uleb128 0x8
 842 00ae 3A       		.uleb128 0x3a
 843 00af 0B       		.uleb128 0xb
 844 00b0 3B       		.uleb128 0x3b
 845 00b1 0B       		.uleb128 0xb
 846 00b2 49       		.uleb128 0x49
 847 00b3 13       		.uleb128 0x13
 848 00b4 02       		.uleb128 0x2
ARM GAS  /tmp/ccMe68iL.s 			page 16


 849 00b5 06       		.uleb128 0x6
 850 00b6 00       		.byte	0x0
 851 00b7 00       		.byte	0x0
 852 00b8 0F       		.uleb128 0xf
 853 00b9 05       		.uleb128 0x5
 854 00ba 00       		.byte	0x0
 855 00bb 03       		.uleb128 0x3
 856 00bc 0E       		.uleb128 0xe
 857 00bd 3A       		.uleb128 0x3a
 858 00be 0B       		.uleb128 0xb
 859 00bf 3B       		.uleb128 0x3b
 860 00c0 0B       		.uleb128 0xb
 861 00c1 49       		.uleb128 0x49
 862 00c2 13       		.uleb128 0x13
 863 00c3 02       		.uleb128 0x2
 864 00c4 06       		.uleb128 0x6
 865 00c5 00       		.byte	0x0
 866 00c6 00       		.byte	0x0
 867 00c7 10       		.uleb128 0x10
 868 00c8 34       		.uleb128 0x34
 869 00c9 00       		.byte	0x0
 870 00ca 03       		.uleb128 0x3
 871 00cb 08       		.uleb128 0x8
 872 00cc 3A       		.uleb128 0x3a
 873 00cd 0B       		.uleb128 0xb
 874 00ce 3B       		.uleb128 0x3b
 875 00cf 0B       		.uleb128 0xb
 876 00d0 49       		.uleb128 0x49
 877 00d1 13       		.uleb128 0x13
 878 00d2 00       		.byte	0x0
 879 00d3 00       		.byte	0x0
 880 00d4 11       		.uleb128 0x11
 881 00d5 2E       		.uleb128 0x2e
 882 00d6 01       		.byte	0x1
 883 00d7 3F       		.uleb128 0x3f
 884 00d8 0C       		.uleb128 0xc
 885 00d9 03       		.uleb128 0x3
 886 00da 0E       		.uleb128 0xe
 887 00db 3A       		.uleb128 0x3a
 888 00dc 0B       		.uleb128 0xb
 889 00dd 3B       		.uleb128 0x3b
 890 00de 0B       		.uleb128 0xb
 891 00df 27       		.uleb128 0x27
 892 00e0 0C       		.uleb128 0xc
 893 00e1 11       		.uleb128 0x11
 894 00e2 01       		.uleb128 0x1
 895 00e3 12       		.uleb128 0x12
 896 00e4 01       		.uleb128 0x1
 897 00e5 40       		.uleb128 0x40
 898 00e6 06       		.uleb128 0x6
 899 00e7 00       		.byte	0x0
 900 00e8 00       		.byte	0x0
 901 00e9 00       		.byte	0x0
 902              		.section	.debug_pubnames,"",%progbits
 903 0000 5A000000 		.4byte	0x5a
 904 0004 0200     		.2byte	0x2
 905 0006 00000000 		.4byte	.Ldebug_info0
ARM GAS  /tmp/ccMe68iL.s 			page 17


 906 000a 38030000 		.4byte	0x338
 907 000e 88020000 		.4byte	0x288
 908 0012 4E564943 		.ascii	"NVICEnableVector\000"
 908      456E6162 
 908      6C655665 
 908      63746F72 
 908      00
 909 0023 C8020000 		.4byte	0x2c8
 910 0027 4E564943 		.ascii	"NVICDisableVector\000"
 910      44697361 
 910      626C6556 
 910      6563746F 
 910      7200
 911 0039 F9020000 		.4byte	0x2f9
 912 003d 4E564943 		.ascii	"NVICSetSystemHandlerPriority\000"
 912      53657453 
 912      79737465 
 912      6D48616E 
 912      646C6572 
 913 005a 00000000 		.4byte	0x0
 914              		.section	.debug_aranges,"",%progbits
 915 0000 2C000000 		.4byte	0x2c
 916 0004 0200     		.2byte	0x2
 917 0006 00000000 		.4byte	.Ldebug_info0
 918 000a 04       		.byte	0x4
 919 000b 00       		.byte	0x0
 920 000c 0000     		.2byte	0x0
 921 000e 0000     		.2byte	0x0
 922 0010 00000000 		.4byte	.LFB7
 923 0014 46000000 		.4byte	.LFE7-.LFB7
 924 0018 00000000 		.4byte	.LFB8
 925 001c 3A000000 		.4byte	.LFE8-.LFB8
 926 0020 00000000 		.4byte	.LFB9
 927 0024 2C000000 		.4byte	.LFE9-.LFB9
 928 0028 00000000 		.4byte	0x0
 929 002c 00000000 		.4byte	0x0
 930              		.section	.debug_ranges,"",%progbits
 931              	.Ldebug_ranges0:
 932 0000 00000000 		.4byte	.Ltext0
 933 0004 00000000 		.4byte	.Letext0
 934 0008 00000000 		.4byte	.LFB7
 935 000c 46000000 		.4byte	.LFE7
 936 0010 00000000 		.4byte	.LFB8
 937 0014 3A000000 		.4byte	.LFE8
 938 0018 00000000 		.4byte	.LFB9
 939 001c 2C000000 		.4byte	.LFE9
 940 0020 00000000 		.4byte	0x0
 941 0024 00000000 		.4byte	0x0
 942              		.section	.debug_str,"MS",%progbits,1
 943              	.LASF7:
 944 0000 6C6F6E67 		.ascii	"long long int\000"
 944      206C6F6E 
 944      6720696E 
 944      7400
 945              	.LASF31:
 946 000e 7072696F 		.ascii	"prio\000"
 946      00
ARM GAS  /tmp/ccMe68iL.s 			page 18


 947              	.LASF15:
 948 0013 49435052 		.ascii	"ICPR\000"
 948      00
 949              	.LASF24:
 950 0018 53484353 		.ascii	"SHCSR\000"
 950      5200
 951              	.LASF21:
 952 001e 56544F52 		.ascii	"VTOR\000"
 952      00
 953              	.LASF36:
 954 0023 2E2E2F2E 		.ascii	"../../os/ports/GCC/ARMCMx/nvic.c\000"
 954      2E2F6F73 
 954      2F706F72 
 954      74732F47 
 954      43432F41 
 955              	.LASF11:
 956 0044 49434552 		.ascii	"ICER\000"
 956      00
 957              	.LASF2:
 958 0049 756E7369 		.ascii	"unsigned char\000"
 958      676E6564 
 958      20636861 
 958      7200
 959              	.LASF10:
 960 0057 756E7573 		.ascii	"unused1\000"
 960      65643100 
 961              	.LASF12:
 962 005f 756E7573 		.ascii	"unused2\000"
 962      65643200 
 963              	.LASF14:
 964 0067 756E7573 		.ascii	"unused3\000"
 964      65643300 
 965              	.LASF16:
 966 006f 756E7573 		.ascii	"unused4\000"
 966      65643400 
 967              	.LASF18:
 968 0077 756E7573 		.ascii	"unused5\000"
 968      65643500 
 969              	.LASF4:
 970 007f 73686F72 		.ascii	"short unsigned int\000"
 970      7420756E 
 970      7369676E 
 970      65642069 
 970      6E7400
 971              	.LASF25:
 972 0092 43465352 		.ascii	"CFSR\000"
 972      00
 973              	.LASF26:
 974 0097 48465352 		.ascii	"HFSR\000"
 974      00
 975              	.LASF6:
 976 009c 6C6F6E67 		.ascii	"long unsigned int\000"
 976      20756E73 
 976      69676E65 
 976      6420696E 
 976      7400
 977              	.LASF3:
ARM GAS  /tmp/ccMe68iL.s 			page 19


 978 00ae 73686F72 		.ascii	"short int\000"
 978      7420696E 
 978      7400
 979              	.LASF32:
 980 00b8 4E564943 		.ascii	"NVICEnableVector\000"
 980      456E6162 
 980      6C655665 
 980      63746F72 
 980      00
 981              	.LASF0:
 982 00c9 756E7369 		.ascii	"unsigned int\000"
 982      676E6564 
 982      20696E74 
 982      00
 983              	.LASF13:
 984 00d6 49535052 		.ascii	"ISPR\000"
 984      00
 985              	.LASF27:
 986 00db 44465352 		.ascii	"DFSR\000"
 986      00
 987              	.LASF8:
 988 00e0 6C6F6E67 		.ascii	"long long unsigned int\000"
 988      206C6F6E 
 988      6720756E 
 988      7369676E 
 988      65642069 
 989              	.LASF37:
 990 00f7 2F686F6D 		.ascii	"/home/dan/Downloads/ChibiOS_2.2.3/demos/ARMCM3-STM3"
 990      652F6461 
 990      6E2F446F 
 990      776E6C6F 
 990      6164732F 
 991 012a 32463130 		.ascii	"2F103\000"
 991      3300
 992              	.LASF20:
 993 0130 49435352 		.ascii	"ICSR\000"
 993      00
 994              	.LASF39:
 995 0135 4E564943 		.ascii	"NVICSetSystemHandlerPriority\000"
 995      53657453 
 995      79737465 
 995      6D48616E 
 995      646C6572 
 996              	.LASF22:
 997 0152 41495243 		.ascii	"AIRCR\000"
 997      5200
 998              	.LASF29:
 999 0158 42464152 		.ascii	"BFAR\000"
 999      00
 1000              	.LASF34:
 1001 015d 68616E64 		.ascii	"handler\000"
 1001      6C657200 
 1002              	.LASF35:
 1003 0165 474E5520 		.ascii	"GNU C 4.4.1\000"
 1003      4320342E 
 1003      342E3100 
 1004              	.LASF19:
ARM GAS  /tmp/ccMe68iL.s 			page 20


 1005 0171 43505549 		.ascii	"CPUID\000"
 1005      4400
 1006              	.LASF9:
 1007 0177 49534552 		.ascii	"ISER\000"
 1007      00
 1008              	.LASF30:
 1009 017c 41465352 		.ascii	"AFSR\000"
 1009      00
 1010              	.LASF28:
 1011 0181 4D4D4641 		.ascii	"MMFAR\000"
 1011      5200
 1012              	.LASF38:
 1013 0187 75696E74 		.ascii	"uint32_t\000"
 1013      33325F74 
 1013      00
 1014              	.LASF5:
 1015 0190 6C6F6E67 		.ascii	"long int\000"
 1015      20696E74 
 1015      00
 1016              	.LASF23:
 1017 0199 53485052 		.ascii	"SHPR\000"
 1017      00
 1018              	.LASF1:
 1019 019e 7369676E 		.ascii	"signed char\000"
 1019      65642063 
 1019      68617200 
 1020              	.LASF33:
 1021 01aa 4E564943 		.ascii	"NVICDisableVector\000"
 1021      44697361 
 1021      626C6556 
 1021      6563746F 
 1021      7200
 1022              	.LASF17:
 1023 01bc 49414252 		.ascii	"IABR\000"
 1023      00
 1024              		.ident	"GCC: (Red Suite 2010Q1 by Code Red) 4.4.1"
ARM GAS  /tmp/ccMe68iL.s 			page 21


DEFINED SYMBOLS
                            *ABS*:00000000 nvic.c
     /tmp/ccMe68iL.s:24     .text.NVICEnableVector:00000000 $t
     /tmp/ccMe68iL.s:30     .text.NVICEnableVector:00000000 NVICEnableVector
     /tmp/ccMe68iL.s:82     .text.NVICDisableVector:00000000 $t
     /tmp/ccMe68iL.s:88     .text.NVICDisableVector:00000000 NVICDisableVector
     /tmp/ccMe68iL.s:133    .text.NVICSetSystemHandlerPriority:00000000 $t
     /tmp/ccMe68iL.s:139    .text.NVICSetSystemHandlerPriority:00000000 NVICSetSystemHandlerPriority
                     .debug_frame:00000010 $d

NO UNDEFINED SYMBOLS
