ARM GAS  /tmp/ccgqinv2.s 			page 1


   1              		.syntax unified
   2              		.cpu cortex-m3
   3              		.fpu softvfp
   4              		.eabi_attribute 20, 1
   5              		.eabi_attribute 21, 1
   6              		.eabi_attribute 23, 3
   7              		.eabi_attribute 24, 1
   8              		.eabi_attribute 25, 1
   9              		.eabi_attribute 26, 1
  10              		.eabi_attribute 30, 2
  11              		.eabi_attribute 18, 4
  12              		.thumb
  13              		.file	"chcond.c"
  14              		.section	.debug_abbrev,"",%progbits
  15              	.Ldebug_abbrev0:
  16              		.section	.debug_info,"",%progbits
  17              	.Ldebug_info0:
  18              		.section	.debug_line,"",%progbits
  19              	.Ldebug_line0:
  20 0000 72020000 		.text
  20      02004201 
  20      00000201 
  20      FB0E0D00 
  20      01010101 
  21              	.Ltext0:
  22              		.cfi_sections	.debug_frame
  23              		.section	.text.chCondInit,"ax",%progbits
  24              		.align	2
  25              		.p2align 4,,15
  26              		.global	chCondInit
  27              		.thumb
  28              		.thumb_func
  29              		.type	chCondInit, %function
  30              	chCondInit:
  31              	.LFB7:
  32              		.file 1 "chibios/os/kernel/src/chcond.c"
  33              		.loc 1 58 0
  34              		.cfi_startproc
  35              		@ args = 0, pretend = 0, frame = 0
  36              		@ frame_needed = 0, uses_anonymous_args = 0
  37              		@ link register save eliminated.
  38              	.LVL0:
  39              		.loc 1 62 0
  40 0000 4060     		str	r0, [r0, #4]
  41 0002 0060     		str	r0, [r0, #0]
  42              		.loc 1 63 0
  43 0004 7047     		bx	lr
  44              		.cfi_endproc
  45              	.LFE7:
  46              		.size	chCondInit, .-chCondInit
  47 0006 00BFAFF3 		.section	.text.chCondSignal,"ax",%progbits
  47      0080AFF3 
  47      0080
  48              		.align	2
  49              		.p2align 4,,15
  50              		.global	chCondSignal
  51              		.thumb
ARM GAS  /tmp/ccgqinv2.s 			page 2


  52              		.thumb_func
  53              		.type	chCondSignal, %function
  54              	chCondSignal:
  55              	.LFB8:
  56              		.loc 1 72 0
  57              		.cfi_startproc
  58              		@ args = 0, pretend = 0, frame = 0
  59              		@ frame_needed = 0, uses_anonymous_args = 0
  60              	.LVL1:
  61 0000 08B5     		push	{r3, lr}
  62              	.LCFI0:
  63              		.cfi_def_cfa_offset 8
  64              		.loc 1 72 0
  65 0002 0246     		mov	r2, r0
  66              	.LBB14:
  67              		.loc 1 76 0
  68 0004 2023     		movs	r3, #32
  69              		.cfi_offset 14, -4
  70              		.cfi_offset 3, -8
  71              	.LVL2:
  72              	@ 76 "chibios/os/kernel/src/chcond.c" 1
  73 0006 83F31188 		msr     BASEPRI, r3
  74              	@ 0 "" 2
  75              	.LVL3:
  76              		.thumb
  77              	.LBE14:
  78              		.loc 1 77 0
  79 000a 0068     		ldr	r0, [r0, #0]
  80              	.LVL4:
  81 000c 9042     		cmp	r0, r2
  82 000e 05D0     		beq	.L3
  83              	.LVL5:
  84              	.LBB15:
  85              	.LBB16:
  86              		.file 2 "chibios/os/kernel/include/chinline.h"
  87              		.loc 2 61 0
  88 0010 0368     		ldr	r3, [r0, #0]
  89              	.LVL6:
  90              	.LBE16:
  91              	.LBE15:
  92              		.loc 1 78 0
  93 0012 0021     		movs	r1, #0
  94              	.LBB18:
  95              	.LBB17:
  96              		.loc 2 61 0
  97 0014 1360     		str	r3, [r2, #0]
  98 0016 5A60     		str	r2, [r3, #4]
  99              	.LBE17:
 100              	.LBE18:
 101              		.loc 1 78 0
 102 0018 FFF7FEFF 		bl	chSchWakeupS
 103              	.LVL7:
 104              	.L3:
 105              	.LBB19:
 106              		.loc 1 79 0
 107 001c 0023     		movs	r3, #0
 108              	.LVL8:
ARM GAS  /tmp/ccgqinv2.s 			page 3


 109              	@ 79 "chibios/os/kernel/src/chcond.c" 1
 110 001e 83F31188 		msr     BASEPRI, r3
 111              	@ 0 "" 2
 112              	.LVL9:
 113              		.thumb
 114              	.LBE19:
 115              		.loc 1 80 0
 116 0022 08BD     		pop	{r3, pc}
 117              		.cfi_endproc
 118              	.LFE8:
 119              		.size	chCondSignal, .-chCondSignal
 120 0024 AFF30080 		.section	.text.chCondSignalI,"ax",%progbits
 120      AFF30080 
 120      AFF30080 
 121              		.align	2
 122              		.p2align 4,,15
 123              		.global	chCondSignalI
 124              		.thumb
 125              		.thumb_func
 126              		.type	chCondSignalI, %function
 127              	chCondSignalI:
 128              	.LFB9:
 129              		.loc 1 93 0
 130              		.cfi_startproc
 131              		@ args = 0, pretend = 0, frame = 0
 132              		@ frame_needed = 0, uses_anonymous_args = 0
 133              	.LVL10:
 134 0000 08B5     		push	{r3, lr}
 135              	.LCFI1:
 136              		.cfi_def_cfa_offset 8
 137              		.loc 1 93 0
 138 0002 0346     		mov	r3, r0
 139              		.cfi_offset 14, -4
 140              		.cfi_offset 3, -8
 141              		.loc 1 97 0
 142 0004 0068     		ldr	r0, [r0, #0]
 143              	.LVL11:
 144 0006 9842     		cmp	r0, r3
 145 0008 06D0     		beq	.L5
 146              	.LVL12:
 147              	.LBB20:
 148              	.LBB21:
 149              		.loc 2 61 0
 150 000a 0268     		ldr	r2, [r0, #0]
 151 000c 1A60     		str	r2, [r3, #0]
 152 000e 5360     		str	r3, [r2, #4]
 153              	.LBE21:
 154              	.LBE20:
 155              		.loc 1 98 0
 156 0010 FFF7FEFF 		bl	chSchReadyI
 157              	.LVL13:
 158 0014 0023     		movs	r3, #0
 159 0016 0362     		str	r3, [r0, #32]
 160              	.L5:
 161 0018 08BD     		pop	{r3, pc}
 162              		.cfi_endproc
 163              	.LFE9:
ARM GAS  /tmp/ccgqinv2.s 			page 4


 164              		.size	chCondSignalI, .-chCondSignalI
 165 001a 00BFAFF3 		.section	.text.chCondBroadcastI,"ax",%progbits
 165      0080
 166              		.align	2
 167              		.p2align 4,,15
 168              		.global	chCondBroadcastI
 169              		.thumb
 170              		.thumb_func
 171              		.type	chCondBroadcastI, %function
 172              	chCondBroadcastI:
 173              	.LFB11:
 174              		.loc 1 127 0
 175              		.cfi_startproc
 176              		@ args = 0, pretend = 0, frame = 0
 177              		@ frame_needed = 0, uses_anonymous_args = 0
 178              	.LVL14:
 179 0000 38B5     		push	{r3, r4, r5, lr}
 180              	.LCFI2:
 181              		.cfi_def_cfa_offset 16
 182              		.loc 1 127 0
 183 0002 0446     		mov	r4, r0
 184              		.cfi_offset 14, -4
 185              		.cfi_offset 5, -8
 186              		.cfi_offset 4, -12
 187              		.cfi_offset 3, -16
 188              		.loc 1 134 0
 189 0004 0068     		ldr	r0, [r0, #0]
 190              	.LVL15:
 191 0006 A042     		cmp	r0, r4
 192 0008 0AD0     		beq	.L7
 193              		.loc 1 135 0
 194 000a 6FF00105 		mvn	r5, #1
 195              	.L10:
 196              	.LVL16:
 197              	.LBB22:
 198              	.LBB23:
 199              		.loc 2 61 0
 200 000e 0368     		ldr	r3, [r0, #0]
 201 0010 2360     		str	r3, [r4, #0]
 202 0012 5C60     		str	r4, [r3, #4]
 203              	.LBE23:
 204              	.LBE22:
 205              		.loc 1 135 0
 206 0014 FFF7FEFF 		bl	chSchReadyI
 207              	.LVL17:
 208 0018 0562     		str	r5, [r0, #32]
 209              		.loc 1 134 0
 210 001a 2068     		ldr	r0, [r4, #0]
 211 001c A042     		cmp	r0, r4
 212 001e F6D1     		bne	.L10
 213              	.LVL18:
 214              	.L7:
 215 0020 38BD     		pop	{r3, r4, r5, pc}
 216              		.cfi_endproc
 217              	.LFE11:
 218              		.size	chCondBroadcastI, .-chCondBroadcastI
 219 0022 00BFAFF3 		.section	.text.chCondBroadcast,"ax",%progbits
ARM GAS  /tmp/ccgqinv2.s 			page 5


 219      0080AFF3 
 219      0080AFF3 
 219      0080
 220              		.align	2
 221              		.p2align 4,,15
 222              		.global	chCondBroadcast
 223              		.thumb
 224              		.thumb_func
 225              		.type	chCondBroadcast, %function
 226              	chCondBroadcast:
 227              	.LFB10:
 228              		.loc 1 108 0
 229              		.cfi_startproc
 230              		@ args = 0, pretend = 0, frame = 0
 231              		@ frame_needed = 0, uses_anonymous_args = 0
 232              	.LVL19:
 233 0000 08B5     		push	{r3, lr}
 234              	.LCFI3:
 235              		.cfi_def_cfa_offset 8
 236              	.LBB24:
 237              		.loc 1 110 0
 238 0002 2023     		movs	r3, #32
 239              		.cfi_offset 14, -4
 240              		.cfi_offset 3, -8
 241              	.LVL20:
 242              	@ 110 "chibios/os/kernel/src/chcond.c" 1
 243 0004 83F31188 		msr     BASEPRI, r3
 244              	@ 0 "" 2
 245              	.LVL21:
 246              		.thumb
 247              	.LBE24:
 248              		.loc 1 111 0
 249 0008 FFF7FEFF 		bl	chCondBroadcastI
 250              	.LVL22:
 251              		.loc 1 112 0
 252 000c FFF7FEFF 		bl	chSchRescheduleS
 253              	.LBB25:
 254              		.loc 1 113 0
 255 0010 0023     		movs	r3, #0
 256              	.LVL23:
 257              	@ 113 "chibios/os/kernel/src/chcond.c" 1
 258 0012 83F31188 		msr     BASEPRI, r3
 259              	@ 0 "" 2
 260              	.LVL24:
 261              		.thumb
 262              	.LBE25:
 263              		.loc 1 114 0
 264 0016 08BD     		pop	{r3, pc}
 265              		.cfi_endproc
 266              	.LFE10:
 267              		.size	chCondBroadcast, .-chCondBroadcast
 268 0018 AFF30080 		.section	.text.chCondWaitS,"ax",%progbits
 268      AFF30080 
 269              		.align	2
 270              		.p2align 4,,15
 271              		.global	chCondWaitS
 272              		.thumb
ARM GAS  /tmp/ccgqinv2.s 			page 6


 273              		.thumb_func
 274              		.type	chCondWaitS, %function
 275              	chCondWaitS:
 276              	.LFB13:
 277              		.loc 1 181 0
 278              		.cfi_startproc
 279              		@ args = 0, pretend = 0, frame = 0
 280              		@ frame_needed = 0, uses_anonymous_args = 0
 281              	.LVL25:
 282              		.loc 1 182 0
 283 0000 40F20003 		movw	r3, #:lower16:rlist
 284              		.loc 1 181 0
 285 0004 70B5     		push	{r4, r5, r6, lr}
 286              	.LCFI4:
 287              		.cfi_def_cfa_offset 16
 288              		.loc 1 182 0
 289 0006 C0F20003 		movt	r3, #:upper16:rlist
 290              		.loc 1 181 0
 291 000a 0546     		mov	r5, r0
 292              		.cfi_offset 14, -4
 293              		.cfi_offset 6, -8
 294              		.cfi_offset 5, -12
 295              		.cfi_offset 4, -16
 296              		.loc 1 182 0
 297 000c DC69     		ldr	r4, [r3, #28]
 298              	.LVL26:
 299              		.loc 1 191 0
 300 000e FFF7FEFF 		bl	chMtxUnlockS
 301              	.LVL27:
 302              		.loc 1 192 0
 303 0012 2562     		str	r5, [r4, #32]
 304              		.loc 1 191 0
 305 0014 0646     		mov	r6, r0
 306              	.LVL28:
 307              	.LBB26:
 308              	.LBB27:
 309              		.loc 2 42 0
 310 0016 2B46     		mov	r3, r5
 311              	.LVL29:
 312 0018 2A46     		mov	r2, r5
 313 001a 03E0     		b	.L15
 314              	.LVL30:
 315              	.L18:
 316              		.loc 2 45 0
 317 001c 9068     		ldr	r0, [r2, #8]
 318 001e A168     		ldr	r1, [r4, #8]
 319 0020 8842     		cmp	r0, r1
 320 0022 10D3     		bcc	.L17
 321              	.L15:
 322              		.loc 2 44 0
 323 0024 1268     		ldr	r2, [r2, #0]
 324              	.LVL31:
 325              		.loc 2 45 0
 326 0026 9542     		cmp	r5, r2
 327 0028 F8D1     		bne	.L18
 328              	.L14:
 329              		.loc 2 47 0
ARM GAS  /tmp/ccgqinv2.s 			page 7


 330 002a 5A68     		ldr	r2, [r3, #4]
 331              	.LVL32:
 332              		.loc 2 46 0
 333 002c 2360     		str	r3, [r4, #0]
 334              		.loc 2 47 0
 335 002e 6260     		str	r2, [r4, #4]
 336              		.loc 2 48 0
 337 0030 1460     		str	r4, [r2, #0]
 338 0032 5C60     		str	r4, [r3, #4]
 339              	.LBE27:
 340              	.LBE26:
 341              		.loc 1 194 0
 342 0034 0520     		movs	r0, #5
 343 0036 FFF7FEFF 		bl	chSchGoSleepS
 344              		.loc 1 195 0
 345 003a 246A     		ldr	r4, [r4, #32]
 346              	.LVL33:
 347              		.loc 1 196 0
 348 003c 3046     		mov	r0, r6
 349 003e FFF7FEFF 		bl	chMtxLockS
 350              		.loc 1 198 0
 351 0042 2046     		mov	r0, r4
 352 0044 70BD     		pop	{r4, r5, r6, pc}
 353              	.LVL34:
 354              	.L17:
 355              	.LBB29:
 356              	.LBB28:
 357              		.loc 2 44 0
 358 0046 1346     		mov	r3, r2
 359 0048 EFE7     		b	.L14
 360              	.LBE28:
 361              	.LBE29:
 362              		.cfi_endproc
 363              	.LFE13:
 364              		.size	chCondWaitS, .-chCondWaitS
 365 004a 00BFAFF3 		.section	.text.chCondWait,"ax",%progbits
 365      0080
 366              		.align	2
 367              		.p2align 4,,15
 368              		.global	chCondWait
 369              		.thumb
 370              		.thumb_func
 371              		.type	chCondWait, %function
 372              	chCondWait:
 373              	.LFB12:
 374              		.loc 1 155 0
 375              		.cfi_startproc
 376              		@ args = 0, pretend = 0, frame = 0
 377              		@ frame_needed = 0, uses_anonymous_args = 0
 378              	.LVL35:
 379 0000 08B5     		push	{r3, lr}
 380              	.LCFI5:
 381              		.cfi_def_cfa_offset 8
 382              	.LBB30:
 383              		.loc 1 158 0
 384 0002 2023     		movs	r3, #32
 385              		.cfi_offset 14, -4
ARM GAS  /tmp/ccgqinv2.s 			page 8


 386              		.cfi_offset 3, -8
 387              	.LVL36:
 388              	@ 158 "chibios/os/kernel/src/chcond.c" 1
 389 0004 83F31188 		msr     BASEPRI, r3
 390              	@ 0 "" 2
 391              	.LVL37:
 392              		.thumb
 393              	.LBE30:
 394              		.loc 1 159 0
 395 0008 FFF7FEFF 		bl	chCondWaitS
 396              	.LVL38:
 397              	.LBB31:
 398              		.loc 1 160 0
 399 000c 0023     		movs	r3, #0
 400              	.LVL39:
 401              	@ 160 "chibios/os/kernel/src/chcond.c" 1
 402 000e 83F31188 		msr     BASEPRI, r3
 403              	@ 0 "" 2
 404              	.LVL40:
 405              		.thumb
 406              	.LBE31:
 407              		.loc 1 162 0
 408 0012 08BD     		pop	{r3, pc}
 409              		.cfi_endproc
 410              	.LFE12:
 411              		.size	chCondWait, .-chCondWait
 412 0014 AFF30080 		.section	.text.chCondWaitTimeoutS,"ax",%progbits
 412      AFF30080 
 412      AFF30080 
 413              		.align	2
 414              		.p2align 4,,15
 415              		.global	chCondWaitTimeoutS
 416              		.thumb
 417              		.thumb_func
 418              		.type	chCondWaitTimeoutS, %function
 419              	chCondWaitTimeoutS:
 420              	.LFB15:
 421              		.loc 1 266 0
 422              		.cfi_startproc
 423              		@ args = 0, pretend = 0, frame = 0
 424              		@ frame_needed = 0, uses_anonymous_args = 0
 425              	.LVL41:
 426 0000 F8B5     		push	{r3, r4, r5, r6, r7, lr}
 427              	.LCFI6:
 428              		.cfi_def_cfa_offset 24
 429              		.loc 1 266 0
 430 0002 0446     		mov	r4, r0
 431              		.cfi_offset 14, -4
 432              		.cfi_offset 7, -8
 433              		.cfi_offset 6, -12
 434              		.cfi_offset 5, -16
 435              		.cfi_offset 4, -20
 436              		.cfi_offset 3, -24
 437 0004 0E46     		mov	r6, r1
 438              		.loc 1 275 0
 439 0006 FFF7FEFF 		bl	chMtxUnlockS
 440              	.LVL42:
ARM GAS  /tmp/ccgqinv2.s 			page 9


 441              		.loc 1 276 0
 442 000a 40F20003 		movw	r3, #:lower16:rlist
 443 000e C0F20003 		movt	r3, #:upper16:rlist
 444              		.loc 1 275 0
 445 0012 0546     		mov	r5, r0
 446              	.LVL43:
 447              		.loc 1 276 0
 448 0014 D869     		ldr	r0, [r3, #28]
 449              	.LVL44:
 450              	.LBB32:
 451              	.LBB34:
 452              		.loc 2 42 0
 453 0016 2746     		mov	r7, r4
 454              	.LBE34:
 455              	.LBE32:
 456              		.loc 1 276 0
 457 0018 0462     		str	r4, [r0, #32]
 458              	.LVL45:
 459              	.LBB36:
 460              	.LBB33:
 461              		.loc 2 42 0
 462 001a 2346     		mov	r3, r4
 463              	.LVL46:
 464 001c 03E0     		b	.L22
 465              	.LVL47:
 466              	.L26:
 467              		.loc 2 45 0
 468 001e 9968     		ldr	r1, [r3, #8]
 469 0020 8268     		ldr	r2, [r0, #8]
 470 0022 9142     		cmp	r1, r2
 471 0024 14D3     		bcc	.L25
 472              	.L22:
 473              		.loc 2 44 0
 474 0026 1B68     		ldr	r3, [r3, #0]
 475              	.LVL48:
 476              		.loc 2 45 0
 477 0028 9C42     		cmp	r4, r3
 478 002a F8D1     		bne	.L26
 479              	.L21:
 480              		.loc 2 47 0
 481 002c 7C68     		ldr	r4, [r7, #4]
 482              	.LVL49:
 483              		.loc 2 46 0
 484 002e 0760     		str	r7, [r0, #0]
 485              		.loc 2 47 0
 486 0030 4460     		str	r4, [r0, #4]
 487              		.loc 2 48 0
 488 0032 2060     		str	r0, [r4, #0]
 489 0034 7860     		str	r0, [r7, #4]
 490              	.LBE33:
 491              	.LBE36:
 492              		.loc 1 278 0
 493 0036 3146     		mov	r1, r6
 494 0038 0520     		movs	r0, #5
 495 003a FFF7FEFF 		bl	chSchGoSleepTimeoutS
 496              	.LVL50:
 497              		.loc 1 279 0
ARM GAS  /tmp/ccgqinv2.s 			page 10


 498 003e B0F1FF3F 		cmp	r0, #-1
 499              		.loc 1 278 0
 500 0042 0446     		mov	r4, r0
 501              	.LVL51:
 502              		.loc 1 279 0
 503 0044 02D0     		beq	.L23
 504              		.loc 1 280 0
 505 0046 2846     		mov	r0, r5
 506              	.LVL52:
 507 0048 FFF7FEFF 		bl	chMtxLockS
 508              	.L23:
 509              		.loc 1 282 0
 510 004c 2046     		mov	r0, r4
 511 004e F8BD     		pop	{r3, r4, r5, r6, r7, pc}
 512              	.LVL53:
 513              	.L25:
 514              	.LBB37:
 515              	.LBB35:
 516              		.loc 2 44 0
 517 0050 1F46     		mov	r7, r3
 518 0052 EBE7     		b	.L21
 519              	.LBE35:
 520              	.LBE37:
 521              		.cfi_endproc
 522              	.LFE15:
 523              		.size	chCondWaitTimeoutS, .-chCondWaitTimeoutS
 524 0054 AFF30080 		.section	.text.chCondWaitTimeout,"ax",%progbits
 524      AFF30080 
 524      AFF30080 
 525              		.align	2
 526              		.p2align 4,,15
 527              		.global	chCondWaitTimeout
 528              		.thumb
 529              		.thumb_func
 530              		.type	chCondWaitTimeout, %function
 531              	chCondWaitTimeout:
 532              	.LFB14:
 533              		.loc 1 229 0
 534              		.cfi_startproc
 535              		@ args = 0, pretend = 0, frame = 0
 536              		@ frame_needed = 0, uses_anonymous_args = 0
 537              	.LVL54:
 538 0000 08B5     		push	{r3, lr}
 539              	.LCFI7:
 540              		.cfi_def_cfa_offset 8
 541              	.LBB38:
 542              		.loc 1 232 0
 543 0002 2023     		movs	r3, #32
 544              		.cfi_offset 14, -4
 545              		.cfi_offset 3, -8
 546              	.LVL55:
 547              	@ 232 "chibios/os/kernel/src/chcond.c" 1
 548 0004 83F31188 		msr     BASEPRI, r3
 549              	@ 0 "" 2
 550              	.LVL56:
 551              		.thumb
 552              	.LBE38:
ARM GAS  /tmp/ccgqinv2.s 			page 11


 553              		.loc 1 233 0
 554 0008 FFF7FEFF 		bl	chCondWaitTimeoutS
 555              	.LVL57:
 556              	.LBB39:
 557              		.loc 1 234 0
 558 000c 0023     		movs	r3, #0
 559              	.LVL58:
 560              	@ 234 "chibios/os/kernel/src/chcond.c" 1
 561 000e 83F31188 		msr     BASEPRI, r3
 562              	@ 0 "" 2
 563              	.LVL59:
 564              		.thumb
 565              	.LBE39:
 566              		.loc 1 236 0
 567 0012 08BD     		pop	{r3, pc}
 568              		.cfi_endproc
 569              	.LFE14:
 570              		.size	chCondWaitTimeout, .-chCondWaitTimeout
 571 0014 AFF30080 		.text
 571      AFF30080 
 571      AFF30080 
 572              	.Letext0:
 573              		.section	.debug_loc,"",%progbits
 574              	.Ldebug_loc0:
 575              	.LLST0:
 576 0000 00000000 		.4byte	.LFB8
 577 0004 02000000 		.4byte	.LCFI0
 578 0008 0200     		.2byte	0x2
 579 000a 7D       		.byte	0x7d
 580 000b 00       		.sleb128 0
 581 000c 02000000 		.4byte	.LCFI0
 582 0010 24000000 		.4byte	.LFE8
 583 0014 0200     		.2byte	0x2
 584 0016 7D       		.byte	0x7d
 585 0017 08       		.sleb128 8
 586 0018 00000000 		.4byte	0x0
 587 001c 00000000 		.4byte	0x0
 588              	.LLST1:
 589 0020 00000000 		.4byte	.LVL1
 590 0024 0C000000 		.4byte	.LVL4
 591 0028 0100     		.2byte	0x1
 592 002a 50       		.byte	0x50
 593 002b 0C000000 		.4byte	.LVL4
 594 002f 1B000000 		.4byte	.LVL7-1
 595 0033 0100     		.2byte	0x1
 596 0035 52       		.byte	0x52
 597 0036 00000000 		.4byte	0x0
 598 003a 00000000 		.4byte	0x0
 599              	.LLST2:
 600 003e 0A000000 		.4byte	.LVL3
 601 0042 12000000 		.4byte	.LVL6
 602 0046 0100     		.2byte	0x1
 603 0048 53       		.byte	0x53
 604 0049 1C000000 		.4byte	.LVL7
 605 004d 1E000000 		.4byte	.LVL8
 606 0051 0100     		.2byte	0x1
 607 0053 53       		.byte	0x53
ARM GAS  /tmp/ccgqinv2.s 			page 12


 608 0054 00000000 		.4byte	0x0
 609 0058 00000000 		.4byte	0x0
 610              	.LLST3:
 611 005c 10000000 		.4byte	.LVL5
 612 0060 1B000000 		.4byte	.LVL7-1
 613 0064 0100     		.2byte	0x1
 614 0066 52       		.byte	0x52
 615 0067 00000000 		.4byte	0x0
 616 006b 00000000 		.4byte	0x0
 617              	.LLST4:
 618 006f 10000000 		.4byte	.LVL5
 619 0073 1B000000 		.4byte	.LVL7-1
 620 0077 0200     		.2byte	0x2
 621 0079 72       		.byte	0x72
 622 007a 00       		.sleb128 0
 623 007b 00000000 		.4byte	0x0
 624 007f 00000000 		.4byte	0x0
 625              	.LLST5:
 626 0083 22000000 		.4byte	.LVL9
 627 0087 24000000 		.4byte	.LFE8
 628 008b 0100     		.2byte	0x1
 629 008d 53       		.byte	0x53
 630 008e 00000000 		.4byte	0x0
 631 0092 00000000 		.4byte	0x0
 632              	.LLST6:
 633 0096 00000000 		.4byte	.LFB9
 634 009a 02000000 		.4byte	.LCFI1
 635 009e 0200     		.2byte	0x2
 636 00a0 7D       		.byte	0x7d
 637 00a1 00       		.sleb128 0
 638 00a2 02000000 		.4byte	.LCFI1
 639 00a6 1A000000 		.4byte	.LFE9
 640 00aa 0200     		.2byte	0x2
 641 00ac 7D       		.byte	0x7d
 642 00ad 08       		.sleb128 8
 643 00ae 00000000 		.4byte	0x0
 644 00b2 00000000 		.4byte	0x0
 645              	.LLST7:
 646 00b6 00000000 		.4byte	.LVL10
 647 00ba 06000000 		.4byte	.LVL11
 648 00be 0100     		.2byte	0x1
 649 00c0 50       		.byte	0x50
 650 00c1 06000000 		.4byte	.LVL11
 651 00c5 13000000 		.4byte	.LVL13-1
 652 00c9 0100     		.2byte	0x1
 653 00cb 53       		.byte	0x53
 654 00cc 00000000 		.4byte	0x0
 655 00d0 00000000 		.4byte	0x0
 656              	.LLST8:
 657 00d4 0A000000 		.4byte	.LVL12
 658 00d8 13000000 		.4byte	.LVL13-1
 659 00dc 0100     		.2byte	0x1
 660 00de 53       		.byte	0x53
 661 00df 00000000 		.4byte	0x0
 662 00e3 00000000 		.4byte	0x0
 663              	.LLST9:
 664 00e7 0A000000 		.4byte	.LVL12
ARM GAS  /tmp/ccgqinv2.s 			page 13


 665 00eb 13000000 		.4byte	.LVL13-1
 666 00ef 0200     		.2byte	0x2
 667 00f1 73       		.byte	0x73
 668 00f2 00       		.sleb128 0
 669 00f3 00000000 		.4byte	0x0
 670 00f7 00000000 		.4byte	0x0
 671              	.LLST10:
 672 00fb 00000000 		.4byte	.LFB11
 673 00ff 02000000 		.4byte	.LCFI2
 674 0103 0200     		.2byte	0x2
 675 0105 7D       		.byte	0x7d
 676 0106 00       		.sleb128 0
 677 0107 02000000 		.4byte	.LCFI2
 678 010b 22000000 		.4byte	.LFE11
 679 010f 0200     		.2byte	0x2
 680 0111 7D       		.byte	0x7d
 681 0112 10       		.sleb128 16
 682 0113 00000000 		.4byte	0x0
 683 0117 00000000 		.4byte	0x0
 684              	.LLST11:
 685 011b 00000000 		.4byte	.LVL14
 686 011f 06000000 		.4byte	.LVL15
 687 0123 0100     		.2byte	0x1
 688 0125 50       		.byte	0x50
 689 0126 06000000 		.4byte	.LVL15
 690 012a 22000000 		.4byte	.LFE11
 691 012e 0100     		.2byte	0x1
 692 0130 54       		.byte	0x54
 693 0131 00000000 		.4byte	0x0
 694 0135 00000000 		.4byte	0x0
 695              	.LLST12:
 696 0139 0E000000 		.4byte	.LVL16
 697 013d 20000000 		.4byte	.LVL18
 698 0141 0100     		.2byte	0x1
 699 0143 54       		.byte	0x54
 700 0144 00000000 		.4byte	0x0
 701 0148 00000000 		.4byte	0x0
 702              	.LLST13:
 703 014c 0E000000 		.4byte	.LVL16
 704 0150 17000000 		.4byte	.LVL17-1
 705 0154 0100     		.2byte	0x1
 706 0156 50       		.byte	0x50
 707 0157 00000000 		.4byte	0x0
 708 015b 00000000 		.4byte	0x0
 709              	.LLST14:
 710 015f 00000000 		.4byte	.LFB10
 711 0163 02000000 		.4byte	.LCFI3
 712 0167 0200     		.2byte	0x2
 713 0169 7D       		.byte	0x7d
 714 016a 00       		.sleb128 0
 715 016b 02000000 		.4byte	.LCFI3
 716 016f 18000000 		.4byte	.LFE10
 717 0173 0200     		.2byte	0x2
 718 0175 7D       		.byte	0x7d
 719 0176 08       		.sleb128 8
 720 0177 00000000 		.4byte	0x0
 721 017b 00000000 		.4byte	0x0
ARM GAS  /tmp/ccgqinv2.s 			page 14


 722              	.LLST15:
 723 017f 00000000 		.4byte	.LVL19
 724 0183 0B000000 		.4byte	.LVL22-1
 725 0187 0100     		.2byte	0x1
 726 0189 50       		.byte	0x50
 727 018a 00000000 		.4byte	0x0
 728 018e 00000000 		.4byte	0x0
 729              	.LLST16:
 730 0192 08000000 		.4byte	.LVL21
 731 0196 0B000000 		.4byte	.LVL22-1
 732 019a 0100     		.2byte	0x1
 733 019c 53       		.byte	0x53
 734 019d 00000000 		.4byte	0x0
 735 01a1 00000000 		.4byte	0x0
 736              	.LLST17:
 737 01a5 16000000 		.4byte	.LVL24
 738 01a9 18000000 		.4byte	.LFE10
 739 01ad 0100     		.2byte	0x1
 740 01af 53       		.byte	0x53
 741 01b0 00000000 		.4byte	0x0
 742 01b4 00000000 		.4byte	0x0
 743              	.LLST18:
 744 01b8 00000000 		.4byte	.LFB13
 745 01bc 06000000 		.4byte	.LCFI4
 746 01c0 0200     		.2byte	0x2
 747 01c2 7D       		.byte	0x7d
 748 01c3 00       		.sleb128 0
 749 01c4 06000000 		.4byte	.LCFI4
 750 01c8 4A000000 		.4byte	.LFE13
 751 01cc 0200     		.2byte	0x2
 752 01ce 7D       		.byte	0x7d
 753 01cf 10       		.sleb128 16
 754 01d0 00000000 		.4byte	0x0
 755 01d4 00000000 		.4byte	0x0
 756              	.LLST19:
 757 01d8 00000000 		.4byte	.LVL25
 758 01dc 11000000 		.4byte	.LVL27-1
 759 01e0 0100     		.2byte	0x1
 760 01e2 50       		.byte	0x50
 761 01e3 11000000 		.4byte	.LVL27-1
 762 01e7 4A000000 		.4byte	.LFE13
 763 01eb 0100     		.2byte	0x1
 764 01ed 55       		.byte	0x55
 765 01ee 00000000 		.4byte	0x0
 766 01f2 00000000 		.4byte	0x0
 767              	.LLST20:
 768 01f6 0E000000 		.4byte	.LVL26
 769 01fa 11000000 		.4byte	.LVL27-1
 770 01fe 0200     		.2byte	0x2
 771 0200 73       		.byte	0x73
 772 0201 1C       		.sleb128 28
 773 0202 11000000 		.4byte	.LVL27-1
 774 0206 3C000000 		.4byte	.LVL33
 775 020a 0100     		.2byte	0x1
 776 020c 54       		.byte	0x54
 777 020d 46000000 		.4byte	.LVL34
 778 0211 4A000000 		.4byte	.LFE13
ARM GAS  /tmp/ccgqinv2.s 			page 15


 779 0215 0100     		.2byte	0x1
 780 0217 54       		.byte	0x54
 781 0218 00000000 		.4byte	0x0
 782 021c 00000000 		.4byte	0x0
 783              	.LLST21:
 784 0220 16000000 		.4byte	.LVL28
 785 0224 1C000000 		.4byte	.LVL30
 786 0228 0100     		.2byte	0x1
 787 022a 50       		.byte	0x50
 788 022b 1C000000 		.4byte	.LVL30
 789 022f 4A000000 		.4byte	.LFE13
 790 0233 0100     		.2byte	0x1
 791 0235 56       		.byte	0x56
 792 0236 00000000 		.4byte	0x0
 793 023a 00000000 		.4byte	0x0
 794              	.LLST22:
 795 023e 3C000000 		.4byte	.LVL33
 796 0242 46000000 		.4byte	.LVL34
 797 0246 0100     		.2byte	0x1
 798 0248 54       		.byte	0x54
 799 0249 00000000 		.4byte	0x0
 800 024d 00000000 		.4byte	0x0
 801              	.LLST23:
 802 0251 16000000 		.4byte	.LVL28
 803 0255 3C000000 		.4byte	.LVL33
 804 0259 0100     		.2byte	0x1
 805 025b 54       		.byte	0x54
 806 025c 46000000 		.4byte	.LVL34
 807 0260 4A000000 		.4byte	.LFE13
 808 0264 0100     		.2byte	0x1
 809 0266 54       		.byte	0x54
 810 0267 00000000 		.4byte	0x0
 811 026b 00000000 		.4byte	0x0
 812              	.LLST24:
 813 026f 18000000 		.4byte	.LVL29
 814 0273 1C000000 		.4byte	.LVL30
 815 0277 0100     		.2byte	0x1
 816 0279 55       		.byte	0x55
 817 027a 1C000000 		.4byte	.LVL30
 818 027e 26000000 		.4byte	.LVL31
 819 0282 0100     		.2byte	0x1
 820 0284 52       		.byte	0x52
 821 0285 26000000 		.4byte	.LVL31
 822 0289 2C000000 		.4byte	.LVL32
 823 028d 0100     		.2byte	0x1
 824 028f 52       		.byte	0x52
 825 0290 46000000 		.4byte	.LVL34
 826 0294 4A000000 		.4byte	.LFE13
 827 0298 0100     		.2byte	0x1
 828 029a 52       		.byte	0x52
 829 029b 00000000 		.4byte	0x0
 830 029f 00000000 		.4byte	0x0
 831              	.LLST25:
 832 02a3 00000000 		.4byte	.LFB12
 833 02a7 02000000 		.4byte	.LCFI5
 834 02ab 0200     		.2byte	0x2
 835 02ad 7D       		.byte	0x7d
ARM GAS  /tmp/ccgqinv2.s 			page 16


 836 02ae 00       		.sleb128 0
 837 02af 02000000 		.4byte	.LCFI5
 838 02b3 14000000 		.4byte	.LFE12
 839 02b7 0200     		.2byte	0x2
 840 02b9 7D       		.byte	0x7d
 841 02ba 08       		.sleb128 8
 842 02bb 00000000 		.4byte	0x0
 843 02bf 00000000 		.4byte	0x0
 844              	.LLST26:
 845 02c3 00000000 		.4byte	.LVL35
 846 02c7 0B000000 		.4byte	.LVL38-1
 847 02cb 0100     		.2byte	0x1
 848 02cd 50       		.byte	0x50
 849 02ce 00000000 		.4byte	0x0
 850 02d2 00000000 		.4byte	0x0
 851              	.LLST27:
 852 02d6 08000000 		.4byte	.LVL37
 853 02da 0B000000 		.4byte	.LVL38-1
 854 02de 0100     		.2byte	0x1
 855 02e0 53       		.byte	0x53
 856 02e1 00000000 		.4byte	0x0
 857 02e5 00000000 		.4byte	0x0
 858              	.LLST28:
 859 02e9 12000000 		.4byte	.LVL40
 860 02ed 14000000 		.4byte	.LFE12
 861 02f1 0100     		.2byte	0x1
 862 02f3 53       		.byte	0x53
 863 02f4 00000000 		.4byte	0x0
 864 02f8 00000000 		.4byte	0x0
 865              	.LLST29:
 866 02fc 00000000 		.4byte	.LFB15
 867 0300 02000000 		.4byte	.LCFI6
 868 0304 0200     		.2byte	0x2
 869 0306 7D       		.byte	0x7d
 870 0307 00       		.sleb128 0
 871 0308 02000000 		.4byte	.LCFI6
 872 030c 54000000 		.4byte	.LFE15
 873 0310 0200     		.2byte	0x2
 874 0312 7D       		.byte	0x7d
 875 0313 18       		.sleb128 24
 876 0314 00000000 		.4byte	0x0
 877 0318 00000000 		.4byte	0x0
 878              	.LLST30:
 879 031c 00000000 		.4byte	.LVL41
 880 0320 09000000 		.4byte	.LVL42-1
 881 0324 0100     		.2byte	0x1
 882 0326 50       		.byte	0x50
 883 0327 09000000 		.4byte	.LVL42-1
 884 032b 2E000000 		.4byte	.LVL49
 885 032f 0100     		.2byte	0x1
 886 0331 54       		.byte	0x54
 887 0332 50000000 		.4byte	.LVL53
 888 0336 54000000 		.4byte	.LFE15
 889 033a 0100     		.2byte	0x1
 890 033c 54       		.byte	0x54
 891 033d 00000000 		.4byte	0x0
 892 0341 00000000 		.4byte	0x0
ARM GAS  /tmp/ccgqinv2.s 			page 17


 893              	.LLST31:
 894 0345 00000000 		.4byte	.LVL41
 895 0349 09000000 		.4byte	.LVL42-1
 896 034d 0100     		.2byte	0x1
 897 034f 51       		.byte	0x51
 898 0350 09000000 		.4byte	.LVL42-1
 899 0354 54000000 		.4byte	.LFE15
 900 0358 0100     		.2byte	0x1
 901 035a 56       		.byte	0x56
 902 035b 00000000 		.4byte	0x0
 903 035f 00000000 		.4byte	0x0
 904              	.LLST32:
 905 0363 14000000 		.4byte	.LVL43
 906 0367 16000000 		.4byte	.LVL44
 907 036b 0100     		.2byte	0x1
 908 036d 50       		.byte	0x50
 909 036e 16000000 		.4byte	.LVL44
 910 0372 54000000 		.4byte	.LFE15
 911 0376 0100     		.2byte	0x1
 912 0378 55       		.byte	0x55
 913 0379 00000000 		.4byte	0x0
 914 037d 00000000 		.4byte	0x0
 915              	.LLST33:
 916 0381 44000000 		.4byte	.LVL51
 917 0385 48000000 		.4byte	.LVL52
 918 0389 0100     		.2byte	0x1
 919 038b 50       		.byte	0x50
 920 038c 48000000 		.4byte	.LVL52
 921 0390 50000000 		.4byte	.LVL53
 922 0394 0100     		.2byte	0x1
 923 0396 54       		.byte	0x54
 924 0397 00000000 		.4byte	0x0
 925 039b 00000000 		.4byte	0x0
 926              	.LLST34:
 927 039f 1A000000 		.4byte	.LVL45
 928 03a3 2E000000 		.4byte	.LVL49
 929 03a7 0100     		.2byte	0x1
 930 03a9 54       		.byte	0x54
 931 03aa 50000000 		.4byte	.LVL53
 932 03ae 54000000 		.4byte	.LFE15
 933 03b2 0100     		.2byte	0x1
 934 03b4 54       		.byte	0x54
 935 03b5 00000000 		.4byte	0x0
 936 03b9 00000000 		.4byte	0x0
 937              	.LLST35:
 938 03bd 1A000000 		.4byte	.LVL45
 939 03c1 1C000000 		.4byte	.LVL46
 940 03c5 0200     		.2byte	0x2
 941 03c7 73       		.byte	0x73
 942 03c8 1C       		.sleb128 28
 943 03c9 50000000 		.4byte	.LVL53
 944 03cd 54000000 		.4byte	.LFE15
 945 03d1 0100     		.2byte	0x1
 946 03d3 50       		.byte	0x50
 947 03d4 00000000 		.4byte	0x0
 948 03d8 00000000 		.4byte	0x0
 949              	.LLST36:
ARM GAS  /tmp/ccgqinv2.s 			page 18


 950 03dc 1A000000 		.4byte	.LVL45
 951 03e0 1E000000 		.4byte	.LVL47
 952 03e4 0100     		.2byte	0x1
 953 03e6 54       		.byte	0x54
 954 03e7 1E000000 		.4byte	.LVL47
 955 03eb 28000000 		.4byte	.LVL48
 956 03ef 0100     		.2byte	0x1
 957 03f1 53       		.byte	0x53
 958 03f2 28000000 		.4byte	.LVL48
 959 03f6 3D000000 		.4byte	.LVL50-1
 960 03fa 0100     		.2byte	0x1
 961 03fc 53       		.byte	0x53
 962 03fd 50000000 		.4byte	.LVL53
 963 0401 54000000 		.4byte	.LFE15
 964 0405 0100     		.2byte	0x1
 965 0407 53       		.byte	0x53
 966 0408 00000000 		.4byte	0x0
 967 040c 00000000 		.4byte	0x0
 968              	.LLST37:
 969 0410 00000000 		.4byte	.LFB14
 970 0414 02000000 		.4byte	.LCFI7
 971 0418 0200     		.2byte	0x2
 972 041a 7D       		.byte	0x7d
 973 041b 00       		.sleb128 0
 974 041c 02000000 		.4byte	.LCFI7
 975 0420 14000000 		.4byte	.LFE14
 976 0424 0200     		.2byte	0x2
 977 0426 7D       		.byte	0x7d
 978 0427 08       		.sleb128 8
 979 0428 00000000 		.4byte	0x0
 980 042c 00000000 		.4byte	0x0
 981              	.LLST38:
 982 0430 00000000 		.4byte	.LVL54
 983 0434 0B000000 		.4byte	.LVL57-1
 984 0438 0100     		.2byte	0x1
 985 043a 50       		.byte	0x50
 986 043b 00000000 		.4byte	0x0
 987 043f 00000000 		.4byte	0x0
 988              	.LLST39:
 989 0443 00000000 		.4byte	.LVL54
 990 0447 0B000000 		.4byte	.LVL57-1
 991 044b 0100     		.2byte	0x1
 992 044d 51       		.byte	0x51
 993 044e 00000000 		.4byte	0x0
 994 0452 00000000 		.4byte	0x0
 995              	.LLST40:
 996 0456 08000000 		.4byte	.LVL56
 997 045a 0B000000 		.4byte	.LVL57-1
 998 045e 0100     		.2byte	0x1
 999 0460 53       		.byte	0x53
 1000 0461 00000000 		.4byte	0x0
 1001 0465 00000000 		.4byte	0x0
 1002              	.LLST41:
 1003 0469 12000000 		.4byte	.LVL59
 1004 046d 14000000 		.4byte	.LFE14
 1005 0471 0100     		.2byte	0x1
 1006 0473 53       		.byte	0x53
ARM GAS  /tmp/ccgqinv2.s 			page 19


 1007 0474 00000000 		.4byte	0x0
 1008 0478 00000000 		.4byte	0x0
 1009              		.file 3 "/home/dan/arm-cs-tools/lib/gcc/arm-none-eabi/4.5.1/../../../../arm-none-eabi/include/stdi
 1010              		.file 4 "chibios/os/ports/GCC/ARMCMx/chtypes.h"
 1011              		.file 5 "chibios/os/kernel/include/chlists.h"
 1012              		.file 6 "chibios/os/kernel/include/chthreads.h"
 1013              		.file 7 "chibios/os/ports/GCC/ARMCMx/chcore.h"
 1014              		.file 8 "chibios/os/ports/GCC/ARMCMx/chcore_v7m.h"
 1015              		.file 9 "chibios/os/kernel/include/chschd.h"
 1016              		.file 10 "chibios/os/kernel/include/chmtx.h"
 1017              		.file 11 "chibios/os/kernel/include/chcond.h"
 1018              		.section	.debug_info
 1019 0000 58080000 		.4byte	0x858
 1020 0004 0200     		.2byte	0x2
 1021 0006 00000000 		.4byte	.Ldebug_abbrev0
 1022 000a 04       		.byte	0x4
 1023 000b 01       		.uleb128 0x1
 1024 000c F9020000 		.4byte	.LASF72
 1025 0010 01       		.byte	0x1
 1026 0011 39010000 		.4byte	.LASF73
 1027 0015 6B010000 		.4byte	.LASF74
 1028 0019 00000000 		.4byte	0x0
 1029 001d 00000000 		.4byte	0x0
 1030 0021 A0000000 		.4byte	.Ldebug_ranges0+0xa0
 1031 0025 00000000 		.4byte	.Ldebug_line0
 1032 0029 02       		.uleb128 0x2
 1033 002a 04       		.byte	0x4
 1034 002b 05       		.byte	0x5
 1035 002c 696E7400 		.ascii	"int\000"
 1036 0030 03       		.uleb128 0x3
 1037 0031 04       		.byte	0x4
 1038 0032 07       		.byte	0x7
 1039 0033 C7000000 		.4byte	.LASF0
 1040 0037 03       		.uleb128 0x3
 1041 0038 01       		.byte	0x1
 1042 0039 06       		.byte	0x6
 1043 003a 5E000000 		.4byte	.LASF1
 1044 003e 04       		.uleb128 0x4
 1045 003f F1020000 		.4byte	.LASF5
 1046 0043 03       		.byte	0x3
 1047 0044 2A       		.byte	0x2a
 1048 0045 49000000 		.4byte	0x49
 1049 0049 03       		.uleb128 0x3
 1050 004a 01       		.byte	0x1
 1051 004b 08       		.byte	0x8
 1052 004c 10020000 		.4byte	.LASF2
 1053 0050 03       		.uleb128 0x3
 1054 0051 02       		.byte	0x2
 1055 0052 05       		.byte	0x5
 1056 0053 28020000 		.4byte	.LASF3
 1057 0057 03       		.uleb128 0x3
 1058 0058 02       		.byte	0x2
 1059 0059 07       		.byte	0x7
 1060 005a EE000000 		.4byte	.LASF4
 1061 005e 04       		.uleb128 0x4
 1062 005f 08020000 		.4byte	.LASF6
 1063 0063 03       		.byte	0x3
ARM GAS  /tmp/ccgqinv2.s 			page 20


 1064 0064 4F       		.byte	0x4f
 1065 0065 69000000 		.4byte	0x69
 1066 0069 03       		.uleb128 0x3
 1067 006a 04       		.byte	0x4
 1068 006b 05       		.byte	0x5
 1069 006c 89000000 		.4byte	.LASF7
 1070 0070 04       		.uleb128 0x4
 1071 0071 71020000 		.4byte	.LASF8
 1072 0075 03       		.byte	0x3
 1073 0076 50       		.byte	0x50
 1074 0077 7B000000 		.4byte	0x7b
 1075 007b 03       		.uleb128 0x3
 1076 007c 04       		.byte	0x4
 1077 007d 07       		.byte	0x7
 1078 007e D4000000 		.4byte	.LASF9
 1079 0082 03       		.uleb128 0x3
 1080 0083 08       		.byte	0x8
 1081 0084 05       		.byte	0x5
 1082 0085 50000000 		.4byte	.LASF10
 1083 0089 03       		.uleb128 0x3
 1084 008a 08       		.byte	0x8
 1085 008b 07       		.byte	0x7
 1086 008c 18000000 		.4byte	.LASF11
 1087 0090 04       		.uleb128 0x4
 1088 0091 13010000 		.4byte	.LASF12
 1089 0095 04       		.byte	0x4
 1090 0096 2E       		.byte	0x2e
 1091 0097 3E000000 		.4byte	0x3e
 1092 009b 04       		.uleb128 0x4
 1093 009c 92000000 		.4byte	.LASF13
 1094 00a0 04       		.byte	0x4
 1095 00a1 2F       		.byte	0x2f
 1096 00a2 3E000000 		.4byte	0x3e
 1097 00a6 04       		.uleb128 0x4
 1098 00a7 E3010000 		.4byte	.LASF14
 1099 00ab 04       		.byte	0x4
 1100 00ac 30       		.byte	0x30
 1101 00ad 3E000000 		.4byte	0x3e
 1102 00b1 04       		.uleb128 0x4
 1103 00b2 F2010000 		.4byte	.LASF15
 1104 00b6 04       		.byte	0x4
 1105 00b7 31       		.byte	0x31
 1106 00b8 70000000 		.4byte	0x70
 1107 00bc 04       		.uleb128 0x4
 1108 00bd 01010000 		.4byte	.LASF16
 1109 00c1 04       		.byte	0x4
 1110 00c2 32       		.byte	0x32
 1111 00c3 5E000000 		.4byte	0x5e
 1112 00c7 04       		.uleb128 0x4
 1113 00c8 27010000 		.4byte	.LASF17
 1114 00cc 04       		.byte	0x4
 1115 00cd 34       		.byte	0x34
 1116 00ce 70000000 		.4byte	0x70
 1117 00d2 04       		.uleb128 0x4
 1118 00d3 A1020000 		.4byte	.LASF18
 1119 00d7 04       		.byte	0x4
 1120 00d8 35       		.byte	0x35
ARM GAS  /tmp/ccgqinv2.s 			page 21


 1121 00d9 70000000 		.4byte	0x70
 1122 00dd 04       		.uleb128 0x4
 1123 00de C1000000 		.4byte	.LASF19
 1124 00e2 04       		.byte	0x4
 1125 00e3 36       		.byte	0x36
 1126 00e4 5E000000 		.4byte	0x5e
 1127 00e8 04       		.uleb128 0x4
 1128 00e9 57020000 		.4byte	.LASF20
 1129 00ed 05       		.byte	0x5
 1130 00ee 29       		.byte	0x29
 1131 00ef F3000000 		.4byte	0xf3
 1132 00f3 05       		.uleb128 0x5
 1133 00f4 57020000 		.4byte	.LASF20
 1134 00f8 44       		.byte	0x44
 1135 00f9 06       		.byte	0x6
 1136 00fa 2E       		.byte	0x2e
 1137 00fb FC010000 		.4byte	0x1fc
 1138 00ff 06       		.uleb128 0x6
 1139 0100 48020000 		.4byte	.LASF21
 1140 0104 06       		.byte	0x6
 1141 0105 2F       		.byte	0x2f
 1142 0106 21020000 		.4byte	0x221
 1143 010a 02       		.byte	0x2
 1144 010b 23       		.byte	0x23
 1145 010c 00       		.uleb128 0x0
 1146 010d 06       		.uleb128 0x6
 1147 010e EB010000 		.4byte	.LASF22
 1148 0112 06       		.byte	0x6
 1149 0113 31       		.byte	0x31
 1150 0114 21020000 		.4byte	0x221
 1151 0118 02       		.byte	0x2
 1152 0119 23       		.byte	0x23
 1153 011a 04       		.uleb128 0x4
 1154 011b 06       		.uleb128 0x6
 1155 011c 49000000 		.4byte	.LASF23
 1156 0120 06       		.byte	0x6
 1157 0121 33       		.byte	0x33
 1158 0122 B1000000 		.4byte	0xb1
 1159 0126 02       		.byte	0x2
 1160 0127 23       		.byte	0x23
 1161 0128 08       		.uleb128 0x8
 1162 0129 06       		.uleb128 0x6
 1163 012a 29030000 		.4byte	.LASF24
 1164 012e 06       		.byte	0x6
 1165 012f 34       		.byte	0x34
 1166 0130 62020000 		.4byte	0x262
 1167 0134 02       		.byte	0x2
 1168 0135 23       		.byte	0x23
 1169 0136 0C       		.uleb128 0xc
 1170 0137 06       		.uleb128 0x6
 1171 0138 9B000000 		.4byte	.LASF25
 1172 013c 06       		.byte	0x6
 1173 013d 36       		.byte	0x36
 1174 013e 21020000 		.4byte	0x221
 1175 0142 02       		.byte	0x2
 1176 0143 23       		.byte	0x23
 1177 0144 10       		.uleb128 0x10
ARM GAS  /tmp/ccgqinv2.s 			page 22


 1178 0145 06       		.uleb128 0x6
 1179 0146 A1010000 		.4byte	.LASF26
 1180 014a 06       		.byte	0x6
 1181 014b 37       		.byte	0x37
 1182 014c 21020000 		.4byte	0x221
 1183 0150 02       		.byte	0x2
 1184 0151 23       		.byte	0x23
 1185 0152 14       		.uleb128 0x14
 1186 0153 06       		.uleb128 0x6
 1187 0154 32020000 		.4byte	.LASF27
 1188 0158 06       		.byte	0x6
 1189 0159 3D       		.byte	0x3d
 1190 015a 9B000000 		.4byte	0x9b
 1191 015e 02       		.byte	0x2
 1192 015f 23       		.byte	0x23
 1193 0160 18       		.uleb128 0x18
 1194 0161 06       		.uleb128 0x6
 1195 0162 4F020000 		.4byte	.LASF28
 1196 0166 06       		.byte	0x6
 1197 0167 41       		.byte	0x41
 1198 0168 90000000 		.4byte	0x90
 1199 016c 02       		.byte	0x2
 1200 016d 23       		.byte	0x23
 1201 016e 19       		.uleb128 0x19
 1202 016f 06       		.uleb128 0x6
 1203 0170 DA020000 		.4byte	.LASF29
 1204 0174 06       		.byte	0x6
 1205 0175 46       		.byte	0x46
 1206 0176 A6000000 		.4byte	0xa6
 1207 017a 02       		.byte	0x2
 1208 017b 23       		.byte	0x23
 1209 017c 1A       		.uleb128 0x1a
 1210 017d 06       		.uleb128 0x6
 1211 017e C1020000 		.4byte	.LASF30
 1212 0182 06       		.byte	0x6
 1213 0183 53       		.byte	0x53
 1214 0184 09030000 		.4byte	0x309
 1215 0188 02       		.byte	0x2
 1216 0189 23       		.byte	0x23
 1217 018a 1C       		.uleb128 0x1c
 1218 018b 07       		.uleb128 0x7
 1219 018c 705F7500 		.ascii	"p_u\000"
 1220 0190 06       		.byte	0x6
 1221 0191 78       		.byte	0x78
 1222 0192 F2030000 		.4byte	0x3f2
 1223 0196 02       		.byte	0x2
 1224 0197 23       		.byte	0x23
 1225 0198 20       		.uleb128 0x20
 1226 0199 06       		.uleb128 0x6
 1227 019a 2F030000 		.4byte	.LASF31
 1228 019e 06       		.byte	0x6
 1229 019f 7D       		.byte	0x7d
 1230 01a0 49020000 		.4byte	0x249
 1231 01a4 02       		.byte	0x2
 1232 01a5 23       		.byte	0x23
 1233 01a6 24       		.uleb128 0x24
 1234 01a7 06       		.uleb128 0x6
ARM GAS  /tmp/ccgqinv2.s 			page 23


 1235 01a8 CF020000 		.4byte	.LASF32
 1236 01ac 06       		.byte	0x6
 1237 01ad 83       		.byte	0x83
 1238 01ae 27020000 		.4byte	0x227
 1239 01b2 02       		.byte	0x2
 1240 01b3 23       		.byte	0x23
 1241 01b4 28       		.uleb128 0x28
 1242 01b5 06       		.uleb128 0x6
 1243 01b6 00000000 		.4byte	.LASF33
 1244 01ba 06       		.byte	0x6
 1245 01bb 87       		.byte	0x87
 1246 01bc BC000000 		.4byte	0xbc
 1247 01c0 02       		.byte	0x2
 1248 01c1 23       		.byte	0x23
 1249 01c2 30       		.uleb128 0x30
 1250 01c3 06       		.uleb128 0x6
 1251 01c4 66020000 		.4byte	.LASF34
 1252 01c8 06       		.byte	0x6
 1253 01c9 8D       		.byte	0x8d
 1254 01ca C7000000 		.4byte	0xc7
 1255 01ce 02       		.byte	0x2
 1256 01cf 23       		.byte	0x23
 1257 01d0 34       		.uleb128 0x34
 1258 01d1 06       		.uleb128 0x6
 1259 01d2 1E020000 		.4byte	.LASF35
 1260 01d6 06       		.byte	0x6
 1261 01d7 94       		.byte	0x94
 1262 01d8 27040000 		.4byte	0x427
 1263 01dc 02       		.byte	0x2
 1264 01dd 23       		.byte	0x23
 1265 01de 38       		.uleb128 0x38
 1266 01df 06       		.uleb128 0x6
 1267 01e0 AB020000 		.4byte	.LASF36
 1268 01e4 06       		.byte	0x6
 1269 01e5 98       		.byte	0x98
 1270 01e6 B1000000 		.4byte	0xb1
 1271 01ea 02       		.byte	0x2
 1272 01eb 23       		.byte	0x23
 1273 01ec 3C       		.uleb128 0x3c
 1274 01ed 06       		.uleb128 0x6
 1275 01ee 6A000000 		.4byte	.LASF37
 1276 01f2 06       		.byte	0x6
 1277 01f3 9E       		.byte	0x9e
 1278 01f4 60020000 		.4byte	0x260
 1279 01f8 02       		.byte	0x2
 1280 01f9 23       		.byte	0x23
 1281 01fa 40       		.uleb128 0x40
 1282 01fb 00       		.byte	0x0
 1283 01fc 08       		.uleb128 0x8
 1284 01fd 08       		.byte	0x8
 1285 01fe 05       		.byte	0x5
 1286 01ff 60       		.byte	0x60
 1287 0200 21020000 		.4byte	0x221
 1288 0204 06       		.uleb128 0x6
 1289 0205 48020000 		.4byte	.LASF21
 1290 0209 05       		.byte	0x5
 1291 020a 61       		.byte	0x61
ARM GAS  /tmp/ccgqinv2.s 			page 24


 1292 020b 21020000 		.4byte	0x221
 1293 020f 02       		.byte	0x2
 1294 0210 23       		.byte	0x23
 1295 0211 00       		.uleb128 0x0
 1296 0212 06       		.uleb128 0x6
 1297 0213 EB010000 		.4byte	.LASF22
 1298 0217 05       		.byte	0x5
 1299 0218 63       		.byte	0x63
 1300 0219 21020000 		.4byte	0x221
 1301 021d 02       		.byte	0x2
 1302 021e 23       		.byte	0x23
 1303 021f 04       		.uleb128 0x4
 1304 0220 00       		.byte	0x0
 1305 0221 09       		.uleb128 0x9
 1306 0222 04       		.byte	0x4
 1307 0223 E8000000 		.4byte	0xe8
 1308 0227 04       		.uleb128 0x4
 1309 0228 AF010000 		.4byte	.LASF38
 1310 022c 05       		.byte	0x5
 1311 022d 65       		.byte	0x65
 1312 022e FC010000 		.4byte	0x1fc
 1313 0232 08       		.uleb128 0x8
 1314 0233 04       		.byte	0x4
 1315 0234 05       		.byte	0x5
 1316 0235 6A       		.byte	0x6a
 1317 0236 49020000 		.4byte	0x249
 1318 023a 06       		.uleb128 0x6
 1319 023b 48020000 		.4byte	.LASF21
 1320 023f 05       		.byte	0x5
 1321 0240 6C       		.byte	0x6c
 1322 0241 21020000 		.4byte	0x221
 1323 0245 02       		.byte	0x2
 1324 0246 23       		.byte	0x23
 1325 0247 00       		.uleb128 0x0
 1326 0248 00       		.byte	0x0
 1327 0249 04       		.uleb128 0x4
 1328 024a 1B010000 		.4byte	.LASF39
 1329 024e 05       		.byte	0x5
 1330 024f 6F       		.byte	0x6f
 1331 0250 32020000 		.4byte	0x232
 1332 0254 0A       		.uleb128 0xa
 1333 0255 AB000000 		.4byte	.LASF40
 1334 0259 07       		.byte	0x7
 1335 025a 0F01     		.2byte	0x10f
 1336 025c 60020000 		.4byte	0x260
 1337 0260 0B       		.uleb128 0xb
 1338 0261 04       		.byte	0x4
 1339 0262 0C       		.uleb128 0xc
 1340 0263 E6000000 		.4byte	.LASF41
 1341 0267 04       		.byte	0x4
 1342 0268 07       		.byte	0x7
 1343 0269 2B01     		.2byte	0x12b
 1344 026b 7F020000 		.4byte	0x27f
 1345 026f 0D       		.uleb128 0xd
 1346 0270 72313300 		.ascii	"r13\000"
 1347 0274 07       		.byte	0x7
 1348 0275 2C01     		.2byte	0x12c
ARM GAS  /tmp/ccgqinv2.s 			page 25


 1349 0277 03030000 		.4byte	0x303
 1350 027b 02       		.byte	0x2
 1351 027c 23       		.byte	0x23
 1352 027d 00       		.uleb128 0x0
 1353 027e 00       		.byte	0x0
 1354 027f 05       		.uleb128 0x5
 1355 0280 C8020000 		.4byte	.LASF42
 1356 0284 24       		.byte	0x24
 1357 0285 08       		.byte	0x8
 1358 0286 36       		.byte	0x36
 1359 0287 03030000 		.4byte	0x303
 1360 028b 07       		.uleb128 0x7
 1361 028c 723400   		.ascii	"r4\000"
 1362 028f 08       		.byte	0x8
 1363 0290 37       		.byte	0x37
 1364 0291 54020000 		.4byte	0x254
 1365 0295 02       		.byte	0x2
 1366 0296 23       		.byte	0x23
 1367 0297 00       		.uleb128 0x0
 1368 0298 07       		.uleb128 0x7
 1369 0299 723500   		.ascii	"r5\000"
 1370 029c 08       		.byte	0x8
 1371 029d 38       		.byte	0x38
 1372 029e 54020000 		.4byte	0x254
 1373 02a2 02       		.byte	0x2
 1374 02a3 23       		.byte	0x23
 1375 02a4 04       		.uleb128 0x4
 1376 02a5 07       		.uleb128 0x7
 1377 02a6 723600   		.ascii	"r6\000"
 1378 02a9 08       		.byte	0x8
 1379 02aa 39       		.byte	0x39
 1380 02ab 54020000 		.4byte	0x254
 1381 02af 02       		.byte	0x2
 1382 02b0 23       		.byte	0x23
 1383 02b1 08       		.uleb128 0x8
 1384 02b2 07       		.uleb128 0x7
 1385 02b3 723700   		.ascii	"r7\000"
 1386 02b6 08       		.byte	0x8
 1387 02b7 3B       		.byte	0x3b
 1388 02b8 54020000 		.4byte	0x254
 1389 02bc 02       		.byte	0x2
 1390 02bd 23       		.byte	0x23
 1391 02be 0C       		.uleb128 0xc
 1392 02bf 07       		.uleb128 0x7
 1393 02c0 723800   		.ascii	"r8\000"
 1394 02c3 08       		.byte	0x8
 1395 02c4 3D       		.byte	0x3d
 1396 02c5 54020000 		.4byte	0x254
 1397 02c9 02       		.byte	0x2
 1398 02ca 23       		.byte	0x23
 1399 02cb 10       		.uleb128 0x10
 1400 02cc 07       		.uleb128 0x7
 1401 02cd 723900   		.ascii	"r9\000"
 1402 02d0 08       		.byte	0x8
 1403 02d1 3E       		.byte	0x3e
 1404 02d2 54020000 		.4byte	0x254
 1405 02d6 02       		.byte	0x2
ARM GAS  /tmp/ccgqinv2.s 			page 26


 1406 02d7 23       		.byte	0x23
 1407 02d8 14       		.uleb128 0x14
 1408 02d9 07       		.uleb128 0x7
 1409 02da 72313000 		.ascii	"r10\000"
 1410 02de 08       		.byte	0x8
 1411 02df 3F       		.byte	0x3f
 1412 02e0 54020000 		.4byte	0x254
 1413 02e4 02       		.byte	0x2
 1414 02e5 23       		.byte	0x23
 1415 02e6 18       		.uleb128 0x18
 1416 02e7 07       		.uleb128 0x7
 1417 02e8 72313100 		.ascii	"r11\000"
 1418 02ec 08       		.byte	0x8
 1419 02ed 40       		.byte	0x40
 1420 02ee 54020000 		.4byte	0x254
 1421 02f2 02       		.byte	0x2
 1422 02f3 23       		.byte	0x23
 1423 02f4 1C       		.uleb128 0x1c
 1424 02f5 07       		.uleb128 0x7
 1425 02f6 6C7200   		.ascii	"lr\000"
 1426 02f9 08       		.byte	0x8
 1427 02fa 41       		.byte	0x41
 1428 02fb 54020000 		.4byte	0x254
 1429 02ff 02       		.byte	0x2
 1430 0300 23       		.byte	0x23
 1431 0301 20       		.uleb128 0x20
 1432 0302 00       		.byte	0x0
 1433 0303 09       		.uleb128 0x9
 1434 0304 04       		.byte	0x4
 1435 0305 7F020000 		.4byte	0x27f
 1436 0309 0E       		.uleb128 0xe
 1437 030a D2000000 		.4byte	0xd2
 1438 030e 08       		.uleb128 0x8
 1439 030f 20       		.byte	0x20
 1440 0310 09       		.byte	0x9
 1441 0311 4F       		.byte	0x4f
 1442 0312 79030000 		.4byte	0x379
 1443 0316 06       		.uleb128 0x6
 1444 0317 7A020000 		.4byte	.LASF43
 1445 031b 09       		.byte	0x9
 1446 031c 50       		.byte	0x50
 1447 031d 27020000 		.4byte	0x227
 1448 0321 02       		.byte	0x2
 1449 0322 23       		.byte	0x23
 1450 0323 00       		.uleb128 0x0
 1451 0324 06       		.uleb128 0x6
 1452 0325 3A020000 		.4byte	.LASF44
 1453 0329 09       		.byte	0x9
 1454 032a 51       		.byte	0x51
 1455 032b B1000000 		.4byte	0xb1
 1456 032f 02       		.byte	0x2
 1457 0330 23       		.byte	0x23
 1458 0331 08       		.uleb128 0x8
 1459 0332 06       		.uleb128 0x6
 1460 0333 A9010000 		.4byte	.LASF45
 1461 0337 09       		.byte	0x9
 1462 0338 53       		.byte	0x53
ARM GAS  /tmp/ccgqinv2.s 			page 27


 1463 0339 62020000 		.4byte	0x262
 1464 033d 02       		.byte	0x2
 1465 033e 23       		.byte	0x23
 1466 033f 0C       		.uleb128 0xc
 1467 0340 06       		.uleb128 0x6
 1468 0341 A3000000 		.4byte	.LASF46
 1469 0345 09       		.byte	0x9
 1470 0346 56       		.byte	0x56
 1471 0347 21020000 		.4byte	0x221
 1472 034b 02       		.byte	0x2
 1473 034c 23       		.byte	0x23
 1474 034d 10       		.uleb128 0x10
 1475 034e 06       		.uleb128 0x6
 1476 034f CB010000 		.4byte	.LASF47
 1477 0353 09       		.byte	0x9
 1478 0354 57       		.byte	0x57
 1479 0355 21020000 		.4byte	0x221
 1480 0359 02       		.byte	0x2
 1481 035a 23       		.byte	0x23
 1482 035b 14       		.uleb128 0x14
 1483 035c 06       		.uleb128 0x6
 1484 035d 17030000 		.4byte	.LASF48
 1485 0361 09       		.byte	0x9
 1486 0362 5B       		.byte	0x5b
 1487 0363 DD000000 		.4byte	0xdd
 1488 0367 02       		.byte	0x2
 1489 0368 23       		.byte	0x23
 1490 0369 18       		.uleb128 0x18
 1491 036a 06       		.uleb128 0x6
 1492 036b C1010000 		.4byte	.LASF49
 1493 036f 09       		.byte	0x9
 1494 0370 5E       		.byte	0x5e
 1495 0371 21020000 		.4byte	0x221
 1496 0375 02       		.byte	0x2
 1497 0376 23       		.byte	0x23
 1498 0377 1C       		.uleb128 0x1c
 1499 0378 00       		.byte	0x0
 1500 0379 04       		.uleb128 0x4
 1501 037a E1020000 		.4byte	.LASF50
 1502 037e 09       		.byte	0x9
 1503 037f 61       		.byte	0x61
 1504 0380 0E030000 		.4byte	0x30e
 1505 0384 05       		.uleb128 0x5
 1506 0385 33010000 		.4byte	.LASF51
 1507 0389 10       		.byte	0x10
 1508 038a 0A       		.byte	0xa
 1509 038b 2B       		.byte	0x2b
 1510 038c BB030000 		.4byte	0x3bb
 1511 0390 06       		.uleb128 0x6
 1512 0391 72000000 		.4byte	.LASF52
 1513 0395 0A       		.byte	0xa
 1514 0396 2C       		.byte	0x2c
 1515 0397 27020000 		.4byte	0x227
 1516 039b 02       		.byte	0x2
 1517 039c 23       		.byte	0x23
 1518 039d 00       		.uleb128 0x0
 1519 039e 06       		.uleb128 0x6
ARM GAS  /tmp/ccgqinv2.s 			page 28


 1520 039f 21030000 		.4byte	.LASF53
 1521 03a3 0A       		.byte	0xa
 1522 03a4 2E       		.byte	0x2e
 1523 03a5 21020000 		.4byte	0x221
 1524 03a9 02       		.byte	0x2
 1525 03aa 23       		.byte	0x23
 1526 03ab 08       		.uleb128 0x8
 1527 03ac 06       		.uleb128 0x6
 1528 03ad 9A020000 		.4byte	.LASF54
 1529 03b1 0A       		.byte	0xa
 1530 03b2 30       		.byte	0x30
 1531 03b3 BB030000 		.4byte	0x3bb
 1532 03b7 02       		.byte	0x2
 1533 03b8 23       		.byte	0x23
 1534 03b9 0C       		.uleb128 0xc
 1535 03ba 00       		.byte	0x0
 1536 03bb 09       		.uleb128 0x9
 1537 03bc 04       		.byte	0x4
 1538 03bd 84030000 		.4byte	0x384
 1539 03c1 04       		.uleb128 0x4
 1540 03c2 33010000 		.4byte	.LASF51
 1541 03c6 0A       		.byte	0xa
 1542 03c7 32       		.byte	0x32
 1543 03c8 84030000 		.4byte	0x384
 1544 03cc 05       		.uleb128 0x5
 1545 03cd 81000000 		.4byte	.LASF55
 1546 03d1 08       		.byte	0x8
 1547 03d2 0B       		.byte	0xb
 1548 03d3 36       		.byte	0x36
 1549 03d4 E7030000 		.4byte	0x3e7
 1550 03d8 06       		.uleb128 0x6
 1551 03d9 5E020000 		.4byte	.LASF56
 1552 03dd 0B       		.byte	0xb
 1553 03de 37       		.byte	0x37
 1554 03df 27020000 		.4byte	0x227
 1555 03e3 02       		.byte	0x2
 1556 03e4 23       		.byte	0x23
 1557 03e5 00       		.uleb128 0x0
 1558 03e6 00       		.byte	0x0
 1559 03e7 04       		.uleb128 0x4
 1560 03e8 81000000 		.4byte	.LASF55
 1561 03ec 0B       		.byte	0xb
 1562 03ed 38       		.byte	0x38
 1563 03ee CC030000 		.4byte	0x3cc
 1564 03f2 0F       		.uleb128 0xf
 1565 03f3 04       		.byte	0x4
 1566 03f4 06       		.byte	0x6
 1567 03f5 5A       		.byte	0x5a
 1568 03f6 27040000 		.4byte	0x427
 1569 03fa 10       		.uleb128 0x10
 1570 03fb 11000000 		.4byte	.LASF57
 1571 03ff 06       		.byte	0x6
 1572 0400 61       		.byte	0x61
 1573 0401 BC000000 		.4byte	0xbc
 1574 0405 10       		.uleb128 0x10
 1575 0406 2F000000 		.4byte	.LASF58
 1576 040a 06       		.byte	0x6
ARM GAS  /tmp/ccgqinv2.s 			page 29


 1577 040b 68       		.byte	0x68
 1578 040c BC000000 		.4byte	0xbc
 1579 0410 10       		.uleb128 0x10
 1580 0411 7A000000 		.4byte	.LASF59
 1581 0415 06       		.byte	0x6
 1582 0416 6F       		.byte	0x6f
 1583 0417 60020000 		.4byte	0x260
 1584 041b 10       		.uleb128 0x10
 1585 041c 41020000 		.4byte	.LASF60
 1586 0420 06       		.byte	0x6
 1587 0421 76       		.byte	0x76
 1588 0422 C7000000 		.4byte	0xc7
 1589 0426 00       		.byte	0x0
 1590 0427 09       		.uleb128 0x9
 1591 0428 04       		.byte	0x4
 1592 0429 C1030000 		.4byte	0x3c1
 1593 042d 11       		.uleb128 0x11
 1594 042e 82020000 		.4byte	.LASF75
 1595 0432 02       		.byte	0x2
 1596 0433 3A       		.byte	0x3a
 1597 0434 01       		.byte	0x1
 1598 0435 21020000 		.4byte	0x221
 1599 0439 03       		.byte	0x3
 1600 043a 54040000 		.4byte	0x454
 1601 043e 12       		.uleb128 0x12
 1602 043f 74717000 		.ascii	"tqp\000"
 1603 0443 02       		.byte	0x2
 1604 0444 3A       		.byte	0x3a
 1605 0445 54040000 		.4byte	0x454
 1606 0449 13       		.uleb128 0x13
 1607 044a 747000   		.ascii	"tp\000"
 1608 044d 02       		.byte	0x2
 1609 044e 3B       		.byte	0x3b
 1610 044f 21020000 		.4byte	0x221
 1611 0453 00       		.byte	0x0
 1612 0454 09       		.uleb128 0x9
 1613 0455 04       		.byte	0x4
 1614 0456 27020000 		.4byte	0x227
 1615 045a 14       		.uleb128 0x14
 1616 045b 07010000 		.4byte	.LASF76
 1617 045f 02       		.byte	0x2
 1618 0460 28       		.byte	0x28
 1619 0461 01       		.byte	0x1
 1620 0462 03       		.byte	0x3
 1621 0463 87040000 		.4byte	0x487
 1622 0467 12       		.uleb128 0x12
 1623 0468 747000   		.ascii	"tp\000"
 1624 046b 02       		.byte	0x2
 1625 046c 28       		.byte	0x28
 1626 046d 21020000 		.4byte	0x221
 1627 0471 12       		.uleb128 0x12
 1628 0472 74717000 		.ascii	"tqp\000"
 1629 0476 02       		.byte	0x2
 1630 0477 28       		.byte	0x28
 1631 0478 54040000 		.4byte	0x454
 1632 047c 13       		.uleb128 0x13
 1633 047d 637000   		.ascii	"cp\000"
ARM GAS  /tmp/ccgqinv2.s 			page 30


 1634 0480 02       		.byte	0x2
 1635 0481 2A       		.byte	0x2a
 1636 0482 21020000 		.4byte	0x221
 1637 0486 00       		.byte	0x0
 1638 0487 15       		.uleb128 0x15
 1639 0488 01       		.byte	0x1
 1640 0489 06000000 		.4byte	.LASF61
 1641 048d 01       		.byte	0x1
 1642 048e 3A       		.byte	0x3a
 1643 048f 01       		.byte	0x1
 1644 0490 00000000 		.4byte	.LFB7
 1645 0494 06000000 		.4byte	.LFE7
 1646 0498 02       		.byte	0x2
 1647 0499 7D       		.byte	0x7d
 1648 049a 00       		.sleb128 0
 1649 049b AC040000 		.4byte	0x4ac
 1650 049f 16       		.uleb128 0x16
 1651 04a0 637000   		.ascii	"cp\000"
 1652 04a3 01       		.byte	0x1
 1653 04a4 3A       		.byte	0x3a
 1654 04a5 AC040000 		.4byte	0x4ac
 1655 04a9 01       		.byte	0x1
 1656 04aa 50       		.byte	0x50
 1657 04ab 00       		.byte	0x0
 1658 04ac 09       		.uleb128 0x9
 1659 04ad 04       		.byte	0x4
 1660 04ae E7030000 		.4byte	0x3e7
 1661 04b2 17       		.uleb128 0x17
 1662 04b3 01       		.byte	0x1
 1663 04b4 B4000000 		.4byte	.LASF62
 1664 04b8 01       		.byte	0x1
 1665 04b9 48       		.byte	0x48
 1666 04ba 01       		.byte	0x1
 1667 04bb 00000000 		.4byte	.LFB8
 1668 04bf 24000000 		.4byte	.LFE8
 1669 04c3 00000000 		.4byte	.LLST0
 1670 04c7 3C050000 		.4byte	0x53c
 1671 04cb 18       		.uleb128 0x18
 1672 04cc 637000   		.ascii	"cp\000"
 1673 04cf 01       		.byte	0x1
 1674 04d0 48       		.byte	0x48
 1675 04d1 AC040000 		.4byte	0x4ac
 1676 04d5 20000000 		.4byte	.LLST1
 1677 04d9 19       		.uleb128 0x19
 1678 04da 04000000 		.4byte	.LBB14
 1679 04de 0A000000 		.4byte	.LBE14
 1680 04e2 F6040000 		.4byte	0x4f6
 1681 04e6 1A       		.uleb128 0x1a
 1682 04e7 746D7000 		.ascii	"tmp\000"
 1683 04eb 01       		.byte	0x1
 1684 04ec 4C       		.byte	0x4c
 1685 04ed 70000000 		.4byte	0x70
 1686 04f1 3E000000 		.4byte	.LLST2
 1687 04f5 00       		.byte	0x0
 1688 04f6 1B       		.uleb128 0x1b
 1689 04f7 2D040000 		.4byte	0x42d
 1690 04fb 10000000 		.4byte	.LBB15
ARM GAS  /tmp/ccgqinv2.s 			page 31


 1691 04ff 00000000 		.4byte	.Ldebug_ranges0+0x0
 1692 0503 01       		.byte	0x1
 1693 0504 4E       		.byte	0x4e
 1694 0505 22050000 		.4byte	0x522
 1695 0509 1C       		.uleb128 0x1c
 1696 050a 3E040000 		.4byte	0x43e
 1697 050e 5C000000 		.4byte	.LLST3
 1698 0512 1D       		.uleb128 0x1d
 1699 0513 18000000 		.4byte	.Ldebug_ranges0+0x18
 1700 0517 1E       		.uleb128 0x1e
 1701 0518 49040000 		.4byte	0x449
 1702 051c 6F000000 		.4byte	.LLST4
 1703 0520 00       		.byte	0x0
 1704 0521 00       		.byte	0x0
 1705 0522 1F       		.uleb128 0x1f
 1706 0523 1C000000 		.4byte	.LBB19
 1707 0527 22000000 		.4byte	.LBE19
 1708 052b 1A       		.uleb128 0x1a
 1709 052c 746D7000 		.ascii	"tmp\000"
 1710 0530 01       		.byte	0x1
 1711 0531 4F       		.byte	0x4f
 1712 0532 70000000 		.4byte	0x70
 1713 0536 83000000 		.4byte	.LLST5
 1714 053a 00       		.byte	0x0
 1715 053b 00       		.byte	0x0
 1716 053c 17       		.uleb128 0x17
 1717 053d 01       		.byte	0x1
 1718 053e FA010000 		.4byte	.LASF63
 1719 0542 01       		.byte	0x1
 1720 0543 5D       		.byte	0x5d
 1721 0544 01       		.byte	0x1
 1722 0545 00000000 		.4byte	.LFB9
 1723 0549 1A000000 		.4byte	.LFE9
 1724 054d 96000000 		.4byte	.LLST6
 1725 0551 90050000 		.4byte	0x590
 1726 0555 18       		.uleb128 0x18
 1727 0556 637000   		.ascii	"cp\000"
 1728 0559 01       		.byte	0x1
 1729 055a 5D       		.byte	0x5d
 1730 055b AC040000 		.4byte	0x4ac
 1731 055f B6000000 		.4byte	.LLST7
 1732 0563 20       		.uleb128 0x20
 1733 0564 2D040000 		.4byte	0x42d
 1734 0568 0A000000 		.4byte	.LBB20
 1735 056c 10000000 		.4byte	.LBE20
 1736 0570 01       		.byte	0x1
 1737 0571 62       		.byte	0x62
 1738 0572 1C       		.uleb128 0x1c
 1739 0573 3E040000 		.4byte	0x43e
 1740 0577 D4000000 		.4byte	.LLST8
 1741 057b 1F       		.uleb128 0x1f
 1742 057c 0A000000 		.4byte	.LBB21
 1743 0580 10000000 		.4byte	.LBE21
 1744 0584 1E       		.uleb128 0x1e
 1745 0585 49040000 		.4byte	0x449
 1746 0589 E7000000 		.4byte	.LLST9
 1747 058d 00       		.byte	0x0
ARM GAS  /tmp/ccgqinv2.s 			page 32


 1748 058e 00       		.byte	0x0
 1749 058f 00       		.byte	0x0
 1750 0590 17       		.uleb128 0x17
 1751 0591 01       		.byte	0x1
 1752 0592 38000000 		.4byte	.LASF64
 1753 0596 01       		.byte	0x1
 1754 0597 7F       		.byte	0x7f
 1755 0598 01       		.byte	0x1
 1756 0599 00000000 		.4byte	.LFB11
 1757 059d 22000000 		.4byte	.LFE11
 1758 05a1 FB000000 		.4byte	.LLST10
 1759 05a5 E4050000 		.4byte	0x5e4
 1760 05a9 18       		.uleb128 0x18
 1761 05aa 637000   		.ascii	"cp\000"
 1762 05ad 01       		.byte	0x1
 1763 05ae 7F       		.byte	0x7f
 1764 05af AC040000 		.4byte	0x4ac
 1765 05b3 1B010000 		.4byte	.LLST11
 1766 05b7 20       		.uleb128 0x20
 1767 05b8 2D040000 		.4byte	0x42d
 1768 05bc 0E000000 		.4byte	.LBB22
 1769 05c0 14000000 		.4byte	.LBE22
 1770 05c4 01       		.byte	0x1
 1771 05c5 87       		.byte	0x87
 1772 05c6 1C       		.uleb128 0x1c
 1773 05c7 3E040000 		.4byte	0x43e
 1774 05cb 39010000 		.4byte	.LLST12
 1775 05cf 1F       		.uleb128 0x1f
 1776 05d0 0E000000 		.4byte	.LBB23
 1777 05d4 14000000 		.4byte	.LBE23
 1778 05d8 1E       		.uleb128 0x1e
 1779 05d9 49040000 		.4byte	0x449
 1780 05dd 4C010000 		.4byte	.LLST13
 1781 05e1 00       		.byte	0x0
 1782 05e2 00       		.byte	0x0
 1783 05e3 00       		.byte	0x0
 1784 05e4 17       		.uleb128 0x17
 1785 05e5 01       		.byte	0x1
 1786 05e6 D3010000 		.4byte	.LASF65
 1787 05ea 01       		.byte	0x1
 1788 05eb 6C       		.byte	0x6c
 1789 05ec 01       		.byte	0x1
 1790 05ed 00000000 		.4byte	.LFB10
 1791 05f1 18000000 		.4byte	.LFE10
 1792 05f5 5F010000 		.4byte	.LLST14
 1793 05f9 42060000 		.4byte	0x642
 1794 05fd 18       		.uleb128 0x18
 1795 05fe 637000   		.ascii	"cp\000"
 1796 0601 01       		.byte	0x1
 1797 0602 6C       		.byte	0x6c
 1798 0603 AC040000 		.4byte	0x4ac
 1799 0607 7F010000 		.4byte	.LLST15
 1800 060b 19       		.uleb128 0x19
 1801 060c 02000000 		.4byte	.LBB24
 1802 0610 08000000 		.4byte	.LBE24
 1803 0614 28060000 		.4byte	0x628
 1804 0618 1A       		.uleb128 0x1a
ARM GAS  /tmp/ccgqinv2.s 			page 33


 1805 0619 746D7000 		.ascii	"tmp\000"
 1806 061d 01       		.byte	0x1
 1807 061e 6E       		.byte	0x6e
 1808 061f 70000000 		.4byte	0x70
 1809 0623 92010000 		.4byte	.LLST16
 1810 0627 00       		.byte	0x0
 1811 0628 1F       		.uleb128 0x1f
 1812 0629 10000000 		.4byte	.LBB25
 1813 062d 16000000 		.4byte	.LBE25
 1814 0631 1A       		.uleb128 0x1a
 1815 0632 746D7000 		.ascii	"tmp\000"
 1816 0636 01       		.byte	0x1
 1817 0637 71       		.byte	0x71
 1818 0638 70000000 		.4byte	0x70
 1819 063c A5010000 		.4byte	.LLST17
 1820 0640 00       		.byte	0x0
 1821 0641 00       		.byte	0x0
 1822 0642 21       		.uleb128 0x21
 1823 0643 01       		.byte	0x1
 1824 0644 8E020000 		.4byte	.LASF66
 1825 0648 01       		.byte	0x1
 1826 0649 B5       		.byte	0xb5
 1827 064a 01       		.byte	0x1
 1828 064b BC000000 		.4byte	0xbc
 1829 064f 00000000 		.4byte	.LFB13
 1830 0653 4A000000 		.4byte	.LFE13
 1831 0657 B8010000 		.4byte	.LLST18
 1832 065b C9060000 		.4byte	0x6c9
 1833 065f 18       		.uleb128 0x18
 1834 0660 637000   		.ascii	"cp\000"
 1835 0663 01       		.byte	0x1
 1836 0664 B5       		.byte	0xb5
 1837 0665 AC040000 		.4byte	0x4ac
 1838 0669 D8010000 		.4byte	.LLST19
 1839 066d 1A       		.uleb128 0x1a
 1840 066e 63747000 		.ascii	"ctp\000"
 1841 0672 01       		.byte	0x1
 1842 0673 B6       		.byte	0xb6
 1843 0674 21020000 		.4byte	0x221
 1844 0678 F6010000 		.4byte	.LLST20
 1845 067c 1A       		.uleb128 0x1a
 1846 067d 6D7000   		.ascii	"mp\000"
 1847 0680 01       		.byte	0x1
 1848 0681 B7       		.byte	0xb7
 1849 0682 27040000 		.4byte	0x427
 1850 0686 20020000 		.4byte	.LLST21
 1851 068a 1A       		.uleb128 0x1a
 1852 068b 6D736700 		.ascii	"msg\000"
 1853 068f 01       		.byte	0x1
 1854 0690 B8       		.byte	0xb8
 1855 0691 BC000000 		.4byte	0xbc
 1856 0695 3E020000 		.4byte	.LLST22
 1857 0699 22       		.uleb128 0x22
 1858 069a 5A040000 		.4byte	0x45a
 1859 069e 16000000 		.4byte	.LBB26
 1860 06a2 30000000 		.4byte	.Ldebug_ranges0+0x30
 1861 06a6 01       		.byte	0x1
ARM GAS  /tmp/ccgqinv2.s 			page 34


 1862 06a7 C1       		.byte	0xc1
 1863 06a8 23       		.uleb128 0x23
 1864 06a9 71040000 		.4byte	0x471
 1865 06ad 01       		.byte	0x1
 1866 06ae 55       		.byte	0x55
 1867 06af 1C       		.uleb128 0x1c
 1868 06b0 67040000 		.4byte	0x467
 1869 06b4 51020000 		.4byte	.LLST23
 1870 06b8 1D       		.uleb128 0x1d
 1871 06b9 48000000 		.4byte	.Ldebug_ranges0+0x48
 1872 06bd 1E       		.uleb128 0x1e
 1873 06be 7C040000 		.4byte	0x47c
 1874 06c2 6F020000 		.4byte	.LLST24
 1875 06c6 00       		.byte	0x0
 1876 06c7 00       		.byte	0x0
 1877 06c8 00       		.byte	0x0
 1878 06c9 21       		.uleb128 0x21
 1879 06ca 01       		.byte	0x1
 1880 06cb B6020000 		.4byte	.LASF67
 1881 06cf 01       		.byte	0x1
 1882 06d0 9B       		.byte	0x9b
 1883 06d1 01       		.byte	0x1
 1884 06d2 BC000000 		.4byte	0xbc
 1885 06d6 00000000 		.4byte	.LFB12
 1886 06da 14000000 		.4byte	.LFE12
 1887 06de A3020000 		.4byte	.LLST25
 1888 06e2 36070000 		.4byte	0x736
 1889 06e6 18       		.uleb128 0x18
 1890 06e7 637000   		.ascii	"cp\000"
 1891 06ea 01       		.byte	0x1
 1892 06eb 9B       		.byte	0x9b
 1893 06ec AC040000 		.4byte	0x4ac
 1894 06f0 C3020000 		.4byte	.LLST26
 1895 06f4 13       		.uleb128 0x13
 1896 06f5 6D736700 		.ascii	"msg\000"
 1897 06f9 01       		.byte	0x1
 1898 06fa 9C       		.byte	0x9c
 1899 06fb BC000000 		.4byte	0xbc
 1900 06ff 19       		.uleb128 0x19
 1901 0700 02000000 		.4byte	.LBB30
 1902 0704 08000000 		.4byte	.LBE30
 1903 0708 1C070000 		.4byte	0x71c
 1904 070c 1A       		.uleb128 0x1a
 1905 070d 746D7000 		.ascii	"tmp\000"
 1906 0711 01       		.byte	0x1
 1907 0712 9E       		.byte	0x9e
 1908 0713 70000000 		.4byte	0x70
 1909 0717 D6020000 		.4byte	.LLST27
 1910 071b 00       		.byte	0x0
 1911 071c 1F       		.uleb128 0x1f
 1912 071d 0C000000 		.4byte	.LBB31
 1913 0721 12000000 		.4byte	.LBE31
 1914 0725 1A       		.uleb128 0x1a
 1915 0726 746D7000 		.ascii	"tmp\000"
 1916 072a 01       		.byte	0x1
 1917 072b A0       		.byte	0xa0
 1918 072c 70000000 		.4byte	0x70
ARM GAS  /tmp/ccgqinv2.s 			page 35


 1919 0730 E9020000 		.4byte	.LLST28
 1920 0734 00       		.byte	0x0
 1921 0735 00       		.byte	0x0
 1922 0736 24       		.uleb128 0x24
 1923 0737 01       		.byte	0x1
 1924 0738 58010000 		.4byte	.LASF68
 1925 073c 01       		.byte	0x1
 1926 073d 0A01     		.2byte	0x10a
 1927 073f 01       		.byte	0x1
 1928 0740 BC000000 		.4byte	0xbc
 1929 0744 00000000 		.4byte	.LFB15
 1930 0748 54000000 		.4byte	.LFE15
 1931 074c FC020000 		.4byte	.LLST29
 1932 0750 C5070000 		.4byte	0x7c5
 1933 0754 25       		.uleb128 0x25
 1934 0755 637000   		.ascii	"cp\000"
 1935 0758 01       		.byte	0x1
 1936 0759 0A01     		.2byte	0x10a
 1937 075b AC040000 		.4byte	0x4ac
 1938 075f 1C030000 		.4byte	.LLST30
 1939 0763 26       		.uleb128 0x26
 1940 0764 BC010000 		.4byte	.LASF69
 1941 0768 01       		.byte	0x1
 1942 0769 0A01     		.2byte	0x10a
 1943 076b D2000000 		.4byte	0xd2
 1944 076f 45030000 		.4byte	.LLST31
 1945 0773 27       		.uleb128 0x27
 1946 0774 6D7000   		.ascii	"mp\000"
 1947 0777 01       		.byte	0x1
 1948 0778 0B01     		.2byte	0x10b
 1949 077a 27040000 		.4byte	0x427
 1950 077e 63030000 		.4byte	.LLST32
 1951 0782 27       		.uleb128 0x27
 1952 0783 6D736700 		.ascii	"msg\000"
 1953 0787 01       		.byte	0x1
 1954 0788 0C01     		.2byte	0x10c
 1955 078a BC000000 		.4byte	0xbc
 1956 078e 81030000 		.4byte	.LLST33
 1957 0792 28       		.uleb128 0x28
 1958 0793 5A040000 		.4byte	0x45a
 1959 0797 16000000 		.4byte	.LBB32
 1960 079b 60000000 		.4byte	.Ldebug_ranges0+0x60
 1961 079f 01       		.byte	0x1
 1962 07a0 1501     		.2byte	0x115
 1963 07a2 1C       		.uleb128 0x1c
 1964 07a3 71040000 		.4byte	0x471
 1965 07a7 9F030000 		.4byte	.LLST34
 1966 07ab 1C       		.uleb128 0x1c
 1967 07ac 67040000 		.4byte	0x467
 1968 07b0 BD030000 		.4byte	.LLST35
 1969 07b4 1D       		.uleb128 0x1d
 1970 07b5 80000000 		.4byte	.Ldebug_ranges0+0x80
 1971 07b9 1E       		.uleb128 0x1e
 1972 07ba 7C040000 		.4byte	0x47c
 1973 07be DC030000 		.4byte	.LLST36
 1974 07c2 00       		.byte	0x0
 1975 07c3 00       		.byte	0x0
ARM GAS  /tmp/ccgqinv2.s 			page 36


 1976 07c4 00       		.byte	0x0
 1977 07c5 21       		.uleb128 0x21
 1978 07c6 01       		.byte	0x1
 1979 07c7 05030000 		.4byte	.LASF70
 1980 07cb 01       		.byte	0x1
 1981 07cc E5       		.byte	0xe5
 1982 07cd 01       		.byte	0x1
 1983 07ce BC000000 		.4byte	0xbc
 1984 07d2 00000000 		.4byte	.LFB14
 1985 07d6 14000000 		.4byte	.LFE14
 1986 07da 10040000 		.4byte	.LLST37
 1987 07de 41080000 		.4byte	0x841
 1988 07e2 18       		.uleb128 0x18
 1989 07e3 637000   		.ascii	"cp\000"
 1990 07e6 01       		.byte	0x1
 1991 07e7 E5       		.byte	0xe5
 1992 07e8 AC040000 		.4byte	0x4ac
 1993 07ec 30040000 		.4byte	.LLST38
 1994 07f0 29       		.uleb128 0x29
 1995 07f1 BC010000 		.4byte	.LASF69
 1996 07f5 01       		.byte	0x1
 1997 07f6 E5       		.byte	0xe5
 1998 07f7 D2000000 		.4byte	0xd2
 1999 07fb 43040000 		.4byte	.LLST39
 2000 07ff 13       		.uleb128 0x13
 2001 0800 6D736700 		.ascii	"msg\000"
 2002 0804 01       		.byte	0x1
 2003 0805 E6       		.byte	0xe6
 2004 0806 BC000000 		.4byte	0xbc
 2005 080a 19       		.uleb128 0x19
 2006 080b 02000000 		.4byte	.LBB38
 2007 080f 08000000 		.4byte	.LBE38
 2008 0813 27080000 		.4byte	0x827
 2009 0817 1A       		.uleb128 0x1a
 2010 0818 746D7000 		.ascii	"tmp\000"
 2011 081c 01       		.byte	0x1
 2012 081d E8       		.byte	0xe8
 2013 081e 70000000 		.4byte	0x70
 2014 0822 56040000 		.4byte	.LLST40
 2015 0826 00       		.byte	0x0
 2016 0827 1F       		.uleb128 0x1f
 2017 0828 0C000000 		.4byte	.LBB39
 2018 082c 12000000 		.4byte	.LBE39
 2019 0830 1A       		.uleb128 0x1a
 2020 0831 746D7000 		.ascii	"tmp\000"
 2021 0835 01       		.byte	0x1
 2022 0836 EA       		.byte	0xea
 2023 0837 70000000 		.4byte	0x70
 2024 083b 69040000 		.4byte	.LLST41
 2025 083f 00       		.byte	0x0
 2026 0840 00       		.byte	0x0
 2027 0841 2A       		.uleb128 0x2a
 2028 0842 EB020000 		.4byte	.LASF71
 2029 0846 09       		.byte	0x9
 2030 0847 65       		.byte	0x65
 2031 0848 79030000 		.4byte	0x379
 2032 084c 01       		.byte	0x1
ARM GAS  /tmp/ccgqinv2.s 			page 37


 2033 084d 01       		.byte	0x1
 2034 084e 2A       		.uleb128 0x2a
 2035 084f EB020000 		.4byte	.LASF71
 2036 0853 09       		.byte	0x9
 2037 0854 65       		.byte	0x65
 2038 0855 79030000 		.4byte	0x379
 2039 0859 01       		.byte	0x1
 2040 085a 01       		.byte	0x1
 2041 085b 00       		.byte	0x0
 2042              		.section	.debug_abbrev
 2043 0000 01       		.uleb128 0x1
 2044 0001 11       		.uleb128 0x11
 2045 0002 01       		.byte	0x1
 2046 0003 25       		.uleb128 0x25
 2047 0004 0E       		.uleb128 0xe
 2048 0005 13       		.uleb128 0x13
 2049 0006 0B       		.uleb128 0xb
 2050 0007 03       		.uleb128 0x3
 2051 0008 0E       		.uleb128 0xe
 2052 0009 1B       		.uleb128 0x1b
 2053 000a 0E       		.uleb128 0xe
 2054 000b 11       		.uleb128 0x11
 2055 000c 01       		.uleb128 0x1
 2056 000d 52       		.uleb128 0x52
 2057 000e 01       		.uleb128 0x1
 2058 000f 55       		.uleb128 0x55
 2059 0010 06       		.uleb128 0x6
 2060 0011 10       		.uleb128 0x10
 2061 0012 06       		.uleb128 0x6
 2062 0013 00       		.byte	0x0
 2063 0014 00       		.byte	0x0
 2064 0015 02       		.uleb128 0x2
 2065 0016 24       		.uleb128 0x24
 2066 0017 00       		.byte	0x0
 2067 0018 0B       		.uleb128 0xb
 2068 0019 0B       		.uleb128 0xb
 2069 001a 3E       		.uleb128 0x3e
 2070 001b 0B       		.uleb128 0xb
 2071 001c 03       		.uleb128 0x3
 2072 001d 08       		.uleb128 0x8
 2073 001e 00       		.byte	0x0
 2074 001f 00       		.byte	0x0
 2075 0020 03       		.uleb128 0x3
 2076 0021 24       		.uleb128 0x24
 2077 0022 00       		.byte	0x0
 2078 0023 0B       		.uleb128 0xb
 2079 0024 0B       		.uleb128 0xb
 2080 0025 3E       		.uleb128 0x3e
 2081 0026 0B       		.uleb128 0xb
 2082 0027 03       		.uleb128 0x3
 2083 0028 0E       		.uleb128 0xe
 2084 0029 00       		.byte	0x0
 2085 002a 00       		.byte	0x0
 2086 002b 04       		.uleb128 0x4
 2087 002c 16       		.uleb128 0x16
 2088 002d 00       		.byte	0x0
 2089 002e 03       		.uleb128 0x3
ARM GAS  /tmp/ccgqinv2.s 			page 38


 2090 002f 0E       		.uleb128 0xe
 2091 0030 3A       		.uleb128 0x3a
 2092 0031 0B       		.uleb128 0xb
 2093 0032 3B       		.uleb128 0x3b
 2094 0033 0B       		.uleb128 0xb
 2095 0034 49       		.uleb128 0x49
 2096 0035 13       		.uleb128 0x13
 2097 0036 00       		.byte	0x0
 2098 0037 00       		.byte	0x0
 2099 0038 05       		.uleb128 0x5
 2100 0039 13       		.uleb128 0x13
 2101 003a 01       		.byte	0x1
 2102 003b 03       		.uleb128 0x3
 2103 003c 0E       		.uleb128 0xe
 2104 003d 0B       		.uleb128 0xb
 2105 003e 0B       		.uleb128 0xb
 2106 003f 3A       		.uleb128 0x3a
 2107 0040 0B       		.uleb128 0xb
 2108 0041 3B       		.uleb128 0x3b
 2109 0042 0B       		.uleb128 0xb
 2110 0043 01       		.uleb128 0x1
 2111 0044 13       		.uleb128 0x13
 2112 0045 00       		.byte	0x0
 2113 0046 00       		.byte	0x0
 2114 0047 06       		.uleb128 0x6
 2115 0048 0D       		.uleb128 0xd
 2116 0049 00       		.byte	0x0
 2117 004a 03       		.uleb128 0x3
 2118 004b 0E       		.uleb128 0xe
 2119 004c 3A       		.uleb128 0x3a
 2120 004d 0B       		.uleb128 0xb
 2121 004e 3B       		.uleb128 0x3b
 2122 004f 0B       		.uleb128 0xb
 2123 0050 49       		.uleb128 0x49
 2124 0051 13       		.uleb128 0x13
 2125 0052 38       		.uleb128 0x38
 2126 0053 0A       		.uleb128 0xa
 2127 0054 00       		.byte	0x0
 2128 0055 00       		.byte	0x0
 2129 0056 07       		.uleb128 0x7
 2130 0057 0D       		.uleb128 0xd
 2131 0058 00       		.byte	0x0
 2132 0059 03       		.uleb128 0x3
 2133 005a 08       		.uleb128 0x8
 2134 005b 3A       		.uleb128 0x3a
 2135 005c 0B       		.uleb128 0xb
 2136 005d 3B       		.uleb128 0x3b
 2137 005e 0B       		.uleb128 0xb
 2138 005f 49       		.uleb128 0x49
 2139 0060 13       		.uleb128 0x13
 2140 0061 38       		.uleb128 0x38
 2141 0062 0A       		.uleb128 0xa
 2142 0063 00       		.byte	0x0
 2143 0064 00       		.byte	0x0
 2144 0065 08       		.uleb128 0x8
 2145 0066 13       		.uleb128 0x13
 2146 0067 01       		.byte	0x1
ARM GAS  /tmp/ccgqinv2.s 			page 39


 2147 0068 0B       		.uleb128 0xb
 2148 0069 0B       		.uleb128 0xb
 2149 006a 3A       		.uleb128 0x3a
 2150 006b 0B       		.uleb128 0xb
 2151 006c 3B       		.uleb128 0x3b
 2152 006d 0B       		.uleb128 0xb
 2153 006e 01       		.uleb128 0x1
 2154 006f 13       		.uleb128 0x13
 2155 0070 00       		.byte	0x0
 2156 0071 00       		.byte	0x0
 2157 0072 09       		.uleb128 0x9
 2158 0073 0F       		.uleb128 0xf
 2159 0074 00       		.byte	0x0
 2160 0075 0B       		.uleb128 0xb
 2161 0076 0B       		.uleb128 0xb
 2162 0077 49       		.uleb128 0x49
 2163 0078 13       		.uleb128 0x13
 2164 0079 00       		.byte	0x0
 2165 007a 00       		.byte	0x0
 2166 007b 0A       		.uleb128 0xa
 2167 007c 16       		.uleb128 0x16
 2168 007d 00       		.byte	0x0
 2169 007e 03       		.uleb128 0x3
 2170 007f 0E       		.uleb128 0xe
 2171 0080 3A       		.uleb128 0x3a
 2172 0081 0B       		.uleb128 0xb
 2173 0082 3B       		.uleb128 0x3b
 2174 0083 05       		.uleb128 0x5
 2175 0084 49       		.uleb128 0x49
 2176 0085 13       		.uleb128 0x13
 2177 0086 00       		.byte	0x0
 2178 0087 00       		.byte	0x0
 2179 0088 0B       		.uleb128 0xb
 2180 0089 0F       		.uleb128 0xf
 2181 008a 00       		.byte	0x0
 2182 008b 0B       		.uleb128 0xb
 2183 008c 0B       		.uleb128 0xb
 2184 008d 00       		.byte	0x0
 2185 008e 00       		.byte	0x0
 2186 008f 0C       		.uleb128 0xc
 2187 0090 13       		.uleb128 0x13
 2188 0091 01       		.byte	0x1
 2189 0092 03       		.uleb128 0x3
 2190 0093 0E       		.uleb128 0xe
 2191 0094 0B       		.uleb128 0xb
 2192 0095 0B       		.uleb128 0xb
 2193 0096 3A       		.uleb128 0x3a
 2194 0097 0B       		.uleb128 0xb
 2195 0098 3B       		.uleb128 0x3b
 2196 0099 05       		.uleb128 0x5
 2197 009a 01       		.uleb128 0x1
 2198 009b 13       		.uleb128 0x13
 2199 009c 00       		.byte	0x0
 2200 009d 00       		.byte	0x0
 2201 009e 0D       		.uleb128 0xd
 2202 009f 0D       		.uleb128 0xd
 2203 00a0 00       		.byte	0x0
ARM GAS  /tmp/ccgqinv2.s 			page 40


 2204 00a1 03       		.uleb128 0x3
 2205 00a2 08       		.uleb128 0x8
 2206 00a3 3A       		.uleb128 0x3a
 2207 00a4 0B       		.uleb128 0xb
 2208 00a5 3B       		.uleb128 0x3b
 2209 00a6 05       		.uleb128 0x5
 2210 00a7 49       		.uleb128 0x49
 2211 00a8 13       		.uleb128 0x13
 2212 00a9 38       		.uleb128 0x38
 2213 00aa 0A       		.uleb128 0xa
 2214 00ab 00       		.byte	0x0
 2215 00ac 00       		.byte	0x0
 2216 00ad 0E       		.uleb128 0xe
 2217 00ae 35       		.uleb128 0x35
 2218 00af 00       		.byte	0x0
 2219 00b0 49       		.uleb128 0x49
 2220 00b1 13       		.uleb128 0x13
 2221 00b2 00       		.byte	0x0
 2222 00b3 00       		.byte	0x0
 2223 00b4 0F       		.uleb128 0xf
 2224 00b5 17       		.uleb128 0x17
 2225 00b6 01       		.byte	0x1
 2226 00b7 0B       		.uleb128 0xb
 2227 00b8 0B       		.uleb128 0xb
 2228 00b9 3A       		.uleb128 0x3a
 2229 00ba 0B       		.uleb128 0xb
 2230 00bb 3B       		.uleb128 0x3b
 2231 00bc 0B       		.uleb128 0xb
 2232 00bd 01       		.uleb128 0x1
 2233 00be 13       		.uleb128 0x13
 2234 00bf 00       		.byte	0x0
 2235 00c0 00       		.byte	0x0
 2236 00c1 10       		.uleb128 0x10
 2237 00c2 0D       		.uleb128 0xd
 2238 00c3 00       		.byte	0x0
 2239 00c4 03       		.uleb128 0x3
 2240 00c5 0E       		.uleb128 0xe
 2241 00c6 3A       		.uleb128 0x3a
 2242 00c7 0B       		.uleb128 0xb
 2243 00c8 3B       		.uleb128 0x3b
 2244 00c9 0B       		.uleb128 0xb
 2245 00ca 49       		.uleb128 0x49
 2246 00cb 13       		.uleb128 0x13
 2247 00cc 00       		.byte	0x0
 2248 00cd 00       		.byte	0x0
 2249 00ce 11       		.uleb128 0x11
 2250 00cf 2E       		.uleb128 0x2e
 2251 00d0 01       		.byte	0x1
 2252 00d1 03       		.uleb128 0x3
 2253 00d2 0E       		.uleb128 0xe
 2254 00d3 3A       		.uleb128 0x3a
 2255 00d4 0B       		.uleb128 0xb
 2256 00d5 3B       		.uleb128 0x3b
 2257 00d6 0B       		.uleb128 0xb
 2258 00d7 27       		.uleb128 0x27
 2259 00d8 0C       		.uleb128 0xc
 2260 00d9 49       		.uleb128 0x49
ARM GAS  /tmp/ccgqinv2.s 			page 41


 2261 00da 13       		.uleb128 0x13
 2262 00db 20       		.uleb128 0x20
 2263 00dc 0B       		.uleb128 0xb
 2264 00dd 01       		.uleb128 0x1
 2265 00de 13       		.uleb128 0x13
 2266 00df 00       		.byte	0x0
 2267 00e0 00       		.byte	0x0
 2268 00e1 12       		.uleb128 0x12
 2269 00e2 05       		.uleb128 0x5
 2270 00e3 00       		.byte	0x0
 2271 00e4 03       		.uleb128 0x3
 2272 00e5 08       		.uleb128 0x8
 2273 00e6 3A       		.uleb128 0x3a
 2274 00e7 0B       		.uleb128 0xb
 2275 00e8 3B       		.uleb128 0x3b
 2276 00e9 0B       		.uleb128 0xb
 2277 00ea 49       		.uleb128 0x49
 2278 00eb 13       		.uleb128 0x13
 2279 00ec 00       		.byte	0x0
 2280 00ed 00       		.byte	0x0
 2281 00ee 13       		.uleb128 0x13
 2282 00ef 34       		.uleb128 0x34
 2283 00f0 00       		.byte	0x0
 2284 00f1 03       		.uleb128 0x3
 2285 00f2 08       		.uleb128 0x8
 2286 00f3 3A       		.uleb128 0x3a
 2287 00f4 0B       		.uleb128 0xb
 2288 00f5 3B       		.uleb128 0x3b
 2289 00f6 0B       		.uleb128 0xb
 2290 00f7 49       		.uleb128 0x49
 2291 00f8 13       		.uleb128 0x13
 2292 00f9 00       		.byte	0x0
 2293 00fa 00       		.byte	0x0
 2294 00fb 14       		.uleb128 0x14
 2295 00fc 2E       		.uleb128 0x2e
 2296 00fd 01       		.byte	0x1
 2297 00fe 03       		.uleb128 0x3
 2298 00ff 0E       		.uleb128 0xe
 2299 0100 3A       		.uleb128 0x3a
 2300 0101 0B       		.uleb128 0xb
 2301 0102 3B       		.uleb128 0x3b
 2302 0103 0B       		.uleb128 0xb
 2303 0104 27       		.uleb128 0x27
 2304 0105 0C       		.uleb128 0xc
 2305 0106 20       		.uleb128 0x20
 2306 0107 0B       		.uleb128 0xb
 2307 0108 01       		.uleb128 0x1
 2308 0109 13       		.uleb128 0x13
 2309 010a 00       		.byte	0x0
 2310 010b 00       		.byte	0x0
 2311 010c 15       		.uleb128 0x15
 2312 010d 2E       		.uleb128 0x2e
 2313 010e 01       		.byte	0x1
 2314 010f 3F       		.uleb128 0x3f
 2315 0110 0C       		.uleb128 0xc
 2316 0111 03       		.uleb128 0x3
 2317 0112 0E       		.uleb128 0xe
ARM GAS  /tmp/ccgqinv2.s 			page 42


 2318 0113 3A       		.uleb128 0x3a
 2319 0114 0B       		.uleb128 0xb
 2320 0115 3B       		.uleb128 0x3b
 2321 0116 0B       		.uleb128 0xb
 2322 0117 27       		.uleb128 0x27
 2323 0118 0C       		.uleb128 0xc
 2324 0119 11       		.uleb128 0x11
 2325 011a 01       		.uleb128 0x1
 2326 011b 12       		.uleb128 0x12
 2327 011c 01       		.uleb128 0x1
 2328 011d 40       		.uleb128 0x40
 2329 011e 0A       		.uleb128 0xa
 2330 011f 01       		.uleb128 0x1
 2331 0120 13       		.uleb128 0x13
 2332 0121 00       		.byte	0x0
 2333 0122 00       		.byte	0x0
 2334 0123 16       		.uleb128 0x16
 2335 0124 05       		.uleb128 0x5
 2336 0125 00       		.byte	0x0
 2337 0126 03       		.uleb128 0x3
 2338 0127 08       		.uleb128 0x8
 2339 0128 3A       		.uleb128 0x3a
 2340 0129 0B       		.uleb128 0xb
 2341 012a 3B       		.uleb128 0x3b
 2342 012b 0B       		.uleb128 0xb
 2343 012c 49       		.uleb128 0x49
 2344 012d 13       		.uleb128 0x13
 2345 012e 02       		.uleb128 0x2
 2346 012f 0A       		.uleb128 0xa
 2347 0130 00       		.byte	0x0
 2348 0131 00       		.byte	0x0
 2349 0132 17       		.uleb128 0x17
 2350 0133 2E       		.uleb128 0x2e
 2351 0134 01       		.byte	0x1
 2352 0135 3F       		.uleb128 0x3f
 2353 0136 0C       		.uleb128 0xc
 2354 0137 03       		.uleb128 0x3
 2355 0138 0E       		.uleb128 0xe
 2356 0139 3A       		.uleb128 0x3a
 2357 013a 0B       		.uleb128 0xb
 2358 013b 3B       		.uleb128 0x3b
 2359 013c 0B       		.uleb128 0xb
 2360 013d 27       		.uleb128 0x27
 2361 013e 0C       		.uleb128 0xc
 2362 013f 11       		.uleb128 0x11
 2363 0140 01       		.uleb128 0x1
 2364 0141 12       		.uleb128 0x12
 2365 0142 01       		.uleb128 0x1
 2366 0143 40       		.uleb128 0x40
 2367 0144 06       		.uleb128 0x6
 2368 0145 01       		.uleb128 0x1
 2369 0146 13       		.uleb128 0x13
 2370 0147 00       		.byte	0x0
 2371 0148 00       		.byte	0x0
 2372 0149 18       		.uleb128 0x18
 2373 014a 05       		.uleb128 0x5
 2374 014b 00       		.byte	0x0
ARM GAS  /tmp/ccgqinv2.s 			page 43


 2375 014c 03       		.uleb128 0x3
 2376 014d 08       		.uleb128 0x8
 2377 014e 3A       		.uleb128 0x3a
 2378 014f 0B       		.uleb128 0xb
 2379 0150 3B       		.uleb128 0x3b
 2380 0151 0B       		.uleb128 0xb
 2381 0152 49       		.uleb128 0x49
 2382 0153 13       		.uleb128 0x13
 2383 0154 02       		.uleb128 0x2
 2384 0155 06       		.uleb128 0x6
 2385 0156 00       		.byte	0x0
 2386 0157 00       		.byte	0x0
 2387 0158 19       		.uleb128 0x19
 2388 0159 0B       		.uleb128 0xb
 2389 015a 01       		.byte	0x1
 2390 015b 11       		.uleb128 0x11
 2391 015c 01       		.uleb128 0x1
 2392 015d 12       		.uleb128 0x12
 2393 015e 01       		.uleb128 0x1
 2394 015f 01       		.uleb128 0x1
 2395 0160 13       		.uleb128 0x13
 2396 0161 00       		.byte	0x0
 2397 0162 00       		.byte	0x0
 2398 0163 1A       		.uleb128 0x1a
 2399 0164 34       		.uleb128 0x34
 2400 0165 00       		.byte	0x0
 2401 0166 03       		.uleb128 0x3
 2402 0167 08       		.uleb128 0x8
 2403 0168 3A       		.uleb128 0x3a
 2404 0169 0B       		.uleb128 0xb
 2405 016a 3B       		.uleb128 0x3b
 2406 016b 0B       		.uleb128 0xb
 2407 016c 49       		.uleb128 0x49
 2408 016d 13       		.uleb128 0x13
 2409 016e 02       		.uleb128 0x2
 2410 016f 06       		.uleb128 0x6
 2411 0170 00       		.byte	0x0
 2412 0171 00       		.byte	0x0
 2413 0172 1B       		.uleb128 0x1b
 2414 0173 1D       		.uleb128 0x1d
 2415 0174 01       		.byte	0x1
 2416 0175 31       		.uleb128 0x31
 2417 0176 13       		.uleb128 0x13
 2418 0177 52       		.uleb128 0x52
 2419 0178 01       		.uleb128 0x1
 2420 0179 55       		.uleb128 0x55
 2421 017a 06       		.uleb128 0x6
 2422 017b 58       		.uleb128 0x58
 2423 017c 0B       		.uleb128 0xb
 2424 017d 59       		.uleb128 0x59
 2425 017e 0B       		.uleb128 0xb
 2426 017f 01       		.uleb128 0x1
 2427 0180 13       		.uleb128 0x13
 2428 0181 00       		.byte	0x0
 2429 0182 00       		.byte	0x0
 2430 0183 1C       		.uleb128 0x1c
 2431 0184 05       		.uleb128 0x5
ARM GAS  /tmp/ccgqinv2.s 			page 44


 2432 0185 00       		.byte	0x0
 2433 0186 31       		.uleb128 0x31
 2434 0187 13       		.uleb128 0x13
 2435 0188 02       		.uleb128 0x2
 2436 0189 06       		.uleb128 0x6
 2437 018a 00       		.byte	0x0
 2438 018b 00       		.byte	0x0
 2439 018c 1D       		.uleb128 0x1d
 2440 018d 0B       		.uleb128 0xb
 2441 018e 01       		.byte	0x1
 2442 018f 55       		.uleb128 0x55
 2443 0190 06       		.uleb128 0x6
 2444 0191 00       		.byte	0x0
 2445 0192 00       		.byte	0x0
 2446 0193 1E       		.uleb128 0x1e
 2447 0194 34       		.uleb128 0x34
 2448 0195 00       		.byte	0x0
 2449 0196 31       		.uleb128 0x31
 2450 0197 13       		.uleb128 0x13
 2451 0198 02       		.uleb128 0x2
 2452 0199 06       		.uleb128 0x6
 2453 019a 00       		.byte	0x0
 2454 019b 00       		.byte	0x0
 2455 019c 1F       		.uleb128 0x1f
 2456 019d 0B       		.uleb128 0xb
 2457 019e 01       		.byte	0x1
 2458 019f 11       		.uleb128 0x11
 2459 01a0 01       		.uleb128 0x1
 2460 01a1 12       		.uleb128 0x12
 2461 01a2 01       		.uleb128 0x1
 2462 01a3 00       		.byte	0x0
 2463 01a4 00       		.byte	0x0
 2464 01a5 20       		.uleb128 0x20
 2465 01a6 1D       		.uleb128 0x1d
 2466 01a7 01       		.byte	0x1
 2467 01a8 31       		.uleb128 0x31
 2468 01a9 13       		.uleb128 0x13
 2469 01aa 11       		.uleb128 0x11
 2470 01ab 01       		.uleb128 0x1
 2471 01ac 12       		.uleb128 0x12
 2472 01ad 01       		.uleb128 0x1
 2473 01ae 58       		.uleb128 0x58
 2474 01af 0B       		.uleb128 0xb
 2475 01b0 59       		.uleb128 0x59
 2476 01b1 0B       		.uleb128 0xb
 2477 01b2 00       		.byte	0x0
 2478 01b3 00       		.byte	0x0
 2479 01b4 21       		.uleb128 0x21
 2480 01b5 2E       		.uleb128 0x2e
 2481 01b6 01       		.byte	0x1
 2482 01b7 3F       		.uleb128 0x3f
 2483 01b8 0C       		.uleb128 0xc
 2484 01b9 03       		.uleb128 0x3
 2485 01ba 0E       		.uleb128 0xe
 2486 01bb 3A       		.uleb128 0x3a
 2487 01bc 0B       		.uleb128 0xb
 2488 01bd 3B       		.uleb128 0x3b
ARM GAS  /tmp/ccgqinv2.s 			page 45


 2489 01be 0B       		.uleb128 0xb
 2490 01bf 27       		.uleb128 0x27
 2491 01c0 0C       		.uleb128 0xc
 2492 01c1 49       		.uleb128 0x49
 2493 01c2 13       		.uleb128 0x13
 2494 01c3 11       		.uleb128 0x11
 2495 01c4 01       		.uleb128 0x1
 2496 01c5 12       		.uleb128 0x12
 2497 01c6 01       		.uleb128 0x1
 2498 01c7 40       		.uleb128 0x40
 2499 01c8 06       		.uleb128 0x6
 2500 01c9 01       		.uleb128 0x1
 2501 01ca 13       		.uleb128 0x13
 2502 01cb 00       		.byte	0x0
 2503 01cc 00       		.byte	0x0
 2504 01cd 22       		.uleb128 0x22
 2505 01ce 1D       		.uleb128 0x1d
 2506 01cf 01       		.byte	0x1
 2507 01d0 31       		.uleb128 0x31
 2508 01d1 13       		.uleb128 0x13
 2509 01d2 52       		.uleb128 0x52
 2510 01d3 01       		.uleb128 0x1
 2511 01d4 55       		.uleb128 0x55
 2512 01d5 06       		.uleb128 0x6
 2513 01d6 58       		.uleb128 0x58
 2514 01d7 0B       		.uleb128 0xb
 2515 01d8 59       		.uleb128 0x59
 2516 01d9 0B       		.uleb128 0xb
 2517 01da 00       		.byte	0x0
 2518 01db 00       		.byte	0x0
 2519 01dc 23       		.uleb128 0x23
 2520 01dd 05       		.uleb128 0x5
 2521 01de 00       		.byte	0x0
 2522 01df 31       		.uleb128 0x31
 2523 01e0 13       		.uleb128 0x13
 2524 01e1 02       		.uleb128 0x2
 2525 01e2 0A       		.uleb128 0xa
 2526 01e3 00       		.byte	0x0
 2527 01e4 00       		.byte	0x0
 2528 01e5 24       		.uleb128 0x24
 2529 01e6 2E       		.uleb128 0x2e
 2530 01e7 01       		.byte	0x1
 2531 01e8 3F       		.uleb128 0x3f
 2532 01e9 0C       		.uleb128 0xc
 2533 01ea 03       		.uleb128 0x3
 2534 01eb 0E       		.uleb128 0xe
 2535 01ec 3A       		.uleb128 0x3a
 2536 01ed 0B       		.uleb128 0xb
 2537 01ee 3B       		.uleb128 0x3b
 2538 01ef 05       		.uleb128 0x5
 2539 01f0 27       		.uleb128 0x27
 2540 01f1 0C       		.uleb128 0xc
 2541 01f2 49       		.uleb128 0x49
 2542 01f3 13       		.uleb128 0x13
 2543 01f4 11       		.uleb128 0x11
 2544 01f5 01       		.uleb128 0x1
 2545 01f6 12       		.uleb128 0x12
ARM GAS  /tmp/ccgqinv2.s 			page 46


 2546 01f7 01       		.uleb128 0x1
 2547 01f8 40       		.uleb128 0x40
 2548 01f9 06       		.uleb128 0x6
 2549 01fa 01       		.uleb128 0x1
 2550 01fb 13       		.uleb128 0x13
 2551 01fc 00       		.byte	0x0
 2552 01fd 00       		.byte	0x0
 2553 01fe 25       		.uleb128 0x25
 2554 01ff 05       		.uleb128 0x5
 2555 0200 00       		.byte	0x0
 2556 0201 03       		.uleb128 0x3
 2557 0202 08       		.uleb128 0x8
 2558 0203 3A       		.uleb128 0x3a
 2559 0204 0B       		.uleb128 0xb
 2560 0205 3B       		.uleb128 0x3b
 2561 0206 05       		.uleb128 0x5
 2562 0207 49       		.uleb128 0x49
 2563 0208 13       		.uleb128 0x13
 2564 0209 02       		.uleb128 0x2
 2565 020a 06       		.uleb128 0x6
 2566 020b 00       		.byte	0x0
 2567 020c 00       		.byte	0x0
 2568 020d 26       		.uleb128 0x26
 2569 020e 05       		.uleb128 0x5
 2570 020f 00       		.byte	0x0
 2571 0210 03       		.uleb128 0x3
 2572 0211 0E       		.uleb128 0xe
 2573 0212 3A       		.uleb128 0x3a
 2574 0213 0B       		.uleb128 0xb
 2575 0214 3B       		.uleb128 0x3b
 2576 0215 05       		.uleb128 0x5
 2577 0216 49       		.uleb128 0x49
 2578 0217 13       		.uleb128 0x13
 2579 0218 02       		.uleb128 0x2
 2580 0219 06       		.uleb128 0x6
 2581 021a 00       		.byte	0x0
 2582 021b 00       		.byte	0x0
 2583 021c 27       		.uleb128 0x27
 2584 021d 34       		.uleb128 0x34
 2585 021e 00       		.byte	0x0
 2586 021f 03       		.uleb128 0x3
 2587 0220 08       		.uleb128 0x8
 2588 0221 3A       		.uleb128 0x3a
 2589 0222 0B       		.uleb128 0xb
 2590 0223 3B       		.uleb128 0x3b
 2591 0224 05       		.uleb128 0x5
 2592 0225 49       		.uleb128 0x49
 2593 0226 13       		.uleb128 0x13
 2594 0227 02       		.uleb128 0x2
 2595 0228 06       		.uleb128 0x6
 2596 0229 00       		.byte	0x0
 2597 022a 00       		.byte	0x0
 2598 022b 28       		.uleb128 0x28
 2599 022c 1D       		.uleb128 0x1d
 2600 022d 01       		.byte	0x1
 2601 022e 31       		.uleb128 0x31
 2602 022f 13       		.uleb128 0x13
ARM GAS  /tmp/ccgqinv2.s 			page 47


 2603 0230 52       		.uleb128 0x52
 2604 0231 01       		.uleb128 0x1
 2605 0232 55       		.uleb128 0x55
 2606 0233 06       		.uleb128 0x6
 2607 0234 58       		.uleb128 0x58
 2608 0235 0B       		.uleb128 0xb
 2609 0236 59       		.uleb128 0x59
 2610 0237 05       		.uleb128 0x5
 2611 0238 00       		.byte	0x0
 2612 0239 00       		.byte	0x0
 2613 023a 29       		.uleb128 0x29
 2614 023b 05       		.uleb128 0x5
 2615 023c 00       		.byte	0x0
 2616 023d 03       		.uleb128 0x3
 2617 023e 0E       		.uleb128 0xe
 2618 023f 3A       		.uleb128 0x3a
 2619 0240 0B       		.uleb128 0xb
 2620 0241 3B       		.uleb128 0x3b
 2621 0242 0B       		.uleb128 0xb
 2622 0243 49       		.uleb128 0x49
 2623 0244 13       		.uleb128 0x13
 2624 0245 02       		.uleb128 0x2
 2625 0246 06       		.uleb128 0x6
 2626 0247 00       		.byte	0x0
 2627 0248 00       		.byte	0x0
 2628 0249 2A       		.uleb128 0x2a
 2629 024a 34       		.uleb128 0x34
 2630 024b 00       		.byte	0x0
 2631 024c 03       		.uleb128 0x3
 2632 024d 0E       		.uleb128 0xe
 2633 024e 3A       		.uleb128 0x3a
 2634 024f 0B       		.uleb128 0xb
 2635 0250 3B       		.uleb128 0x3b
 2636 0251 0B       		.uleb128 0xb
 2637 0252 49       		.uleb128 0x49
 2638 0253 13       		.uleb128 0x13
 2639 0254 3F       		.uleb128 0x3f
 2640 0255 0C       		.uleb128 0xc
 2641 0256 3C       		.uleb128 0x3c
 2642 0257 0C       		.uleb128 0xc
 2643 0258 00       		.byte	0x0
 2644 0259 00       		.byte	0x0
 2645 025a 00       		.byte	0x0
 2646              		.section	.debug_pubnames,"",%progbits
 2647 0000 B5000000 		.4byte	0xb5
 2648 0004 0200     		.2byte	0x2
 2649 0006 00000000 		.4byte	.Ldebug_info0
 2650 000a 5C080000 		.4byte	0x85c
 2651 000e 87040000 		.4byte	0x487
 2652 0012 6368436F 		.ascii	"chCondInit\000"
 2652      6E64496E 
 2652      697400
 2653 001d B2040000 		.4byte	0x4b2
 2654 0021 6368436F 		.ascii	"chCondSignal\000"
 2654      6E645369 
 2654      676E616C 
 2654      00
ARM GAS  /tmp/ccgqinv2.s 			page 48


 2655 002e 3C050000 		.4byte	0x53c
 2656 0032 6368436F 		.ascii	"chCondSignalI\000"
 2656      6E645369 
 2656      676E616C 
 2656      4900
 2657 0040 90050000 		.4byte	0x590
 2658 0044 6368436F 		.ascii	"chCondBroadcastI\000"
 2658      6E644272 
 2658      6F616463 
 2658      61737449 
 2658      00
 2659 0055 E4050000 		.4byte	0x5e4
 2660 0059 6368436F 		.ascii	"chCondBroadcast\000"
 2660      6E644272 
 2660      6F616463 
 2660      61737400 
 2661 0069 42060000 		.4byte	0x642
 2662 006d 6368436F 		.ascii	"chCondWaitS\000"
 2662      6E645761 
 2662      69745300 
 2663 0079 C9060000 		.4byte	0x6c9
 2664 007d 6368436F 		.ascii	"chCondWait\000"
 2664      6E645761 
 2664      697400
 2665 0088 36070000 		.4byte	0x736
 2666 008c 6368436F 		.ascii	"chCondWaitTimeoutS\000"
 2666      6E645761 
 2666      69745469 
 2666      6D656F75 
 2666      745300
 2667 009f C5070000 		.4byte	0x7c5
 2668 00a3 6368436F 		.ascii	"chCondWaitTimeout\000"
 2668      6E645761 
 2668      69745469 
 2668      6D656F75 
 2668      7400
 2669 00b5 00000000 		.4byte	0x0
 2670              		.section	.debug_pubtypes,"",%progbits
 2671 0000 2B010000 		.4byte	0x12b
 2672 0004 0200     		.2byte	0x2
 2673 0006 00000000 		.4byte	.Ldebug_info0
 2674 000a 5C080000 		.4byte	0x85c
 2675 000e 3E000000 		.4byte	0x3e
 2676 0012 75696E74 		.ascii	"uint8_t\000"
 2676      385F7400 
 2677 001a 5E000000 		.4byte	0x5e
 2678 001e 696E7433 		.ascii	"int32_t\000"
 2678      325F7400 
 2679 0026 70000000 		.4byte	0x70
 2680 002a 75696E74 		.ascii	"uint32_t\000"
 2680      33325F74 
 2680      00
 2681 0033 90000000 		.4byte	0x90
 2682 0037 746D6F64 		.ascii	"tmode_t\000"
 2682      655F7400 
 2683 003f 9B000000 		.4byte	0x9b
 2684 0043 74737461 		.ascii	"tstate_t\000"
ARM GAS  /tmp/ccgqinv2.s 			page 49


 2684      74655F74 
 2684      00
 2685 004c A6000000 		.4byte	0xa6
 2686 0050 74726566 		.ascii	"trefs_t\000"
 2686      735F7400 
 2687 0058 B1000000 		.4byte	0xb1
 2688 005c 74707269 		.ascii	"tprio_t\000"
 2688      6F5F7400 
 2689 0064 BC000000 		.4byte	0xbc
 2690 0068 6D73675F 		.ascii	"msg_t\000"
 2690      7400
 2691 006e C7000000 		.4byte	0xc7
 2692 0072 6576656E 		.ascii	"eventmask_t\000"
 2692      746D6173 
 2692      6B5F7400 
 2693 007e D2000000 		.4byte	0xd2
 2694 0082 73797374 		.ascii	"systime_t\000"
 2694      696D655F 
 2694      7400
 2695 008c DD000000 		.4byte	0xdd
 2696 0090 636E745F 		.ascii	"cnt_t\000"
 2696      7400
 2697 0096 E8000000 		.4byte	0xe8
 2698 009a 54687265 		.ascii	"Thread\000"
 2698      616400
 2699 00a1 27020000 		.4byte	0x227
 2700 00a5 54687265 		.ascii	"ThreadsQueue\000"
 2700      61647351 
 2700      75657565 
 2700      00
 2701 00b2 49020000 		.4byte	0x249
 2702 00b6 54687265 		.ascii	"ThreadsList\000"
 2702      6164734C 
 2702      69737400 
 2703 00c2 54020000 		.4byte	0x254
 2704 00c6 72656761 		.ascii	"regarm_t\000"
 2704      726D5F74 
 2704      00
 2705 00cf 62020000 		.4byte	0x262
 2706 00d3 636F6E74 		.ascii	"context\000"
 2706      65787400 
 2707 00db 7F020000 		.4byte	0x27f
 2708 00df 696E7463 		.ascii	"intctx\000"
 2708      747800
 2709 00e6 79030000 		.4byte	0x379
 2710 00ea 52656164 		.ascii	"ReadyList\000"
 2710      794C6973 
 2710      7400
 2711 00f4 84030000 		.4byte	0x384
 2712 00f8 4D757465 		.ascii	"Mutex\000"
 2712      7800
 2713 00fe C1030000 		.4byte	0x3c1
 2714 0102 4D757465 		.ascii	"Mutex\000"
 2714      7800
 2715 0108 CC030000 		.4byte	0x3cc
 2716 010c 436F6E64 		.ascii	"CondVar\000"
 2716      56617200 
ARM GAS  /tmp/ccgqinv2.s 			page 50


 2717 0114 E7030000 		.4byte	0x3e7
 2718 0118 436F6E64 		.ascii	"CondVar\000"
 2718      56617200 
 2719 0120 F3000000 		.4byte	0xf3
 2720 0124 54687265 		.ascii	"Thread\000"
 2720      616400
 2721 012b 00000000 		.4byte	0x0
 2722              		.section	.debug_aranges,"",%progbits
 2723 0000 5C000000 		.4byte	0x5c
 2724 0004 0200     		.2byte	0x2
 2725 0006 00000000 		.4byte	.Ldebug_info0
 2726 000a 04       		.byte	0x4
 2727 000b 00       		.byte	0x0
 2728 000c 0000     		.2byte	0x0
 2729 000e 0000     		.2byte	0x0
 2730 0010 00000000 		.4byte	.LFB7
 2731 0014 06000000 		.4byte	.LFE7-.LFB7
 2732 0018 00000000 		.4byte	.LFB8
 2733 001c 24000000 		.4byte	.LFE8-.LFB8
 2734 0020 00000000 		.4byte	.LFB9
 2735 0024 1A000000 		.4byte	.LFE9-.LFB9
 2736 0028 00000000 		.4byte	.LFB11
 2737 002c 22000000 		.4byte	.LFE11-.LFB11
 2738 0030 00000000 		.4byte	.LFB10
 2739 0034 18000000 		.4byte	.LFE10-.LFB10
 2740 0038 00000000 		.4byte	.LFB13
 2741 003c 4A000000 		.4byte	.LFE13-.LFB13
 2742 0040 00000000 		.4byte	.LFB12
 2743 0044 14000000 		.4byte	.LFE12-.LFB12
 2744 0048 00000000 		.4byte	.LFB15
 2745 004c 54000000 		.4byte	.LFE15-.LFB15
 2746 0050 00000000 		.4byte	.LFB14
 2747 0054 14000000 		.4byte	.LFE14-.LFB14
 2748 0058 00000000 		.4byte	0x0
 2749 005c 00000000 		.4byte	0x0
 2750              		.section	.debug_ranges,"",%progbits
 2751              	.Ldebug_ranges0:
 2752 0000 10000000 		.4byte	.LBB15
 2753 0004 12000000 		.4byte	.LBE15
 2754 0008 14000000 		.4byte	.LBB18
 2755 000c 18000000 		.4byte	.LBE18
 2756 0010 00000000 		.4byte	0x0
 2757 0014 00000000 		.4byte	0x0
 2758 0018 10000000 		.4byte	.LBB16
 2759 001c 12000000 		.4byte	.LBE16
 2760 0020 14000000 		.4byte	.LBB17
 2761 0024 18000000 		.4byte	.LBE17
 2762 0028 00000000 		.4byte	0x0
 2763 002c 00000000 		.4byte	0x0
 2764 0030 16000000 		.4byte	.LBB26
 2765 0034 34000000 		.4byte	.LBE26
 2766 0038 46000000 		.4byte	.LBB29
 2767 003c 4A000000 		.4byte	.LBE29
 2768 0040 00000000 		.4byte	0x0
 2769 0044 00000000 		.4byte	0x0
 2770 0048 16000000 		.4byte	.LBB27
 2771 004c 34000000 		.4byte	.LBE27
ARM GAS  /tmp/ccgqinv2.s 			page 51


 2772 0050 46000000 		.4byte	.LBB28
 2773 0054 4A000000 		.4byte	.LBE28
 2774 0058 00000000 		.4byte	0x0
 2775 005c 00000000 		.4byte	0x0
 2776 0060 16000000 		.4byte	.LBB32
 2777 0064 18000000 		.4byte	.LBE32
 2778 0068 50000000 		.4byte	.LBB37
 2779 006c 54000000 		.4byte	.LBE37
 2780 0070 1A000000 		.4byte	.LBB36
 2781 0074 36000000 		.4byte	.LBE36
 2782 0078 00000000 		.4byte	0x0
 2783 007c 00000000 		.4byte	0x0
 2784 0080 16000000 		.4byte	.LBB34
 2785 0084 18000000 		.4byte	.LBE34
 2786 0088 50000000 		.4byte	.LBB35
 2787 008c 54000000 		.4byte	.LBE35
 2788 0090 1A000000 		.4byte	.LBB33
 2789 0094 36000000 		.4byte	.LBE33
 2790 0098 00000000 		.4byte	0x0
 2791 009c 00000000 		.4byte	0x0
 2792 00a0 00000000 		.4byte	.LFB7
 2793 00a4 06000000 		.4byte	.LFE7
 2794 00a8 00000000 		.4byte	.LFB8
 2795 00ac 24000000 		.4byte	.LFE8
 2796 00b0 00000000 		.4byte	.LFB9
 2797 00b4 1A000000 		.4byte	.LFE9
 2798 00b8 00000000 		.4byte	.LFB11
 2799 00bc 22000000 		.4byte	.LFE11
 2800 00c0 00000000 		.4byte	.LFB10
 2801 00c4 18000000 		.4byte	.LFE10
 2802 00c8 00000000 		.4byte	.LFB13
 2803 00cc 4A000000 		.4byte	.LFE13
 2804 00d0 00000000 		.4byte	.LFB12
 2805 00d4 14000000 		.4byte	.LFE12
 2806 00d8 00000000 		.4byte	.LFB15
 2807 00dc 54000000 		.4byte	.LFE15
 2808 00e0 00000000 		.4byte	.LFB14
 2809 00e4 14000000 		.4byte	.LFE14
 2810 00e8 00000000 		.4byte	0x0
 2811 00ec 00000000 		.4byte	0x0
 2812              		.section	.debug_str,"MS",%progbits,1
 2813              	.LASF33:
 2814 0000 705F6D73 		.ascii	"p_msg\000"
 2814      6700
 2815              	.LASF61:
 2816 0006 6368436F 		.ascii	"chCondInit\000"
 2816      6E64496E 
 2816      697400
 2817              	.LASF57:
 2818 0011 7264796D 		.ascii	"rdymsg\000"
 2818      736700
 2819              	.LASF11:
 2820 0018 6C6F6E67 		.ascii	"long long unsigned int\000"
 2820      206C6F6E 
 2820      6720756E 
 2820      7369676E 
 2820      65642069 
ARM GAS  /tmp/ccgqinv2.s 			page 52


 2821              	.LASF58:
 2822 002f 65786974 		.ascii	"exitcode\000"
 2822      636F6465 
 2822      00
 2823              	.LASF64:
 2824 0038 6368436F 		.ascii	"chCondBroadcastI\000"
 2824      6E644272 
 2824      6F616463 
 2824      61737449 
 2824      00
 2825              	.LASF23:
 2826 0049 705F7072 		.ascii	"p_prio\000"
 2826      696F00
 2827              	.LASF10:
 2828 0050 6C6F6E67 		.ascii	"long long int\000"
 2828      206C6F6E 
 2828      6720696E 
 2828      7400
 2829              	.LASF1:
 2830 005e 7369676E 		.ascii	"signed char\000"
 2830      65642063 
 2830      68617200 
 2831              	.LASF37:
 2832 006a 705F6D70 		.ascii	"p_mpool\000"
 2832      6F6F6C00 
 2833              	.LASF52:
 2834 0072 6D5F7175 		.ascii	"m_queue\000"
 2834      65756500 
 2835              	.LASF59:
 2836 007a 77746F62 		.ascii	"wtobjp\000"
 2836      6A7000
 2837              	.LASF55:
 2838 0081 436F6E64 		.ascii	"CondVar\000"
 2838      56617200 
 2839              	.LASF7:
 2840 0089 6C6F6E67 		.ascii	"long int\000"
 2840      20696E74 
 2840      00
 2841              	.LASF13:
 2842 0092 74737461 		.ascii	"tstate_t\000"
 2842      74655F74 
 2842      00
 2843              	.LASF25:
 2844 009b 705F6E65 		.ascii	"p_newer\000"
 2844      77657200 
 2845              	.LASF46:
 2846 00a3 725F6E65 		.ascii	"r_newer\000"
 2846      77657200 
 2847              	.LASF40:
 2848 00ab 72656761 		.ascii	"regarm_t\000"
 2848      726D5F74 
 2848      00
 2849              	.LASF62:
 2850 00b4 6368436F 		.ascii	"chCondSignal\000"
 2850      6E645369 
 2850      676E616C 
 2850      00
ARM GAS  /tmp/ccgqinv2.s 			page 53


 2851              	.LASF19:
 2852 00c1 636E745F 		.ascii	"cnt_t\000"
 2852      7400
 2853              	.LASF0:
 2854 00c7 756E7369 		.ascii	"unsigned int\000"
 2854      676E6564 
 2854      20696E74 
 2854      00
 2855              	.LASF9:
 2856 00d4 6C6F6E67 		.ascii	"long unsigned int\000"
 2856      20756E73 
 2856      69676E65 
 2856      6420696E 
 2856      7400
 2857              	.LASF41:
 2858 00e6 636F6E74 		.ascii	"context\000"
 2858      65787400 
 2859              	.LASF4:
 2860 00ee 73686F72 		.ascii	"short unsigned int\000"
 2860      7420756E 
 2860      7369676E 
 2860      65642069 
 2860      6E7400
 2861              	.LASF16:
 2862 0101 6D73675F 		.ascii	"msg_t\000"
 2862      7400
 2863              	.LASF76:
 2864 0107 7072696F 		.ascii	"prio_insert\000"
 2864      5F696E73 
 2864      65727400 
 2865              	.LASF12:
 2866 0113 746D6F64 		.ascii	"tmode_t\000"
 2866      655F7400 
 2867              	.LASF39:
 2868 011b 54687265 		.ascii	"ThreadsList\000"
 2868      6164734C 
 2868      69737400 
 2869              	.LASF17:
 2870 0127 6576656E 		.ascii	"eventmask_t\000"
 2870      746D6173 
 2870      6B5F7400 
 2871              	.LASF51:
 2872 0133 4D757465 		.ascii	"Mutex\000"
 2872      7800
 2873              	.LASF73:
 2874 0139 63686962 		.ascii	"chibios/os/kernel/src/chcond.c\000"
 2874      696F732F 
 2874      6F732F6B 
 2874      65726E65 
 2874      6C2F7372 
 2875              	.LASF68:
 2876 0158 6368436F 		.ascii	"chCondWaitTimeoutS\000"
 2876      6E645761 
 2876      69745469 
 2876      6D656F75 
 2876      745300
 2877              	.LASF74:
ARM GAS  /tmp/ccgqinv2.s 			page 54


 2878 016b 2F686F6D 		.ascii	"/home/dan/github/github-projects/Quad-Rotor/QuadRot"
 2878      652F6461 
 2878      6E2F6769 
 2878      74687562 
 2878      2F676974 
 2879 019e 6F7200   		.ascii	"or\000"
 2880              	.LASF26:
 2881 01a1 705F6F6C 		.ascii	"p_older\000"
 2881      64657200 
 2882              	.LASF45:
 2883 01a9 725F6374 		.ascii	"r_ctx\000"
 2883      7800
 2884              	.LASF38:
 2885 01af 54687265 		.ascii	"ThreadsQueue\000"
 2885      61647351 
 2885      75657565 
 2885      00
 2886              	.LASF69:
 2887 01bc 74696D65 		.ascii	"time\000"
 2887      00
 2888              	.LASF49:
 2889 01c1 725F6375 		.ascii	"r_current\000"
 2889      7272656E 
 2889      7400
 2890              	.LASF47:
 2891 01cb 725F6F6C 		.ascii	"r_older\000"
 2891      64657200 
 2892              	.LASF65:
 2893 01d3 6368436F 		.ascii	"chCondBroadcast\000"
 2893      6E644272 
 2893      6F616463 
 2893      61737400 
 2894              	.LASF14:
 2895 01e3 74726566 		.ascii	"trefs_t\000"
 2895      735F7400 
 2896              	.LASF22:
 2897 01eb 705F7072 		.ascii	"p_prev\000"
 2897      657600
 2898              	.LASF15:
 2899 01f2 74707269 		.ascii	"tprio_t\000"
 2899      6F5F7400 
 2900              	.LASF63:
 2901 01fa 6368436F 		.ascii	"chCondSignalI\000"
 2901      6E645369 
 2901      676E616C 
 2901      4900
 2902              	.LASF6:
 2903 0208 696E7433 		.ascii	"int32_t\000"
 2903      325F7400 
 2904              	.LASF2:
 2905 0210 756E7369 		.ascii	"unsigned char\000"
 2905      676E6564 
 2905      20636861 
 2905      7200
 2906              	.LASF35:
 2907 021e 705F6D74 		.ascii	"p_mtxlist\000"
 2907      786C6973 
ARM GAS  /tmp/ccgqinv2.s 			page 55


 2907      7400
 2908              	.LASF3:
 2909 0228 73686F72 		.ascii	"short int\000"
 2909      7420696E 
 2909      7400
 2910              	.LASF27:
 2911 0232 705F7374 		.ascii	"p_state\000"
 2911      61746500 
 2912              	.LASF44:
 2913 023a 725F7072 		.ascii	"r_prio\000"
 2913      696F00
 2914              	.LASF60:
 2915 0241 65776D61 		.ascii	"ewmask\000"
 2915      736B00
 2916              	.LASF21:
 2917 0248 705F6E65 		.ascii	"p_next\000"
 2917      787400
 2918              	.LASF28:
 2919 024f 705F666C 		.ascii	"p_flags\000"
 2919      61677300 
 2920              	.LASF20:
 2921 0257 54687265 		.ascii	"Thread\000"
 2921      616400
 2922              	.LASF56:
 2923 025e 635F7175 		.ascii	"c_queue\000"
 2923      65756500 
 2924              	.LASF34:
 2925 0266 705F6570 		.ascii	"p_epending\000"
 2925      656E6469 
 2925      6E6700
 2926              	.LASF8:
 2927 0271 75696E74 		.ascii	"uint32_t\000"
 2927      33325F74 
 2927      00
 2928              	.LASF43:
 2929 027a 725F7175 		.ascii	"r_queue\000"
 2929      65756500 
 2930              	.LASF75:
 2931 0282 6669666F 		.ascii	"fifo_remove\000"
 2931      5F72656D 
 2931      6F766500 
 2932              	.LASF66:
 2933 028e 6368436F 		.ascii	"chCondWaitS\000"
 2933      6E645761 
 2933      69745300 
 2934              	.LASF54:
 2935 029a 6D5F6E65 		.ascii	"m_next\000"
 2935      787400
 2936              	.LASF18:
 2937 02a1 73797374 		.ascii	"systime_t\000"
 2937      696D655F 
 2937      7400
 2938              	.LASF36:
 2939 02ab 705F7265 		.ascii	"p_realprio\000"
 2939      616C7072 
 2939      696F00
 2940              	.LASF67:
ARM GAS  /tmp/ccgqinv2.s 			page 56


 2941 02b6 6368436F 		.ascii	"chCondWait\000"
 2941      6E645761 
 2941      697400
 2942              	.LASF30:
 2943 02c1 705F7469 		.ascii	"p_time\000"
 2943      6D6500
 2944              	.LASF42:
 2945 02c8 696E7463 		.ascii	"intctx\000"
 2945      747800
 2946              	.LASF32:
 2947 02cf 705F6D73 		.ascii	"p_msgqueue\000"
 2947      67717565 
 2947      756500
 2948              	.LASF29:
 2949 02da 705F7265 		.ascii	"p_refs\000"
 2949      667300
 2950              	.LASF50:
 2951 02e1 52656164 		.ascii	"ReadyList\000"
 2951      794C6973 
 2951      7400
 2952              	.LASF71:
 2953 02eb 726C6973 		.ascii	"rlist\000"
 2953      7400
 2954              	.LASF5:
 2955 02f1 75696E74 		.ascii	"uint8_t\000"
 2955      385F7400 
 2956              	.LASF72:
 2957 02f9 474E5520 		.ascii	"GNU C 4.5.1\000"
 2957      4320342E 
 2957      352E3100 
 2958              	.LASF70:
 2959 0305 6368436F 		.ascii	"chCondWaitTimeout\000"
 2959      6E645761 
 2959      69745469 
 2959      6D656F75 
 2959      7400
 2960              	.LASF48:
 2961 0317 725F7072 		.ascii	"r_preempt\000"
 2961      65656D70 
 2961      7400
 2962              	.LASF53:
 2963 0321 6D5F6F77 		.ascii	"m_owner\000"
 2963      6E657200 
 2964              	.LASF24:
 2965 0329 705F6374 		.ascii	"p_ctx\000"
 2965      7800
 2966              	.LASF31:
 2967 032f 705F7761 		.ascii	"p_waiting\000"
 2967      6974696E 
 2967      6700
 2968              		.ident	"GCC: (GNU) 4.5.1"
ARM GAS  /tmp/ccgqinv2.s 			page 57


DEFINED SYMBOLS
                            *ABS*:0000000000000000 chcond.c
     /tmp/ccgqinv2.s:24     .text.chCondInit:0000000000000000 $t
     /tmp/ccgqinv2.s:30     .text.chCondInit:0000000000000000 chCondInit
     /tmp/ccgqinv2.s:48     .text.chCondSignal:0000000000000000 $t
     /tmp/ccgqinv2.s:54     .text.chCondSignal:0000000000000000 chCondSignal
     /tmp/ccgqinv2.s:121    .text.chCondSignalI:0000000000000000 $t
     /tmp/ccgqinv2.s:127    .text.chCondSignalI:0000000000000000 chCondSignalI
     /tmp/ccgqinv2.s:166    .text.chCondBroadcastI:0000000000000000 $t
     /tmp/ccgqinv2.s:172    .text.chCondBroadcastI:0000000000000000 chCondBroadcastI
     /tmp/ccgqinv2.s:220    .text.chCondBroadcast:0000000000000000 $t
     /tmp/ccgqinv2.s:226    .text.chCondBroadcast:0000000000000000 chCondBroadcast
     /tmp/ccgqinv2.s:269    .text.chCondWaitS:0000000000000000 $t
     /tmp/ccgqinv2.s:275    .text.chCondWaitS:0000000000000000 chCondWaitS
     /tmp/ccgqinv2.s:366    .text.chCondWait:0000000000000000 $t
     /tmp/ccgqinv2.s:372    .text.chCondWait:0000000000000000 chCondWait
     /tmp/ccgqinv2.s:413    .text.chCondWaitTimeoutS:0000000000000000 $t
     /tmp/ccgqinv2.s:419    .text.chCondWaitTimeoutS:0000000000000000 chCondWaitTimeoutS
     /tmp/ccgqinv2.s:525    .text.chCondWaitTimeout:0000000000000000 $t
     /tmp/ccgqinv2.s:531    .text.chCondWaitTimeout:0000000000000000 chCondWaitTimeout
                     .debug_frame:0000000000000010 $d

UNDEFINED SYMBOLS
chSchWakeupS
chSchReadyI
chSchRescheduleS
rlist
chMtxUnlockS
chSchGoSleepS
chMtxLockS
chSchGoSleepTimeoutS
