ARM GAS  /tmp/ccuF8Ohm.s 			page 1


   1              		.syntax unified
   2              		.cpu cortex-m3
   3              		.fpu softvfp
   4              		.eabi_attribute 20, 1
   5              		.eabi_attribute 21, 1
   6              		.eabi_attribute 23, 3
   7              		.eabi_attribute 24, 1
   8              		.eabi_attribute 25, 1
   9              		.eabi_attribute 26, 1
  10              		.eabi_attribute 30, 2
  11              		.eabi_attribute 18, 4
  12              		.thumb
  13              		.file	"chcond.c"
  20 0000 7C020000 		.text
  20      02004F01 
  20      00000201 
  20      FB0E0D00 
  20      01010101 
  21              	.Ltext0:
  22              		.cfi_sections	.debug_frame
  23              		.section	.text.chCondInit,"ax",%progbits
  24              		.align	2
  25              		.p2align 4,,15
  26              		.global	chCondInit
  27              		.thumb
  28              		.thumb_func
  29              		.type	chCondInit, %function
  30              	chCondInit:
  31              	.LFB7:
  32              		.file 1 "../../os/kernel/src/chcond.c"
  33              		.loc 1 58 0
  34              		.cfi_startproc
  35              		@ args = 0, pretend = 0, frame = 0
  36              		@ frame_needed = 0, uses_anonymous_args = 0
  37              		@ link register save eliminated.
  38              	.LVL0:
  39              		.loc 1 62 0
  40 0000 0060     		str	r0, [r0, #0]
  41 0002 4060     		str	r0, [r0, #4]
  42              		.loc 1 63 0
  43 0004 7047     		bx	lr
  44              		.cfi_endproc
  45              	.LFE7:
  46              		.size	chCondInit, .-chCondInit
  47 0006 00BFAFF3 		.section	.text.chCondWaitTimeoutS,"ax",%progbits
  47      0080AFF3 
  47      0080
  48              		.align	2
  49              		.p2align 4,,15
  50              		.global	chCondWaitTimeoutS
  51              		.thumb
ARM GAS  /tmp/ccuF8Ohm.s 			page 2


  52              		.thumb_func
  53              		.type	chCondWaitTimeoutS, %function
  54              	chCondWaitTimeoutS:
  55              	.LFB15:
  56              		.loc 1 266 0
  57              		.cfi_startproc
  58              		@ args = 0, pretend = 0, frame = 0
  59              		@ frame_needed = 0, uses_anonymous_args = 0
  60              	.LVL1:
  61 0000 F8B5     		push	{r3, r4, r5, r6, r7, lr}
  62              	.LCFI0:
  63              		.cfi_def_cfa_offset 24
  64              		.loc 1 266 0
  65 0002 0446     		mov	r4, r0
  66              		.cfi_offset 14, -4
  67              		.cfi_offset 7, -8
  68              		.cfi_offset 6, -12
  69              		.cfi_offset 5, -16
  70              		.cfi_offset 4, -20
  71              		.cfi_offset 3, -24
  72 0004 0E46     		mov	r6, r1
  73              		.loc 1 275 0
  74 0006 FFF7FEFF 		bl	chMtxUnlockS
  75              	.LVL2:
  76              		.loc 1 276 0
  77 000a 40F20003 		movw	r3, #:lower16:rlist
  78 000e C0F20003 		movt	r3, #:upper16:rlist
  79 0012 DA69     		ldr	r2, [r3, #28]
  80              		.loc 1 275 0
  81 0014 0546     		mov	r5, r0
  82              	.LVL3:
  83              	.LBB14:
  84              	.LBB16:
  85              		.file 2 "../../os/kernel/include/chinline.h"
  86              		.loc 2 42 0
  87 0016 2746     		mov	r7, r4
  88              	.LVL4:
  89              	.LBE16:
  90              	.LBE14:
  91              		.loc 1 276 0
  92 0018 1462     		str	r4, [r2, #32]
  93              	.LBB18:
  94              	.LBB15:
  95              		.loc 2 42 0
  96 001a 2346     		mov	r3, r4
  97              	.LVL5:
  98              	.L5:
  99              		.loc 2 44 0
 100 001c 1B68     		ldr	r3, [r3, #0]
 101              		.loc 2 45 0
 102 001e 9C42     		cmp	r4, r3
 103 0020 04D0     		beq	.L4
 104 0022 9868     		ldr	r0, [r3, #8]
 105 0024 9168     		ldr	r1, [r2, #8]
 106 0026 8842     		cmp	r0, r1
 107 0028 F8D2     		bcs	.L5
 108 002a 1F46     		mov	r7, r3
ARM GAS  /tmp/ccuF8Ohm.s 			page 3


 109              	.L4:
 110              		.loc 2 47 0
 111 002c 7C68     		ldr	r4, [r7, #4]
 112              	.LVL6:
 113              		.loc 2 46 0
 114 002e 1760     		str	r7, [r2, #0]
 115              		.loc 2 47 0
 116 0030 5460     		str	r4, [r2, #4]
 117              		.loc 2 48 0
 118 0032 2260     		str	r2, [r4, #0]
 119              	.LBE15:
 120              	.LBE18:
 121              		.loc 1 278 0
 122 0034 0520     		movs	r0, #5
 123              	.LBB19:
 124              	.LBB17:
 125              		.loc 2 48 0
 126 0036 7A60     		str	r2, [r7, #4]
 127              	.LBE17:
 128              	.LBE19:
 129              		.loc 1 278 0
 130 0038 3146     		mov	r1, r6
 131 003a FFF7FEFF 		bl	chSchGoSleepTimeoutS
 132              	.LVL7:
 133              		.loc 1 279 0
 134 003e B0F1FF3F 		cmp	r0, #-1
 135              	.LVL8:
 136              		.loc 1 278 0
 137 0042 0446     		mov	r4, r0
 138              	.LVL9:
 139              		.loc 1 279 0
 140 0044 02D0     		beq	.L6
 141              		.loc 1 280 0
 142 0046 2846     		mov	r0, r5
 143 0048 FFF7FEFF 		bl	chMtxLockS
 144              	.L6:
 145              		.loc 1 282 0
 146 004c 2046     		mov	r0, r4
 147 004e F8BD     		pop	{r3, r4, r5, r6, r7, pc}
 148              		.cfi_endproc
 149              	.LFE15:
 150              		.size	chCondWaitTimeoutS, .-chCondWaitTimeoutS
 151              		.section	.text.chCondWaitTimeout,"ax",%progbits
 152              		.align	2
 153              		.p2align 4,,15
 154              		.global	chCondWaitTimeout
 155              		.thumb
 156              		.thumb_func
 157              		.type	chCondWaitTimeout, %function
 158              	chCondWaitTimeout:
 159              	.LFB14:
 160              		.loc 1 229 0
 161              		.cfi_startproc
 162              		@ args = 0, pretend = 0, frame = 0
 163              		@ frame_needed = 0, uses_anonymous_args = 0
 164              	.LVL10:
 165 0000 08B5     		push	{r3, lr}
ARM GAS  /tmp/ccuF8Ohm.s 			page 4


 166              	.LCFI1:
 167              		.cfi_def_cfa_offset 8
 168              	.LBB20:
 169              		.loc 1 232 0
 170 0002 2023     		movs	r3, #32
 171              		.cfi_offset 14, -4
 172              		.cfi_offset 3, -8
 173              	.LVL11:
 174              	@ 232 "../../os/kernel/src/chcond.c" 1
 175 0004 83F31188 		msr     BASEPRI, r3
 176              	@ 0 "" 2
 177              		.thumb
 178              	.LBE20:
 179              		.loc 1 233 0
 180 0008 FFF7FEFF 		bl	chCondWaitTimeoutS
 181              	.LVL12:
 182              	.LBB21:
 183              		.loc 1 234 0
 184 000c 0023     		movs	r3, #0
 185              	.LVL13:
 186              	@ 234 "../../os/kernel/src/chcond.c" 1
 187 000e 83F31188 		msr     BASEPRI, r3
 188              	@ 0 "" 2
 189              		.thumb
 190              	.LBE21:
 191              		.loc 1 236 0
 192 0012 08BD     		pop	{r3, pc}
 193              		.cfi_endproc
 194              	.LFE14:
 195              		.size	chCondWaitTimeout, .-chCondWaitTimeout
 196 0014 AFF30080 		.section	.text.chCondWaitS,"ax",%progbits
 196      AFF30080 
 196      AFF30080 
 197              		.align	2
 198              		.p2align 4,,15
 199              		.global	chCondWaitS
 200              		.thumb
 201              		.thumb_func
 202              		.type	chCondWaitS, %function
 203              	chCondWaitS:
 204              	.LFB13:
 205              		.loc 1 181 0
 206              		.cfi_startproc
 207              		@ args = 0, pretend = 0, frame = 0
 208              		@ frame_needed = 0, uses_anonymous_args = 0
 209              	.LVL14:
 210              		.loc 1 182 0
 211 0000 40F20003 		movw	r3, #:lower16:rlist
 212              		.loc 1 181 0
 213 0004 70B5     		push	{r4, r5, r6, lr}
 214              	.LCFI2:
 215              		.cfi_def_cfa_offset 16
 216              		.loc 1 182 0
 217 0006 C0F20003 		movt	r3, #:upper16:rlist
 218              		.loc 1 181 0
 219 000a 0546     		mov	r5, r0
 220              		.cfi_offset 14, -4
ARM GAS  /tmp/ccuF8Ohm.s 			page 5


 221              		.cfi_offset 6, -8
 222              		.cfi_offset 5, -12
 223              		.cfi_offset 4, -16
 224              		.loc 1 182 0
 225 000c DC69     		ldr	r4, [r3, #28]
 226              	.LVL15:
 227              		.loc 1 191 0
 228 000e FFF7FEFF 		bl	chMtxUnlockS
 229              	.LVL16:
 230              		.loc 1 192 0
 231 0012 2562     		str	r5, [r4, #32]
 232              		.loc 1 191 0
 233 0014 0646     		mov	r6, r0
 234              	.LVL17:
 235              	.LBB22:
 236              	.LBB23:
 237              		.loc 2 42 0
 238 0016 2B46     		mov	r3, r5
 239              	.LVL18:
 240 0018 2846     		mov	r0, r5
 241              	.LVL19:
 242              	.L14:
 243              		.loc 2 44 0
 244 001a 1B68     		ldr	r3, [r3, #0]
 245              	.LVL20:
 246              		.loc 2 45 0
 247 001c 9D42     		cmp	r5, r3
 248 001e 04D0     		beq	.L13
 249 0020 9968     		ldr	r1, [r3, #8]
 250 0022 A268     		ldr	r2, [r4, #8]
 251 0024 9142     		cmp	r1, r2
 252 0026 F8D2     		bcs	.L14
 253 0028 1846     		mov	r0, r3
 254              	.L13:
 255              		.loc 2 47 0
 256 002a 4368     		ldr	r3, [r0, #4]
 257              	.LVL21:
 258              		.loc 2 46 0
 259 002c 2060     		str	r0, [r4, #0]
 260              		.loc 2 47 0
 261 002e 6360     		str	r3, [r4, #4]
 262              		.loc 2 48 0
 263 0030 1C60     		str	r4, [r3, #0]
 264 0032 4460     		str	r4, [r0, #4]
 265              	.LBE23:
 266              	.LBE22:
 267              		.loc 1 194 0
 268 0034 0520     		movs	r0, #5
 269              	.LVL22:
 270 0036 FFF7FEFF 		bl	chSchGoSleepS
 271              		.loc 1 195 0
 272 003a 246A     		ldr	r4, [r4, #32]
 273              	.LVL23:
 274              		.loc 1 196 0
 275 003c 3046     		mov	r0, r6
 276 003e FFF7FEFF 		bl	chMtxLockS
 277              		.loc 1 198 0
ARM GAS  /tmp/ccuF8Ohm.s 			page 6


 278 0042 2046     		mov	r0, r4
 279 0044 70BD     		pop	{r4, r5, r6, pc}
 280              		.cfi_endproc
 281              	.LFE13:
 282              		.size	chCondWaitS, .-chCondWaitS
 283 0046 00BFAFF3 		.section	.text.chCondWait,"ax",%progbits
 283      0080AFF3 
 283      0080
 284              		.align	2
 285              		.p2align 4,,15
 286              		.global	chCondWait
 287              		.thumb
 288              		.thumb_func
 289              		.type	chCondWait, %function
 290              	chCondWait:
 291              	.LFB12:
 292              		.loc 1 155 0
 293              		.cfi_startproc
 294              		@ args = 0, pretend = 0, frame = 0
 295              		@ frame_needed = 0, uses_anonymous_args = 0
 296              	.LVL24:
 297 0000 08B5     		push	{r3, lr}
 298              	.LCFI3:
 299              		.cfi_def_cfa_offset 8
 300              	.LBB24:
 301              		.loc 1 158 0
 302 0002 2023     		movs	r3, #32
 303              		.cfi_offset 14, -4
 304              		.cfi_offset 3, -8
 305              	.LVL25:
 306              	@ 158 "../../os/kernel/src/chcond.c" 1
 307 0004 83F31188 		msr     BASEPRI, r3
 308              	@ 0 "" 2
 309              		.thumb
 310              	.LBE24:
 311              		.loc 1 159 0
 312 0008 FFF7FEFF 		bl	chCondWaitS
 313              	.LVL26:
 314              	.LBB25:
 315              		.loc 1 160 0
 316 000c 0023     		movs	r3, #0
 317              	.LVL27:
 318              	@ 160 "../../os/kernel/src/chcond.c" 1
 319 000e 83F31188 		msr     BASEPRI, r3
 320              	@ 0 "" 2
 321              		.thumb
 322              	.LBE25:
 323              		.loc 1 162 0
 324 0012 08BD     		pop	{r3, pc}
 325              		.cfi_endproc
 326              	.LFE12:
 327              		.size	chCondWait, .-chCondWait
 328 0014 AFF30080 		.section	.text.chCondBroadcastI,"ax",%progbits
 328      AFF30080 
 328      AFF30080 
 329              		.align	2
 330              		.p2align 4,,15
ARM GAS  /tmp/ccuF8Ohm.s 			page 7


 331              		.global	chCondBroadcastI
 332              		.thumb
 333              		.thumb_func
 334              		.type	chCondBroadcastI, %function
 335              	chCondBroadcastI:
 336              	.LFB11:
 337              		.loc 1 127 0
 338              		.cfi_startproc
 339              		@ args = 0, pretend = 0, frame = 0
 340              		@ frame_needed = 0, uses_anonymous_args = 0
 341              	.LVL28:
 342 0000 38B5     		push	{r3, r4, r5, lr}
 343              	.LCFI4:
 344              		.cfi_def_cfa_offset 16
 345              		.loc 1 127 0
 346 0002 0446     		mov	r4, r0
 347              		.cfi_offset 14, -4
 348              		.cfi_offset 5, -8
 349              		.cfi_offset 4, -12
 350              		.cfi_offset 3, -16
 351              		.loc 1 134 0
 352 0004 0068     		ldr	r0, [r0, #0]
 353              	.LVL29:
 354 0006 A042     		cmp	r0, r4
 355 0008 0AD0     		beq	.L22
 356              		.loc 1 135 0
 357 000a 6FF00105 		mvn	r5, #1
 358              	.L23:
 359              	.LBB26:
 360              	.LBB27:
 361              		.loc 2 61 0
 362 000e 0368     		ldr	r3, [r0, #0]
 363 0010 2360     		str	r3, [r4, #0]
 364 0012 5C60     		str	r4, [r3, #4]
 365              	.LBE27:
 366              	.LBE26:
 367              		.loc 1 135 0
 368 0014 FFF7FEFF 		bl	chSchReadyI
 369 0018 0562     		str	r5, [r0, #32]
 370              		.loc 1 134 0
 371 001a 2068     		ldr	r0, [r4, #0]
 372 001c A042     		cmp	r0, r4
 373 001e F6D1     		bne	.L23
 374              	.L22:
 375 0020 38BD     		pop	{r3, r4, r5, pc}
 376              		.cfi_endproc
 377              	.LFE11:
 378              		.size	chCondBroadcastI, .-chCondBroadcastI
 379 0022 00BFAFF3 		.section	.text.chCondSignalI,"ax",%progbits
 379      0080AFF3 
 379      0080AFF3 
 379      0080
 380              		.align	2
 381              		.p2align 4,,15
 382              		.global	chCondSignalI
 383              		.thumb
 384              		.thumb_func
ARM GAS  /tmp/ccuF8Ohm.s 			page 8


 385              		.type	chCondSignalI, %function
 386              	chCondSignalI:
 387              	.LFB9:
 388              		.loc 1 93 0
 389              		.cfi_startproc
 390              		@ args = 0, pretend = 0, frame = 0
 391              		@ frame_needed = 0, uses_anonymous_args = 0
 392              	.LVL30:
 393 0000 08B5     		push	{r3, lr}
 394              	.LCFI5:
 395              		.cfi_def_cfa_offset 8
 396              		.loc 1 93 0
 397 0002 0346     		mov	r3, r0
 398              		.cfi_offset 14, -4
 399              		.cfi_offset 3, -8
 400              		.loc 1 97 0
 401 0004 0068     		ldr	r0, [r0, #0]
 402              	.LVL31:
 403 0006 9842     		cmp	r0, r3
 404 0008 06D0     		beq	.L27
 405              	.LBB28:
 406              	.LBB29:
 407              		.loc 2 61 0
 408 000a 0268     		ldr	r2, [r0, #0]
 409 000c 1A60     		str	r2, [r3, #0]
 410 000e 5360     		str	r3, [r2, #4]
 411              	.LBE29:
 412              	.LBE28:
 413              		.loc 1 98 0
 414 0010 FFF7FEFF 		bl	chSchReadyI
 415              	.LVL32:
 416 0014 0023     		movs	r3, #0
 417 0016 0362     		str	r3, [r0, #32]
 418              	.LVL33:
 419              	.L27:
 420 0018 08BD     		pop	{r3, pc}
 421              		.cfi_endproc
 422              	.LFE9:
 423              		.size	chCondSignalI, .-chCondSignalI
 424 001a 00BFAFF3 		.section	.text.chCondBroadcast,"ax",%progbits
 424      0080
 425              		.align	2
 426              		.p2align 4,,15
 427              		.global	chCondBroadcast
 428              		.thumb
 429              		.thumb_func
 430              		.type	chCondBroadcast, %function
 431              	chCondBroadcast:
 432              	.LFB10:
 433              		.loc 1 108 0
 434              		.cfi_startproc
 435              		@ args = 0, pretend = 0, frame = 0
 436              		@ frame_needed = 0, uses_anonymous_args = 0
 437              	.LVL34:
 438 0000 08B5     		push	{r3, lr}
 439              	.LCFI6:
 440              		.cfi_def_cfa_offset 8
ARM GAS  /tmp/ccuF8Ohm.s 			page 9


 441              	.LBB30:
 442              		.loc 1 110 0
 443 0002 2023     		movs	r3, #32
 444              		.cfi_offset 14, -4
 445              		.cfi_offset 3, -8
 446              	.LVL35:
 447              	@ 110 "../../os/kernel/src/chcond.c" 1
 448 0004 83F31188 		msr     BASEPRI, r3
 449              	@ 0 "" 2
 450              		.thumb
 451              	.LBE30:
 452              		.loc 1 111 0
 453 0008 FFF7FEFF 		bl	chCondBroadcastI
 454              	.LVL36:
 455              		.loc 1 112 0
 456 000c FFF7FEFF 		bl	chSchRescheduleS
 457              	.LBB31:
 458              		.loc 1 113 0
 459 0010 0023     		movs	r3, #0
 460              	.LVL37:
 461              	@ 113 "../../os/kernel/src/chcond.c" 1
 462 0012 83F31188 		msr     BASEPRI, r3
 463              	@ 0 "" 2
 464              		.thumb
 465              	.LBE31:
 466              		.loc 1 114 0
 467 0016 08BD     		pop	{r3, pc}
 468              		.cfi_endproc
 469              	.LFE10:
 470              		.size	chCondBroadcast, .-chCondBroadcast
 471 0018 AFF30080 		.section	.text.chCondSignal,"ax",%progbits
 471      AFF30080 
 472              		.align	2
 473              		.p2align 4,,15
 474              		.global	chCondSignal
 475              		.thumb
 476              		.thumb_func
 477              		.type	chCondSignal, %function
 478              	chCondSignal:
 479              	.LFB8:
 480              		.loc 1 72 0
 481              		.cfi_startproc
 482              		@ args = 0, pretend = 0, frame = 0
 483              		@ frame_needed = 0, uses_anonymous_args = 0
 484              	.LVL38:
 485 0000 08B5     		push	{r3, lr}
 486              	.LCFI7:
 487              		.cfi_def_cfa_offset 8
 488              		.loc 1 72 0
 489 0002 0246     		mov	r2, r0
 490              	.LBB32:
 491              		.loc 1 76 0
 492 0004 2023     		movs	r3, #32
 493              		.cfi_offset 14, -4
 494              		.cfi_offset 3, -8
 495              	.LVL39:
 496              	@ 76 "../../os/kernel/src/chcond.c" 1
ARM GAS  /tmp/ccuF8Ohm.s 			page 10


 497 0006 83F31188 		msr     BASEPRI, r3
 498              	@ 0 "" 2
 499              		.thumb
 500              	.LBE32:
 501              		.loc 1 77 0
 502 000a 0068     		ldr	r0, [r0, #0]
 503              	.LVL40:
 504 000c 9042     		cmp	r0, r2
 505 000e 05D0     		beq	.L31
 506              	.LBB33:
 507              	.LBB34:
 508              		.loc 2 61 0
 509 0010 0368     		ldr	r3, [r0, #0]
 510              	.LVL41:
 511              	.LBE34:
 512              	.LBE33:
 513              		.loc 1 78 0
 514 0012 0021     		movs	r1, #0
 515              	.LBB36:
 516              	.LBB35:
 517              		.loc 2 61 0
 518 0014 1360     		str	r3, [r2, #0]
 519 0016 5A60     		str	r2, [r3, #4]
 520              	.LBE35:
 521              	.LBE36:
 522              		.loc 1 78 0
 523 0018 FFF7FEFF 		bl	chSchWakeupS
 524              	.LVL42:
 525              	.L31:
 526              	.LBB37:
 527              		.loc 1 79 0
 528 001c 0023     		movs	r3, #0
 529              	.LVL43:
 530              	@ 79 "../../os/kernel/src/chcond.c" 1
 531 001e 83F31188 		msr     BASEPRI, r3
 532              	@ 0 "" 2
 533              		.thumb
 534              	.LBE37:
 535              		.loc 1 80 0
 536 0022 08BD     		pop	{r3, pc}
 537              		.cfi_endproc
 538              	.LFE8:
 539              		.size	chCondSignal, .-chCondSignal
 540 0024 AFF30080 		.text
 540      AFF30080 
 540      AFF30080 
 541              	.Letext0: