ARM GAS  /tmp/cc62HuFc.s 			page 1


   1              		.syntax unified
   2              		.cpu cortex-m3
   3              		.fpu softvfp
   4              		.eabi_attribute 20, 1
   5              		.eabi_attribute 21, 1
   6              		.eabi_attribute 23, 3
   7              		.eabi_attribute 24, 1
   8              		.eabi_attribute 25, 1
   9              		.eabi_attribute 26, 1
  10              		.eabi_attribute 30, 2
  11              		.eabi_attribute 18, 4
  12              		.thumb
  13              		.file	"chdynamic.c"
  20 0000 39020000 		.text
  20      0200B101 
  20      00000201 
  20      FB0E0D00 
  20      01010101 
  21              	.Ltext0:
  22              		.cfi_sections	.debug_frame
  23              		.section	.text.chThdAddRef,"ax",%progbits
  24              		.align	2
  25              		.p2align 4,,15
  26              		.global	chThdAddRef
  27              		.thumb
  28              		.thumb_func
  29              		.type	chThdAddRef, %function
  30              	chThdAddRef:
  31              	.LFB7:
  32              		.file 1 "../../os/kernel/src/chdynamic.c"
  33              		.loc 1 51 0
  34              		.cfi_startproc
  35              		@ args = 0, pretend = 0, frame = 0
  36              		@ frame_needed = 0, uses_anonymous_args = 0
  37              		@ link register save eliminated.
  38              	.LVL0:
  39              	.LBB2:
  40              		.loc 1 53 0
  41 0000 2023     		movs	r3, #32
  42              	.LVL1:
  43              	@ 53 "../../os/kernel/src/chdynamic.c" 1
  44 0002 83F31188 		msr     BASEPRI, r3
  45              	@ 0 "" 2
  46              		.thumb
  47              	.LBE2:
  48              		.loc 1 55 0
  49 0006 817E     		ldrb	r1, [r0, #26]	@ zero_extendqisi2
  50              	.LBB3:
  51              		.loc 1 56 0
  52 0008 0023     		movs	r3, #0
  53              	.LVL2:
ARM GAS  /tmp/cc62HuFc.s 			page 2


  54              	.LBE3:
  55              		.loc 1 55 0
  56 000a 0131     		adds	r1, r1, #1
  57 000c 8176     		strb	r1, [r0, #26]
  58              	.LBB4:
  59              		.loc 1 56 0
  60              	@ 56 "../../os/kernel/src/chdynamic.c" 1
  61 000e 83F31188 		msr     BASEPRI, r3
  62              	@ 0 "" 2
  63              	.LVL3:
  64              		.thumb
  65              	.LBE4:
  66              		.loc 1 58 0
  67 0012 7047     		bx	lr
  68              		.cfi_endproc
  69              	.LFE7:
  70              		.size	chThdAddRef, .-chThdAddRef
  71 0014 AFF30080 		.section	.text.chThdCreateFromMemoryPool,"ax",%progbits
  71      AFF30080 
  71      AFF30080 
  72              		.align	2
  73              		.p2align 4,,15
  74              		.global	chThdCreateFromMemoryPool
  75              		.thumb
  76              		.thumb_func
  77              		.type	chThdCreateFromMemoryPool, %function
  78              	chThdCreateFromMemoryPool:
  79              	.LFB10:
  80              		.loc 1 179 0
  81              		.cfi_startproc
  82              		@ args = 0, pretend = 0, frame = 0
  83              		@ frame_needed = 0, uses_anonymous_args = 0
  84              	.LVL4:
  85 0000 F0B5     		push	{r4, r5, r6, r7, lr}
  86              	.LCFI0:
  87              		.cfi_def_cfa_offset 20
  88 0002 83B0     		sub	sp, sp, #12
  89              	.LCFI1:
  90              		.cfi_def_cfa_offset 32
  91              		.loc 1 179 0
  92 0004 0E46     		mov	r6, r1
  93              		.cfi_offset 14, -4
  94              		.cfi_offset 7, -8
  95              		.cfi_offset 6, -12
  96              		.cfi_offset 5, -16
  97              		.cfi_offset 4, -20
  98 0006 1746     		mov	r7, r2
  99 0008 1D46     		mov	r5, r3
 100 000a 0446     		mov	r4, r0
 101              		.loc 1 185 0
 102 000c FFF7FEFF 		bl	chPoolAlloc
 103              	.LVL5:
 104              		.loc 1 186 0
 105 0010 A8B1     		cbz	r0, .L8
 106              	.LBB5:
 107              		.loc 1 198 0
 108 0012 2023     		movs	r3, #32
ARM GAS  /tmp/cc62HuFc.s 			page 3


 109              	.LVL6:
 110              	@ 198 "../../os/kernel/src/chdynamic.c" 1
 111 0014 83F31188 		msr     BASEPRI, r3
 112              	@ 0 "" 2
 113              		.thumb
 114              	.LBE5:
 115              		.loc 1 199 0
 116 0018 6168     		ldr	r1, [r4, #4]
 117 001a 3B46     		mov	r3, r7
 118              	.LVL7:
 119 001c 3246     		mov	r2, r6
 120 001e 0095     		str	r5, [sp, #0]
 121 0020 FFF7FEFF 		bl	chThdCreateI
 122              		.loc 1 200 0
 123 0024 0223     		movs	r3, #2
 124 0026 4376     		strb	r3, [r0, #25]
 125              	.LVL8:
 126              		.loc 1 201 0
 127 0028 0464     		str	r4, [r0, #64]
 128              		.loc 1 202 0
 129 002a 0021     		movs	r1, #0
 130              		.loc 1 199 0
 131 002c 0546     		mov	r5, r0
 132              	.LVL9:
 133              		.loc 1 202 0
 134 002e FFF7FEFF 		bl	chSchWakeupS
 135              	.LBB6:
 136              		.loc 1 203 0
 137 0032 0023     		movs	r3, #0
 138              	.LVL10:
 139              	@ 203 "../../os/kernel/src/chdynamic.c" 1
 140 0034 83F31188 		msr     BASEPRI, r3
 141              	@ 0 "" 2
 142              	.LVL11:
 143              		.thumb
 144              	.L5:
 145              	.LBE6:
 146              		.loc 1 205 0
 147 0038 2846     		mov	r0, r5
 148              	.LVL12:
 149 003a 03B0     		add	sp, sp, #12
 150 003c F0BD     		pop	{r4, r5, r6, r7, pc}
 151              	.LVL13:
 152              	.L8:
 153              		.loc 1 186 0
 154 003e 0546     		mov	r5, r0
 155              	.LVL14:
 156 0040 FAE7     		b	.L5
 157              		.cfi_endproc
 158              	.LFE10:
 159              		.size	chThdCreateFromMemoryPool, .-chThdCreateFromMemoryPool
 160 0042 00BFAFF3 		.section	.text.chThdCreateFromHeap,"ax",%progbits
 160      0080AFF3 
 160      0080AFF3 
 160      0080
 161              		.align	2
 162              		.p2align 4,,15
ARM GAS  /tmp/cc62HuFc.s 			page 4


 163              		.global	chThdCreateFromHeap
 164              		.thumb
 165              		.thumb_func
 166              		.type	chThdCreateFromHeap, %function
 167              	chThdCreateFromHeap:
 168              	.LFB9:
 169              		.loc 1 130 0
 170              		.cfi_startproc
 171              		@ args = 4, pretend = 0, frame = 0
 172              		@ frame_needed = 0, uses_anonymous_args = 0
 173              	.LVL15:
 174 0000 F0B5     		push	{r4, r5, r6, r7, lr}
 175              	.LCFI2:
 176              		.cfi_def_cfa_offset 20
 177 0002 83B0     		sub	sp, sp, #12
 178              	.LCFI3:
 179              		.cfi_def_cfa_offset 32
 180              		.loc 1 130 0
 181 0004 1546     		mov	r5, r2
 182              		.cfi_offset 14, -4
 183              		.cfi_offset 7, -8
 184              		.cfi_offset 6, -12
 185              		.cfi_offset 5, -16
 186              		.cfi_offset 4, -20
 187 0006 1F46     		mov	r7, r3
 188 0008 0E46     		mov	r6, r1
 189              		.loc 1 134 0
 190 000a FFF7FEFF 		bl	chHeapAlloc
 191              	.LVL16:
 192              		.loc 1 135 0
 193 000e 0446     		mov	r4, r0
 194              	.LVL17:
 195 0010 90B1     		cbz	r0, .L11
 196              	.LBB7:
 197              		.loc 1 147 0
 198 0012 2023     		movs	r3, #32
 199              	.LVL18:
 200              	@ 147 "../../os/kernel/src/chdynamic.c" 1
 201 0014 83F31188 		msr     BASEPRI, r3
 202              	@ 0 "" 2
 203              		.thumb
 204              	.LBE7:
 205              		.loc 1 148 0
 206 0018 089C     		ldr	r4, [sp, #32]
 207              	.LVL19:
 208 001a 3B46     		mov	r3, r7
 209              	.LVL20:
 210 001c 3146     		mov	r1, r6
 211 001e 2A46     		mov	r2, r5
 212 0020 0094     		str	r4, [sp, #0]
 213 0022 FFF7FEFF 		bl	chThdCreateI
 214              		.loc 1 149 0
 215 0026 0123     		movs	r3, #1
 216 0028 4376     		strb	r3, [r0, #25]
 217              	.LVL21:
 218              		.loc 1 150 0
 219 002a 0021     		movs	r1, #0
ARM GAS  /tmp/cc62HuFc.s 			page 5


 220              		.loc 1 148 0
 221 002c 0446     		mov	r4, r0
 222              	.LVL22:
 223              		.loc 1 150 0
 224 002e FFF7FEFF 		bl	chSchWakeupS
 225              	.LBB8:
 226              		.loc 1 151 0
 227 0032 0023     		movs	r3, #0
 228              	.LVL23:
 229              	@ 151 "../../os/kernel/src/chdynamic.c" 1
 230 0034 83F31188 		msr     BASEPRI, r3
 231              	@ 0 "" 2
 232              	.LVL24:
 233              		.thumb
 234              	.L11:
 235              	.LBE8:
 236              		.loc 1 153 0
 237 0038 2046     		mov	r0, r4
 238 003a 03B0     		add	sp, sp, #12
 239 003c F0BD     		pop	{r4, r5, r6, r7, pc}
 240              		.cfi_endproc
 241              	.LFE9:
 242              		.size	chThdCreateFromHeap, .-chThdCreateFromHeap
 243 003e 00BF     		.section	.text.chThdRelease,"ax",%progbits
 244              		.align	2
 245              		.p2align 4,,15
 246              		.global	chThdRelease
 247              		.thumb
 248              		.thumb_func
 249              		.type	chThdRelease, %function
 250              	chThdRelease:
 251              	.LFB8:
 252              		.loc 1 73 0
 253              		.cfi_startproc
 254              		@ args = 0, pretend = 0, frame = 0
 255              		@ frame_needed = 0, uses_anonymous_args = 0
 256              		@ link register save eliminated.
 257              	.LVL25:
 258 0000 10B4     		push	{r4}
 259              	.LCFI4:
 260              		.cfi_def_cfa_offset 4
 261              		.loc 1 73 0
 262 0002 0246     		mov	r2, r0
 263              	.LBB9:
 264              		.loc 1 76 0
 265 0004 2023     		movs	r3, #32
 266              	.LVL26:
 267              	@ 76 "../../os/kernel/src/chdynamic.c" 1
 268 0006 83F31188 		msr     BASEPRI, r3
 269              	@ 0 "" 2
 270              		.thumb
 271              	.LBE9:
 272              		.loc 1 78 0
 273 000a 817E     		ldrb	r1, [r0, #26]	@ zero_extendqisi2
 274              	.LBB10:
 275              		.loc 1 79 0
 276 000c 0023     		movs	r3, #0
ARM GAS  /tmp/cc62HuFc.s 			page 6


 277              	.LVL27:
 278              	.LBE10:
 279              		.loc 1 78 0
 280 000e 0139     		subs	r1, r1, #1
 281 0010 C9B2     		uxtb	r1, r1
 282 0012 8176     		strb	r1, [r0, #26]
 283              	.LBB11:
 284              		.loc 1 79 0
 285              	@ 79 "../../os/kernel/src/chdynamic.c" 1
 286 0014 83F31188 		msr     BASEPRI, r3
 287              	@ 0 "" 2
 288              		.thumb
 289              	.LBE11:
 290              		.loc 1 84 0
 291 0018 11B9     		cbnz	r1, .L17
 292              		.cfi_offset 4, -4
 293 001a 037E     		ldrb	r3, [r0, #24]	@ zero_extendqisi2
 294              	.LVL28:
 295 001c 0C2B     		cmp	r3, #12
 296 001e 01D0     		beq	.L18
 297              	.LVL29:
 298              	.L17:
 299              		.loc 1 104 0
 300 0020 10BC     		pop	{r4}
 301 0022 7047     		bx	lr
 302              	.LVL30:
 303              	.L18:
 304              		.loc 1 85 0
 305 0024 90F819C0 		ldrb	ip, [r0, #25]	@ zero_extendqisi2
 306 0028 0CF00303 		and	r3, ip, #3
 307 002c 012B     		cmp	r3, #1
 308 002e 0BD0     		beq	.L15
 309 0030 022B     		cmp	r3, #2
 310 0032 F5D1     		bne	.L17
 311              		.loc 1 97 0
 312 0034 4369     		ldr	r3, [r0, #20]
 313 0036 0069     		ldr	r0, [r0, #16]
 314              	.LVL31:
 315              		.loc 1 99 0
 316 0038 1146     		mov	r1, r2
 317              		.loc 1 97 0
 318 003a 1861     		str	r0, [r3, #16]
 319 003c 1469     		ldr	r4, [r2, #16]
 320              		.loc 1 99 0
 321 003e 106C     		ldr	r0, [r2, #64]
 322              		.loc 1 97 0
 323 0040 6361     		str	r3, [r4, #20]
 324              		.loc 1 104 0
 325 0042 10BC     		pop	{r4}
 326              		.loc 1 99 0
 327 0044 FFF7FEBF 		b	chPoolFree
 328              	.LVL32:
 329              	.L15:
 330              		.loc 1 89 0
 331 0048 4369     		ldr	r3, [r0, #20]
 332 004a 0169     		ldr	r1, [r0, #16]
 333 004c 1961     		str	r1, [r3, #16]
ARM GAS  /tmp/cc62HuFc.s 			page 7


 334 004e 0269     		ldr	r2, [r0, #16]
 335 0050 5361     		str	r3, [r2, #20]
 336              		.loc 1 104 0
 337 0052 10BC     		pop	{r4}
 338              		.loc 1 91 0
 339 0054 FFF7FEBF 		b	chHeapFree
 340              	.LVL33:
 341              		.cfi_endproc
 342              	.LFE8:
 343              		.size	chThdRelease, .-chThdRelease
 344 0058 AFF30080 		.text
 344      AFF30080 
 345              	.Letext0: