ARM GAS  /tmp/ccVkfzR7.s 			page 1


   1              		.syntax unified
   2              		.cpu cortex-m3
   3              		.fpu softvfp
   4              		.eabi_attribute 20, 1
   5              		.eabi_attribute 21, 1
   6              		.eabi_attribute 23, 3
   7              		.eabi_attribute 24, 1
   8              		.eabi_attribute 25, 1
   9              		.eabi_attribute 26, 1
  10              		.eabi_attribute 30, 2
  11              		.eabi_attribute 18, 4
  12              		.thumb
  13              		.file	"chevents.c"
  14              		.section	.debug_abbrev,"",%progbits
  15              	.Ldebug_abbrev0:
  16              		.section	.debug_info,"",%progbits
  17              	.Ldebug_info0:
  18              		.section	.debug_line,"",%progbits
  19              	.Ldebug_line0:
  20 0000 ED020000 		.text
  20      02003801 
  20      00000201 
  20      FB0E0D00 
  20      01010101 
  21              	.Ltext0:
  22              		.cfi_sections	.debug_frame
  23              		.section	.text.chEvtRegisterMask,"ax",%progbits
  24              		.align	2
  25              		.p2align 4,,15
  26              		.global	chEvtRegisterMask
  27              		.thumb
  28              		.thumb_func
  29              		.type	chEvtRegisterMask, %function
  30              	chEvtRegisterMask:
  31              	.LFB7:
  32              		.file 1 "chibios/os/kernel/src/chevents.c"
  33              		.loc 1 81 0
  34              		.cfi_startproc
  35              		@ args = 0, pretend = 0, frame = 0
  36              		@ frame_needed = 0, uses_anonymous_args = 0
  37              		@ link register save eliminated.
  38              	.LVL0:
  39 0000 30B4     		push	{r4, r5}
  40              	.LCFI0:
  41              		.cfi_def_cfa_offset 8
  42              	.LBB2:
  43              		.loc 1 85 0
  44 0002 2023     		movs	r3, #32
  45              	.LVL1:
  46              	@ 85 "chibios/os/kernel/src/chevents.c" 1
  47 0004 83F31188 		msr     BASEPRI, r3
  48              	@ 0 "" 2
  49              	.LVL2:
  50              		.thumb
  51              	.LBE2:
  52              		.loc 1 88 0
  53 0008 40F20003 		movw	r3, #:lower16:rlist
ARM GAS  /tmp/ccVkfzR7.s 			page 2


  54              	.LVL3:
  55 000c C0F20003 		movt	r3, #:upper16:rlist
  56 0010 DC69     		ldr	r4, [r3, #28]
  57              		.cfi_offset 5, -4
  58              		.cfi_offset 4, -8
  59              		.loc 1 86 0
  60 0012 0568     		ldr	r5, [r0, #0]
  61              	.LBB3:
  62              		.loc 1 90 0
  63 0014 0023     		movs	r3, #0
  64              	.LVL4:
  65              	.LBE3:
  66              		.loc 1 86 0
  67 0016 0D60     		str	r5, [r1, #0]
  68              		.loc 1 87 0
  69 0018 0160     		str	r1, [r0, #0]
  70              		.loc 1 88 0
  71 001a 4C60     		str	r4, [r1, #4]
  72              		.loc 1 89 0
  73 001c 8A60     		str	r2, [r1, #8]
  74              	.LBB4:
  75              		.loc 1 90 0
  76              	@ 90 "chibios/os/kernel/src/chevents.c" 1
  77 001e 83F31188 		msr     BASEPRI, r3
  78              	@ 0 "" 2
  79              	.LVL5:
  80              		.thumb
  81              	.LBE4:
  82              		.loc 1 91 0
  83 0022 30BC     		pop	{r4, r5}
  84 0024 7047     		bx	lr
  85              		.cfi_endproc
  86              	.LFE7:
  87              		.size	chEvtRegisterMask, .-chEvtRegisterMask
  88 0026 00BFAFF3 		.section	.text.chEvtUnregister,"ax",%progbits
  88      0080AFF3 
  88      0080
  89              		.align	2
  90              		.p2align 4,,15
  91              		.global	chEvtUnregister
  92              		.thumb
  93              		.thumb_func
  94              		.type	chEvtUnregister, %function
  95              	chEvtUnregister:
  96              	.LFB8:
  97              		.loc 1 106 0
  98              		.cfi_startproc
  99              		@ args = 0, pretend = 0, frame = 0
 100              		@ frame_needed = 0, uses_anonymous_args = 0
 101              		@ link register save eliminated.
 102              	.LVL6:
 103              	.LBB5:
 104              		.loc 1 112 0
 105 0000 2023     		movs	r3, #32
 106              	.LVL7:
 107              	@ 112 "chibios/os/kernel/src/chevents.c" 1
 108 0002 83F31188 		msr     BASEPRI, r3
ARM GAS  /tmp/ccVkfzR7.s 			page 3


 109              	@ 0 "" 2
 110              	.LVL8:
 111              		.thumb
 112              	.LBE5:
 113              		.loc 1 111 0
 114 0006 0246     		mov	r2, r0
 115              		.loc 1 113 0
 116 0008 02E0     		b	.L3
 117              	.LVL9:
 118              	.L5:
 119              		.loc 1 114 0
 120 000a 9942     		cmp	r1, r3
 121 000c 07D0     		beq	.L8
 122 000e 1A46     		mov	r2, r3
 123              	.LVL10:
 124              	.L3:
 125              		.loc 1 113 0 discriminator 1
 126 0010 1368     		ldr	r3, [r2, #0]
 127              	.LVL11:
 128 0012 9842     		cmp	r0, r3
 129 0014 F9D1     		bne	.L5
 130              	.LBB6:
 131              		.loc 1 120 0
 132 0016 0023     		movs	r3, #0
 133              	.LVL12:
 134              	@ 120 "chibios/os/kernel/src/chevents.c" 1
 135 0018 83F31188 		msr     BASEPRI, r3
 136              	@ 0 "" 2
 137              	.LVL13:
 138              		.thumb
 139              	.LBE6:
 140              		.loc 1 121 0
 141 001c 7047     		bx	lr
 142              	.LVL14:
 143              	.L8:
 144              		.loc 1 115 0
 145 001e 0B68     		ldr	r3, [r1, #0]
 146 0020 1360     		str	r3, [r2, #0]
 147              	.LBB7:
 148              		.loc 1 120 0
 149 0022 0023     		movs	r3, #0
 150              	@ 120 "chibios/os/kernel/src/chevents.c" 1
 151 0024 83F31188 		msr     BASEPRI, r3
 152              	@ 0 "" 2
 153              	.LVL15:
 154              		.thumb
 155              	.LBE7:
 156              		.loc 1 121 0
 157 0028 7047     		bx	lr
 158              		.cfi_endproc
 159              	.LFE8:
 160              		.size	chEvtUnregister, .-chEvtUnregister
 161 002a 00BFAFF3 		.section	.text.chEvtClearFlags,"ax",%progbits
 161      0080
 162              		.align	2
 163              		.p2align 4,,15
 164              		.global	chEvtClearFlags
ARM GAS  /tmp/ccVkfzR7.s 			page 4


 165              		.thumb
 166              		.thumb_func
 167              		.type	chEvtClearFlags, %function
 168              	chEvtClearFlags:
 169              	.LFB9:
 170              		.loc 1 131 0
 171              		.cfi_startproc
 172              		@ args = 0, pretend = 0, frame = 0
 173              		@ frame_needed = 0, uses_anonymous_args = 0
 174              		@ link register save eliminated.
 175              	.LVL16:
 176 0000 10B4     		push	{r4}
 177              	.LCFI1:
 178              		.cfi_def_cfa_offset 4
 179              	.LBB8:
 180              		.loc 1 134 0
 181 0002 2023     		movs	r3, #32
 182              	.LVL17:
 183              	@ 134 "chibios/os/kernel/src/chevents.c" 1
 184 0004 83F31188 		msr     BASEPRI, r3
 185              	@ 0 "" 2
 186              	.LVL18:
 187              		.thumb
 188              	.LBE8:
 189              		.loc 1 136 0
 190 0008 40F20003 		movw	r3, #:lower16:rlist
 191              	.LVL19:
 192 000c C0F20003 		movt	r3, #:upper16:rlist
 193 0010 D969     		ldr	r1, [r3, #28]
 194              	.LBB9:
 195              		.loc 1 139 0
 196 0012 0023     		movs	r3, #0
 197              	.LVL20:
 198              	.LBE9:
 199              		.loc 1 136 0
 200 0014 4A6B     		ldr	r2, [r1, #52]
 201              		.loc 1 137 0
 202 0016 22EA0004 		bic	r4, r2, r0
 203              		.cfi_offset 4, -4
 204 001a 4C63     		str	r4, [r1, #52]
 205              	.LBB10:
 206              		.loc 1 139 0
 207              	@ 139 "chibios/os/kernel/src/chevents.c" 1
 208 001c 83F31188 		msr     BASEPRI, r3
 209              	@ 0 "" 2
 210              	.LVL21:
 211              		.thumb
 212              	.LBE10:
 213              		.loc 1 141 0
 214 0020 1040     		ands	r0, r0, r2
 215              	.LVL22:
 216 0022 10BC     		pop	{r4}
 217 0024 7047     		bx	lr
 218              		.cfi_endproc
 219              	.LFE9:
 220              		.size	chEvtClearFlags, .-chEvtClearFlags
 221 0026 00BFAFF3 		.section	.text.chEvtAddFlags,"ax",%progbits
ARM GAS  /tmp/ccVkfzR7.s 			page 5


 221      0080AFF3 
 221      0080
 222              		.align	2
 223              		.p2align 4,,15
 224              		.global	chEvtAddFlags
 225              		.thumb
 226              		.thumb_func
 227              		.type	chEvtAddFlags, %function
 228              	chEvtAddFlags:
 229              	.LFB10:
 230              		.loc 1 152 0
 231              		.cfi_startproc
 232              		@ args = 0, pretend = 0, frame = 0
 233              		@ frame_needed = 0, uses_anonymous_args = 0
 234              		@ link register save eliminated.
 235              	.LVL23:
 236              	.LBB11:
 237              		.loc 1 154 0
 238 0000 2023     		movs	r3, #32
 239              	.LVL24:
 240              	@ 154 "chibios/os/kernel/src/chevents.c" 1
 241 0002 83F31188 		msr     BASEPRI, r3
 242              	@ 0 "" 2
 243              	.LVL25:
 244              		.thumb
 245              	.LBE11:
 246              		.loc 1 156 0
 247 0006 40F20003 		movw	r3, #:lower16:rlist
 248              	.LVL26:
 249 000a C0F20003 		movt	r3, #:upper16:rlist
 250 000e DA69     		ldr	r2, [r3, #28]
 251              	.LBB12:
 252              		.loc 1 158 0
 253 0010 0023     		movs	r3, #0
 254              	.LVL27:
 255              	.LBE12:
 256              		.loc 1 156 0
 257 0012 516B     		ldr	r1, [r2, #52]
 258 0014 0843     		orrs	r0, r0, r1
 259              	.LVL28:
 260 0016 5063     		str	r0, [r2, #52]
 261              	.LVL29:
 262              	.LBB13:
 263              		.loc 1 158 0
 264              	@ 158 "chibios/os/kernel/src/chevents.c" 1
 265 0018 83F31188 		msr     BASEPRI, r3
 266              	@ 0 "" 2
 267              	.LVL30:
 268              		.thumb
 269              	.LBE13:
 270              		.loc 1 160 0
 271 001c 7047     		bx	lr
 272              		.cfi_endproc
 273              	.LFE10:
 274              		.size	chEvtAddFlags, .-chEvtAddFlags
 275 001e 00BF     		.section	.text.chEvtSignalI,"ax",%progbits
 276              		.align	2
ARM GAS  /tmp/ccVkfzR7.s 			page 6


 277              		.p2align 4,,15
 278              		.global	chEvtSignalI
 279              		.thumb
 280              		.thumb_func
 281              		.type	chEvtSignalI, %function
 282              	chEvtSignalI:
 283              	.LFB12:
 284              		.loc 1 192 0
 285              		.cfi_startproc
 286              		@ args = 0, pretend = 0, frame = 0
 287              		@ frame_needed = 0, uses_anonymous_args = 0
 288              	.LVL31:
 289 0000 08B5     		push	{r3, lr}
 290              	.LCFI2:
 291              		.cfi_def_cfa_offset 8
 292              		.loc 1 196 0
 293 0002 426B     		ldr	r2, [r0, #52]
 294              		.loc 1 198 0
 295 0004 037E     		ldrb	r3, [r0, #24]	@ zero_extendqisi2
 296              		.cfi_offset 14, -4
 297              		.cfi_offset 3, -8
 298              		.loc 1 196 0
 299 0006 41EA0202 		orr	r2, r1, r2
 300              		.loc 1 198 0
 301 000a 082B     		cmp	r3, #8
 302              		.loc 1 196 0
 303 000c 4263     		str	r2, [r0, #52]
 304              		.loc 1 198 0
 305 000e 0CD0     		beq	.L15
 306              		.loc 1 199 0
 307 0010 092B     		cmp	r3, #9
 308 0012 00D0     		beq	.L16
 309              	.LVL32:
 310              	.L11:
 311 0014 08BD     		pop	{r3, pc}
 312              	.LVL33:
 313              	.L16:
 314              		.loc 1 201 0
 315 0016 036A     		ldr	r3, [r0, #32]
 316 0018 02EA0301 		and	r1, r2, r3
 317              	.LVL34:
 318              		.loc 1 200 0
 319 001c 8B42     		cmp	r3, r1
 320 001e F9D1     		bne	.L11
 321              	.L13:
 322              		.loc 1 202 0
 323 0020 FFF7FEFF 		bl	chSchReadyI
 324              	.LVL35:
 325 0024 0022     		movs	r2, #0
 326 0026 0262     		str	r2, [r0, #32]
 327 0028 08BD     		pop	{r3, pc}
 328              	.LVL36:
 329              	.L15:
 330              		.loc 1 199 0 discriminator 1
 331 002a 036A     		ldr	r3, [r0, #32]
 332              		.loc 1 198 0 discriminator 1
 333 002c 1A42     		tst	r2, r3
ARM GAS  /tmp/ccVkfzR7.s 			page 7


 334 002e F7D1     		bne	.L13
 335 0030 08BD     		pop	{r3, pc}
 336              		.cfi_endproc
 337              	.LFE12:
 338              		.size	chEvtSignalI, .-chEvtSignalI
 339 0032 00BFAFF3 		.section	.text.chEvtSignal,"ax",%progbits
 339      0080AFF3 
 339      0080AFF3 
 339      0080
 340              		.align	2
 341              		.p2align 4,,15
 342              		.global	chEvtSignal
 343              		.thumb
 344              		.thumb_func
 345              		.type	chEvtSignal, %function
 346              	chEvtSignal:
 347              	.LFB11:
 348              		.loc 1 170 0
 349              		.cfi_startproc
 350              		@ args = 0, pretend = 0, frame = 0
 351              		@ frame_needed = 0, uses_anonymous_args = 0
 352              	.LVL37:
 353 0000 08B5     		push	{r3, lr}
 354              	.LCFI3:
 355              		.cfi_def_cfa_offset 8
 356              	.LBB14:
 357              		.loc 1 174 0
 358 0002 2023     		movs	r3, #32
 359              		.cfi_offset 14, -4
 360              		.cfi_offset 3, -8
 361              	.LVL38:
 362              	@ 174 "chibios/os/kernel/src/chevents.c" 1
 363 0004 83F31188 		msr     BASEPRI, r3
 364              	@ 0 "" 2
 365              	.LVL39:
 366              		.thumb
 367              	.LBE14:
 368              		.loc 1 175 0
 369 0008 FFF7FEFF 		bl	chEvtSignalI
 370              	.LVL40:
 371              		.loc 1 176 0
 372 000c FFF7FEFF 		bl	chSchRescheduleS
 373              	.LBB15:
 374              		.loc 1 177 0
 375 0010 0023     		movs	r3, #0
 376              	.LVL41:
 377              	@ 177 "chibios/os/kernel/src/chevents.c" 1
 378 0012 83F31188 		msr     BASEPRI, r3
 379              	@ 0 "" 2
 380              	.LVL42:
 381              		.thumb
 382              	.LBE15:
 383              		.loc 1 178 0
 384 0016 08BD     		pop	{r3, pc}
 385              		.cfi_endproc
 386              	.LFE11:
 387              		.size	chEvtSignal, .-chEvtSignal
ARM GAS  /tmp/ccVkfzR7.s 			page 8


 388 0018 AFF30080 		.section	.text.chEvtBroadcastI,"ax",%progbits
 388      AFF30080 
 389              		.align	2
 390              		.p2align 4,,15
 391              		.global	chEvtBroadcastI
 392              		.thumb
 393              		.thumb_func
 394              		.type	chEvtBroadcastI, %function
 395              	chEvtBroadcastI:
 396              	.LFB14:
 397              		.loc 1 233 0
 398              		.cfi_startproc
 399              		@ args = 0, pretend = 0, frame = 0
 400              		@ frame_needed = 0, uses_anonymous_args = 0
 401              	.LVL43:
 402 0000 38B5     		push	{r3, r4, r5, lr}
 403              	.LCFI4:
 404              		.cfi_def_cfa_offset 16
 405              		.loc 1 238 0
 406 0002 0468     		ldr	r4, [r0, #0]
 407              		.cfi_offset 14, -4
 408              		.cfi_offset 5, -8
 409              		.cfi_offset 4, -12
 410              		.cfi_offset 3, -16
 411              	.LVL44:
 412              		.loc 1 233 0
 413 0004 0546     		mov	r5, r0
 414              		.loc 1 239 0
 415 0006 8442     		cmp	r4, r0
 416 0008 06D0     		beq	.L18
 417              	.LVL45:
 418              	.L21:
 419              		.loc 1 240 0
 420 000a 6068     		ldr	r0, [r4, #4]
 421 000c A168     		ldr	r1, [r4, #8]
 422 000e FFF7FEFF 		bl	chEvtSignalI
 423              		.loc 1 241 0
 424 0012 2468     		ldr	r4, [r4, #0]
 425              	.LVL46:
 426              		.loc 1 239 0
 427 0014 AC42     		cmp	r4, r5
 428 0016 F8D1     		bne	.L21
 429              	.L18:
 430 0018 38BD     		pop	{r3, r4, r5, pc}
 431              		.cfi_endproc
 432              	.LFE14:
 433              		.size	chEvtBroadcastI, .-chEvtBroadcastI
 434 001a 00BFAFF3 		.section	.text.chEvtBroadcast,"ax",%progbits
 434      0080
 435              		.align	2
 436              		.p2align 4,,15
 437              		.global	chEvtBroadcast
 438              		.thumb
 439              		.thumb_func
 440              		.type	chEvtBroadcast, %function
 441              	chEvtBroadcast:
 442              	.LFB13:
ARM GAS  /tmp/ccVkfzR7.s 			page 9


 443              		.loc 1 213 0
 444              		.cfi_startproc
 445              		@ args = 0, pretend = 0, frame = 0
 446              		@ frame_needed = 0, uses_anonymous_args = 0
 447              	.LVL47:
 448 0000 08B5     		push	{r3, lr}
 449              	.LCFI5:
 450              		.cfi_def_cfa_offset 8
 451              	.LBB16:
 452              		.loc 1 215 0
 453 0002 2023     		movs	r3, #32
 454              		.cfi_offset 14, -4
 455              		.cfi_offset 3, -8
 456              	.LVL48:
 457              	@ 215 "chibios/os/kernel/src/chevents.c" 1
 458 0004 83F31188 		msr     BASEPRI, r3
 459              	@ 0 "" 2
 460              	.LVL49:
 461              		.thumb
 462              	.LBE16:
 463              		.loc 1 216 0
 464 0008 FFF7FEFF 		bl	chEvtBroadcastI
 465              	.LVL50:
 466              		.loc 1 217 0
 467 000c FFF7FEFF 		bl	chSchRescheduleS
 468              	.LBB17:
 469              		.loc 1 218 0
 470 0010 0023     		movs	r3, #0
 471              	.LVL51:
 472              	@ 218 "chibios/os/kernel/src/chevents.c" 1
 473 0012 83F31188 		msr     BASEPRI, r3
 474              	@ 0 "" 2
 475              	.LVL52:
 476              		.thumb
 477              	.LBE17:
 478              		.loc 1 219 0
 479 0016 08BD     		pop	{r3, pc}
 480              		.cfi_endproc
 481              	.LFE13:
 482              		.size	chEvtBroadcast, .-chEvtBroadcast
 483 0018 AFF30080 		.section	.text.chEvtDispatch,"ax",%progbits
 483      AFF30080 
 484              		.align	2
 485              		.p2align 4,,15
 486              		.global	chEvtDispatch
 487              		.thumb
 488              		.thumb_func
 489              		.type	chEvtDispatch, %function
 490              	chEvtDispatch:
 491              	.LFB15:
 492              		.loc 1 254 0
 493              		.cfi_startproc
 494              		@ args = 0, pretend = 0, frame = 0
 495              		@ frame_needed = 0, uses_anonymous_args = 0
 496              	.LVL53:
 497 0000 F8B5     		push	{r3, r4, r5, r6, r7, lr}
 498              	.LCFI6:
ARM GAS  /tmp/ccVkfzR7.s 			page 10


 499              		.cfi_def_cfa_offset 24
 500              		.loc 1 260 0
 501 0002 0D46     		mov	r5, r1
 502              		.cfi_offset 14, -4
 503              		.cfi_offset 7, -8
 504              		.cfi_offset 6, -12
 505              		.cfi_offset 5, -16
 506              		.cfi_offset 4, -20
 507              		.cfi_offset 3, -24
 508              		.loc 1 254 0
 509 0004 0746     		mov	r7, r0
 510              		.loc 1 260 0
 511 0006 99B1     		cbz	r1, .L24
 512 0008 0024     		movs	r4, #0
 513              		.loc 1 261 0
 514 000a 0126     		movs	r6, #1
 515 000c 16FA04F3 		lsls	r3, r6, r4
 516 0010 2B42     		tst	r3, r5
 517 0012 05D1     		bne	.L28
 518              	.LVL54:
 519              	.L26:
 520              		.loc 1 260 0
 521 0014 65B1     		cbz	r5, .L24
 522              	.LVL55:
 523              	.L29:
 524              		.loc 1 268 0
 525 0016 0134     		adds	r4, r4, #1
 526              		.loc 1 261 0
 527 0018 16FA04F3 		lsls	r3, r6, r4
 528 001c 2B42     		tst	r3, r5
 529 001e F9D0     		beq	.L26
 530              	.L28:
 531              		.loc 1 265 0
 532 0020 25EA0305 		bic	r5, r5, r3
 533              	.LVL56:
 534              		.loc 1 266 0
 535 0024 57F82420 		ldr	r2, [r7, r4, lsl #2]
 536 0028 2046     		mov	r0, r4
 537 002a 9047     		blx	r2
 538              	.LVL57:
 539              		.loc 1 260 0
 540 002c 002D     		cmp	r5, #0
 541 002e F2D1     		bne	.L29
 542              	.LVL58:
 543              	.L24:
 544 0030 F8BD     		pop	{r3, r4, r5, r6, r7, pc}
 545              		.cfi_endproc
 546              	.LFE15:
 547              		.size	chEvtDispatch, .-chEvtDispatch
 548 0032 00BFAFF3 		.section	.text.chEvtWaitOne,"ax",%progbits
 548      0080AFF3 
 548      0080AFF3 
 548      0080
 549              		.align	2
 550              		.p2align 4,,15
 551              		.global	chEvtWaitOne
 552              		.thumb
ARM GAS  /tmp/ccVkfzR7.s 			page 11


 553              		.thumb_func
 554              		.type	chEvtWaitOne, %function
 555              	chEvtWaitOne:
 556              	.LFB16:
 557              		.loc 1 289 0
 558              		.cfi_startproc
 559              		@ args = 0, pretend = 0, frame = 0
 560              		@ frame_needed = 0, uses_anonymous_args = 0
 561              	.LVL59:
 562 0000 38B5     		push	{r3, r4, r5, lr}
 563              	.LCFI7:
 564              		.cfi_def_cfa_offset 16
 565              		.loc 1 290 0
 566 0002 40F20003 		movw	r3, #:lower16:rlist
 567              		.cfi_offset 14, -4
 568              		.cfi_offset 5, -8
 569              		.cfi_offset 4, -12
 570              		.cfi_offset 3, -16
 571 0006 C0F20003 		movt	r3, #:upper16:rlist
 572 000a DC69     		ldr	r4, [r3, #28]
 573              	.LVL60:
 574              		.loc 1 289 0
 575 000c 0546     		mov	r5, r0
 576              	.LBB18:
 577              		.loc 1 293 0
 578 000e 2023     		movs	r3, #32
 579              	.LVL61:
 580              	@ 293 "chibios/os/kernel/src/chevents.c" 1
 581 0010 83F31188 		msr     BASEPRI, r3
 582              	@ 0 "" 2
 583              	.LVL62:
 584              		.thumb
 585              	.LBE18:
 586              		.loc 1 295 0
 587 0014 636B     		ldr	r3, [r4, #52]
 588              	.LVL63:
 589 0016 10EA0302 		ands	r2, r0, r3
 590              	.LVL64:
 591 001a 06D1     		bne	.L31
 592              		.loc 1 296 0
 593 001c 2062     		str	r0, [r4, #32]
 594              		.loc 1 297 0
 595 001e 0820     		movs	r0, #8
 596              	.LVL65:
 597 0020 FFF7FEFF 		bl	chSchGoSleepS
 598              	.LVL66:
 599              		.loc 1 298 0
 600 0024 636B     		ldr	r3, [r4, #52]
 601 0026 05EA0302 		and	r2, r5, r3
 602              	.LVL67:
 603              	.L31:
 604              		.loc 1 300 0
 605 002a 5042     		negs	r0, r2
 606 002c 1040     		ands	r0, r0, r2
 607              	.LVL68:
 608              		.loc 1 301 0
 609 002e 23EA0001 		bic	r1, r3, r0
ARM GAS  /tmp/ccVkfzR7.s 			page 12


 610 0032 6163     		str	r1, [r4, #52]
 611              	.LBB19:
 612              		.loc 1 303 0
 613 0034 0023     		movs	r3, #0
 614              	.LVL69:
 615              	@ 303 "chibios/os/kernel/src/chevents.c" 1
 616 0036 83F31188 		msr     BASEPRI, r3
 617              	@ 0 "" 2
 618              	.LVL70:
 619              		.thumb
 620              	.LBE19:
 621              		.loc 1 305 0
 622 003a 38BD     		pop	{r3, r4, r5, pc}
 623              		.cfi_endproc
 624              	.LFE16:
 625              		.size	chEvtWaitOne, .-chEvtWaitOne
 626 003c AFF30080 		.section	.text.chEvtWaitAny,"ax",%progbits
 627              		.align	2
 628              		.p2align 4,,15
 629              		.global	chEvtWaitAny
 630              		.thumb
 631              		.thumb_func
 632              		.type	chEvtWaitAny, %function
 633              	chEvtWaitAny:
 634              	.LFB17:
 635              		.loc 1 318 0
 636              		.cfi_startproc
 637              		@ args = 0, pretend = 0, frame = 0
 638              		@ frame_needed = 0, uses_anonymous_args = 0
 639              	.LVL71:
 640 0000 38B5     		push	{r3, r4, r5, lr}
 641              	.LCFI8:
 642              		.cfi_def_cfa_offset 16
 643              		.loc 1 319 0
 644 0002 40F20003 		movw	r3, #:lower16:rlist
 645              		.cfi_offset 14, -4
 646              		.cfi_offset 5, -8
 647              		.cfi_offset 4, -12
 648              		.cfi_offset 3, -16
 649 0006 C0F20003 		movt	r3, #:upper16:rlist
 650 000a DC69     		ldr	r4, [r3, #28]
 651              	.LVL72:
 652              		.loc 1 318 0
 653 000c 0546     		mov	r5, r0
 654              	.LBB20:
 655              		.loc 1 322 0
 656 000e 2023     		movs	r3, #32
 657              	.LVL73:
 658              	@ 322 "chibios/os/kernel/src/chevents.c" 1
 659 0010 83F31188 		msr     BASEPRI, r3
 660              	@ 0 "" 2
 661              	.LVL74:
 662              		.thumb
 663              	.LBE20:
 664              		.loc 1 324 0
 665 0014 636B     		ldr	r3, [r4, #52]
 666              	.LVL75:
ARM GAS  /tmp/ccVkfzR7.s 			page 13


 667 0016 1840     		ands	r0, r0, r3
 668              	.LVL76:
 669 0018 06D1     		bne	.L33
 670              		.loc 1 326 0
 671 001a 0820     		movs	r0, #8
 672              	.LVL77:
 673              		.loc 1 325 0
 674 001c 2562     		str	r5, [r4, #32]
 675              		.loc 1 326 0
 676 001e FFF7FEFF 		bl	chSchGoSleepS
 677              	.LVL78:
 678              		.loc 1 327 0
 679 0022 636B     		ldr	r3, [r4, #52]
 680 0024 05EA0300 		and	r0, r5, r3
 681              	.LVL79:
 682              	.L33:
 683              		.loc 1 329 0
 684 0028 23EA0001 		bic	r1, r3, r0
 685 002c 6163     		str	r1, [r4, #52]
 686              	.LBB21:
 687              		.loc 1 331 0
 688 002e 0023     		movs	r3, #0
 689              	.LVL80:
 690              	@ 331 "chibios/os/kernel/src/chevents.c" 1
 691 0030 83F31188 		msr     BASEPRI, r3
 692              	@ 0 "" 2
 693              	.LVL81:
 694              		.thumb
 695              	.LBE21:
 696              		.loc 1 333 0
 697 0034 38BD     		pop	{r3, r4, r5, pc}
 698              		.cfi_endproc
 699              	.LFE17:
 700              		.size	chEvtWaitAny, .-chEvtWaitAny
 701 0036 00BFAFF3 		.section	.text.chEvtWaitAll,"ax",%progbits
 701      0080AFF3 
 701      0080
 702              		.align	2
 703              		.p2align 4,,15
 704              		.global	chEvtWaitAll
 705              		.thumb
 706              		.thumb_func
 707              		.type	chEvtWaitAll, %function
 708              	chEvtWaitAll:
 709              	.LFB18:
 710              		.loc 1 346 0
 711              		.cfi_startproc
 712              		@ args = 0, pretend = 0, frame = 0
 713              		@ frame_needed = 0, uses_anonymous_args = 0
 714              	.LVL82:
 715 0000 38B5     		push	{r3, r4, r5, lr}
 716              	.LCFI9:
 717              		.cfi_def_cfa_offset 16
 718              		.loc 1 347 0
 719 0002 40F20003 		movw	r3, #:lower16:rlist
 720              		.cfi_offset 14, -4
 721              		.cfi_offset 5, -8
ARM GAS  /tmp/ccVkfzR7.s 			page 14


 722              		.cfi_offset 4, -12
 723              		.cfi_offset 3, -16
 724 0006 C0F20003 		movt	r3, #:upper16:rlist
 725 000a DD69     		ldr	r5, [r3, #28]
 726              	.LVL83:
 727              		.loc 1 346 0
 728 000c 0446     		mov	r4, r0
 729              	.LBB22:
 730              		.loc 1 349 0
 731 000e 2023     		movs	r3, #32
 732              	.LVL84:
 733              	@ 349 "chibios/os/kernel/src/chevents.c" 1
 734 0010 83F31188 		msr     BASEPRI, r3
 735              	@ 0 "" 2
 736              	.LVL85:
 737              		.thumb
 738              	.LBE22:
 739              		.loc 1 351 0
 740 0014 6B6B     		ldr	r3, [r5, #52]
 741              	.LVL86:
 742 0016 00EA0302 		and	r2, r0, r3
 743 001a 8242     		cmp	r2, r0
 744 001c 04D0     		beq	.L35
 745              		.loc 1 352 0
 746 001e 2862     		str	r0, [r5, #32]
 747              		.loc 1 353 0
 748 0020 0920     		movs	r0, #9
 749              	.LVL87:
 750 0022 FFF7FEFF 		bl	chSchGoSleepS
 751              	.LVL88:
 752 0026 6B6B     		ldr	r3, [r5, #52]
 753              	.L35:
 754              		.loc 1 355 0
 755 0028 23EA0400 		bic	r0, r3, r4
 756 002c 6863     		str	r0, [r5, #52]
 757              	.LBB23:
 758              		.loc 1 357 0
 759 002e 0023     		movs	r3, #0
 760              	.LVL89:
 761              	@ 357 "chibios/os/kernel/src/chevents.c" 1
 762 0030 83F31188 		msr     BASEPRI, r3
 763              	@ 0 "" 2
 764              	.LVL90:
 765              		.thumb
 766              	.LBE23:
 767              		.loc 1 359 0
 768 0034 2046     		mov	r0, r4
 769 0036 38BD     		pop	{r3, r4, r5, pc}
 770              		.cfi_endproc
 771              	.LFE18:
 772              		.size	chEvtWaitAll, .-chEvtWaitAll
 773 0038 AFF30080 		.section	.text.chEvtWaitOneTimeout,"ax",%progbits
 773      AFF30080 
 774              		.align	2
 775              		.p2align 4,,15
 776              		.global	chEvtWaitOneTimeout
 777              		.thumb
ARM GAS  /tmp/ccVkfzR7.s 			page 15


 778              		.thumb_func
 779              		.type	chEvtWaitOneTimeout, %function
 780              	chEvtWaitOneTimeout:
 781              	.LFB19:
 782              		.loc 1 385 0
 783              		.cfi_startproc
 784              		@ args = 0, pretend = 0, frame = 0
 785              		@ frame_needed = 0, uses_anonymous_args = 0
 786              	.LVL91:
 787              		.loc 1 386 0
 788 0000 40F20003 		movw	r3, #:lower16:rlist
 789 0004 C0F20003 		movt	r3, #:upper16:rlist
 790              		.loc 1 385 0
 791 0008 70B5     		push	{r4, r5, r6, lr}
 792              	.LCFI10:
 793              		.cfi_def_cfa_offset 16
 794              		.loc 1 386 0
 795 000a DE69     		ldr	r6, [r3, #28]
 796              		.cfi_offset 14, -4
 797              		.cfi_offset 6, -8
 798              		.cfi_offset 5, -12
 799              		.cfi_offset 4, -16
 800              	.LVL92:
 801              		.loc 1 385 0
 802 000c 0546     		mov	r5, r0
 803              	.LBB24:
 804              		.loc 1 389 0
 805 000e 2023     		movs	r3, #32
 806              	.LVL93:
 807              	@ 389 "chibios/os/kernel/src/chevents.c" 1
 808 0010 83F31188 		msr     BASEPRI, r3
 809              	@ 0 "" 2
 810              	.LVL94:
 811              		.thumb
 812              	.LBE24:
 813              		.loc 1 391 0
 814 0014 736B     		ldr	r3, [r6, #52]
 815              	.LVL95:
 816 0016 10EA0304 		ands	r4, r0, r3
 817              	.LVL96:
 818 001a 0ED1     		bne	.L37
 819              		.loc 1 392 0
 820 001c 21B9     		cbnz	r1, .L38
 821              	.LBB25:
 822              		.loc 1 393 0
 823 001e 2346     		mov	r3, r4
 824              	.LVL97:
 825              	@ 393 "chibios/os/kernel/src/chevents.c" 1
 826 0020 83F31188 		msr     BASEPRI, r3
 827              	@ 0 "" 2
 828              	.LVL98:
 829              		.thumb
 830              	.LBE25:
 831              		.loc 1 408 0
 832 0024 2046     		mov	r0, r4
 833              	.LVL99:
 834 0026 70BD     		pop	{r4, r5, r6, pc}
ARM GAS  /tmp/ccVkfzR7.s 			page 16


 835              	.LVL100:
 836              	.L38:
 837              		.loc 1 396 0
 838 0028 3062     		str	r0, [r6, #32]
 839              		.loc 1 397 0
 840 002a 0820     		movs	r0, #8
 841 002c FFF7FEFF 		bl	chSchGoSleepTimeoutS
 842              	.LVL101:
 843 0030 0028     		cmp	r0, #0
 844 0032 0CDB     		blt	.L41
 845              		.loc 1 401 0
 846 0034 736B     		ldr	r3, [r6, #52]
 847 0036 05EA0304 		and	r4, r5, r3
 848              	.LVL102:
 849              	.L37:
 850              		.loc 1 403 0
 851 003a 6242     		negs	r2, r4
 852 003c 1440     		ands	r4, r4, r2
 853              	.LVL103:
 854              		.loc 1 404 0
 855 003e 23EA0400 		bic	r0, r3, r4
 856 0042 7063     		str	r0, [r6, #52]
 857              	.LBB26:
 858              		.loc 1 406 0
 859 0044 0023     		movs	r3, #0
 860              	.LVL104:
 861              	@ 406 "chibios/os/kernel/src/chevents.c" 1
 862 0046 83F31188 		msr     BASEPRI, r3
 863              	@ 0 "" 2
 864              	.LVL105:
 865              		.thumb
 866              	.L39:
 867              	.LBE26:
 868              		.loc 1 408 0
 869 004a 2046     		mov	r0, r4
 870 004c 70BD     		pop	{r4, r5, r6, pc}
 871              	.LVL106:
 872              	.L41:
 873              	.LBB27:
 874              		.loc 1 398 0
 875 004e 2346     		mov	r3, r4
 876              	@ 398 "chibios/os/kernel/src/chevents.c" 1
 877 0050 83F31188 		msr     BASEPRI, r3
 878              	@ 0 "" 2
 879              	.LVL107:
 880              		.thumb
 881              	.LBE27:
 882              		.loc 1 399 0
 883 0054 F9E7     		b	.L39
 884              		.cfi_endproc
 885              	.LFE19:
 886              		.size	chEvtWaitOneTimeout, .-chEvtWaitOneTimeout
 887 0056 00BFAFF3 		.section	.text.chEvtWaitAnyTimeout,"ax",%progbits
 887      0080AFF3 
 887      0080
 888              		.align	2
 889              		.p2align 4,,15
ARM GAS  /tmp/ccVkfzR7.s 			page 17


 890              		.global	chEvtWaitAnyTimeout
 891              		.thumb
 892              		.thumb_func
 893              		.type	chEvtWaitAnyTimeout, %function
 894              	chEvtWaitAnyTimeout:
 895              	.LFB20:
 896              		.loc 1 428 0
 897              		.cfi_startproc
 898              		@ args = 0, pretend = 0, frame = 0
 899              		@ frame_needed = 0, uses_anonymous_args = 0
 900              	.LVL108:
 901              		.loc 1 429 0
 902 0000 40F20003 		movw	r3, #:lower16:rlist
 903 0004 C0F20003 		movt	r3, #:upper16:rlist
 904              		.loc 1 428 0
 905 0008 70B5     		push	{r4, r5, r6, lr}
 906              	.LCFI11:
 907              		.cfi_def_cfa_offset 16
 908              		.loc 1 429 0
 909 000a DE69     		ldr	r6, [r3, #28]
 910              		.cfi_offset 14, -4
 911              		.cfi_offset 6, -8
 912              		.cfi_offset 5, -12
 913              		.cfi_offset 4, -16
 914              	.LVL109:
 915              		.loc 1 428 0
 916 000c 0446     		mov	r4, r0
 917              	.LBB28:
 918              		.loc 1 432 0
 919 000e 2023     		movs	r3, #32
 920              	.LVL110:
 921              	@ 432 "chibios/os/kernel/src/chevents.c" 1
 922 0010 83F31188 		msr     BASEPRI, r3
 923              	@ 0 "" 2
 924              	.LVL111:
 925              		.thumb
 926              	.LBE28:
 927              		.loc 1 434 0
 928 0014 736B     		ldr	r3, [r6, #52]
 929              	.LVL112:
 930 0016 10EA0305 		ands	r5, r0, r3
 931              	.LVL113:
 932 001a 0ED1     		bne	.L43
 933              		.loc 1 435 0
 934 001c 21B9     		cbnz	r1, .L44
 935              	.LBB29:
 936              		.loc 1 436 0
 937 001e 2B46     		mov	r3, r5
 938              	.LVL114:
 939              	@ 436 "chibios/os/kernel/src/chevents.c" 1
 940 0020 83F31188 		msr     BASEPRI, r3
 941              	@ 0 "" 2
 942              	.LVL115:
 943              		.thumb
 944              	.LBE29:
 945              		.loc 1 450 0
 946 0024 2846     		mov	r0, r5
ARM GAS  /tmp/ccVkfzR7.s 			page 18


 947              	.LVL116:
 948 0026 70BD     		pop	{r4, r5, r6, pc}
 949              	.LVL117:
 950              	.L44:
 951              		.loc 1 439 0
 952 0028 3062     		str	r0, [r6, #32]
 953              		.loc 1 440 0
 954 002a 0820     		movs	r0, #8
 955 002c FFF7FEFF 		bl	chSchGoSleepTimeoutS
 956              	.LVL118:
 957 0030 0028     		cmp	r0, #0
 958 0032 0ADB     		blt	.L47
 959              		.loc 1 444 0
 960 0034 736B     		ldr	r3, [r6, #52]
 961 0036 04EA0305 		and	r5, r4, r3
 962              	.LVL119:
 963              	.L43:
 964              		.loc 1 446 0
 965 003a 23EA0500 		bic	r0, r3, r5
 966 003e 7063     		str	r0, [r6, #52]
 967              	.LBB30:
 968              		.loc 1 448 0
 969 0040 0023     		movs	r3, #0
 970              	.LVL120:
 971              	@ 448 "chibios/os/kernel/src/chevents.c" 1
 972 0042 83F31188 		msr     BASEPRI, r3
 973              	@ 0 "" 2
 974              	.LVL121:
 975              		.thumb
 976              	.L45:
 977              	.LBE30:
 978              		.loc 1 450 0
 979 0046 2846     		mov	r0, r5
 980 0048 70BD     		pop	{r4, r5, r6, pc}
 981              	.LVL122:
 982              	.L47:
 983              	.LBB31:
 984              		.loc 1 441 0
 985 004a 2B46     		mov	r3, r5
 986              	@ 441 "chibios/os/kernel/src/chevents.c" 1
 987 004c 83F31188 		msr     BASEPRI, r3
 988              	@ 0 "" 2
 989              	.LVL123:
 990              		.thumb
 991              	.LBE31:
 992              		.loc 1 442 0
 993 0050 F9E7     		b	.L45
 994              		.cfi_endproc
 995              	.LFE20:
 996              		.size	chEvtWaitAnyTimeout, .-chEvtWaitAnyTimeout
 997 0052 00BFAFF3 		.section	.text.chEvtWaitAllTimeout,"ax",%progbits
 997      0080AFF3 
 997      0080AFF3 
 997      0080
 998              		.align	2
 999              		.p2align 4,,15
 1000              		.global	chEvtWaitAllTimeout
ARM GAS  /tmp/ccVkfzR7.s 			page 19


 1001              		.thumb
 1002              		.thumb_func
 1003              		.type	chEvtWaitAllTimeout, %function
 1004              	chEvtWaitAllTimeout:
 1005              	.LFB21:
 1006              		.loc 1 469 0
 1007              		.cfi_startproc
 1008              		@ args = 0, pretend = 0, frame = 0
 1009              		@ frame_needed = 0, uses_anonymous_args = 0
 1010              	.LVL124:
 1011 0000 38B5     		push	{r3, r4, r5, lr}
 1012              	.LCFI12:
 1013              		.cfi_def_cfa_offset 16
 1014              		.loc 1 470 0
 1015 0002 40F20003 		movw	r3, #:lower16:rlist
 1016              		.cfi_offset 14, -4
 1017              		.cfi_offset 5, -8
 1018              		.cfi_offset 4, -12
 1019              		.cfi_offset 3, -16
 1020 0006 C0F20003 		movt	r3, #:upper16:rlist
 1021 000a DD69     		ldr	r5, [r3, #28]
 1022              	.LVL125:
 1023              		.loc 1 469 0
 1024 000c 0446     		mov	r4, r0
 1025              	.LBB32:
 1026              		.loc 1 472 0
 1027 000e 2023     		movs	r3, #32
 1028              	.LVL126:
 1029              	@ 472 "chibios/os/kernel/src/chevents.c" 1
 1030 0010 83F31188 		msr     BASEPRI, r3
 1031              	@ 0 "" 2
 1032              	.LVL127:
 1033              		.thumb
 1034              	.LBE32:
 1035              		.loc 1 474 0
 1036 0014 6B6B     		ldr	r3, [r5, #52]
 1037              	.LVL128:
 1038 0016 04EA0302 		and	r2, r4, r3
 1039 001a A242     		cmp	r2, r4
 1040 001c 0ED0     		beq	.L49
 1041              		.loc 1 475 0
 1042 001e 29B9     		cbnz	r1, .L50
 1043              	.LBB33:
 1044              		.loc 1 476 0
 1045 0020 0B46     		mov	r3, r1
 1046              	.LVL129:
 1047              	@ 476 "chibios/os/kernel/src/chevents.c" 1
 1048 0022 83F31188 		msr     BASEPRI, r3
 1049              	@ 0 "" 2
 1050              	.LVL130:
 1051              		.thumb
 1052              	.LBE33:
 1053              		.loc 1 477 0
 1054 0026 0C46     		mov	r4, r1
 1055              		.loc 1 489 0
 1056 0028 2046     		mov	r0, r4
 1057              	.LVL131:
ARM GAS  /tmp/ccVkfzR7.s 			page 20


 1058 002a 38BD     		pop	{r3, r4, r5, pc}
 1059              	.LVL132:
 1060              	.L50:
 1061              		.loc 1 480 0
 1062 002c 0920     		movs	r0, #9
 1063              	.LVL133:
 1064              		.loc 1 479 0
 1065 002e 2C62     		str	r4, [r5, #32]
 1066              		.loc 1 480 0
 1067 0030 FFF7FEFF 		bl	chSchGoSleepTimeoutS
 1068              	.LVL134:
 1069 0034 0028     		cmp	r0, #0
 1070 0036 A8BF     		it	ge
 1071 0038 6B6B     		ldrge	r3, [r5, #52]
 1072 003a 07DB     		blt	.L53
 1073              	.L49:
 1074              		.loc 1 485 0
 1075 003c 23EA0400 		bic	r0, r3, r4
 1076 0040 6863     		str	r0, [r5, #52]
 1077              	.LBB34:
 1078              		.loc 1 487 0
 1079 0042 0023     		movs	r3, #0
 1080              	.LVL135:
 1081              	@ 487 "chibios/os/kernel/src/chevents.c" 1
 1082 0044 83F31188 		msr     BASEPRI, r3
 1083              	@ 0 "" 2
 1084              	.LVL136:
 1085              		.thumb
 1086              	.L51:
 1087              	.LBE34:
 1088              		.loc 1 489 0
 1089 0048 2046     		mov	r0, r4
 1090 004a 38BD     		pop	{r3, r4, r5, pc}
 1091              	.LVL137:
 1092              	.L53:
 1093              	.LBB35:
 1094              		.loc 1 481 0
 1095 004c 0023     		movs	r3, #0
 1096              	@ 481 "chibios/os/kernel/src/chevents.c" 1
 1097 004e 83F31188 		msr     BASEPRI, r3
 1098              	@ 0 "" 2
 1099              	.LVL138:
 1100              		.thumb
 1101              	.LBE35:
 1102              		.loc 1 482 0
 1103 0052 1C46     		mov	r4, r3
 1104              	.LVL139:
 1105 0054 F8E7     		b	.L51
 1106              		.cfi_endproc
 1107              	.LFE21:
 1108              		.size	chEvtWaitAllTimeout, .-chEvtWaitAllTimeout
 1109 0056 00BFAFF3 		.text
 1109      0080AFF3 
 1109      0080
 1110              	.Letext0:
 1111              		.section	.debug_loc,"",%progbits
 1112              	.Ldebug_loc0:
ARM GAS  /tmp/ccVkfzR7.s 			page 21


 1113              	.LLST0:
 1114 0000 00000000 		.4byte	.LFB7
 1115 0004 02000000 		.4byte	.LCFI0
 1116 0008 0200     		.2byte	0x2
 1117 000a 7D       		.byte	0x7d
 1118 000b 00       		.sleb128 0
 1119 000c 02000000 		.4byte	.LCFI0
 1120 0010 26000000 		.4byte	.LFE7
 1121 0014 0200     		.2byte	0x2
 1122 0016 7D       		.byte	0x7d
 1123 0017 08       		.sleb128 8
 1124 0018 00000000 		.4byte	0x0
 1125 001c 00000000 		.4byte	0x0
 1126              	.LLST1:
 1127 0020 08000000 		.4byte	.LVL2
 1128 0024 0C000000 		.4byte	.LVL3
 1129 0028 0100     		.2byte	0x1
 1130 002a 53       		.byte	0x53
 1131 002b 00000000 		.4byte	0x0
 1132 002f 00000000 		.4byte	0x0
 1133              	.LLST2:
 1134 0033 22000000 		.4byte	.LVL5
 1135 0037 26000000 		.4byte	.LFE7
 1136 003b 0100     		.2byte	0x1
 1137 003d 53       		.byte	0x53
 1138 003e 00000000 		.4byte	0x0
 1139 0042 00000000 		.4byte	0x0
 1140              	.LLST3:
 1141 0046 00000000 		.4byte	.LVL6
 1142 004a 0A000000 		.4byte	.LVL9
 1143 004e 0100     		.2byte	0x1
 1144 0050 50       		.byte	0x50
 1145 0051 0A000000 		.4byte	.LVL9
 1146 0055 10000000 		.4byte	.LVL10
 1147 0059 0100     		.2byte	0x1
 1148 005b 52       		.byte	0x52
 1149 005c 10000000 		.4byte	.LVL10
 1150 0060 2A000000 		.4byte	.LFE8
 1151 0064 0100     		.2byte	0x1
 1152 0066 52       		.byte	0x52
 1153 0067 00000000 		.4byte	0x0
 1154 006b 00000000 		.4byte	0x0
 1155              	.LLST4:
 1156 006f 06000000 		.4byte	.LVL8
 1157 0073 0A000000 		.4byte	.LVL9
 1158 0077 0100     		.2byte	0x1
 1159 0079 53       		.byte	0x53
 1160 007a 10000000 		.4byte	.LVL10
 1161 007e 12000000 		.4byte	.LVL11
 1162 0082 0100     		.2byte	0x1
 1163 0084 53       		.byte	0x53
 1164 0085 00000000 		.4byte	0x0
 1165 0089 00000000 		.4byte	0x0
 1166              	.LLST5:
 1167 008d 1C000000 		.4byte	.LVL13
 1168 0091 1E000000 		.4byte	.LVL14
 1169 0095 0100     		.2byte	0x1
ARM GAS  /tmp/ccVkfzR7.s 			page 22


 1170 0097 53       		.byte	0x53
 1171 0098 28000000 		.4byte	.LVL15
 1172 009c 2A000000 		.4byte	.LFE8
 1173 00a0 0100     		.2byte	0x1
 1174 00a2 53       		.byte	0x53
 1175 00a3 00000000 		.4byte	0x0
 1176 00a7 00000000 		.4byte	0x0
 1177              	.LLST6:
 1178 00ab 00000000 		.4byte	.LFB9
 1179 00af 02000000 		.4byte	.LCFI1
 1180 00b3 0200     		.2byte	0x2
 1181 00b5 7D       		.byte	0x7d
 1182 00b6 00       		.sleb128 0
 1183 00b7 02000000 		.4byte	.LCFI1
 1184 00bb 26000000 		.4byte	.LFE9
 1185 00bf 0200     		.2byte	0x2
 1186 00c1 7D       		.byte	0x7d
 1187 00c2 04       		.sleb128 4
 1188 00c3 00000000 		.4byte	0x0
 1189 00c7 00000000 		.4byte	0x0
 1190              	.LLST7:
 1191 00cb 00000000 		.4byte	.LVL16
 1192 00cf 22000000 		.4byte	.LVL22
 1193 00d3 0100     		.2byte	0x1
 1194 00d5 50       		.byte	0x50
 1195 00d6 00000000 		.4byte	0x0
 1196 00da 00000000 		.4byte	0x0
 1197              	.LLST8:
 1198 00de 08000000 		.4byte	.LVL18
 1199 00e2 0C000000 		.4byte	.LVL19
 1200 00e6 0100     		.2byte	0x1
 1201 00e8 53       		.byte	0x53
 1202 00e9 00000000 		.4byte	0x0
 1203 00ed 00000000 		.4byte	0x0
 1204              	.LLST9:
 1205 00f1 20000000 		.4byte	.LVL21
 1206 00f5 26000000 		.4byte	.LFE9
 1207 00f9 0100     		.2byte	0x1
 1208 00fb 53       		.byte	0x53
 1209 00fc 00000000 		.4byte	0x0
 1210 0100 00000000 		.4byte	0x0
 1211              	.LLST10:
 1212 0104 00000000 		.4byte	.LVL23
 1213 0108 16000000 		.4byte	.LVL28
 1214 010c 0100     		.2byte	0x1
 1215 010e 50       		.byte	0x50
 1216 010f 18000000 		.4byte	.LVL29
 1217 0113 1E000000 		.4byte	.LFE10
 1218 0117 0100     		.2byte	0x1
 1219 0119 50       		.byte	0x50
 1220 011a 00000000 		.4byte	0x0
 1221 011e 00000000 		.4byte	0x0
 1222              	.LLST11:
 1223 0122 06000000 		.4byte	.LVL25
 1224 0126 0A000000 		.4byte	.LVL26
 1225 012a 0100     		.2byte	0x1
 1226 012c 53       		.byte	0x53
ARM GAS  /tmp/ccVkfzR7.s 			page 23


 1227 012d 00000000 		.4byte	0x0
 1228 0131 00000000 		.4byte	0x0
 1229              	.LLST12:
 1230 0135 1C000000 		.4byte	.LVL30
 1231 0139 1E000000 		.4byte	.LFE10
 1232 013d 0100     		.2byte	0x1
 1233 013f 53       		.byte	0x53
 1234 0140 00000000 		.4byte	0x0
 1235 0144 00000000 		.4byte	0x0
 1236              	.LLST13:
 1237 0148 00000000 		.4byte	.LFB12
 1238 014c 02000000 		.4byte	.LCFI2
 1239 0150 0200     		.2byte	0x2
 1240 0152 7D       		.byte	0x7d
 1241 0153 00       		.sleb128 0
 1242 0154 02000000 		.4byte	.LCFI2
 1243 0158 32000000 		.4byte	.LFE12
 1244 015c 0200     		.2byte	0x2
 1245 015e 7D       		.byte	0x7d
 1246 015f 08       		.sleb128 8
 1247 0160 00000000 		.4byte	0x0
 1248 0164 00000000 		.4byte	0x0
 1249              	.LLST14:
 1250 0168 00000000 		.4byte	.LVL31
 1251 016c 23000000 		.4byte	.LVL35-1
 1252 0170 0100     		.2byte	0x1
 1253 0172 50       		.byte	0x50
 1254 0173 2A000000 		.4byte	.LVL36
 1255 0177 32000000 		.4byte	.LFE12
 1256 017b 0100     		.2byte	0x1
 1257 017d 50       		.byte	0x50
 1258 017e 00000000 		.4byte	0x0
 1259 0182 00000000 		.4byte	0x0
 1260              	.LLST15:
 1261 0186 00000000 		.4byte	.LVL31
 1262 018a 14000000 		.4byte	.LVL32
 1263 018e 0100     		.2byte	0x1
 1264 0190 51       		.byte	0x51
 1265 0191 16000000 		.4byte	.LVL33
 1266 0195 1C000000 		.4byte	.LVL34
 1267 0199 0100     		.2byte	0x1
 1268 019b 51       		.byte	0x51
 1269 019c 2A000000 		.4byte	.LVL36
 1270 01a0 32000000 		.4byte	.LFE12
 1271 01a4 0100     		.2byte	0x1
 1272 01a6 51       		.byte	0x51
 1273 01a7 00000000 		.4byte	0x0
 1274 01ab 00000000 		.4byte	0x0
 1275              	.LLST16:
 1276 01af 00000000 		.4byte	.LFB11
 1277 01b3 02000000 		.4byte	.LCFI3
 1278 01b7 0200     		.2byte	0x2
 1279 01b9 7D       		.byte	0x7d
 1280 01ba 00       		.sleb128 0
 1281 01bb 02000000 		.4byte	.LCFI3
 1282 01bf 18000000 		.4byte	.LFE11
 1283 01c3 0200     		.2byte	0x2
ARM GAS  /tmp/ccVkfzR7.s 			page 24


 1284 01c5 7D       		.byte	0x7d
 1285 01c6 08       		.sleb128 8
 1286 01c7 00000000 		.4byte	0x0
 1287 01cb 00000000 		.4byte	0x0
 1288              	.LLST17:
 1289 01cf 00000000 		.4byte	.LVL37
 1290 01d3 0B000000 		.4byte	.LVL40-1
 1291 01d7 0100     		.2byte	0x1
 1292 01d9 50       		.byte	0x50
 1293 01da 00000000 		.4byte	0x0
 1294 01de 00000000 		.4byte	0x0
 1295              	.LLST18:
 1296 01e2 00000000 		.4byte	.LVL37
 1297 01e6 0B000000 		.4byte	.LVL40-1
 1298 01ea 0100     		.2byte	0x1
 1299 01ec 51       		.byte	0x51
 1300 01ed 00000000 		.4byte	0x0
 1301 01f1 00000000 		.4byte	0x0
 1302              	.LLST19:
 1303 01f5 08000000 		.4byte	.LVL39
 1304 01f9 0B000000 		.4byte	.LVL40-1
 1305 01fd 0100     		.2byte	0x1
 1306 01ff 53       		.byte	0x53
 1307 0200 00000000 		.4byte	0x0
 1308 0204 00000000 		.4byte	0x0
 1309              	.LLST20:
 1310 0208 16000000 		.4byte	.LVL42
 1311 020c 18000000 		.4byte	.LFE11
 1312 0210 0100     		.2byte	0x1
 1313 0212 53       		.byte	0x53
 1314 0213 00000000 		.4byte	0x0
 1315 0217 00000000 		.4byte	0x0
 1316              	.LLST21:
 1317 021b 00000000 		.4byte	.LFB14
 1318 021f 02000000 		.4byte	.LCFI4
 1319 0223 0200     		.2byte	0x2
 1320 0225 7D       		.byte	0x7d
 1321 0226 00       		.sleb128 0
 1322 0227 02000000 		.4byte	.LCFI4
 1323 022b 1A000000 		.4byte	.LFE14
 1324 022f 0200     		.2byte	0x2
 1325 0231 7D       		.byte	0x7d
 1326 0232 10       		.sleb128 16
 1327 0233 00000000 		.4byte	0x0
 1328 0237 00000000 		.4byte	0x0
 1329              	.LLST22:
 1330 023b 00000000 		.4byte	.LVL43
 1331 023f 0A000000 		.4byte	.LVL45
 1332 0243 0100     		.2byte	0x1
 1333 0245 50       		.byte	0x50
 1334 0246 0A000000 		.4byte	.LVL45
 1335 024a 1A000000 		.4byte	.LFE14
 1336 024e 0100     		.2byte	0x1
 1337 0250 55       		.byte	0x55
 1338 0251 00000000 		.4byte	0x0
 1339 0255 00000000 		.4byte	0x0
 1340              	.LLST23:
ARM GAS  /tmp/ccVkfzR7.s 			page 25


 1341 0259 04000000 		.4byte	.LVL44
 1342 025d 0A000000 		.4byte	.LVL45
 1343 0261 0200     		.2byte	0x2
 1344 0263 70       		.byte	0x70
 1345 0264 00       		.sleb128 0
 1346 0265 0A000000 		.4byte	.LVL45
 1347 0269 14000000 		.4byte	.LVL46
 1348 026d 0100     		.2byte	0x1
 1349 026f 54       		.byte	0x54
 1350 0270 14000000 		.4byte	.LVL46
 1351 0274 1A000000 		.4byte	.LFE14
 1352 0278 0100     		.2byte	0x1
 1353 027a 54       		.byte	0x54
 1354 027b 00000000 		.4byte	0x0
 1355 027f 00000000 		.4byte	0x0
 1356              	.LLST24:
 1357 0283 00000000 		.4byte	.LFB13
 1358 0287 02000000 		.4byte	.LCFI5
 1359 028b 0200     		.2byte	0x2
 1360 028d 7D       		.byte	0x7d
 1361 028e 00       		.sleb128 0
 1362 028f 02000000 		.4byte	.LCFI5
 1363 0293 18000000 		.4byte	.LFE13
 1364 0297 0200     		.2byte	0x2
 1365 0299 7D       		.byte	0x7d
 1366 029a 08       		.sleb128 8
 1367 029b 00000000 		.4byte	0x0
 1368 029f 00000000 		.4byte	0x0
 1369              	.LLST25:
 1370 02a3 00000000 		.4byte	.LVL47
 1371 02a7 0B000000 		.4byte	.LVL50-1
 1372 02ab 0100     		.2byte	0x1
 1373 02ad 50       		.byte	0x50
 1374 02ae 00000000 		.4byte	0x0
 1375 02b2 00000000 		.4byte	0x0
 1376              	.LLST26:
 1377 02b6 08000000 		.4byte	.LVL49
 1378 02ba 0B000000 		.4byte	.LVL50-1
 1379 02be 0100     		.2byte	0x1
 1380 02c0 53       		.byte	0x53
 1381 02c1 00000000 		.4byte	0x0
 1382 02c5 00000000 		.4byte	0x0
 1383              	.LLST27:
 1384 02c9 16000000 		.4byte	.LVL52
 1385 02cd 18000000 		.4byte	.LFE13
 1386 02d1 0100     		.2byte	0x1
 1387 02d3 53       		.byte	0x53
 1388 02d4 00000000 		.4byte	0x0
 1389 02d8 00000000 		.4byte	0x0
 1390              	.LLST28:
 1391 02dc 00000000 		.4byte	.LFB15
 1392 02e0 02000000 		.4byte	.LCFI6
 1393 02e4 0200     		.2byte	0x2
 1394 02e6 7D       		.byte	0x7d
 1395 02e7 00       		.sleb128 0
 1396 02e8 02000000 		.4byte	.LCFI6
 1397 02ec 32000000 		.4byte	.LFE15
ARM GAS  /tmp/ccVkfzR7.s 			page 26


 1398 02f0 0200     		.2byte	0x2
 1399 02f2 7D       		.byte	0x7d
 1400 02f3 18       		.sleb128 24
 1401 02f4 00000000 		.4byte	0x0
 1402 02f8 00000000 		.4byte	0x0
 1403              	.LLST29:
 1404 02fc 00000000 		.4byte	.LVL53
 1405 0300 14000000 		.4byte	.LVL54
 1406 0304 0100     		.2byte	0x1
 1407 0306 50       		.byte	0x50
 1408 0307 14000000 		.4byte	.LVL54
 1409 030b 32000000 		.4byte	.LFE15
 1410 030f 0100     		.2byte	0x1
 1411 0311 57       		.byte	0x57
 1412 0312 00000000 		.4byte	0x0
 1413 0316 00000000 		.4byte	0x0
 1414              	.LLST30:
 1415 031a 00000000 		.4byte	.LVL53
 1416 031e 14000000 		.4byte	.LVL54
 1417 0322 0100     		.2byte	0x1
 1418 0324 51       		.byte	0x51
 1419 0325 14000000 		.4byte	.LVL54
 1420 0329 24000000 		.4byte	.LVL56
 1421 032d 0100     		.2byte	0x1
 1422 032f 55       		.byte	0x55
 1423 0330 24000000 		.4byte	.LVL56
 1424 0334 32000000 		.4byte	.LFE15
 1425 0338 0100     		.2byte	0x1
 1426 033a 55       		.byte	0x55
 1427 033b 00000000 		.4byte	0x0
 1428 033f 00000000 		.4byte	0x0
 1429              	.LLST31:
 1430 0343 00000000 		.4byte	.LVL53
 1431 0347 14000000 		.4byte	.LVL54
 1432 034b 0200     		.2byte	0x2
 1433 034d 30       		.byte	0x30
 1434 034e 9F       		.byte	0x9f
 1435 034f 14000000 		.4byte	.LVL54
 1436 0353 16000000 		.4byte	.LVL55
 1437 0357 0300     		.2byte	0x3
 1438 0359 74       		.byte	0x74
 1439 035a 01       		.sleb128 1
 1440 035b 9F       		.byte	0x9f
 1441 035c 2C000000 		.4byte	.LVL57
 1442 0360 30000000 		.4byte	.LVL58
 1443 0364 0300     		.2byte	0x3
 1444 0366 74       		.byte	0x74
 1445 0367 01       		.sleb128 1
 1446 0368 9F       		.byte	0x9f
 1447 0369 00000000 		.4byte	0x0
 1448 036d 00000000 		.4byte	0x0
 1449              	.LLST32:
 1450 0371 00000000 		.4byte	.LFB16
 1451 0375 02000000 		.4byte	.LCFI7
 1452 0379 0200     		.2byte	0x2
 1453 037b 7D       		.byte	0x7d
 1454 037c 00       		.sleb128 0
ARM GAS  /tmp/ccVkfzR7.s 			page 27


 1455 037d 02000000 		.4byte	.LCFI7
 1456 0381 3C000000 		.4byte	.LFE16
 1457 0385 0200     		.2byte	0x2
 1458 0387 7D       		.byte	0x7d
 1459 0388 10       		.sleb128 16
 1460 0389 00000000 		.4byte	0x0
 1461 038d 00000000 		.4byte	0x0
 1462              	.LLST33:
 1463 0391 00000000 		.4byte	.LVL59
 1464 0395 20000000 		.4byte	.LVL65
 1465 0399 0100     		.2byte	0x1
 1466 039b 50       		.byte	0x50
 1467 039c 20000000 		.4byte	.LVL65
 1468 03a0 3C000000 		.4byte	.LFE16
 1469 03a4 0100     		.2byte	0x1
 1470 03a6 55       		.byte	0x55
 1471 03a7 00000000 		.4byte	0x0
 1472 03ab 00000000 		.4byte	0x0
 1473              	.LLST34:
 1474 03af 0C000000 		.4byte	.LVL60
 1475 03b3 10000000 		.4byte	.LVL61
 1476 03b7 0200     		.2byte	0x2
 1477 03b9 73       		.byte	0x73
 1478 03ba 1C       		.sleb128 28
 1479 03bb 23000000 		.4byte	.LVL66-1
 1480 03bf 3C000000 		.4byte	.LFE16
 1481 03c3 0100     		.2byte	0x1
 1482 03c5 54       		.byte	0x54
 1483 03c6 00000000 		.4byte	0x0
 1484 03ca 00000000 		.4byte	0x0
 1485              	.LLST35:
 1486 03ce 1A000000 		.4byte	.LVL64
 1487 03d2 23000000 		.4byte	.LVL66-1
 1488 03d6 0100     		.2byte	0x1
 1489 03d8 52       		.byte	0x52
 1490 03d9 2A000000 		.4byte	.LVL67
 1491 03dd 2E000000 		.4byte	.LVL68
 1492 03e1 0100     		.2byte	0x1
 1493 03e3 52       		.byte	0x52
 1494 03e4 2E000000 		.4byte	.LVL68
 1495 03e8 3C000000 		.4byte	.LFE16
 1496 03ec 0100     		.2byte	0x1
 1497 03ee 50       		.byte	0x50
 1498 03ef 00000000 		.4byte	0x0
 1499 03f3 00000000 		.4byte	0x0
 1500              	.LLST36:
 1501 03f7 14000000 		.4byte	.LVL62
 1502 03fb 16000000 		.4byte	.LVL63
 1503 03ff 0100     		.2byte	0x1
 1504 0401 53       		.byte	0x53
 1505 0402 00000000 		.4byte	0x0
 1506 0406 00000000 		.4byte	0x0
 1507              	.LLST37:
 1508 040a 3A000000 		.4byte	.LVL70
 1509 040e 3C000000 		.4byte	.LFE16
 1510 0412 0100     		.2byte	0x1
 1511 0414 53       		.byte	0x53
ARM GAS  /tmp/ccVkfzR7.s 			page 28


 1512 0415 00000000 		.4byte	0x0
 1513 0419 00000000 		.4byte	0x0
 1514              	.LLST38:
 1515 041d 00000000 		.4byte	.LFB17
 1516 0421 02000000 		.4byte	.LCFI8
 1517 0425 0200     		.2byte	0x2
 1518 0427 7D       		.byte	0x7d
 1519 0428 00       		.sleb128 0
 1520 0429 02000000 		.4byte	.LCFI8
 1521 042d 36000000 		.4byte	.LFE17
 1522 0431 0200     		.2byte	0x2
 1523 0433 7D       		.byte	0x7d
 1524 0434 10       		.sleb128 16
 1525 0435 00000000 		.4byte	0x0
 1526 0439 00000000 		.4byte	0x0
 1527              	.LLST39:
 1528 043d 00000000 		.4byte	.LVL71
 1529 0441 18000000 		.4byte	.LVL76
 1530 0445 0100     		.2byte	0x1
 1531 0447 50       		.byte	0x50
 1532 0448 18000000 		.4byte	.LVL76
 1533 044c 36000000 		.4byte	.LFE17
 1534 0450 0100     		.2byte	0x1
 1535 0452 55       		.byte	0x55
 1536 0453 00000000 		.4byte	0x0
 1537 0457 00000000 		.4byte	0x0
 1538              	.LLST40:
 1539 045b 0C000000 		.4byte	.LVL72
 1540 045f 10000000 		.4byte	.LVL73
 1541 0463 0200     		.2byte	0x2
 1542 0465 73       		.byte	0x73
 1543 0466 1C       		.sleb128 28
 1544 0467 21000000 		.4byte	.LVL78-1
 1545 046b 36000000 		.4byte	.LFE17
 1546 046f 0100     		.2byte	0x1
 1547 0471 54       		.byte	0x54
 1548 0472 00000000 		.4byte	0x0
 1549 0476 00000000 		.4byte	0x0
 1550              	.LLST41:
 1551 047a 18000000 		.4byte	.LVL76
 1552 047e 1C000000 		.4byte	.LVL77
 1553 0482 0100     		.2byte	0x1
 1554 0484 50       		.byte	0x50
 1555 0485 28000000 		.4byte	.LVL79
 1556 0489 36000000 		.4byte	.LFE17
 1557 048d 0100     		.2byte	0x1
 1558 048f 50       		.byte	0x50
 1559 0490 00000000 		.4byte	0x0
 1560 0494 00000000 		.4byte	0x0
 1561              	.LLST42:
 1562 0498 14000000 		.4byte	.LVL74
 1563 049c 16000000 		.4byte	.LVL75
 1564 04a0 0100     		.2byte	0x1
 1565 04a2 53       		.byte	0x53
 1566 04a3 00000000 		.4byte	0x0
 1567 04a7 00000000 		.4byte	0x0
 1568              	.LLST43:
ARM GAS  /tmp/ccVkfzR7.s 			page 29


 1569 04ab 34000000 		.4byte	.LVL81
 1570 04af 36000000 		.4byte	.LFE17
 1571 04b3 0100     		.2byte	0x1
 1572 04b5 53       		.byte	0x53
 1573 04b6 00000000 		.4byte	0x0
 1574 04ba 00000000 		.4byte	0x0
 1575              	.LLST44:
 1576 04be 00000000 		.4byte	.LFB18
 1577 04c2 02000000 		.4byte	.LCFI9
 1578 04c6 0200     		.2byte	0x2
 1579 04c8 7D       		.byte	0x7d
 1580 04c9 00       		.sleb128 0
 1581 04ca 02000000 		.4byte	.LCFI9
 1582 04ce 38000000 		.4byte	.LFE18
 1583 04d2 0200     		.2byte	0x2
 1584 04d4 7D       		.byte	0x7d
 1585 04d5 10       		.sleb128 16
 1586 04d6 00000000 		.4byte	0x0
 1587 04da 00000000 		.4byte	0x0
 1588              	.LLST45:
 1589 04de 00000000 		.4byte	.LVL82
 1590 04e2 22000000 		.4byte	.LVL87
 1591 04e6 0100     		.2byte	0x1
 1592 04e8 50       		.byte	0x50
 1593 04e9 22000000 		.4byte	.LVL87
 1594 04ed 38000000 		.4byte	.LFE18
 1595 04f1 0100     		.2byte	0x1
 1596 04f3 54       		.byte	0x54
 1597 04f4 00000000 		.4byte	0x0
 1598 04f8 00000000 		.4byte	0x0
 1599              	.LLST46:
 1600 04fc 0C000000 		.4byte	.LVL83
 1601 0500 10000000 		.4byte	.LVL84
 1602 0504 0200     		.2byte	0x2
 1603 0506 73       		.byte	0x73
 1604 0507 1C       		.sleb128 28
 1605 0508 25000000 		.4byte	.LVL88-1
 1606 050c 38000000 		.4byte	.LFE18
 1607 0510 0100     		.2byte	0x1
 1608 0512 55       		.byte	0x55
 1609 0513 00000000 		.4byte	0x0
 1610 0517 00000000 		.4byte	0x0
 1611              	.LLST47:
 1612 051b 14000000 		.4byte	.LVL85
 1613 051f 16000000 		.4byte	.LVL86
 1614 0523 0100     		.2byte	0x1
 1615 0525 53       		.byte	0x53
 1616 0526 00000000 		.4byte	0x0
 1617 052a 00000000 		.4byte	0x0
 1618              	.LLST48:
 1619 052e 34000000 		.4byte	.LVL90
 1620 0532 38000000 		.4byte	.LFE18
 1621 0536 0100     		.2byte	0x1
 1622 0538 53       		.byte	0x53
 1623 0539 00000000 		.4byte	0x0
 1624 053d 00000000 		.4byte	0x0
 1625              	.LLST49:
ARM GAS  /tmp/ccVkfzR7.s 			page 30


 1626 0541 00000000 		.4byte	.LFB19
 1627 0545 0A000000 		.4byte	.LCFI10
 1628 0549 0200     		.2byte	0x2
 1629 054b 7D       		.byte	0x7d
 1630 054c 00       		.sleb128 0
 1631 054d 0A000000 		.4byte	.LCFI10
 1632 0551 56000000 		.4byte	.LFE19
 1633 0555 0200     		.2byte	0x2
 1634 0557 7D       		.byte	0x7d
 1635 0558 10       		.sleb128 16
 1636 0559 00000000 		.4byte	0x0
 1637 055d 00000000 		.4byte	0x0
 1638              	.LLST50:
 1639 0561 00000000 		.4byte	.LVL91
 1640 0565 26000000 		.4byte	.LVL99
 1641 0569 0100     		.2byte	0x1
 1642 056b 50       		.byte	0x50
 1643 056c 26000000 		.4byte	.LVL99
 1644 0570 56000000 		.4byte	.LFE19
 1645 0574 0100     		.2byte	0x1
 1646 0576 55       		.byte	0x55
 1647 0577 00000000 		.4byte	0x0
 1648 057b 00000000 		.4byte	0x0
 1649              	.LLST51:
 1650 057f 00000000 		.4byte	.LVL91
 1651 0583 2F000000 		.4byte	.LVL101-1
 1652 0587 0100     		.2byte	0x1
 1653 0589 51       		.byte	0x51
 1654 058a 00000000 		.4byte	0x0
 1655 058e 00000000 		.4byte	0x0
 1656              	.LLST52:
 1657 0592 0C000000 		.4byte	.LVL92
 1658 0596 10000000 		.4byte	.LVL93
 1659 059a 0200     		.2byte	0x2
 1660 059c 73       		.byte	0x73
 1661 059d 1C       		.sleb128 28
 1662 059e 2F000000 		.4byte	.LVL101-1
 1663 05a2 56000000 		.4byte	.LFE19
 1664 05a6 0100     		.2byte	0x1
 1665 05a8 56       		.byte	0x56
 1666 05a9 00000000 		.4byte	0x0
 1667 05ad 00000000 		.4byte	0x0
 1668              	.LLST53:
 1669 05b1 1A000000 		.4byte	.LVL96
 1670 05b5 3A000000 		.4byte	.LVL102
 1671 05b9 0100     		.2byte	0x1
 1672 05bb 54       		.byte	0x54
 1673 05bc 3A000000 		.4byte	.LVL102
 1674 05c0 3E000000 		.4byte	.LVL103
 1675 05c4 0100     		.2byte	0x1
 1676 05c6 54       		.byte	0x54
 1677 05c7 3E000000 		.4byte	.LVL103
 1678 05cb 56000000 		.4byte	.LFE19
 1679 05cf 0100     		.2byte	0x1
 1680 05d1 54       		.byte	0x54
 1681 05d2 00000000 		.4byte	0x0
 1682 05d6 00000000 		.4byte	0x0
ARM GAS  /tmp/ccVkfzR7.s 			page 31


 1683              	.LLST54:
 1684 05da 14000000 		.4byte	.LVL94
 1685 05de 16000000 		.4byte	.LVL95
 1686 05e2 0100     		.2byte	0x1
 1687 05e4 53       		.byte	0x53
 1688 05e5 00000000 		.4byte	0x0
 1689 05e9 00000000 		.4byte	0x0
 1690              	.LLST55:
 1691 05ed 24000000 		.4byte	.LVL98
 1692 05f1 28000000 		.4byte	.LVL100
 1693 05f5 0100     		.2byte	0x1
 1694 05f7 53       		.byte	0x53
 1695 05f8 00000000 		.4byte	0x0
 1696 05fc 00000000 		.4byte	0x0
 1697              	.LLST56:
 1698 0600 4A000000 		.4byte	.LVL105
 1699 0604 4E000000 		.4byte	.LVL106
 1700 0608 0100     		.2byte	0x1
 1701 060a 53       		.byte	0x53
 1702 060b 00000000 		.4byte	0x0
 1703 060f 00000000 		.4byte	0x0
 1704              	.LLST57:
 1705 0613 4A000000 		.4byte	.LVL105
 1706 0617 4E000000 		.4byte	.LVL106
 1707 061b 0100     		.2byte	0x1
 1708 061d 53       		.byte	0x53
 1709 061e 54000000 		.4byte	.LVL107
 1710 0622 56000000 		.4byte	.LFE19
 1711 0626 0100     		.2byte	0x1
 1712 0628 53       		.byte	0x53
 1713 0629 00000000 		.4byte	0x0
 1714 062d 00000000 		.4byte	0x0
 1715              	.LLST58:
 1716 0631 00000000 		.4byte	.LFB20
 1717 0635 0A000000 		.4byte	.LCFI11
 1718 0639 0200     		.2byte	0x2
 1719 063b 7D       		.byte	0x7d
 1720 063c 00       		.sleb128 0
 1721 063d 0A000000 		.4byte	.LCFI11
 1722 0641 52000000 		.4byte	.LFE20
 1723 0645 0200     		.2byte	0x2
 1724 0647 7D       		.byte	0x7d
 1725 0648 10       		.sleb128 16
 1726 0649 00000000 		.4byte	0x0
 1727 064d 00000000 		.4byte	0x0
 1728              	.LLST59:
 1729 0651 00000000 		.4byte	.LVL108
 1730 0655 26000000 		.4byte	.LVL116
 1731 0659 0100     		.2byte	0x1
 1732 065b 50       		.byte	0x50
 1733 065c 26000000 		.4byte	.LVL116
 1734 0660 52000000 		.4byte	.LFE20
 1735 0664 0100     		.2byte	0x1
 1736 0666 54       		.byte	0x54
 1737 0667 00000000 		.4byte	0x0
 1738 066b 00000000 		.4byte	0x0
 1739              	.LLST60:
ARM GAS  /tmp/ccVkfzR7.s 			page 32


 1740 066f 00000000 		.4byte	.LVL108
 1741 0673 2F000000 		.4byte	.LVL118-1
 1742 0677 0100     		.2byte	0x1
 1743 0679 51       		.byte	0x51
 1744 067a 00000000 		.4byte	0x0
 1745 067e 00000000 		.4byte	0x0
 1746              	.LLST61:
 1747 0682 0C000000 		.4byte	.LVL109
 1748 0686 10000000 		.4byte	.LVL110
 1749 068a 0200     		.2byte	0x2
 1750 068c 73       		.byte	0x73
 1751 068d 1C       		.sleb128 28
 1752 068e 2F000000 		.4byte	.LVL118-1
 1753 0692 52000000 		.4byte	.LFE20
 1754 0696 0100     		.2byte	0x1
 1755 0698 56       		.byte	0x56
 1756 0699 00000000 		.4byte	0x0
 1757 069d 00000000 		.4byte	0x0
 1758              	.LLST62:
 1759 06a1 1A000000 		.4byte	.LVL113
 1760 06a5 3A000000 		.4byte	.LVL119
 1761 06a9 0100     		.2byte	0x1
 1762 06ab 55       		.byte	0x55
 1763 06ac 3A000000 		.4byte	.LVL119
 1764 06b0 52000000 		.4byte	.LFE20
 1765 06b4 0100     		.2byte	0x1
 1766 06b6 55       		.byte	0x55
 1767 06b7 00000000 		.4byte	0x0
 1768 06bb 00000000 		.4byte	0x0
 1769              	.LLST63:
 1770 06bf 14000000 		.4byte	.LVL111
 1771 06c3 16000000 		.4byte	.LVL112
 1772 06c7 0100     		.2byte	0x1
 1773 06c9 53       		.byte	0x53
 1774 06ca 00000000 		.4byte	0x0
 1775 06ce 00000000 		.4byte	0x0
 1776              	.LLST64:
 1777 06d2 24000000 		.4byte	.LVL115
 1778 06d6 28000000 		.4byte	.LVL117
 1779 06da 0100     		.2byte	0x1
 1780 06dc 53       		.byte	0x53
 1781 06dd 00000000 		.4byte	0x0
 1782 06e1 00000000 		.4byte	0x0
 1783              	.LLST65:
 1784 06e5 46000000 		.4byte	.LVL121
 1785 06e9 4A000000 		.4byte	.LVL122
 1786 06ed 0100     		.2byte	0x1
 1787 06ef 53       		.byte	0x53
 1788 06f0 00000000 		.4byte	0x0
 1789 06f4 00000000 		.4byte	0x0
 1790              	.LLST66:
 1791 06f8 46000000 		.4byte	.LVL121
 1792 06fc 4A000000 		.4byte	.LVL122
 1793 0700 0100     		.2byte	0x1
 1794 0702 53       		.byte	0x53
 1795 0703 50000000 		.4byte	.LVL123
 1796 0707 52000000 		.4byte	.LFE20
ARM GAS  /tmp/ccVkfzR7.s 			page 33


 1797 070b 0100     		.2byte	0x1
 1798 070d 53       		.byte	0x53
 1799 070e 00000000 		.4byte	0x0
 1800 0712 00000000 		.4byte	0x0
 1801              	.LLST67:
 1802 0716 00000000 		.4byte	.LFB21
 1803 071a 02000000 		.4byte	.LCFI12
 1804 071e 0200     		.2byte	0x2
 1805 0720 7D       		.byte	0x7d
 1806 0721 00       		.sleb128 0
 1807 0722 02000000 		.4byte	.LCFI12
 1808 0726 56000000 		.4byte	.LFE21
 1809 072a 0200     		.2byte	0x2
 1810 072c 7D       		.byte	0x7d
 1811 072d 10       		.sleb128 16
 1812 072e 00000000 		.4byte	0x0
 1813 0732 00000000 		.4byte	0x0
 1814              	.LLST68:
 1815 0736 00000000 		.4byte	.LVL124
 1816 073a 2A000000 		.4byte	.LVL131
 1817 073e 0100     		.2byte	0x1
 1818 0740 50       		.byte	0x50
 1819 0741 2C000000 		.4byte	.LVL132
 1820 0745 2E000000 		.4byte	.LVL133
 1821 0749 0100     		.2byte	0x1
 1822 074b 50       		.byte	0x50
 1823 074c 2E000000 		.4byte	.LVL133
 1824 0750 48000000 		.4byte	.LVL136
 1825 0754 0100     		.2byte	0x1
 1826 0756 54       		.byte	0x54
 1827 0757 4C000000 		.4byte	.LVL137
 1828 075b 54000000 		.4byte	.LVL139
 1829 075f 0100     		.2byte	0x1
 1830 0761 54       		.byte	0x54
 1831 0762 00000000 		.4byte	0x0
 1832 0766 00000000 		.4byte	0x0
 1833              	.LLST69:
 1834 076a 00000000 		.4byte	.LVL124
 1835 076e 33000000 		.4byte	.LVL134-1
 1836 0772 0100     		.2byte	0x1
 1837 0774 51       		.byte	0x51
 1838 0775 00000000 		.4byte	0x0
 1839 0779 00000000 		.4byte	0x0
 1840              	.LLST70:
 1841 077d 0C000000 		.4byte	.LVL125
 1842 0781 10000000 		.4byte	.LVL126
 1843 0785 0200     		.2byte	0x2
 1844 0787 73       		.byte	0x73
 1845 0788 1C       		.sleb128 28
 1846 0789 33000000 		.4byte	.LVL134-1
 1847 078d 56000000 		.4byte	.LFE21
 1848 0791 0100     		.2byte	0x1
 1849 0793 55       		.byte	0x55
 1850 0794 00000000 		.4byte	0x0
 1851 0798 00000000 		.4byte	0x0
 1852              	.LLST71:
 1853 079c 14000000 		.4byte	.LVL127
ARM GAS  /tmp/ccVkfzR7.s 			page 34


 1854 07a0 16000000 		.4byte	.LVL128
 1855 07a4 0100     		.2byte	0x1
 1856 07a6 53       		.byte	0x53
 1857 07a7 00000000 		.4byte	0x0
 1858 07ab 00000000 		.4byte	0x0
 1859              	.LLST72:
 1860 07af 26000000 		.4byte	.LVL130
 1861 07b3 2C000000 		.4byte	.LVL132
 1862 07b7 0100     		.2byte	0x1
 1863 07b9 53       		.byte	0x53
 1864 07ba 00000000 		.4byte	0x0
 1865 07be 00000000 		.4byte	0x0
 1866              	.LLST73:
 1867 07c2 48000000 		.4byte	.LVL136
 1868 07c6 4C000000 		.4byte	.LVL137
 1869 07ca 0100     		.2byte	0x1
 1870 07cc 53       		.byte	0x53
 1871 07cd 00000000 		.4byte	0x0
 1872 07d1 00000000 		.4byte	0x0
 1873              	.LLST74:
 1874 07d5 48000000 		.4byte	.LVL136
 1875 07d9 4C000000 		.4byte	.LVL137
 1876 07dd 0100     		.2byte	0x1
 1877 07df 53       		.byte	0x53
 1878 07e0 52000000 		.4byte	.LVL138
 1879 07e4 56000000 		.4byte	.LFE21
 1880 07e8 0100     		.2byte	0x1
 1881 07ea 53       		.byte	0x53
 1882 07eb 00000000 		.4byte	0x0
 1883 07ef 00000000 		.4byte	0x0
 1884              		.file 2 "/home/dan/arm-cs-tools/lib/gcc/arm-none-eabi/4.5.1/../../../../arm-none-eabi/include/stdi
 1885              		.file 3 "chibios/os/ports/GCC/ARMCMx/chtypes.h"
 1886              		.file 4 "chibios/os/kernel/include/chlists.h"
 1887              		.file 5 "chibios/os/kernel/include/chthreads.h"
 1888              		.file 6 "chibios/os/ports/GCC/ARMCMx/chcore.h"
 1889              		.file 7 "chibios/os/ports/GCC/ARMCMx/chcore_v7m.h"
 1890              		.file 8 "chibios/os/kernel/include/chschd.h"
 1891              		.file 9 "chibios/os/kernel/include/chmtx.h"
 1892              		.file 10 "chibios/os/kernel/include/chevents.h"
 1893              		.section	.debug_info
 1894 0000 DA0B0000 		.4byte	0xbda
 1895 0004 0200     		.2byte	0x2
 1896 0006 00000000 		.4byte	.Ldebug_abbrev0
 1897 000a 04       		.byte	0x4
 1898 000b 01       		.uleb128 0x1
 1899 000c 98030000 		.4byte	.LASF86
 1900 0010 01       		.byte	0x1
 1901 0011 DE020000 		.4byte	.LASF87
 1902 0015 AA010000 		.4byte	.LASF88
 1903 0019 00000000 		.4byte	0x0
 1904 001d 00000000 		.4byte	0x0
 1905 0021 60000000 		.4byte	.Ldebug_ranges0+0x60
 1906 0025 00000000 		.4byte	.Ldebug_line0
 1907 0029 02       		.uleb128 0x2
 1908 002a 04       		.byte	0x4
 1909 002b 05       		.byte	0x5
 1910 002c 696E7400 		.ascii	"int\000"
ARM GAS  /tmp/ccVkfzR7.s 			page 35


 1911 0030 03       		.uleb128 0x3
 1912 0031 04       		.byte	0x4
 1913 0032 07       		.byte	0x7
 1914 0033 0C010000 		.4byte	.LASF0
 1915 0037 03       		.uleb128 0x3
 1916 0038 01       		.byte	0x1
 1917 0039 06       		.byte	0x6
 1918 003a 62000000 		.4byte	.LASF1
 1919 003e 04       		.uleb128 0x4
 1920 003f 6E030000 		.4byte	.LASF5
 1921 0043 02       		.byte	0x2
 1922 0044 2A       		.byte	0x2a
 1923 0045 49000000 		.4byte	0x49
 1924 0049 03       		.uleb128 0x3
 1925 004a 01       		.byte	0x1
 1926 004b 08       		.byte	0x8
 1927 004c 6E020000 		.4byte	.LASF2
 1928 0050 03       		.uleb128 0x3
 1929 0051 02       		.byte	0x2
 1930 0052 05       		.byte	0x5
 1931 0053 9F020000 		.4byte	.LASF3
 1932 0057 03       		.uleb128 0x3
 1933 0058 02       		.byte	0x2
 1934 0059 07       		.byte	0x7
 1935 005a 33010000 		.4byte	.LASF4
 1936 005e 04       		.uleb128 0x4
 1937 005f 66020000 		.4byte	.LASF6
 1938 0063 02       		.byte	0x2
 1939 0064 4F       		.byte	0x4f
 1940 0065 69000000 		.4byte	0x69
 1941 0069 03       		.uleb128 0x3
 1942 006a 04       		.byte	0x4
 1943 006b 05       		.byte	0x5
 1944 006c A7000000 		.4byte	.LASF7
 1945 0070 04       		.uleb128 0x4
 1946 0071 11030000 		.4byte	.LASF8
 1947 0075 02       		.byte	0x2
 1948 0076 50       		.byte	0x50
 1949 0077 7B000000 		.4byte	0x7b
 1950 007b 03       		.uleb128 0x3
 1951 007c 04       		.byte	0x4
 1952 007d 07       		.byte	0x7
 1953 007e 19010000 		.4byte	.LASF9
 1954 0082 03       		.uleb128 0x3
 1955 0083 08       		.byte	0x8
 1956 0084 05       		.byte	0x5
 1957 0085 54000000 		.4byte	.LASF10
 1958 0089 03       		.uleb128 0x3
 1959 008a 08       		.byte	0x8
 1960 008b 07       		.byte	0x7
 1961 008c 19000000 		.4byte	.LASF11
 1962 0090 04       		.uleb128 0x4
 1963 0091 76010000 		.4byte	.LASF12
 1964 0095 03       		.byte	0x3
 1965 0096 2E       		.byte	0x2e
 1966 0097 3E000000 		.4byte	0x3e
 1967 009b 04       		.uleb128 0x4
ARM GAS  /tmp/ccVkfzR7.s 			page 36


 1968 009c B0000000 		.4byte	.LASF13
 1969 00a0 03       		.byte	0x3
 1970 00a1 2F       		.byte	0x2f
 1971 00a2 3E000000 		.4byte	0x3e
 1972 00a6 04       		.uleb128 0x4
 1973 00a7 3F020000 		.4byte	.LASF14
 1974 00ab 03       		.byte	0x3
 1975 00ac 30       		.byte	0x30
 1976 00ad 3E000000 		.4byte	0x3e
 1977 00b1 04       		.uleb128 0x4
 1978 00b2 4E020000 		.4byte	.LASF15
 1979 00b6 03       		.byte	0x3
 1980 00b7 31       		.byte	0x31
 1981 00b8 70000000 		.4byte	0x70
 1982 00bc 04       		.uleb128 0x4
 1983 00bd 58010000 		.4byte	.LASF16
 1984 00c1 03       		.byte	0x3
 1985 00c2 32       		.byte	0x32
 1986 00c3 5E000000 		.4byte	0x5e
 1987 00c7 04       		.uleb128 0x4
 1988 00c8 E4000000 		.4byte	.LASF17
 1989 00cc 03       		.byte	0x3
 1990 00cd 33       		.byte	0x33
 1991 00ce 5E000000 		.4byte	0x5e
 1992 00d2 04       		.uleb128 0x4
 1993 00d3 8A010000 		.4byte	.LASF18
 1994 00d7 03       		.byte	0x3
 1995 00d8 34       		.byte	0x34
 1996 00d9 70000000 		.4byte	0x70
 1997 00dd 04       		.uleb128 0x4
 1998 00de 29030000 		.4byte	.LASF19
 1999 00e2 03       		.byte	0x3
 2000 00e3 35       		.byte	0x35
 2001 00e4 70000000 		.4byte	0x70
 2002 00e8 04       		.uleb128 0x4
 2003 00e9 06010000 		.4byte	.LASF20
 2004 00ed 03       		.byte	0x3
 2005 00ee 36       		.byte	0x36
 2006 00ef 5E000000 		.4byte	0x5e
 2007 00f3 04       		.uleb128 0x4
 2008 00f4 FF020000 		.4byte	.LASF21
 2009 00f8 04       		.byte	0x4
 2010 00f9 29       		.byte	0x29
 2011 00fa FE000000 		.4byte	0xfe
 2012 00fe 05       		.uleb128 0x5
 2013 00ff FF020000 		.4byte	.LASF21
 2014 0103 44       		.byte	0x44
 2015 0104 05       		.byte	0x5
 2016 0105 2E       		.byte	0x2e
 2017 0106 07020000 		.4byte	0x207
 2018 010a 06       		.uleb128 0x6
 2019 010b BF020000 		.4byte	.LASF22
 2020 010f 05       		.byte	0x5
 2021 0110 2F       		.byte	0x2f
 2022 0111 2C020000 		.4byte	0x22c
 2023 0115 02       		.byte	0x2
 2024 0116 23       		.byte	0x23
ARM GAS  /tmp/ccVkfzR7.s 			page 37


 2025 0117 00       		.uleb128 0x0
 2026 0118 06       		.uleb128 0x6
 2027 0119 47020000 		.4byte	.LASF23
 2028 011d 05       		.byte	0x5
 2029 011e 31       		.byte	0x31
 2030 011f 2C020000 		.4byte	0x22c
 2031 0123 02       		.byte	0x2
 2032 0124 23       		.byte	0x23
 2033 0125 04       		.uleb128 0x4
 2034 0126 06       		.uleb128 0x6
 2035 0127 4D000000 		.4byte	.LASF24
 2036 012b 05       		.byte	0x5
 2037 012c 33       		.byte	0x33
 2038 012d B1000000 		.4byte	0xb1
 2039 0131 02       		.byte	0x2
 2040 0132 23       		.byte	0x23
 2041 0133 08       		.uleb128 0x8
 2042 0134 06       		.uleb128 0x6
 2043 0135 BE030000 		.4byte	.LASF25
 2044 0139 05       		.byte	0x5
 2045 013a 34       		.byte	0x34
 2046 013b 6D020000 		.4byte	0x26d
 2047 013f 02       		.byte	0x2
 2048 0140 23       		.byte	0x23
 2049 0141 0C       		.uleb128 0xc
 2050 0142 06       		.uleb128 0x6
 2051 0143 C6000000 		.4byte	.LASF26
 2052 0147 05       		.byte	0x5
 2053 0148 36       		.byte	0x36
 2054 0149 2C020000 		.4byte	0x22c
 2055 014d 02       		.byte	0x2
 2056 014e 23       		.byte	0x23
 2057 014f 10       		.uleb128 0x10
 2058 0150 06       		.uleb128 0x6
 2059 0151 EF010000 		.4byte	.LASF27
 2060 0155 05       		.byte	0x5
 2061 0156 37       		.byte	0x37
 2062 0157 2C020000 		.4byte	0x22c
 2063 015b 02       		.byte	0x2
 2064 015c 23       		.byte	0x23
 2065 015d 14       		.uleb128 0x14
 2066 015e 06       		.uleb128 0x6
 2067 015f A9020000 		.4byte	.LASF28
 2068 0163 05       		.byte	0x5
 2069 0164 3D       		.byte	0x3d
 2070 0165 9B000000 		.4byte	0x9b
 2071 0169 02       		.byte	0x2
 2072 016a 23       		.byte	0x23
 2073 016b 18       		.uleb128 0x18
 2074 016c 06       		.uleb128 0x6
 2075 016d C6020000 		.4byte	.LASF29
 2076 0171 05       		.byte	0x5
 2077 0172 41       		.byte	0x41
 2078 0173 90000000 		.4byte	0x90
 2079 0177 02       		.byte	0x2
 2080 0178 23       		.byte	0x23
 2081 0179 19       		.uleb128 0x19
ARM GAS  /tmp/ccVkfzR7.s 			page 38


 2082 017a 06       		.uleb128 0x6
 2083 017b 57030000 		.4byte	.LASF30
 2084 017f 05       		.byte	0x5
 2085 0180 46       		.byte	0x46
 2086 0181 A6000000 		.4byte	0xa6
 2087 0185 02       		.byte	0x2
 2088 0186 23       		.byte	0x23
 2089 0187 1A       		.uleb128 0x1a
 2090 0188 06       		.uleb128 0x6
 2091 0189 3E030000 		.4byte	.LASF31
 2092 018d 05       		.byte	0x5
 2093 018e 53       		.byte	0x53
 2094 018f 14030000 		.4byte	0x314
 2095 0193 02       		.byte	0x2
 2096 0194 23       		.byte	0x23
 2097 0195 1C       		.uleb128 0x1c
 2098 0196 07       		.uleb128 0x7
 2099 0197 705F7500 		.ascii	"p_u\000"
 2100 019b 05       		.byte	0x5
 2101 019c 78       		.byte	0x78
 2102 019d 62040000 		.4byte	0x462
 2103 01a1 02       		.byte	0x2
 2104 01a2 23       		.byte	0x23
 2105 01a3 20       		.uleb128 0x20
 2106 01a4 06       		.uleb128 0x6
 2107 01a5 C4030000 		.4byte	.LASF32
 2108 01a9 05       		.byte	0x5
 2109 01aa 7D       		.byte	0x7d
 2110 01ab 54020000 		.4byte	0x254
 2111 01af 02       		.byte	0x2
 2112 01b0 23       		.byte	0x23
 2113 01b1 24       		.uleb128 0x24
 2114 01b2 06       		.uleb128 0x6
 2115 01b3 4C030000 		.4byte	.LASF33
 2116 01b7 05       		.byte	0x5
 2117 01b8 83       		.byte	0x83
 2118 01b9 32020000 		.4byte	0x232
 2119 01bd 02       		.byte	0x2
 2120 01be 23       		.byte	0x23
 2121 01bf 28       		.uleb128 0x28
 2122 01c0 06       		.uleb128 0x6
 2123 01c1 00000000 		.4byte	.LASF34
 2124 01c5 05       		.byte	0x5
 2125 01c6 87       		.byte	0x87
 2126 01c7 BC000000 		.4byte	0xbc
 2127 01cb 02       		.byte	0x2
 2128 01cc 23       		.byte	0x23
 2129 01cd 30       		.uleb128 0x30
 2130 01ce 06       		.uleb128 0x6
 2131 01cf 06030000 		.4byte	.LASF35
 2132 01d3 05       		.byte	0x5
 2133 01d4 8D       		.byte	0x8d
 2134 01d5 D2000000 		.4byte	0xd2
 2135 01d9 02       		.byte	0x2
 2136 01da 23       		.byte	0x23
 2137 01db 34       		.uleb128 0x34
 2138 01dc 06       		.uleb128 0x6
ARM GAS  /tmp/ccVkfzR7.s 			page 39


 2139 01dd 95020000 		.4byte	.LASF36
 2140 01e1 05       		.byte	0x5
 2141 01e2 94       		.byte	0x94
 2142 01e3 97040000 		.4byte	0x497
 2143 01e7 02       		.byte	0x2
 2144 01e8 23       		.byte	0x23
 2145 01e9 38       		.uleb128 0x38
 2146 01ea 06       		.uleb128 0x6
 2147 01eb 33030000 		.4byte	.LASF37
 2148 01ef 05       		.byte	0x5
 2149 01f0 98       		.byte	0x98
 2150 01f1 B1000000 		.4byte	0xb1
 2151 01f5 02       		.byte	0x2
 2152 01f6 23       		.byte	0x23
 2153 01f7 3C       		.uleb128 0x3c
 2154 01f8 06       		.uleb128 0x6
 2155 01f9 82000000 		.4byte	.LASF38
 2156 01fd 05       		.byte	0x5
 2157 01fe 9E       		.byte	0x9e
 2158 01ff 6B020000 		.4byte	0x26b
 2159 0203 02       		.byte	0x2
 2160 0204 23       		.byte	0x23
 2161 0205 40       		.uleb128 0x40
 2162 0206 00       		.byte	0x0
 2163 0207 08       		.uleb128 0x8
 2164 0208 08       		.byte	0x8
 2165 0209 04       		.byte	0x4
 2166 020a 60       		.byte	0x60
 2167 020b 2C020000 		.4byte	0x22c
 2168 020f 06       		.uleb128 0x6
 2169 0210 BF020000 		.4byte	.LASF22
 2170 0214 04       		.byte	0x4
 2171 0215 61       		.byte	0x61
 2172 0216 2C020000 		.4byte	0x22c
 2173 021a 02       		.byte	0x2
 2174 021b 23       		.byte	0x23
 2175 021c 00       		.uleb128 0x0
 2176 021d 06       		.uleb128 0x6
 2177 021e 47020000 		.4byte	.LASF23
 2178 0222 04       		.byte	0x4
 2179 0223 63       		.byte	0x63
 2180 0224 2C020000 		.4byte	0x22c
 2181 0228 02       		.byte	0x2
 2182 0229 23       		.byte	0x23
 2183 022a 04       		.uleb128 0x4
 2184 022b 00       		.byte	0x0
 2185 022c 09       		.uleb128 0x9
 2186 022d 04       		.byte	0x4
 2187 022e F3000000 		.4byte	0xf3
 2188 0232 04       		.uleb128 0x4
 2189 0233 FD010000 		.4byte	.LASF39
 2190 0237 04       		.byte	0x4
 2191 0238 65       		.byte	0x65
 2192 0239 07020000 		.4byte	0x207
 2193 023d 08       		.uleb128 0x8
 2194 023e 04       		.byte	0x4
 2195 023f 04       		.byte	0x4
ARM GAS  /tmp/ccVkfzR7.s 			page 40


 2196 0240 6A       		.byte	0x6a
 2197 0241 54020000 		.4byte	0x254
 2198 0245 06       		.uleb128 0x6
 2199 0246 BF020000 		.4byte	.LASF22
 2200 024a 04       		.byte	0x4
 2201 024b 6C       		.byte	0x6c
 2202 024c 2C020000 		.4byte	0x22c
 2203 0250 02       		.byte	0x2
 2204 0251 23       		.byte	0x23
 2205 0252 00       		.uleb128 0x0
 2206 0253 00       		.byte	0x0
 2207 0254 04       		.uleb128 0x4
 2208 0255 7E010000 		.4byte	.LASF40
 2209 0259 04       		.byte	0x4
 2210 025a 6F       		.byte	0x6f
 2211 025b 3D020000 		.4byte	0x23d
 2212 025f 0A       		.uleb128 0xa
 2213 0260 DB000000 		.4byte	.LASF41
 2214 0264 06       		.byte	0x6
 2215 0265 0F01     		.2byte	0x10f
 2216 0267 6B020000 		.4byte	0x26b
 2217 026b 0B       		.uleb128 0xb
 2218 026c 04       		.byte	0x4
 2219 026d 0C       		.uleb128 0xc
 2220 026e 2B010000 		.4byte	.LASF42
 2221 0272 04       		.byte	0x4
 2222 0273 06       		.byte	0x6
 2223 0274 2B01     		.2byte	0x12b
 2224 0276 8A020000 		.4byte	0x28a
 2225 027a 0D       		.uleb128 0xd
 2226 027b 72313300 		.ascii	"r13\000"
 2227 027f 06       		.byte	0x6
 2228 0280 2C01     		.2byte	0x12c
 2229 0282 0E030000 		.4byte	0x30e
 2230 0286 02       		.byte	0x2
 2231 0287 23       		.byte	0x23
 2232 0288 00       		.uleb128 0x0
 2233 0289 00       		.byte	0x0
 2234 028a 05       		.uleb128 0x5
 2235 028b 45030000 		.4byte	.LASF43
 2236 028f 24       		.byte	0x24
 2237 0290 07       		.byte	0x7
 2238 0291 36       		.byte	0x36
 2239 0292 0E030000 		.4byte	0x30e
 2240 0296 07       		.uleb128 0x7
 2241 0297 723400   		.ascii	"r4\000"
 2242 029a 07       		.byte	0x7
 2243 029b 37       		.byte	0x37
 2244 029c 5F020000 		.4byte	0x25f
 2245 02a0 02       		.byte	0x2
 2246 02a1 23       		.byte	0x23
 2247 02a2 00       		.uleb128 0x0
 2248 02a3 07       		.uleb128 0x7
 2249 02a4 723500   		.ascii	"r5\000"
 2250 02a7 07       		.byte	0x7
 2251 02a8 38       		.byte	0x38
 2252 02a9 5F020000 		.4byte	0x25f
ARM GAS  /tmp/ccVkfzR7.s 			page 41


 2253 02ad 02       		.byte	0x2
 2254 02ae 23       		.byte	0x23
 2255 02af 04       		.uleb128 0x4
 2256 02b0 07       		.uleb128 0x7
 2257 02b1 723600   		.ascii	"r6\000"
 2258 02b4 07       		.byte	0x7
 2259 02b5 39       		.byte	0x39
 2260 02b6 5F020000 		.4byte	0x25f
 2261 02ba 02       		.byte	0x2
 2262 02bb 23       		.byte	0x23
 2263 02bc 08       		.uleb128 0x8
 2264 02bd 07       		.uleb128 0x7
 2265 02be 723700   		.ascii	"r7\000"
 2266 02c1 07       		.byte	0x7
 2267 02c2 3B       		.byte	0x3b
 2268 02c3 5F020000 		.4byte	0x25f
 2269 02c7 02       		.byte	0x2
 2270 02c8 23       		.byte	0x23
 2271 02c9 0C       		.uleb128 0xc
 2272 02ca 07       		.uleb128 0x7
 2273 02cb 723800   		.ascii	"r8\000"
 2274 02ce 07       		.byte	0x7
 2275 02cf 3D       		.byte	0x3d
 2276 02d0 5F020000 		.4byte	0x25f
 2277 02d4 02       		.byte	0x2
 2278 02d5 23       		.byte	0x23
 2279 02d6 10       		.uleb128 0x10
 2280 02d7 07       		.uleb128 0x7
 2281 02d8 723900   		.ascii	"r9\000"
 2282 02db 07       		.byte	0x7
 2283 02dc 3E       		.byte	0x3e
 2284 02dd 5F020000 		.4byte	0x25f
 2285 02e1 02       		.byte	0x2
 2286 02e2 23       		.byte	0x23
 2287 02e3 14       		.uleb128 0x14
 2288 02e4 07       		.uleb128 0x7
 2289 02e5 72313000 		.ascii	"r10\000"
 2290 02e9 07       		.byte	0x7
 2291 02ea 3F       		.byte	0x3f
 2292 02eb 5F020000 		.4byte	0x25f
 2293 02ef 02       		.byte	0x2
 2294 02f0 23       		.byte	0x23
 2295 02f1 18       		.uleb128 0x18
 2296 02f2 07       		.uleb128 0x7
 2297 02f3 72313100 		.ascii	"r11\000"
 2298 02f7 07       		.byte	0x7
 2299 02f8 40       		.byte	0x40
 2300 02f9 5F020000 		.4byte	0x25f
 2301 02fd 02       		.byte	0x2
 2302 02fe 23       		.byte	0x23
 2303 02ff 1C       		.uleb128 0x1c
 2304 0300 07       		.uleb128 0x7
 2305 0301 6C7200   		.ascii	"lr\000"
 2306 0304 07       		.byte	0x7
 2307 0305 41       		.byte	0x41
 2308 0306 5F020000 		.4byte	0x25f
 2309 030a 02       		.byte	0x2
ARM GAS  /tmp/ccVkfzR7.s 			page 42


 2310 030b 23       		.byte	0x23
 2311 030c 20       		.uleb128 0x20
 2312 030d 00       		.byte	0x0
 2313 030e 09       		.uleb128 0x9
 2314 030f 04       		.byte	0x4
 2315 0310 8A020000 		.4byte	0x28a
 2316 0314 0E       		.uleb128 0xe
 2317 0315 DD000000 		.4byte	0xdd
 2318 0319 08       		.uleb128 0x8
 2319 031a 20       		.byte	0x20
 2320 031b 08       		.byte	0x8
 2321 031c 4F       		.byte	0x4f
 2322 031d 84030000 		.4byte	0x384
 2323 0321 06       		.uleb128 0x6
 2324 0322 1A030000 		.4byte	.LASF44
 2325 0326 08       		.byte	0x8
 2326 0327 50       		.byte	0x50
 2327 0328 32020000 		.4byte	0x232
 2328 032c 02       		.byte	0x2
 2329 032d 23       		.byte	0x23
 2330 032e 00       		.uleb128 0x0
 2331 032f 06       		.uleb128 0x6
 2332 0330 B1020000 		.4byte	.LASF45
 2333 0334 08       		.byte	0x8
 2334 0335 51       		.byte	0x51
 2335 0336 B1000000 		.4byte	0xb1
 2336 033a 02       		.byte	0x2
 2337 033b 23       		.byte	0x23
 2338 033c 08       		.uleb128 0x8
 2339 033d 06       		.uleb128 0x6
 2340 033e F7010000 		.4byte	.LASF46
 2341 0342 08       		.byte	0x8
 2342 0343 53       		.byte	0x53
 2343 0344 6D020000 		.4byte	0x26d
 2344 0348 02       		.byte	0x2
 2345 0349 23       		.byte	0x23
 2346 034a 0C       		.uleb128 0xc
 2347 034b 06       		.uleb128 0x6
 2348 034c CE000000 		.4byte	.LASF47
 2349 0350 08       		.byte	0x8
 2350 0351 56       		.byte	0x56
 2351 0352 2C020000 		.4byte	0x22c
 2352 0356 02       		.byte	0x2
 2353 0357 23       		.byte	0x23
 2354 0358 10       		.uleb128 0x10
 2355 0359 06       		.uleb128 0x6
 2356 035a 26020000 		.4byte	.LASF48
 2357 035e 08       		.byte	0x8
 2358 035f 57       		.byte	0x57
 2359 0360 2C020000 		.4byte	0x22c
 2360 0364 02       		.byte	0x2
 2361 0365 23       		.byte	0x23
 2362 0366 14       		.uleb128 0x14
 2363 0367 06       		.uleb128 0x6
 2364 0368 AC030000 		.4byte	.LASF49
 2365 036c 08       		.byte	0x8
 2366 036d 5B       		.byte	0x5b
ARM GAS  /tmp/ccVkfzR7.s 			page 43


 2367 036e E8000000 		.4byte	0xe8
 2368 0372 02       		.byte	0x2
 2369 0373 23       		.byte	0x23
 2370 0374 18       		.uleb128 0x18
 2371 0375 06       		.uleb128 0x6
 2372 0376 1C020000 		.4byte	.LASF50
 2373 037a 08       		.byte	0x8
 2374 037b 5E       		.byte	0x5e
 2375 037c 2C020000 		.4byte	0x22c
 2376 0380 02       		.byte	0x2
 2377 0381 23       		.byte	0x23
 2378 0382 1C       		.uleb128 0x1c
 2379 0383 00       		.byte	0x0
 2380 0384 04       		.uleb128 0x4
 2381 0385 5E030000 		.4byte	.LASF51
 2382 0389 08       		.byte	0x8
 2383 038a 61       		.byte	0x61
 2384 038b 19030000 		.4byte	0x319
 2385 038f 05       		.uleb128 0x5
 2386 0390 96010000 		.4byte	.LASF52
 2387 0394 10       		.byte	0x10
 2388 0395 09       		.byte	0x9
 2389 0396 2B       		.byte	0x2b
 2390 0397 C6030000 		.4byte	0x3c6
 2391 039b 06       		.uleb128 0x6
 2392 039c 8A000000 		.4byte	.LASF53
 2393 03a0 09       		.byte	0x9
 2394 03a1 2C       		.byte	0x2c
 2395 03a2 32020000 		.4byte	0x232
 2396 03a6 02       		.byte	0x2
 2397 03a7 23       		.byte	0x23
 2398 03a8 00       		.uleb128 0x0
 2399 03a9 06       		.uleb128 0x6
 2400 03aa B6030000 		.4byte	.LASF54
 2401 03ae 09       		.byte	0x9
 2402 03af 2E       		.byte	0x2e
 2403 03b0 2C020000 		.4byte	0x22c
 2404 03b4 02       		.byte	0x2
 2405 03b5 23       		.byte	0x23
 2406 03b6 08       		.uleb128 0x8
 2407 03b7 06       		.uleb128 0x6
 2408 03b8 22030000 		.4byte	.LASF55
 2409 03bc 09       		.byte	0x9
 2410 03bd 30       		.byte	0x30
 2411 03be C6030000 		.4byte	0x3c6
 2412 03c2 02       		.byte	0x2
 2413 03c3 23       		.byte	0x23
 2414 03c4 0C       		.uleb128 0xc
 2415 03c5 00       		.byte	0x0
 2416 03c6 09       		.uleb128 0x9
 2417 03c7 04       		.byte	0x4
 2418 03c8 8F030000 		.4byte	0x38f
 2419 03cc 04       		.uleb128 0x4
 2420 03cd 96010000 		.4byte	.LASF52
 2421 03d1 09       		.byte	0x9
 2422 03d2 32       		.byte	0x32
 2423 03d3 8F030000 		.4byte	0x38f
ARM GAS  /tmp/ccVkfzR7.s 			page 44


 2424 03d7 04       		.uleb128 0x4
 2425 03d8 76030000 		.4byte	.LASF56
 2426 03dc 0A       		.byte	0xa
 2427 03dd 28       		.byte	0x28
 2428 03de E2030000 		.4byte	0x3e2
 2429 03e2 05       		.uleb128 0x5
 2430 03e3 76030000 		.4byte	.LASF56
 2431 03e7 0C       		.byte	0xc
 2432 03e8 0A       		.byte	0xa
 2433 03e9 2D       		.byte	0x2d
 2434 03ea 19040000 		.4byte	0x419
 2435 03ee 06       		.uleb128 0x6
 2436 03ef 5E010000 		.4byte	.LASF57
 2437 03f3 0A       		.byte	0xa
 2438 03f4 2E       		.byte	0x2e
 2439 03f5 19040000 		.4byte	0x419
 2440 03f9 02       		.byte	0x2
 2441 03fa 23       		.byte	0x23
 2442 03fb 00       		.uleb128 0x0
 2443 03fc 06       		.uleb128 0x6
 2444 03fd 89020000 		.4byte	.LASF58
 2445 0401 0A       		.byte	0xa
 2446 0402 31       		.byte	0x31
 2447 0403 2C020000 		.4byte	0x22c
 2448 0407 02       		.byte	0x2
 2449 0408 23       		.byte	0x23
 2450 0409 04       		.uleb128 0x4
 2451 040a 06       		.uleb128 0x6
 2452 040b 2E020000 		.4byte	.LASF59
 2453 040f 0A       		.byte	0xa
 2454 0410 33       		.byte	0x33
 2455 0411 D2000000 		.4byte	0xd2
 2456 0415 02       		.byte	0x2
 2457 0416 23       		.byte	0x23
 2458 0417 08       		.uleb128 0x8
 2459 0418 00       		.byte	0x0
 2460 0419 09       		.uleb128 0x9
 2461 041a 04       		.byte	0x4
 2462 041b D7030000 		.4byte	0x3d7
 2463 041f 05       		.uleb128 0x5
 2464 0420 EE000000 		.4byte	.LASF60
 2465 0424 04       		.byte	0x4
 2466 0425 0A       		.byte	0xa
 2467 0426 3B       		.byte	0x3b
 2468 0427 3A040000 		.4byte	0x43a
 2469 042b 06       		.uleb128 0x6
 2470 042c A4030000 		.4byte	.LASF61
 2471 0430 0A       		.byte	0xa
 2472 0431 3C       		.byte	0x3c
 2473 0432 19040000 		.4byte	0x419
 2474 0436 02       		.byte	0x2
 2475 0437 23       		.byte	0x23
 2476 0438 00       		.uleb128 0x0
 2477 0439 00       		.byte	0x0
 2478 043a 04       		.uleb128 0x4
 2479 043b EE000000 		.4byte	.LASF60
 2480 043f 0A       		.byte	0xa
ARM GAS  /tmp/ccVkfzR7.s 			page 45


 2481 0440 3F       		.byte	0x3f
 2482 0441 1F040000 		.4byte	0x41f
 2483 0445 04       		.uleb128 0x4
 2484 0446 FA000000 		.4byte	.LASF62
 2485 044a 0A       		.byte	0xa
 2486 044b 83       		.byte	0x83
 2487 044c 50040000 		.4byte	0x450
 2488 0450 09       		.uleb128 0x9
 2489 0451 04       		.byte	0x4
 2490 0452 56040000 		.4byte	0x456
 2491 0456 0F       		.uleb128 0xf
 2492 0457 01       		.byte	0x1
 2493 0458 62040000 		.4byte	0x462
 2494 045c 10       		.uleb128 0x10
 2495 045d C7000000 		.4byte	0xc7
 2496 0461 00       		.byte	0x0
 2497 0462 11       		.uleb128 0x11
 2498 0463 04       		.byte	0x4
 2499 0464 05       		.byte	0x5
 2500 0465 5A       		.byte	0x5a
 2501 0466 97040000 		.4byte	0x497
 2502 046a 12       		.uleb128 0x12
 2503 046b 06000000 		.4byte	.LASF63
 2504 046f 05       		.byte	0x5
 2505 0470 61       		.byte	0x61
 2506 0471 BC000000 		.4byte	0xbc
 2507 0475 12       		.uleb128 0x12
 2508 0476 30000000 		.4byte	.LASF64
 2509 047a 05       		.byte	0x5
 2510 047b 68       		.byte	0x68
 2511 047c BC000000 		.4byte	0xbc
 2512 0480 12       		.uleb128 0x12
 2513 0481 92000000 		.4byte	.LASF65
 2514 0485 05       		.byte	0x5
 2515 0486 6F       		.byte	0x6f
 2516 0487 6B020000 		.4byte	0x26b
 2517 048b 12       		.uleb128 0x12
 2518 048c B8020000 		.4byte	.LASF66
 2519 0490 05       		.byte	0x5
 2520 0491 76       		.byte	0x76
 2521 0492 D2000000 		.4byte	0xd2
 2522 0496 00       		.byte	0x0
 2523 0497 09       		.uleb128 0x9
 2524 0498 04       		.byte	0x4
 2525 0499 CC030000 		.4byte	0x3cc
 2526 049d 13       		.uleb128 0x13
 2527 049e 01       		.byte	0x1
 2528 049f 46010000 		.4byte	.LASF68
 2529 04a3 01       		.byte	0x1
 2530 04a4 51       		.byte	0x51
 2531 04a5 01       		.byte	0x1
 2532 04a6 00000000 		.4byte	.LFB7
 2533 04aa 26000000 		.4byte	.LFE7
 2534 04ae 00000000 		.4byte	.LLST0
 2535 04b2 10050000 		.4byte	0x510
 2536 04b6 14       		.uleb128 0x14
 2537 04b7 65737000 		.ascii	"esp\000"
ARM GAS  /tmp/ccVkfzR7.s 			page 46


 2538 04bb 01       		.byte	0x1
 2539 04bc 51       		.byte	0x51
 2540 04bd 10050000 		.4byte	0x510
 2541 04c1 01       		.byte	0x1
 2542 04c2 50       		.byte	0x50
 2543 04c3 14       		.uleb128 0x14
 2544 04c4 656C7000 		.ascii	"elp\000"
 2545 04c8 01       		.byte	0x1
 2546 04c9 51       		.byte	0x51
 2547 04ca 19040000 		.4byte	0x419
 2548 04ce 01       		.byte	0x1
 2549 04cf 51       		.byte	0x51
 2550 04d0 15       		.uleb128 0x15
 2551 04d1 D6000000 		.4byte	.LASF67
 2552 04d5 01       		.byte	0x1
 2553 04d6 51       		.byte	0x51
 2554 04d7 D2000000 		.4byte	0xd2
 2555 04db 01       		.byte	0x1
 2556 04dc 52       		.byte	0x52
 2557 04dd 16       		.uleb128 0x16
 2558 04de 02000000 		.4byte	.LBB2
 2559 04e2 08000000 		.4byte	.LBE2
 2560 04e6 FA040000 		.4byte	0x4fa
 2561 04ea 17       		.uleb128 0x17
 2562 04eb 746D7000 		.ascii	"tmp\000"
 2563 04ef 01       		.byte	0x1
 2564 04f0 55       		.byte	0x55
 2565 04f1 70000000 		.4byte	0x70
 2566 04f5 20000000 		.4byte	.LLST1
 2567 04f9 00       		.byte	0x0
 2568 04fa 18       		.uleb128 0x18
 2569 04fb 00000000 		.4byte	.Ldebug_ranges0+0x0
 2570 04ff 17       		.uleb128 0x17
 2571 0500 746D7000 		.ascii	"tmp\000"
 2572 0504 01       		.byte	0x1
 2573 0505 5A       		.byte	0x5a
 2574 0506 70000000 		.4byte	0x70
 2575 050a 33000000 		.4byte	.LLST2
 2576 050e 00       		.byte	0x0
 2577 050f 00       		.byte	0x0
 2578 0510 09       		.uleb128 0x9
 2579 0511 04       		.byte	0x4
 2580 0512 3A040000 		.4byte	0x43a
 2581 0516 19       		.uleb128 0x19
 2582 0517 01       		.byte	0x1
 2583 0518 66010000 		.4byte	.LASF69
 2584 051c 01       		.byte	0x1
 2585 051d 6A       		.byte	0x6a
 2586 051e 01       		.byte	0x1
 2587 051f 00000000 		.4byte	.LFB8
 2588 0523 2A000000 		.4byte	.LFE8
 2589 0527 02       		.byte	0x2
 2590 0528 7D       		.byte	0x7d
 2591 0529 00       		.sleb128 0
 2592 052a 88050000 		.4byte	0x588
 2593 052e 14       		.uleb128 0x14
 2594 052f 65737000 		.ascii	"esp\000"
ARM GAS  /tmp/ccVkfzR7.s 			page 47


 2595 0533 01       		.byte	0x1
 2596 0534 6A       		.byte	0x6a
 2597 0535 10050000 		.4byte	0x510
 2598 0539 01       		.byte	0x1
 2599 053a 50       		.byte	0x50
 2600 053b 14       		.uleb128 0x14
 2601 053c 656C7000 		.ascii	"elp\000"
 2602 0540 01       		.byte	0x1
 2603 0541 6A       		.byte	0x6a
 2604 0542 19040000 		.4byte	0x419
 2605 0546 01       		.byte	0x1
 2606 0547 51       		.byte	0x51
 2607 0548 17       		.uleb128 0x17
 2608 0549 7000     		.ascii	"p\000"
 2609 054b 01       		.byte	0x1
 2610 054c 6B       		.byte	0x6b
 2611 054d 19040000 		.4byte	0x419
 2612 0551 46000000 		.4byte	.LLST3
 2613 0555 16       		.uleb128 0x16
 2614 0556 00000000 		.4byte	.LBB5
 2615 055a 06000000 		.4byte	.LBE5
 2616 055e 72050000 		.4byte	0x572
 2617 0562 17       		.uleb128 0x17
 2618 0563 746D7000 		.ascii	"tmp\000"
 2619 0567 01       		.byte	0x1
 2620 0568 70       		.byte	0x70
 2621 0569 70000000 		.4byte	0x70
 2622 056d 6F000000 		.4byte	.LLST4
 2623 0571 00       		.byte	0x0
 2624 0572 18       		.uleb128 0x18
 2625 0573 18000000 		.4byte	.Ldebug_ranges0+0x18
 2626 0577 17       		.uleb128 0x17
 2627 0578 746D7000 		.ascii	"tmp\000"
 2628 057c 01       		.byte	0x1
 2629 057d 78       		.byte	0x78
 2630 057e 70000000 		.4byte	0x70
 2631 0582 8D000000 		.4byte	.LLST5
 2632 0586 00       		.byte	0x0
 2633 0587 00       		.byte	0x0
 2634 0588 1A       		.uleb128 0x1a
 2635 0589 01       		.byte	0x1
 2636 058a 56020000 		.4byte	.LASF70
 2637 058e 01       		.byte	0x1
 2638 058f 83       		.byte	0x83
 2639 0590 01       		.byte	0x1
 2640 0591 D2000000 		.4byte	0xd2
 2641 0595 00000000 		.4byte	.LFB9
 2642 0599 26000000 		.4byte	.LFE9
 2643 059d AB000000 		.4byte	.LLST6
 2644 05a1 F2050000 		.4byte	0x5f2
 2645 05a5 1B       		.uleb128 0x1b
 2646 05a6 D6000000 		.4byte	.LASF67
 2647 05aa 01       		.byte	0x1
 2648 05ab 83       		.byte	0x83
 2649 05ac D2000000 		.4byte	0xd2
 2650 05b0 CB000000 		.4byte	.LLST7
 2651 05b4 1C       		.uleb128 0x1c
ARM GAS  /tmp/ccVkfzR7.s 			page 48


 2652 05b5 6D00     		.ascii	"m\000"
 2653 05b7 01       		.byte	0x1
 2654 05b8 84       		.byte	0x84
 2655 05b9 D2000000 		.4byte	0xd2
 2656 05bd 01       		.byte	0x1
 2657 05be 50       		.byte	0x50
 2658 05bf 16       		.uleb128 0x16
 2659 05c0 02000000 		.4byte	.LBB8
 2660 05c4 08000000 		.4byte	.LBE8
 2661 05c8 DC050000 		.4byte	0x5dc
 2662 05cc 17       		.uleb128 0x17
 2663 05cd 746D7000 		.ascii	"tmp\000"
 2664 05d1 01       		.byte	0x1
 2665 05d2 86       		.byte	0x86
 2666 05d3 70000000 		.4byte	0x70
 2667 05d7 DE000000 		.4byte	.LLST8
 2668 05db 00       		.byte	0x0
 2669 05dc 18       		.uleb128 0x18
 2670 05dd 30000000 		.4byte	.Ldebug_ranges0+0x30
 2671 05e1 17       		.uleb128 0x17
 2672 05e2 746D7000 		.ascii	"tmp\000"
 2673 05e6 01       		.byte	0x1
 2674 05e7 8B       		.byte	0x8b
 2675 05e8 70000000 		.4byte	0x70
 2676 05ec F1000000 		.4byte	.LLST9
 2677 05f0 00       		.byte	0x0
 2678 05f1 00       		.byte	0x0
 2679 05f2 1D       		.uleb128 0x1d
 2680 05f3 01       		.byte	0x1
 2681 05f4 99000000 		.4byte	.LASF71
 2682 05f8 01       		.byte	0x1
 2683 05f9 98       		.byte	0x98
 2684 05fa 01       		.byte	0x1
 2685 05fb D2000000 		.4byte	0xd2
 2686 05ff 00000000 		.4byte	.LFB10
 2687 0603 1E000000 		.4byte	.LFE10
 2688 0607 02       		.byte	0x2
 2689 0608 7D       		.byte	0x7d
 2690 0609 00       		.sleb128 0
 2691 060a 50060000 		.4byte	0x650
 2692 060e 1B       		.uleb128 0x1b
 2693 060f D6000000 		.4byte	.LASF67
 2694 0613 01       		.byte	0x1
 2695 0614 98       		.byte	0x98
 2696 0615 D2000000 		.4byte	0xd2
 2697 0619 04010000 		.4byte	.LLST10
 2698 061d 16       		.uleb128 0x16
 2699 061e 00000000 		.4byte	.LBB11
 2700 0622 06000000 		.4byte	.LBE11
 2701 0626 3A060000 		.4byte	0x63a
 2702 062a 17       		.uleb128 0x17
 2703 062b 746D7000 		.ascii	"tmp\000"
 2704 062f 01       		.byte	0x1
 2705 0630 9A       		.byte	0x9a
 2706 0631 70000000 		.4byte	0x70
 2707 0635 22010000 		.4byte	.LLST11
 2708 0639 00       		.byte	0x0
ARM GAS  /tmp/ccVkfzR7.s 			page 49


 2709 063a 18       		.uleb128 0x18
 2710 063b 48000000 		.4byte	.Ldebug_ranges0+0x48
 2711 063f 17       		.uleb128 0x17
 2712 0640 746D7000 		.ascii	"tmp\000"
 2713 0644 01       		.byte	0x1
 2714 0645 9E       		.byte	0x9e
 2715 0646 70000000 		.4byte	0x70
 2716 064a 35010000 		.4byte	.LLST12
 2717 064e 00       		.byte	0x0
 2718 064f 00       		.byte	0x0
 2719 0650 13       		.uleb128 0x13
 2720 0651 01       		.byte	0x1
 2721 0652 CE030000 		.4byte	.LASF72
 2722 0656 01       		.byte	0x1
 2723 0657 C0       		.byte	0xc0
 2724 0658 01       		.byte	0x1
 2725 0659 00000000 		.4byte	.LFB12
 2726 065d 32000000 		.4byte	.LFE12
 2727 0661 48010000 		.4byte	.LLST13
 2728 0665 87060000 		.4byte	0x687
 2729 0669 1E       		.uleb128 0x1e
 2730 066a 747000   		.ascii	"tp\000"
 2731 066d 01       		.byte	0x1
 2732 066e C0       		.byte	0xc0
 2733 066f 2C020000 		.4byte	0x22c
 2734 0673 68010000 		.4byte	.LLST14
 2735 0677 1B       		.uleb128 0x1b
 2736 0678 D6000000 		.4byte	.LASF67
 2737 067c 01       		.byte	0x1
 2738 067d C0       		.byte	0xc0
 2739 067e D2000000 		.4byte	0xd2
 2740 0682 86010000 		.4byte	.LLST15
 2741 0686 00       		.byte	0x0
 2742 0687 13       		.uleb128 0x13
 2743 0688 01       		.byte	0x1
 2744 0689 0D000000 		.4byte	.LASF73
 2745 068d 01       		.byte	0x1
 2746 068e AA       		.byte	0xaa
 2747 068f 01       		.byte	0x1
 2748 0690 00000000 		.4byte	.LFB11
 2749 0694 18000000 		.4byte	.LFE11
 2750 0698 AF010000 		.4byte	.LLST16
 2751 069c F4060000 		.4byte	0x6f4
 2752 06a0 1E       		.uleb128 0x1e
 2753 06a1 747000   		.ascii	"tp\000"
 2754 06a4 01       		.byte	0x1
 2755 06a5 AA       		.byte	0xaa
 2756 06a6 2C020000 		.4byte	0x22c
 2757 06aa CF010000 		.4byte	.LLST17
 2758 06ae 1B       		.uleb128 0x1b
 2759 06af D6000000 		.4byte	.LASF67
 2760 06b3 01       		.byte	0x1
 2761 06b4 AA       		.byte	0xaa
 2762 06b5 D2000000 		.4byte	0xd2
 2763 06b9 E2010000 		.4byte	.LLST18
 2764 06bd 16       		.uleb128 0x16
 2765 06be 02000000 		.4byte	.LBB14
ARM GAS  /tmp/ccVkfzR7.s 			page 50


 2766 06c2 08000000 		.4byte	.LBE14
 2767 06c6 DA060000 		.4byte	0x6da
 2768 06ca 17       		.uleb128 0x17
 2769 06cb 746D7000 		.ascii	"tmp\000"
 2770 06cf 01       		.byte	0x1
 2771 06d0 AE       		.byte	0xae
 2772 06d1 70000000 		.4byte	0x70
 2773 06d5 F5010000 		.4byte	.LLST19
 2774 06d9 00       		.byte	0x0
 2775 06da 1F       		.uleb128 0x1f
 2776 06db 10000000 		.4byte	.LBB15
 2777 06df 16000000 		.4byte	.LBE15
 2778 06e3 17       		.uleb128 0x17
 2779 06e4 746D7000 		.ascii	"tmp\000"
 2780 06e8 01       		.byte	0x1
 2781 06e9 B1       		.byte	0xb1
 2782 06ea 70000000 		.4byte	0x70
 2783 06ee 08020000 		.4byte	.LLST20
 2784 06f2 00       		.byte	0x0
 2785 06f3 00       		.byte	0x0
 2786 06f4 13       		.uleb128 0x13
 2787 06f5 01       		.byte	0x1
 2788 06f6 CE020000 		.4byte	.LASF74
 2789 06fa 01       		.byte	0x1
 2790 06fb E9       		.byte	0xe9
 2791 06fc 01       		.byte	0x1
 2792 06fd 00000000 		.4byte	.LFB14
 2793 0701 1A000000 		.4byte	.LFE14
 2794 0705 1B020000 		.4byte	.LLST21
 2795 0709 2C070000 		.4byte	0x72c
 2796 070d 1E       		.uleb128 0x1e
 2797 070e 65737000 		.ascii	"esp\000"
 2798 0712 01       		.byte	0x1
 2799 0713 E9       		.byte	0xe9
 2800 0714 10050000 		.4byte	0x510
 2801 0718 3B020000 		.4byte	.LLST22
 2802 071c 17       		.uleb128 0x17
 2803 071d 656C7000 		.ascii	"elp\000"
 2804 0721 01       		.byte	0x1
 2805 0722 EA       		.byte	0xea
 2806 0723 19040000 		.4byte	0x419
 2807 0727 59020000 		.4byte	.LLST23
 2808 072b 00       		.byte	0x0
 2809 072c 13       		.uleb128 0x13
 2810 072d 01       		.byte	0x1
 2811 072e E0010000 		.4byte	.LASF75
 2812 0732 01       		.byte	0x1
 2813 0733 D5       		.byte	0xd5
 2814 0734 01       		.byte	0x1
 2815 0735 00000000 		.4byte	.LFB13
 2816 0739 18000000 		.4byte	.LFE13
 2817 073d 83020000 		.4byte	.LLST24
 2818 0741 8B070000 		.4byte	0x78b
 2819 0745 1E       		.uleb128 0x1e
 2820 0746 65737000 		.ascii	"esp\000"
 2821 074a 01       		.byte	0x1
 2822 074b D5       		.byte	0xd5
ARM GAS  /tmp/ccVkfzR7.s 			page 51


 2823 074c 10050000 		.4byte	0x510
 2824 0750 A3020000 		.4byte	.LLST25
 2825 0754 16       		.uleb128 0x16
 2826 0755 02000000 		.4byte	.LBB16
 2827 0759 08000000 		.4byte	.LBE16
 2828 075d 71070000 		.4byte	0x771
 2829 0761 17       		.uleb128 0x17
 2830 0762 746D7000 		.ascii	"tmp\000"
 2831 0766 01       		.byte	0x1
 2832 0767 D7       		.byte	0xd7
 2833 0768 70000000 		.4byte	0x70
 2834 076c B6020000 		.4byte	.LLST26
 2835 0770 00       		.byte	0x0
 2836 0771 1F       		.uleb128 0x1f
 2837 0772 10000000 		.4byte	.LBB17
 2838 0776 16000000 		.4byte	.LBE17
 2839 077a 17       		.uleb128 0x17
 2840 077b 746D7000 		.ascii	"tmp\000"
 2841 077f 01       		.byte	0x1
 2842 0780 DA       		.byte	0xda
 2843 0781 70000000 		.4byte	0x70
 2844 0785 C9020000 		.4byte	.LLST27
 2845 0789 00       		.byte	0x0
 2846 078a 00       		.byte	0x0
 2847 078b 13       		.uleb128 0x13
 2848 078c 01       		.byte	0x1
 2849 078d 9C010000 		.4byte	.LASF76
 2850 0791 01       		.byte	0x1
 2851 0792 FE       		.byte	0xfe
 2852 0793 01       		.byte	0x1
 2853 0794 00000000 		.4byte	.LFB15
 2854 0798 32000000 		.4byte	.LFE15
 2855 079c DC020000 		.4byte	.LLST28
 2856 07a0 D2070000 		.4byte	0x7d2
 2857 07a4 1B       		.uleb128 0x1b
 2858 07a5 36020000 		.4byte	.LASF77
 2859 07a9 01       		.byte	0x1
 2860 07aa FE       		.byte	0xfe
 2861 07ab D2070000 		.4byte	0x7d2
 2862 07af FC020000 		.4byte	.LLST29
 2863 07b3 1B       		.uleb128 0x1b
 2864 07b4 D6000000 		.4byte	.LASF67
 2865 07b8 01       		.byte	0x1
 2866 07b9 FE       		.byte	0xfe
 2867 07ba D2000000 		.4byte	0xd2
 2868 07be 1A030000 		.4byte	.LLST30
 2869 07c2 17       		.uleb128 0x17
 2870 07c3 65696400 		.ascii	"eid\000"
 2871 07c7 01       		.byte	0x1
 2872 07c8 FF       		.byte	0xff
 2873 07c9 C7000000 		.4byte	0xc7
 2874 07cd 43030000 		.4byte	.LLST31
 2875 07d1 00       		.byte	0x0
 2876 07d2 09       		.uleb128 0x9
 2877 07d3 04       		.byte	0x4
 2878 07d4 D8070000 		.4byte	0x7d8
 2879 07d8 20       		.uleb128 0x20
ARM GAS  /tmp/ccVkfzR7.s 			page 52


 2880 07d9 45040000 		.4byte	0x445
 2881 07dd 21       		.uleb128 0x21
 2882 07de 01       		.byte	0x1
 2883 07df 7C020000 		.4byte	.LASF78
 2884 07e3 01       		.byte	0x1
 2885 07e4 2101     		.2byte	0x121
 2886 07e6 01       		.byte	0x1
 2887 07e7 D2000000 		.4byte	0xd2
 2888 07eb 00000000 		.4byte	.LFB16
 2889 07ef 3C000000 		.4byte	.LFE16
 2890 07f3 71030000 		.4byte	.LLST32
 2891 07f7 62080000 		.4byte	0x862
 2892 07fb 22       		.uleb128 0x22
 2893 07fc D6000000 		.4byte	.LASF67
 2894 0800 01       		.byte	0x1
 2895 0801 2101     		.2byte	0x121
 2896 0803 D2000000 		.4byte	0xd2
 2897 0807 91030000 		.4byte	.LLST33
 2898 080b 23       		.uleb128 0x23
 2899 080c 63747000 		.ascii	"ctp\000"
 2900 0810 01       		.byte	0x1
 2901 0811 2201     		.2byte	0x122
 2902 0813 2C020000 		.4byte	0x22c
 2903 0817 AF030000 		.4byte	.LLST34
 2904 081b 23       		.uleb128 0x23
 2905 081c 6D00     		.ascii	"m\000"
 2906 081e 01       		.byte	0x1
 2907 081f 2301     		.2byte	0x123
 2908 0821 D2000000 		.4byte	0xd2
 2909 0825 CE030000 		.4byte	.LLST35
 2910 0829 16       		.uleb128 0x16
 2911 082a 0E000000 		.4byte	.LBB18
 2912 082e 14000000 		.4byte	.LBE18
 2913 0832 47080000 		.4byte	0x847
 2914 0836 23       		.uleb128 0x23
 2915 0837 746D7000 		.ascii	"tmp\000"
 2916 083b 01       		.byte	0x1
 2917 083c 2501     		.2byte	0x125
 2918 083e 70000000 		.4byte	0x70
 2919 0842 F7030000 		.4byte	.LLST36
 2920 0846 00       		.byte	0x0
 2921 0847 1F       		.uleb128 0x1f
 2922 0848 34000000 		.4byte	.LBB19
 2923 084c 3A000000 		.4byte	.LBE19
 2924 0850 23       		.uleb128 0x23
 2925 0851 746D7000 		.ascii	"tmp\000"
 2926 0855 01       		.byte	0x1
 2927 0856 2F01     		.2byte	0x12f
 2928 0858 70000000 		.4byte	0x70
 2929 085c 0A040000 		.4byte	.LLST37
 2930 0860 00       		.byte	0x0
 2931 0861 00       		.byte	0x0
 2932 0862 21       		.uleb128 0x21
 2933 0863 01       		.byte	0x1
 2934 0864 B9000000 		.4byte	.LASF79
 2935 0868 01       		.byte	0x1
 2936 0869 3E01     		.2byte	0x13e
ARM GAS  /tmp/ccVkfzR7.s 			page 53


 2937 086b 01       		.byte	0x1
 2938 086c D2000000 		.4byte	0xd2
 2939 0870 00000000 		.4byte	.LFB17
 2940 0874 36000000 		.4byte	.LFE17
 2941 0878 1D040000 		.4byte	.LLST38
 2942 087c E7080000 		.4byte	0x8e7
 2943 0880 22       		.uleb128 0x22
 2944 0881 D6000000 		.4byte	.LASF67
 2945 0885 01       		.byte	0x1
 2946 0886 3E01     		.2byte	0x13e
 2947 0888 D2000000 		.4byte	0xd2
 2948 088c 3D040000 		.4byte	.LLST39
 2949 0890 23       		.uleb128 0x23
 2950 0891 63747000 		.ascii	"ctp\000"
 2951 0895 01       		.byte	0x1
 2952 0896 3F01     		.2byte	0x13f
 2953 0898 2C020000 		.4byte	0x22c
 2954 089c 5B040000 		.4byte	.LLST40
 2955 08a0 23       		.uleb128 0x23
 2956 08a1 6D00     		.ascii	"m\000"
 2957 08a3 01       		.byte	0x1
 2958 08a4 4001     		.2byte	0x140
 2959 08a6 D2000000 		.4byte	0xd2
 2960 08aa 7A040000 		.4byte	.LLST41
 2961 08ae 16       		.uleb128 0x16
 2962 08af 0E000000 		.4byte	.LBB20
 2963 08b3 14000000 		.4byte	.LBE20
 2964 08b7 CC080000 		.4byte	0x8cc
 2965 08bb 23       		.uleb128 0x23
 2966 08bc 746D7000 		.ascii	"tmp\000"
 2967 08c0 01       		.byte	0x1
 2968 08c1 4201     		.2byte	0x142
 2969 08c3 70000000 		.4byte	0x70
 2970 08c7 98040000 		.4byte	.LLST42
 2971 08cb 00       		.byte	0x0
 2972 08cc 1F       		.uleb128 0x1f
 2973 08cd 2E000000 		.4byte	.LBB21
 2974 08d1 34000000 		.4byte	.LBE21
 2975 08d5 23       		.uleb128 0x23
 2976 08d6 746D7000 		.ascii	"tmp\000"
 2977 08da 01       		.byte	0x1
 2978 08db 4B01     		.2byte	0x14b
 2979 08dd 70000000 		.4byte	0x70
 2980 08e1 AB040000 		.4byte	.LLST43
 2981 08e5 00       		.byte	0x0
 2982 08e6 00       		.byte	0x0
 2983 08e7 21       		.uleb128 0x21
 2984 08e8 01       		.byte	0x1
 2985 08e9 0F020000 		.4byte	.LASF80
 2986 08ed 01       		.byte	0x1
 2987 08ee 5A01     		.2byte	0x15a
 2988 08f0 01       		.byte	0x1
 2989 08f1 D2000000 		.4byte	0xd2
 2990 08f5 00000000 		.4byte	.LFB18
 2991 08f9 38000000 		.4byte	.LFE18
 2992 08fd BE040000 		.4byte	.LLST44
 2993 0901 5E090000 		.4byte	0x95e
ARM GAS  /tmp/ccVkfzR7.s 			page 54


 2994 0905 22       		.uleb128 0x22
 2995 0906 D6000000 		.4byte	.LASF67
 2996 090a 01       		.byte	0x1
 2997 090b 5A01     		.2byte	0x15a
 2998 090d D2000000 		.4byte	0xd2
 2999 0911 DE040000 		.4byte	.LLST45
 3000 0915 23       		.uleb128 0x23
 3001 0916 63747000 		.ascii	"ctp\000"
 3002 091a 01       		.byte	0x1
 3003 091b 5B01     		.2byte	0x15b
 3004 091d 2C020000 		.4byte	0x22c
 3005 0921 FC040000 		.4byte	.LLST46
 3006 0925 16       		.uleb128 0x16
 3007 0926 0E000000 		.4byte	.LBB22
 3008 092a 14000000 		.4byte	.LBE22
 3009 092e 43090000 		.4byte	0x943
 3010 0932 23       		.uleb128 0x23
 3011 0933 746D7000 		.ascii	"tmp\000"
 3012 0937 01       		.byte	0x1
 3013 0938 5D01     		.2byte	0x15d
 3014 093a 70000000 		.4byte	0x70
 3015 093e 1B050000 		.4byte	.LLST47
 3016 0942 00       		.byte	0x0
 3017 0943 1F       		.uleb128 0x1f
 3018 0944 2E000000 		.4byte	.LBB23
 3019 0948 34000000 		.4byte	.LBE23
 3020 094c 23       		.uleb128 0x23
 3021 094d 746D7000 		.ascii	"tmp\000"
 3022 0951 01       		.byte	0x1
 3023 0952 6501     		.2byte	0x165
 3024 0954 70000000 		.4byte	0x70
 3025 0958 2E050000 		.4byte	.LLST48
 3026 095c 00       		.byte	0x0
 3027 095d 00       		.byte	0x0
 3028 095e 21       		.uleb128 0x21
 3029 095f 01       		.byte	0x1
 3030 0960 84030000 		.4byte	.LASF81
 3031 0964 01       		.byte	0x1
 3032 0965 8101     		.2byte	0x181
 3033 0967 01       		.byte	0x1
 3034 0968 D2000000 		.4byte	0xd2
 3035 096c 00000000 		.4byte	.LFB19
 3036 0970 56000000 		.4byte	.LFE19
 3037 0974 41050000 		.4byte	.LLST49
 3038 0978 2F0A0000 		.4byte	0xa2f
 3039 097c 22       		.uleb128 0x22
 3040 097d D6000000 		.4byte	.LASF67
 3041 0981 01       		.byte	0x1
 3042 0982 8101     		.2byte	0x181
 3043 0984 D2000000 		.4byte	0xd2
 3044 0988 61050000 		.4byte	.LLST50
 3045 098c 22       		.uleb128 0x22
 3046 098d 0A020000 		.4byte	.LASF82
 3047 0991 01       		.byte	0x1
 3048 0992 8101     		.2byte	0x181
 3049 0994 DD000000 		.4byte	0xdd
 3050 0998 7F050000 		.4byte	.LLST51
ARM GAS  /tmp/ccVkfzR7.s 			page 55


 3051 099c 23       		.uleb128 0x23
 3052 099d 63747000 		.ascii	"ctp\000"
 3053 09a1 01       		.byte	0x1
 3054 09a2 8201     		.2byte	0x182
 3055 09a4 2C020000 		.4byte	0x22c
 3056 09a8 92050000 		.4byte	.LLST52
 3057 09ac 23       		.uleb128 0x23
 3058 09ad 6D00     		.ascii	"m\000"
 3059 09af 01       		.byte	0x1
 3060 09b0 8301     		.2byte	0x183
 3061 09b2 D2000000 		.4byte	0xd2
 3062 09b6 B1050000 		.4byte	.LLST53
 3063 09ba 16       		.uleb128 0x16
 3064 09bb 0E000000 		.4byte	.LBB24
 3065 09bf 14000000 		.4byte	.LBE24
 3066 09c3 D8090000 		.4byte	0x9d8
 3067 09c7 23       		.uleb128 0x23
 3068 09c8 746D7000 		.ascii	"tmp\000"
 3069 09cc 01       		.byte	0x1
 3070 09cd 8501     		.2byte	0x185
 3071 09cf 70000000 		.4byte	0x70
 3072 09d3 DA050000 		.4byte	.LLST54
 3073 09d7 00       		.byte	0x0
 3074 09d8 16       		.uleb128 0x16
 3075 09d9 1E000000 		.4byte	.LBB25
 3076 09dd 24000000 		.4byte	.LBE25
 3077 09e1 F6090000 		.4byte	0x9f6
 3078 09e5 23       		.uleb128 0x23
 3079 09e6 746D7000 		.ascii	"tmp\000"
 3080 09ea 01       		.byte	0x1
 3081 09eb 8901     		.2byte	0x189
 3082 09ed 70000000 		.4byte	0x70
 3083 09f1 ED050000 		.4byte	.LLST55
 3084 09f5 00       		.byte	0x0
 3085 09f6 16       		.uleb128 0x16
 3086 09f7 44000000 		.4byte	.LBB26
 3087 09fb 4A000000 		.4byte	.LBE26
 3088 09ff 140A0000 		.4byte	0xa14
 3089 0a03 23       		.uleb128 0x23
 3090 0a04 746D7000 		.ascii	"tmp\000"
 3091 0a08 01       		.byte	0x1
 3092 0a09 9601     		.2byte	0x196
 3093 0a0b 70000000 		.4byte	0x70
 3094 0a0f 00060000 		.4byte	.LLST56
 3095 0a13 00       		.byte	0x0
 3096 0a14 1F       		.uleb128 0x1f
 3097 0a15 4E000000 		.4byte	.LBB27
 3098 0a19 54000000 		.4byte	.LBE27
 3099 0a1d 23       		.uleb128 0x23
 3100 0a1e 746D7000 		.ascii	"tmp\000"
 3101 0a22 01       		.byte	0x1
 3102 0a23 8E01     		.2byte	0x18e
 3103 0a25 70000000 		.4byte	0x70
 3104 0a29 13060000 		.4byte	.LLST57
 3105 0a2d 00       		.byte	0x0
 3106 0a2e 00       		.byte	0x0
 3107 0a2f 21       		.uleb128 0x21
ARM GAS  /tmp/ccVkfzR7.s 			page 56


 3108 0a30 01       		.byte	0x1
 3109 0a31 39000000 		.4byte	.LASF83
 3110 0a35 01       		.byte	0x1
 3111 0a36 AC01     		.2byte	0x1ac
 3112 0a38 01       		.byte	0x1
 3113 0a39 D2000000 		.4byte	0xd2
 3114 0a3d 00000000 		.4byte	.LFB20
 3115 0a41 52000000 		.4byte	.LFE20
 3116 0a45 31060000 		.4byte	.LLST58
 3117 0a49 000B0000 		.4byte	0xb00
 3118 0a4d 22       		.uleb128 0x22
 3119 0a4e D6000000 		.4byte	.LASF67
 3120 0a52 01       		.byte	0x1
 3121 0a53 AC01     		.2byte	0x1ac
 3122 0a55 D2000000 		.4byte	0xd2
 3123 0a59 51060000 		.4byte	.LLST59
 3124 0a5d 22       		.uleb128 0x22
 3125 0a5e 0A020000 		.4byte	.LASF82
 3126 0a62 01       		.byte	0x1
 3127 0a63 AC01     		.2byte	0x1ac
 3128 0a65 DD000000 		.4byte	0xdd
 3129 0a69 6F060000 		.4byte	.LLST60
 3130 0a6d 23       		.uleb128 0x23
 3131 0a6e 63747000 		.ascii	"ctp\000"
 3132 0a72 01       		.byte	0x1
 3133 0a73 AD01     		.2byte	0x1ad
 3134 0a75 2C020000 		.4byte	0x22c
 3135 0a79 82060000 		.4byte	.LLST61
 3136 0a7d 23       		.uleb128 0x23
 3137 0a7e 6D00     		.ascii	"m\000"
 3138 0a80 01       		.byte	0x1
 3139 0a81 AE01     		.2byte	0x1ae
 3140 0a83 D2000000 		.4byte	0xd2
 3141 0a87 A1060000 		.4byte	.LLST62
 3142 0a8b 16       		.uleb128 0x16
 3143 0a8c 0E000000 		.4byte	.LBB28
 3144 0a90 14000000 		.4byte	.LBE28
 3145 0a94 A90A0000 		.4byte	0xaa9
 3146 0a98 23       		.uleb128 0x23
 3147 0a99 746D7000 		.ascii	"tmp\000"
 3148 0a9d 01       		.byte	0x1
 3149 0a9e B001     		.2byte	0x1b0
 3150 0aa0 70000000 		.4byte	0x70
 3151 0aa4 BF060000 		.4byte	.LLST63
 3152 0aa8 00       		.byte	0x0
 3153 0aa9 16       		.uleb128 0x16
 3154 0aaa 1E000000 		.4byte	.LBB29
 3155 0aae 24000000 		.4byte	.LBE29
 3156 0ab2 C70A0000 		.4byte	0xac7
 3157 0ab6 23       		.uleb128 0x23
 3158 0ab7 746D7000 		.ascii	"tmp\000"
 3159 0abb 01       		.byte	0x1
 3160 0abc B401     		.2byte	0x1b4
 3161 0abe 70000000 		.4byte	0x70
 3162 0ac2 D2060000 		.4byte	.LLST64
 3163 0ac6 00       		.byte	0x0
 3164 0ac7 16       		.uleb128 0x16
ARM GAS  /tmp/ccVkfzR7.s 			page 57


 3165 0ac8 40000000 		.4byte	.LBB30
 3166 0acc 46000000 		.4byte	.LBE30
 3167 0ad0 E50A0000 		.4byte	0xae5
 3168 0ad4 23       		.uleb128 0x23
 3169 0ad5 746D7000 		.ascii	"tmp\000"
 3170 0ad9 01       		.byte	0x1
 3171 0ada C001     		.2byte	0x1c0
 3172 0adc 70000000 		.4byte	0x70
 3173 0ae0 E5060000 		.4byte	.LLST65
 3174 0ae4 00       		.byte	0x0
 3175 0ae5 1F       		.uleb128 0x1f
 3176 0ae6 4A000000 		.4byte	.LBB31
 3177 0aea 50000000 		.4byte	.LBE31
 3178 0aee 23       		.uleb128 0x23
 3179 0aef 746D7000 		.ascii	"tmp\000"
 3180 0af3 01       		.byte	0x1
 3181 0af4 B901     		.2byte	0x1b9
 3182 0af6 70000000 		.4byte	0x70
 3183 0afa F8060000 		.4byte	.LLST66
 3184 0afe 00       		.byte	0x0
 3185 0aff 00       		.byte	0x0
 3186 0b00 21       		.uleb128 0x21
 3187 0b01 01       		.byte	0x1
 3188 0b02 6E000000 		.4byte	.LASF84
 3189 0b06 01       		.byte	0x1
 3190 0b07 D501     		.2byte	0x1d5
 3191 0b09 01       		.byte	0x1
 3192 0b0a D2000000 		.4byte	0xd2
 3193 0b0e 00000000 		.4byte	.LFB21
 3194 0b12 56000000 		.4byte	.LFE21
 3195 0b16 16070000 		.4byte	.LLST67
 3196 0b1a C30B0000 		.4byte	0xbc3
 3197 0b1e 22       		.uleb128 0x22
 3198 0b1f D6000000 		.4byte	.LASF67
 3199 0b23 01       		.byte	0x1
 3200 0b24 D501     		.2byte	0x1d5
 3201 0b26 D2000000 		.4byte	0xd2
 3202 0b2a 36070000 		.4byte	.LLST68
 3203 0b2e 22       		.uleb128 0x22
 3204 0b2f 0A020000 		.4byte	.LASF82
 3205 0b33 01       		.byte	0x1
 3206 0b34 D501     		.2byte	0x1d5
 3207 0b36 DD000000 		.4byte	0xdd
 3208 0b3a 6A070000 		.4byte	.LLST69
 3209 0b3e 23       		.uleb128 0x23
 3210 0b3f 63747000 		.ascii	"ctp\000"
 3211 0b43 01       		.byte	0x1
 3212 0b44 D601     		.2byte	0x1d6
 3213 0b46 2C020000 		.4byte	0x22c
 3214 0b4a 7D070000 		.4byte	.LLST70
 3215 0b4e 16       		.uleb128 0x16
 3216 0b4f 0E000000 		.4byte	.LBB32
 3217 0b53 14000000 		.4byte	.LBE32
 3218 0b57 6C0B0000 		.4byte	0xb6c
 3219 0b5b 23       		.uleb128 0x23
 3220 0b5c 746D7000 		.ascii	"tmp\000"
 3221 0b60 01       		.byte	0x1
ARM GAS  /tmp/ccVkfzR7.s 			page 58


 3222 0b61 D801     		.2byte	0x1d8
 3223 0b63 70000000 		.4byte	0x70
 3224 0b67 9C070000 		.4byte	.LLST71
 3225 0b6b 00       		.byte	0x0
 3226 0b6c 16       		.uleb128 0x16
 3227 0b6d 20000000 		.4byte	.LBB33
 3228 0b71 26000000 		.4byte	.LBE33
 3229 0b75 8A0B0000 		.4byte	0xb8a
 3230 0b79 23       		.uleb128 0x23
 3231 0b7a 746D7000 		.ascii	"tmp\000"
 3232 0b7e 01       		.byte	0x1
 3233 0b7f DC01     		.2byte	0x1dc
 3234 0b81 70000000 		.4byte	0x70
 3235 0b85 AF070000 		.4byte	.LLST72
 3236 0b89 00       		.byte	0x0
 3237 0b8a 16       		.uleb128 0x16
 3238 0b8b 42000000 		.4byte	.LBB34
 3239 0b8f 48000000 		.4byte	.LBE34
 3240 0b93 A80B0000 		.4byte	0xba8
 3241 0b97 23       		.uleb128 0x23
 3242 0b98 746D7000 		.ascii	"tmp\000"
 3243 0b9c 01       		.byte	0x1
 3244 0b9d E701     		.2byte	0x1e7
 3245 0b9f 70000000 		.4byte	0x70
 3246 0ba3 C2070000 		.4byte	.LLST73
 3247 0ba7 00       		.byte	0x0
 3248 0ba8 1F       		.uleb128 0x1f
 3249 0ba9 4C000000 		.4byte	.LBB35
 3250 0bad 52000000 		.4byte	.LBE35
 3251 0bb1 23       		.uleb128 0x23
 3252 0bb2 746D7000 		.ascii	"tmp\000"
 3253 0bb6 01       		.byte	0x1
 3254 0bb7 E101     		.2byte	0x1e1
 3255 0bb9 70000000 		.4byte	0x70
 3256 0bbd D5070000 		.4byte	.LLST74
 3257 0bc1 00       		.byte	0x0
 3258 0bc2 00       		.byte	0x0
 3259 0bc3 24       		.uleb128 0x24
 3260 0bc4 68030000 		.4byte	.LASF85
 3261 0bc8 08       		.byte	0x8
 3262 0bc9 65       		.byte	0x65
 3263 0bca 84030000 		.4byte	0x384
 3264 0bce 01       		.byte	0x1
 3265 0bcf 01       		.byte	0x1
 3266 0bd0 24       		.uleb128 0x24
 3267 0bd1 68030000 		.4byte	.LASF85
 3268 0bd5 08       		.byte	0x8
 3269 0bd6 65       		.byte	0x65
 3270 0bd7 84030000 		.4byte	0x384
 3271 0bdb 01       		.byte	0x1
 3272 0bdc 01       		.byte	0x1
 3273 0bdd 00       		.byte	0x0
 3274              		.section	.debug_abbrev
 3275 0000 01       		.uleb128 0x1
 3276 0001 11       		.uleb128 0x11
 3277 0002 01       		.byte	0x1
 3278 0003 25       		.uleb128 0x25
ARM GAS  /tmp/ccVkfzR7.s 			page 59


 3279 0004 0E       		.uleb128 0xe
 3280 0005 13       		.uleb128 0x13
 3281 0006 0B       		.uleb128 0xb
 3282 0007 03       		.uleb128 0x3
 3283 0008 0E       		.uleb128 0xe
 3284 0009 1B       		.uleb128 0x1b
 3285 000a 0E       		.uleb128 0xe
 3286 000b 11       		.uleb128 0x11
 3287 000c 01       		.uleb128 0x1
 3288 000d 52       		.uleb128 0x52
 3289 000e 01       		.uleb128 0x1
 3290 000f 55       		.uleb128 0x55
 3291 0010 06       		.uleb128 0x6
 3292 0011 10       		.uleb128 0x10
 3293 0012 06       		.uleb128 0x6
 3294 0013 00       		.byte	0x0
 3295 0014 00       		.byte	0x0
 3296 0015 02       		.uleb128 0x2
 3297 0016 24       		.uleb128 0x24
 3298 0017 00       		.byte	0x0
 3299 0018 0B       		.uleb128 0xb
 3300 0019 0B       		.uleb128 0xb
 3301 001a 3E       		.uleb128 0x3e
 3302 001b 0B       		.uleb128 0xb
 3303 001c 03       		.uleb128 0x3
 3304 001d 08       		.uleb128 0x8
 3305 001e 00       		.byte	0x0
 3306 001f 00       		.byte	0x0
 3307 0020 03       		.uleb128 0x3
 3308 0021 24       		.uleb128 0x24
 3309 0022 00       		.byte	0x0
 3310 0023 0B       		.uleb128 0xb
 3311 0024 0B       		.uleb128 0xb
 3312 0025 3E       		.uleb128 0x3e
 3313 0026 0B       		.uleb128 0xb
 3314 0027 03       		.uleb128 0x3
 3315 0028 0E       		.uleb128 0xe
 3316 0029 00       		.byte	0x0
 3317 002a 00       		.byte	0x0
 3318 002b 04       		.uleb128 0x4
 3319 002c 16       		.uleb128 0x16
 3320 002d 00       		.byte	0x0
 3321 002e 03       		.uleb128 0x3
 3322 002f 0E       		.uleb128 0xe
 3323 0030 3A       		.uleb128 0x3a
 3324 0031 0B       		.uleb128 0xb
 3325 0032 3B       		.uleb128 0x3b
 3326 0033 0B       		.uleb128 0xb
 3327 0034 49       		.uleb128 0x49
 3328 0035 13       		.uleb128 0x13
 3329 0036 00       		.byte	0x0
 3330 0037 00       		.byte	0x0
 3331 0038 05       		.uleb128 0x5
 3332 0039 13       		.uleb128 0x13
 3333 003a 01       		.byte	0x1
 3334 003b 03       		.uleb128 0x3
 3335 003c 0E       		.uleb128 0xe
ARM GAS  /tmp/ccVkfzR7.s 			page 60


 3336 003d 0B       		.uleb128 0xb
 3337 003e 0B       		.uleb128 0xb
 3338 003f 3A       		.uleb128 0x3a
 3339 0040 0B       		.uleb128 0xb
 3340 0041 3B       		.uleb128 0x3b
 3341 0042 0B       		.uleb128 0xb
 3342 0043 01       		.uleb128 0x1
 3343 0044 13       		.uleb128 0x13
 3344 0045 00       		.byte	0x0
 3345 0046 00       		.byte	0x0
 3346 0047 06       		.uleb128 0x6
 3347 0048 0D       		.uleb128 0xd
 3348 0049 00       		.byte	0x0
 3349 004a 03       		.uleb128 0x3
 3350 004b 0E       		.uleb128 0xe
 3351 004c 3A       		.uleb128 0x3a
 3352 004d 0B       		.uleb128 0xb
 3353 004e 3B       		.uleb128 0x3b
 3354 004f 0B       		.uleb128 0xb
 3355 0050 49       		.uleb128 0x49
 3356 0051 13       		.uleb128 0x13
 3357 0052 38       		.uleb128 0x38
 3358 0053 0A       		.uleb128 0xa
 3359 0054 00       		.byte	0x0
 3360 0055 00       		.byte	0x0
 3361 0056 07       		.uleb128 0x7
 3362 0057 0D       		.uleb128 0xd
 3363 0058 00       		.byte	0x0
 3364 0059 03       		.uleb128 0x3
 3365 005a 08       		.uleb128 0x8
 3366 005b 3A       		.uleb128 0x3a
 3367 005c 0B       		.uleb128 0xb
 3368 005d 3B       		.uleb128 0x3b
 3369 005e 0B       		.uleb128 0xb
 3370 005f 49       		.uleb128 0x49
 3371 0060 13       		.uleb128 0x13
 3372 0061 38       		.uleb128 0x38
 3373 0062 0A       		.uleb128 0xa
 3374 0063 00       		.byte	0x0
 3375 0064 00       		.byte	0x0
 3376 0065 08       		.uleb128 0x8
 3377 0066 13       		.uleb128 0x13
 3378 0067 01       		.byte	0x1
 3379 0068 0B       		.uleb128 0xb
 3380 0069 0B       		.uleb128 0xb
 3381 006a 3A       		.uleb128 0x3a
 3382 006b 0B       		.uleb128 0xb
 3383 006c 3B       		.uleb128 0x3b
 3384 006d 0B       		.uleb128 0xb
 3385 006e 01       		.uleb128 0x1
 3386 006f 13       		.uleb128 0x13
 3387 0070 00       		.byte	0x0
 3388 0071 00       		.byte	0x0
 3389 0072 09       		.uleb128 0x9
 3390 0073 0F       		.uleb128 0xf
 3391 0074 00       		.byte	0x0
 3392 0075 0B       		.uleb128 0xb
ARM GAS  /tmp/ccVkfzR7.s 			page 61


 3393 0076 0B       		.uleb128 0xb
 3394 0077 49       		.uleb128 0x49
 3395 0078 13       		.uleb128 0x13
 3396 0079 00       		.byte	0x0
 3397 007a 00       		.byte	0x0
 3398 007b 0A       		.uleb128 0xa
 3399 007c 16       		.uleb128 0x16
 3400 007d 00       		.byte	0x0
 3401 007e 03       		.uleb128 0x3
 3402 007f 0E       		.uleb128 0xe
 3403 0080 3A       		.uleb128 0x3a
 3404 0081 0B       		.uleb128 0xb
 3405 0082 3B       		.uleb128 0x3b
 3406 0083 05       		.uleb128 0x5
 3407 0084 49       		.uleb128 0x49
 3408 0085 13       		.uleb128 0x13
 3409 0086 00       		.byte	0x0
 3410 0087 00       		.byte	0x0
 3411 0088 0B       		.uleb128 0xb
 3412 0089 0F       		.uleb128 0xf
 3413 008a 00       		.byte	0x0
 3414 008b 0B       		.uleb128 0xb
 3415 008c 0B       		.uleb128 0xb
 3416 008d 00       		.byte	0x0
 3417 008e 00       		.byte	0x0
 3418 008f 0C       		.uleb128 0xc
 3419 0090 13       		.uleb128 0x13
 3420 0091 01       		.byte	0x1
 3421 0092 03       		.uleb128 0x3
 3422 0093 0E       		.uleb128 0xe
 3423 0094 0B       		.uleb128 0xb
 3424 0095 0B       		.uleb128 0xb
 3425 0096 3A       		.uleb128 0x3a
 3426 0097 0B       		.uleb128 0xb
 3427 0098 3B       		.uleb128 0x3b
 3428 0099 05       		.uleb128 0x5
 3429 009a 01       		.uleb128 0x1
 3430 009b 13       		.uleb128 0x13
 3431 009c 00       		.byte	0x0
 3432 009d 00       		.byte	0x0
 3433 009e 0D       		.uleb128 0xd
 3434 009f 0D       		.uleb128 0xd
 3435 00a0 00       		.byte	0x0
 3436 00a1 03       		.uleb128 0x3
 3437 00a2 08       		.uleb128 0x8
 3438 00a3 3A       		.uleb128 0x3a
 3439 00a4 0B       		.uleb128 0xb
 3440 00a5 3B       		.uleb128 0x3b
 3441 00a6 05       		.uleb128 0x5
 3442 00a7 49       		.uleb128 0x49
 3443 00a8 13       		.uleb128 0x13
 3444 00a9 38       		.uleb128 0x38
 3445 00aa 0A       		.uleb128 0xa
 3446 00ab 00       		.byte	0x0
 3447 00ac 00       		.byte	0x0
 3448 00ad 0E       		.uleb128 0xe
 3449 00ae 35       		.uleb128 0x35
ARM GAS  /tmp/ccVkfzR7.s 			page 62


 3450 00af 00       		.byte	0x0
 3451 00b0 49       		.uleb128 0x49
 3452 00b1 13       		.uleb128 0x13
 3453 00b2 00       		.byte	0x0
 3454 00b3 00       		.byte	0x0
 3455 00b4 0F       		.uleb128 0xf
 3456 00b5 15       		.uleb128 0x15
 3457 00b6 01       		.byte	0x1
 3458 00b7 27       		.uleb128 0x27
 3459 00b8 0C       		.uleb128 0xc
 3460 00b9 01       		.uleb128 0x1
 3461 00ba 13       		.uleb128 0x13
 3462 00bb 00       		.byte	0x0
 3463 00bc 00       		.byte	0x0
 3464 00bd 10       		.uleb128 0x10
 3465 00be 05       		.uleb128 0x5
 3466 00bf 00       		.byte	0x0
 3467 00c0 49       		.uleb128 0x49
 3468 00c1 13       		.uleb128 0x13
 3469 00c2 00       		.byte	0x0
 3470 00c3 00       		.byte	0x0
 3471 00c4 11       		.uleb128 0x11
 3472 00c5 17       		.uleb128 0x17
 3473 00c6 01       		.byte	0x1
 3474 00c7 0B       		.uleb128 0xb
 3475 00c8 0B       		.uleb128 0xb
 3476 00c9 3A       		.uleb128 0x3a
 3477 00ca 0B       		.uleb128 0xb
 3478 00cb 3B       		.uleb128 0x3b
 3479 00cc 0B       		.uleb128 0xb
 3480 00cd 01       		.uleb128 0x1
 3481 00ce 13       		.uleb128 0x13
 3482 00cf 00       		.byte	0x0
 3483 00d0 00       		.byte	0x0
 3484 00d1 12       		.uleb128 0x12
 3485 00d2 0D       		.uleb128 0xd
 3486 00d3 00       		.byte	0x0
 3487 00d4 03       		.uleb128 0x3
 3488 00d5 0E       		.uleb128 0xe
 3489 00d6 3A       		.uleb128 0x3a
 3490 00d7 0B       		.uleb128 0xb
 3491 00d8 3B       		.uleb128 0x3b
 3492 00d9 0B       		.uleb128 0xb
 3493 00da 49       		.uleb128 0x49
 3494 00db 13       		.uleb128 0x13
 3495 00dc 00       		.byte	0x0
 3496 00dd 00       		.byte	0x0
 3497 00de 13       		.uleb128 0x13
 3498 00df 2E       		.uleb128 0x2e
 3499 00e0 01       		.byte	0x1
 3500 00e1 3F       		.uleb128 0x3f
 3501 00e2 0C       		.uleb128 0xc
 3502 00e3 03       		.uleb128 0x3
 3503 00e4 0E       		.uleb128 0xe
 3504 00e5 3A       		.uleb128 0x3a
 3505 00e6 0B       		.uleb128 0xb
 3506 00e7 3B       		.uleb128 0x3b
ARM GAS  /tmp/ccVkfzR7.s 			page 63


 3507 00e8 0B       		.uleb128 0xb
 3508 00e9 27       		.uleb128 0x27
 3509 00ea 0C       		.uleb128 0xc
 3510 00eb 11       		.uleb128 0x11
 3511 00ec 01       		.uleb128 0x1
 3512 00ed 12       		.uleb128 0x12
 3513 00ee 01       		.uleb128 0x1
 3514 00ef 40       		.uleb128 0x40
 3515 00f0 06       		.uleb128 0x6
 3516 00f1 01       		.uleb128 0x1
 3517 00f2 13       		.uleb128 0x13
 3518 00f3 00       		.byte	0x0
 3519 00f4 00       		.byte	0x0
 3520 00f5 14       		.uleb128 0x14
 3521 00f6 05       		.uleb128 0x5
 3522 00f7 00       		.byte	0x0
 3523 00f8 03       		.uleb128 0x3
 3524 00f9 08       		.uleb128 0x8
 3525 00fa 3A       		.uleb128 0x3a
 3526 00fb 0B       		.uleb128 0xb
 3527 00fc 3B       		.uleb128 0x3b
 3528 00fd 0B       		.uleb128 0xb
 3529 00fe 49       		.uleb128 0x49
 3530 00ff 13       		.uleb128 0x13
 3531 0100 02       		.uleb128 0x2
 3532 0101 0A       		.uleb128 0xa
 3533 0102 00       		.byte	0x0
 3534 0103 00       		.byte	0x0
 3535 0104 15       		.uleb128 0x15
 3536 0105 05       		.uleb128 0x5
 3537 0106 00       		.byte	0x0
 3538 0107 03       		.uleb128 0x3
 3539 0108 0E       		.uleb128 0xe
 3540 0109 3A       		.uleb128 0x3a
 3541 010a 0B       		.uleb128 0xb
 3542 010b 3B       		.uleb128 0x3b
 3543 010c 0B       		.uleb128 0xb
 3544 010d 49       		.uleb128 0x49
 3545 010e 13       		.uleb128 0x13
 3546 010f 02       		.uleb128 0x2
 3547 0110 0A       		.uleb128 0xa
 3548 0111 00       		.byte	0x0
 3549 0112 00       		.byte	0x0
 3550 0113 16       		.uleb128 0x16
 3551 0114 0B       		.uleb128 0xb
 3552 0115 01       		.byte	0x1
 3553 0116 11       		.uleb128 0x11
 3554 0117 01       		.uleb128 0x1
 3555 0118 12       		.uleb128 0x12
 3556 0119 01       		.uleb128 0x1
 3557 011a 01       		.uleb128 0x1
 3558 011b 13       		.uleb128 0x13
 3559 011c 00       		.byte	0x0
 3560 011d 00       		.byte	0x0
 3561 011e 17       		.uleb128 0x17
 3562 011f 34       		.uleb128 0x34
 3563 0120 00       		.byte	0x0
ARM GAS  /tmp/ccVkfzR7.s 			page 64


 3564 0121 03       		.uleb128 0x3
 3565 0122 08       		.uleb128 0x8
 3566 0123 3A       		.uleb128 0x3a
 3567 0124 0B       		.uleb128 0xb
 3568 0125 3B       		.uleb128 0x3b
 3569 0126 0B       		.uleb128 0xb
 3570 0127 49       		.uleb128 0x49
 3571 0128 13       		.uleb128 0x13
 3572 0129 02       		.uleb128 0x2
 3573 012a 06       		.uleb128 0x6
 3574 012b 00       		.byte	0x0
 3575 012c 00       		.byte	0x0
 3576 012d 18       		.uleb128 0x18
 3577 012e 0B       		.uleb128 0xb
 3578 012f 01       		.byte	0x1
 3579 0130 55       		.uleb128 0x55
 3580 0131 06       		.uleb128 0x6
 3581 0132 00       		.byte	0x0
 3582 0133 00       		.byte	0x0
 3583 0134 19       		.uleb128 0x19
 3584 0135 2E       		.uleb128 0x2e
 3585 0136 01       		.byte	0x1
 3586 0137 3F       		.uleb128 0x3f
 3587 0138 0C       		.uleb128 0xc
 3588 0139 03       		.uleb128 0x3
 3589 013a 0E       		.uleb128 0xe
 3590 013b 3A       		.uleb128 0x3a
 3591 013c 0B       		.uleb128 0xb
 3592 013d 3B       		.uleb128 0x3b
 3593 013e 0B       		.uleb128 0xb
 3594 013f 27       		.uleb128 0x27
 3595 0140 0C       		.uleb128 0xc
 3596 0141 11       		.uleb128 0x11
 3597 0142 01       		.uleb128 0x1
 3598 0143 12       		.uleb128 0x12
 3599 0144 01       		.uleb128 0x1
 3600 0145 40       		.uleb128 0x40
 3601 0146 0A       		.uleb128 0xa
 3602 0147 01       		.uleb128 0x1
 3603 0148 13       		.uleb128 0x13
 3604 0149 00       		.byte	0x0
 3605 014a 00       		.byte	0x0
 3606 014b 1A       		.uleb128 0x1a
 3607 014c 2E       		.uleb128 0x2e
 3608 014d 01       		.byte	0x1
 3609 014e 3F       		.uleb128 0x3f
 3610 014f 0C       		.uleb128 0xc
 3611 0150 03       		.uleb128 0x3
 3612 0151 0E       		.uleb128 0xe
 3613 0152 3A       		.uleb128 0x3a
 3614 0153 0B       		.uleb128 0xb
 3615 0154 3B       		.uleb128 0x3b
 3616 0155 0B       		.uleb128 0xb
 3617 0156 27       		.uleb128 0x27
 3618 0157 0C       		.uleb128 0xc
 3619 0158 49       		.uleb128 0x49
 3620 0159 13       		.uleb128 0x13
ARM GAS  /tmp/ccVkfzR7.s 			page 65


 3621 015a 11       		.uleb128 0x11
 3622 015b 01       		.uleb128 0x1
 3623 015c 12       		.uleb128 0x12
 3624 015d 01       		.uleb128 0x1
 3625 015e 40       		.uleb128 0x40
 3626 015f 06       		.uleb128 0x6
 3627 0160 01       		.uleb128 0x1
 3628 0161 13       		.uleb128 0x13
 3629 0162 00       		.byte	0x0
 3630 0163 00       		.byte	0x0
 3631 0164 1B       		.uleb128 0x1b
 3632 0165 05       		.uleb128 0x5
 3633 0166 00       		.byte	0x0
 3634 0167 03       		.uleb128 0x3
 3635 0168 0E       		.uleb128 0xe
 3636 0169 3A       		.uleb128 0x3a
 3637 016a 0B       		.uleb128 0xb
 3638 016b 3B       		.uleb128 0x3b
 3639 016c 0B       		.uleb128 0xb
 3640 016d 49       		.uleb128 0x49
 3641 016e 13       		.uleb128 0x13
 3642 016f 02       		.uleb128 0x2
 3643 0170 06       		.uleb128 0x6
 3644 0171 00       		.byte	0x0
 3645 0172 00       		.byte	0x0
 3646 0173 1C       		.uleb128 0x1c
 3647 0174 34       		.uleb128 0x34
 3648 0175 00       		.byte	0x0
 3649 0176 03       		.uleb128 0x3
 3650 0177 08       		.uleb128 0x8
 3651 0178 3A       		.uleb128 0x3a
 3652 0179 0B       		.uleb128 0xb
 3653 017a 3B       		.uleb128 0x3b
 3654 017b 0B       		.uleb128 0xb
 3655 017c 49       		.uleb128 0x49
 3656 017d 13       		.uleb128 0x13
 3657 017e 02       		.uleb128 0x2
 3658 017f 0A       		.uleb128 0xa
 3659 0180 00       		.byte	0x0
 3660 0181 00       		.byte	0x0
 3661 0182 1D       		.uleb128 0x1d
 3662 0183 2E       		.uleb128 0x2e
 3663 0184 01       		.byte	0x1
 3664 0185 3F       		.uleb128 0x3f
 3665 0186 0C       		.uleb128 0xc
 3666 0187 03       		.uleb128 0x3
 3667 0188 0E       		.uleb128 0xe
 3668 0189 3A       		.uleb128 0x3a
 3669 018a 0B       		.uleb128 0xb
 3670 018b 3B       		.uleb128 0x3b
 3671 018c 0B       		.uleb128 0xb
 3672 018d 27       		.uleb128 0x27
 3673 018e 0C       		.uleb128 0xc
 3674 018f 49       		.uleb128 0x49
 3675 0190 13       		.uleb128 0x13
 3676 0191 11       		.uleb128 0x11
 3677 0192 01       		.uleb128 0x1
ARM GAS  /tmp/ccVkfzR7.s 			page 66


 3678 0193 12       		.uleb128 0x12
 3679 0194 01       		.uleb128 0x1
 3680 0195 40       		.uleb128 0x40
 3681 0196 0A       		.uleb128 0xa
 3682 0197 01       		.uleb128 0x1
 3683 0198 13       		.uleb128 0x13
 3684 0199 00       		.byte	0x0
 3685 019a 00       		.byte	0x0
 3686 019b 1E       		.uleb128 0x1e
 3687 019c 05       		.uleb128 0x5
 3688 019d 00       		.byte	0x0
 3689 019e 03       		.uleb128 0x3
 3690 019f 08       		.uleb128 0x8
 3691 01a0 3A       		.uleb128 0x3a
 3692 01a1 0B       		.uleb128 0xb
 3693 01a2 3B       		.uleb128 0x3b
 3694 01a3 0B       		.uleb128 0xb
 3695 01a4 49       		.uleb128 0x49
 3696 01a5 13       		.uleb128 0x13
 3697 01a6 02       		.uleb128 0x2
 3698 01a7 06       		.uleb128 0x6
 3699 01a8 00       		.byte	0x0
 3700 01a9 00       		.byte	0x0
 3701 01aa 1F       		.uleb128 0x1f
 3702 01ab 0B       		.uleb128 0xb
 3703 01ac 01       		.byte	0x1
 3704 01ad 11       		.uleb128 0x11
 3705 01ae 01       		.uleb128 0x1
 3706 01af 12       		.uleb128 0x12
 3707 01b0 01       		.uleb128 0x1
 3708 01b1 00       		.byte	0x0
 3709 01b2 00       		.byte	0x0
 3710 01b3 20       		.uleb128 0x20
 3711 01b4 26       		.uleb128 0x26
 3712 01b5 00       		.byte	0x0
 3713 01b6 49       		.uleb128 0x49
 3714 01b7 13       		.uleb128 0x13
 3715 01b8 00       		.byte	0x0
 3716 01b9 00       		.byte	0x0
 3717 01ba 21       		.uleb128 0x21
 3718 01bb 2E       		.uleb128 0x2e
 3719 01bc 01       		.byte	0x1
 3720 01bd 3F       		.uleb128 0x3f
 3721 01be 0C       		.uleb128 0xc
 3722 01bf 03       		.uleb128 0x3
 3723 01c0 0E       		.uleb128 0xe
 3724 01c1 3A       		.uleb128 0x3a
 3725 01c2 0B       		.uleb128 0xb
 3726 01c3 3B       		.uleb128 0x3b
 3727 01c4 05       		.uleb128 0x5
 3728 01c5 27       		.uleb128 0x27
 3729 01c6 0C       		.uleb128 0xc
 3730 01c7 49       		.uleb128 0x49
 3731 01c8 13       		.uleb128 0x13
 3732 01c9 11       		.uleb128 0x11
 3733 01ca 01       		.uleb128 0x1
 3734 01cb 12       		.uleb128 0x12
ARM GAS  /tmp/ccVkfzR7.s 			page 67


 3735 01cc 01       		.uleb128 0x1
 3736 01cd 40       		.uleb128 0x40
 3737 01ce 06       		.uleb128 0x6
 3738 01cf 01       		.uleb128 0x1
 3739 01d0 13       		.uleb128 0x13
 3740 01d1 00       		.byte	0x0
 3741 01d2 00       		.byte	0x0
 3742 01d3 22       		.uleb128 0x22
 3743 01d4 05       		.uleb128 0x5
 3744 01d5 00       		.byte	0x0
 3745 01d6 03       		.uleb128 0x3
 3746 01d7 0E       		.uleb128 0xe
 3747 01d8 3A       		.uleb128 0x3a
 3748 01d9 0B       		.uleb128 0xb
 3749 01da 3B       		.uleb128 0x3b
 3750 01db 05       		.uleb128 0x5
 3751 01dc 49       		.uleb128 0x49
 3752 01dd 13       		.uleb128 0x13
 3753 01de 02       		.uleb128 0x2
 3754 01df 06       		.uleb128 0x6
 3755 01e0 00       		.byte	0x0
 3756 01e1 00       		.byte	0x0
 3757 01e2 23       		.uleb128 0x23
 3758 01e3 34       		.uleb128 0x34
 3759 01e4 00       		.byte	0x0
 3760 01e5 03       		.uleb128 0x3
 3761 01e6 08       		.uleb128 0x8
 3762 01e7 3A       		.uleb128 0x3a
 3763 01e8 0B       		.uleb128 0xb
 3764 01e9 3B       		.uleb128 0x3b
 3765 01ea 05       		.uleb128 0x5
 3766 01eb 49       		.uleb128 0x49
 3767 01ec 13       		.uleb128 0x13
 3768 01ed 02       		.uleb128 0x2
 3769 01ee 06       		.uleb128 0x6
 3770 01ef 00       		.byte	0x0
 3771 01f0 00       		.byte	0x0
 3772 01f1 24       		.uleb128 0x24
 3773 01f2 34       		.uleb128 0x34
 3774 01f3 00       		.byte	0x0
 3775 01f4 03       		.uleb128 0x3
 3776 01f5 0E       		.uleb128 0xe
 3777 01f6 3A       		.uleb128 0x3a
 3778 01f7 0B       		.uleb128 0xb
 3779 01f8 3B       		.uleb128 0x3b
 3780 01f9 0B       		.uleb128 0xb
 3781 01fa 49       		.uleb128 0x49
 3782 01fb 13       		.uleb128 0x13
 3783 01fc 3F       		.uleb128 0x3f
 3784 01fd 0C       		.uleb128 0xc
 3785 01fe 3C       		.uleb128 0x3c
 3786 01ff 0C       		.uleb128 0xc
 3787 0200 00       		.byte	0x0
 3788 0201 00       		.byte	0x0
 3789 0202 00       		.byte	0x0
 3790              		.section	.debug_pubnames,"",%progbits
 3791 0000 33010000 		.4byte	0x133
ARM GAS  /tmp/ccVkfzR7.s 			page 68


 3792 0004 0200     		.2byte	0x2
 3793 0006 00000000 		.4byte	.Ldebug_info0
 3794 000a DE0B0000 		.4byte	0xbde
 3795 000e 9D040000 		.4byte	0x49d
 3796 0012 63684576 		.ascii	"chEvtRegisterMask\000"
 3796      74526567 
 3796      69737465 
 3796      724D6173 
 3796      6B00
 3797 0024 16050000 		.4byte	0x516
 3798 0028 63684576 		.ascii	"chEvtUnregister\000"
 3798      74556E72 
 3798      65676973 
 3798      74657200 
 3799 0038 88050000 		.4byte	0x588
 3800 003c 63684576 		.ascii	"chEvtClearFlags\000"
 3800      74436C65 
 3800      6172466C 
 3800      61677300 
 3801 004c F2050000 		.4byte	0x5f2
 3802 0050 63684576 		.ascii	"chEvtAddFlags\000"
 3802      74416464 
 3802      466C6167 
 3802      7300
 3803 005e 50060000 		.4byte	0x650
 3804 0062 63684576 		.ascii	"chEvtSignalI\000"
 3804      74536967 
 3804      6E616C49 
 3804      00
 3805 006f 87060000 		.4byte	0x687
 3806 0073 63684576 		.ascii	"chEvtSignal\000"
 3806      74536967 
 3806      6E616C00 
 3807 007f F4060000 		.4byte	0x6f4
 3808 0083 63684576 		.ascii	"chEvtBroadcastI\000"
 3808      7442726F 
 3808      61646361 
 3808      73744900 
 3809 0093 2C070000 		.4byte	0x72c
 3810 0097 63684576 		.ascii	"chEvtBroadcast\000"
 3810      7442726F 
 3810      61646361 
 3810      737400
 3811 00a6 8B070000 		.4byte	0x78b
 3812 00aa 63684576 		.ascii	"chEvtDispatch\000"
 3812      74446973 
 3812      70617463 
 3812      6800
 3813 00b8 DD070000 		.4byte	0x7dd
 3814 00bc 63684576 		.ascii	"chEvtWaitOne\000"
 3814      74576169 
 3814      744F6E65 
 3814      00
 3815 00c9 62080000 		.4byte	0x862
 3816 00cd 63684576 		.ascii	"chEvtWaitAny\000"
 3816      74576169 
 3816      74416E79 
ARM GAS  /tmp/ccVkfzR7.s 			page 69


 3816      00
 3817 00da E7080000 		.4byte	0x8e7
 3818 00de 63684576 		.ascii	"chEvtWaitAll\000"
 3818      74576169 
 3818      74416C6C 
 3818      00
 3819 00eb 5E090000 		.4byte	0x95e
 3820 00ef 63684576 		.ascii	"chEvtWaitOneTimeout\000"
 3820      74576169 
 3820      744F6E65 
 3820      54696D65 
 3820      6F757400 
 3821 0103 2F0A0000 		.4byte	0xa2f
 3822 0107 63684576 		.ascii	"chEvtWaitAnyTimeout\000"
 3822      74576169 
 3822      74416E79 
 3822      54696D65 
 3822      6F757400 
 3823 011b 000B0000 		.4byte	0xb00
 3824 011f 63684576 		.ascii	"chEvtWaitAllTimeout\000"
 3824      74576169 
 3824      74416C6C 
 3824      54696D65 
 3824      6F757400 
 3825 0133 00000000 		.4byte	0x0
 3826              		.section	.debug_pubtypes,"",%progbits
 3827 0000 75010000 		.4byte	0x175
 3828 0004 0200     		.2byte	0x2
 3829 0006 00000000 		.4byte	.Ldebug_info0
 3830 000a DE0B0000 		.4byte	0xbde
 3831 000e 3E000000 		.4byte	0x3e
 3832 0012 75696E74 		.ascii	"uint8_t\000"
 3832      385F7400 
 3833 001a 5E000000 		.4byte	0x5e
 3834 001e 696E7433 		.ascii	"int32_t\000"
 3834      325F7400 
 3835 0026 70000000 		.4byte	0x70
 3836 002a 75696E74 		.ascii	"uint32_t\000"
 3836      33325F74 
 3836      00
 3837 0033 90000000 		.4byte	0x90
 3838 0037 746D6F64 		.ascii	"tmode_t\000"
 3838      655F7400 
 3839 003f 9B000000 		.4byte	0x9b
 3840 0043 74737461 		.ascii	"tstate_t\000"
 3840      74655F74 
 3840      00
 3841 004c A6000000 		.4byte	0xa6
 3842 0050 74726566 		.ascii	"trefs_t\000"
 3842      735F7400 
 3843 0058 B1000000 		.4byte	0xb1
 3844 005c 74707269 		.ascii	"tprio_t\000"
 3844      6F5F7400 
 3845 0064 BC000000 		.4byte	0xbc
 3846 0068 6D73675F 		.ascii	"msg_t\000"
 3846      7400
 3847 006e C7000000 		.4byte	0xc7
ARM GAS  /tmp/ccVkfzR7.s 			page 70


 3848 0072 6576656E 		.ascii	"eventid_t\000"
 3848      7469645F 
 3848      7400
 3849 007c D2000000 		.4byte	0xd2
 3850 0080 6576656E 		.ascii	"eventmask_t\000"
 3850      746D6173 
 3850      6B5F7400 
 3851 008c DD000000 		.4byte	0xdd
 3852 0090 73797374 		.ascii	"systime_t\000"
 3852      696D655F 
 3852      7400
 3853 009a E8000000 		.4byte	0xe8
 3854 009e 636E745F 		.ascii	"cnt_t\000"
 3854      7400
 3855 00a4 F3000000 		.4byte	0xf3
 3856 00a8 54687265 		.ascii	"Thread\000"
 3856      616400
 3857 00af 32020000 		.4byte	0x232
 3858 00b3 54687265 		.ascii	"ThreadsQueue\000"
 3858      61647351 
 3858      75657565 
 3858      00
 3859 00c0 54020000 		.4byte	0x254
 3860 00c4 54687265 		.ascii	"ThreadsList\000"
 3860      6164734C 
 3860      69737400 
 3861 00d0 5F020000 		.4byte	0x25f
 3862 00d4 72656761 		.ascii	"regarm_t\000"
 3862      726D5F74 
 3862      00
 3863 00dd 6D020000 		.4byte	0x26d
 3864 00e1 636F6E74 		.ascii	"context\000"
 3864      65787400 
 3865 00e9 8A020000 		.4byte	0x28a
 3866 00ed 696E7463 		.ascii	"intctx\000"
 3866      747800
 3867 00f4 84030000 		.4byte	0x384
 3868 00f8 52656164 		.ascii	"ReadyList\000"
 3868      794C6973 
 3868      7400
 3869 0102 8F030000 		.4byte	0x38f
 3870 0106 4D757465 		.ascii	"Mutex\000"
 3870      7800
 3871 010c CC030000 		.4byte	0x3cc
 3872 0110 4D757465 		.ascii	"Mutex\000"
 3872      7800
 3873 0116 D7030000 		.4byte	0x3d7
 3874 011a 4576656E 		.ascii	"EventListener\000"
 3874      744C6973 
 3874      74656E65 
 3874      7200
 3875 0128 E2030000 		.4byte	0x3e2
 3876 012c 4576656E 		.ascii	"EventListener\000"
 3876      744C6973 
 3876      74656E65 
 3876      7200
 3877 013a 1F040000 		.4byte	0x41f
ARM GAS  /tmp/ccVkfzR7.s 			page 71


 3878 013e 4576656E 		.ascii	"EventSource\000"
 3878      74536F75 
 3878      72636500 
 3879 014a 3A040000 		.4byte	0x43a
 3880 014e 4576656E 		.ascii	"EventSource\000"
 3880      74536F75 
 3880      72636500 
 3881 015a 45040000 		.4byte	0x445
 3882 015e 65766861 		.ascii	"evhandler_t\000"
 3882      6E646C65 
 3882      725F7400 
 3883 016a FE000000 		.4byte	0xfe
 3884 016e 54687265 		.ascii	"Thread\000"
 3884      616400
 3885 0175 00000000 		.4byte	0x0
 3886              		.section	.debug_aranges,"",%progbits
 3887 0000 8C000000 		.4byte	0x8c
 3888 0004 0200     		.2byte	0x2
 3889 0006 00000000 		.4byte	.Ldebug_info0
 3890 000a 04       		.byte	0x4
 3891 000b 00       		.byte	0x0
 3892 000c 0000     		.2byte	0x0
 3893 000e 0000     		.2byte	0x0
 3894 0010 00000000 		.4byte	.LFB7
 3895 0014 26000000 		.4byte	.LFE7-.LFB7
 3896 0018 00000000 		.4byte	.LFB8
 3897 001c 2A000000 		.4byte	.LFE8-.LFB8
 3898 0020 00000000 		.4byte	.LFB9
 3899 0024 26000000 		.4byte	.LFE9-.LFB9
 3900 0028 00000000 		.4byte	.LFB10
 3901 002c 1E000000 		.4byte	.LFE10-.LFB10
 3902 0030 00000000 		.4byte	.LFB12
 3903 0034 32000000 		.4byte	.LFE12-.LFB12
 3904 0038 00000000 		.4byte	.LFB11
 3905 003c 18000000 		.4byte	.LFE11-.LFB11
 3906 0040 00000000 		.4byte	.LFB14
 3907 0044 1A000000 		.4byte	.LFE14-.LFB14
 3908 0048 00000000 		.4byte	.LFB13
 3909 004c 18000000 		.4byte	.LFE13-.LFB13
 3910 0050 00000000 		.4byte	.LFB15
 3911 0054 32000000 		.4byte	.LFE15-.LFB15
 3912 0058 00000000 		.4byte	.LFB16
 3913 005c 3C000000 		.4byte	.LFE16-.LFB16
 3914 0060 00000000 		.4byte	.LFB17
 3915 0064 36000000 		.4byte	.LFE17-.LFB17
 3916 0068 00000000 		.4byte	.LFB18
 3917 006c 38000000 		.4byte	.LFE18-.LFB18
 3918 0070 00000000 		.4byte	.LFB19
 3919 0074 56000000 		.4byte	.LFE19-.LFB19
 3920 0078 00000000 		.4byte	.LFB20
 3921 007c 52000000 		.4byte	.LFE20-.LFB20
 3922 0080 00000000 		.4byte	.LFB21
 3923 0084 56000000 		.4byte	.LFE21-.LFB21
 3924 0088 00000000 		.4byte	0x0
 3925 008c 00000000 		.4byte	0x0
 3926              		.section	.debug_ranges,"",%progbits
 3927              	.Ldebug_ranges0:
ARM GAS  /tmp/ccVkfzR7.s 			page 72


 3928 0000 14000000 		.4byte	.LBB3
 3929 0004 16000000 		.4byte	.LBE3
 3930 0008 1E000000 		.4byte	.LBB4
 3931 000c 22000000 		.4byte	.LBE4
 3932 0010 00000000 		.4byte	0x0
 3933 0014 00000000 		.4byte	0x0
 3934 0018 16000000 		.4byte	.LBB6
 3935 001c 1C000000 		.4byte	.LBE6
 3936 0020 22000000 		.4byte	.LBB7
 3937 0024 28000000 		.4byte	.LBE7
 3938 0028 00000000 		.4byte	0x0
 3939 002c 00000000 		.4byte	0x0
 3940 0030 12000000 		.4byte	.LBB9
 3941 0034 14000000 		.4byte	.LBE9
 3942 0038 1C000000 		.4byte	.LBB10
 3943 003c 20000000 		.4byte	.LBE10
 3944 0040 00000000 		.4byte	0x0
 3945 0044 00000000 		.4byte	0x0
 3946 0048 10000000 		.4byte	.LBB12
 3947 004c 12000000 		.4byte	.LBE12
 3948 0050 18000000 		.4byte	.LBB13
 3949 0054 1C000000 		.4byte	.LBE13
 3950 0058 00000000 		.4byte	0x0
 3951 005c 00000000 		.4byte	0x0
 3952 0060 00000000 		.4byte	.LFB7
 3953 0064 26000000 		.4byte	.LFE7
 3954 0068 00000000 		.4byte	.LFB8
 3955 006c 2A000000 		.4byte	.LFE8
 3956 0070 00000000 		.4byte	.LFB9
 3957 0074 26000000 		.4byte	.LFE9
 3958 0078 00000000 		.4byte	.LFB10
 3959 007c 1E000000 		.4byte	.LFE10
 3960 0080 00000000 		.4byte	.LFB12
 3961 0084 32000000 		.4byte	.LFE12
 3962 0088 00000000 		.4byte	.LFB11
 3963 008c 18000000 		.4byte	.LFE11
 3964 0090 00000000 		.4byte	.LFB14
 3965 0094 1A000000 		.4byte	.LFE14
 3966 0098 00000000 		.4byte	.LFB13
 3967 009c 18000000 		.4byte	.LFE13
 3968 00a0 00000000 		.4byte	.LFB15
 3969 00a4 32000000 		.4byte	.LFE15
 3970 00a8 00000000 		.4byte	.LFB16
 3971 00ac 3C000000 		.4byte	.LFE16
 3972 00b0 00000000 		.4byte	.LFB17
 3973 00b4 36000000 		.4byte	.LFE17
 3974 00b8 00000000 		.4byte	.LFB18
 3975 00bc 38000000 		.4byte	.LFE18
 3976 00c0 00000000 		.4byte	.LFB19
 3977 00c4 56000000 		.4byte	.LFE19
 3978 00c8 00000000 		.4byte	.LFB20
 3979 00cc 52000000 		.4byte	.LFE20
 3980 00d0 00000000 		.4byte	.LFB21
 3981 00d4 56000000 		.4byte	.LFE21
 3982 00d8 00000000 		.4byte	0x0
 3983 00dc 00000000 		.4byte	0x0
 3984              		.section	.debug_str,"MS",%progbits,1
ARM GAS  /tmp/ccVkfzR7.s 			page 73


 3985              	.LASF34:
 3986 0000 705F6D73 		.ascii	"p_msg\000"
 3986      6700
 3987              	.LASF63:
 3988 0006 7264796D 		.ascii	"rdymsg\000"
 3988      736700
 3989              	.LASF73:
 3990 000d 63684576 		.ascii	"chEvtSignal\000"
 3990      74536967 
 3990      6E616C00 
 3991              	.LASF11:
 3992 0019 6C6F6E67 		.ascii	"long long unsigned int\000"
 3992      206C6F6E 
 3992      6720756E 
 3992      7369676E 
 3992      65642069 
 3993              	.LASF64:
 3994 0030 65786974 		.ascii	"exitcode\000"
 3994      636F6465 
 3994      00
 3995              	.LASF83:
 3996 0039 63684576 		.ascii	"chEvtWaitAnyTimeout\000"
 3996      74576169 
 3996      74416E79 
 3996      54696D65 
 3996      6F757400 
 3997              	.LASF24:
 3998 004d 705F7072 		.ascii	"p_prio\000"
 3998      696F00
 3999              	.LASF10:
 4000 0054 6C6F6E67 		.ascii	"long long int\000"
 4000      206C6F6E 
 4000      6720696E 
 4000      7400
 4001              	.LASF1:
 4002 0062 7369676E 		.ascii	"signed char\000"
 4002      65642063 
 4002      68617200 
 4003              	.LASF84:
 4004 006e 63684576 		.ascii	"chEvtWaitAllTimeout\000"
 4004      74576169 
 4004      74416C6C 
 4004      54696D65 
 4004      6F757400 
 4005              	.LASF38:
 4006 0082 705F6D70 		.ascii	"p_mpool\000"
 4006      6F6F6C00 
 4007              	.LASF53:
 4008 008a 6D5F7175 		.ascii	"m_queue\000"
 4008      65756500 
 4009              	.LASF65:
 4010 0092 77746F62 		.ascii	"wtobjp\000"
 4010      6A7000
 4011              	.LASF71:
 4012 0099 63684576 		.ascii	"chEvtAddFlags\000"
 4012      74416464 
 4012      466C6167 
ARM GAS  /tmp/ccVkfzR7.s 			page 74


 4012      7300
 4013              	.LASF7:
 4014 00a7 6C6F6E67 		.ascii	"long int\000"
 4014      20696E74 
 4014      00
 4015              	.LASF13:
 4016 00b0 74737461 		.ascii	"tstate_t\000"
 4016      74655F74 
 4016      00
 4017              	.LASF79:
 4018 00b9 63684576 		.ascii	"chEvtWaitAny\000"
 4018      74576169 
 4018      74416E79 
 4018      00
 4019              	.LASF26:
 4020 00c6 705F6E65 		.ascii	"p_newer\000"
 4020      77657200 
 4021              	.LASF47:
 4022 00ce 725F6E65 		.ascii	"r_newer\000"
 4022      77657200 
 4023              	.LASF67:
 4024 00d6 6D61736B 		.ascii	"mask\000"
 4024      00
 4025              	.LASF41:
 4026 00db 72656761 		.ascii	"regarm_t\000"
 4026      726D5F74 
 4026      00
 4027              	.LASF17:
 4028 00e4 6576656E 		.ascii	"eventid_t\000"
 4028      7469645F 
 4028      7400
 4029              	.LASF60:
 4030 00ee 4576656E 		.ascii	"EventSource\000"
 4030      74536F75 
 4030      72636500 
 4031              	.LASF62:
 4032 00fa 65766861 		.ascii	"evhandler_t\000"
 4032      6E646C65 
 4032      725F7400 
 4033              	.LASF20:
 4034 0106 636E745F 		.ascii	"cnt_t\000"
 4034      7400
 4035              	.LASF0:
 4036 010c 756E7369 		.ascii	"unsigned int\000"
 4036      676E6564 
 4036      20696E74 
 4036      00
 4037              	.LASF9:
 4038 0119 6C6F6E67 		.ascii	"long unsigned int\000"
 4038      20756E73 
 4038      69676E65 
 4038      6420696E 
 4038      7400
 4039              	.LASF42:
 4040 012b 636F6E74 		.ascii	"context\000"
 4040      65787400 
 4041              	.LASF4:
ARM GAS  /tmp/ccVkfzR7.s 			page 75


 4042 0133 73686F72 		.ascii	"short unsigned int\000"
 4042      7420756E 
 4042      7369676E 
 4042      65642069 
 4042      6E7400
 4043              	.LASF68:
 4044 0146 63684576 		.ascii	"chEvtRegisterMask\000"
 4044      74526567 
 4044      69737465 
 4044      724D6173 
 4044      6B00
 4045              	.LASF16:
 4046 0158 6D73675F 		.ascii	"msg_t\000"
 4046      7400
 4047              	.LASF57:
 4048 015e 656C5F6E 		.ascii	"el_next\000"
 4048      65787400 
 4049              	.LASF69:
 4050 0166 63684576 		.ascii	"chEvtUnregister\000"
 4050      74556E72 
 4050      65676973 
 4050      74657200 
 4051              	.LASF12:
 4052 0176 746D6F64 		.ascii	"tmode_t\000"
 4052      655F7400 
 4053              	.LASF40:
 4054 017e 54687265 		.ascii	"ThreadsList\000"
 4054      6164734C 
 4054      69737400 
 4055              	.LASF18:
 4056 018a 6576656E 		.ascii	"eventmask_t\000"
 4056      746D6173 
 4056      6B5F7400 
 4057              	.LASF52:
 4058 0196 4D757465 		.ascii	"Mutex\000"
 4058      7800
 4059              	.LASF76:
 4060 019c 63684576 		.ascii	"chEvtDispatch\000"
 4060      74446973 
 4060      70617463 
 4060      6800
 4061              	.LASF88:
 4062 01aa 2F686F6D 		.ascii	"/home/dan/github/github-projects/Quad-Rotor/QuadRot"
 4062      652F6461 
 4062      6E2F6769 
 4062      74687562 
 4062      2F676974 
 4063 01dd 6F7200   		.ascii	"or\000"
 4064              	.LASF75:
 4065 01e0 63684576 		.ascii	"chEvtBroadcast\000"
 4065      7442726F 
 4065      61646361 
 4065      737400
 4066              	.LASF27:
 4067 01ef 705F6F6C 		.ascii	"p_older\000"
 4067      64657200 
 4068              	.LASF46:
ARM GAS  /tmp/ccVkfzR7.s 			page 76


 4069 01f7 725F6374 		.ascii	"r_ctx\000"
 4069      7800
 4070              	.LASF39:
 4071 01fd 54687265 		.ascii	"ThreadsQueue\000"
 4071      61647351 
 4071      75657565 
 4071      00
 4072              	.LASF82:
 4073 020a 74696D65 		.ascii	"time\000"
 4073      00
 4074              	.LASF80:
 4075 020f 63684576 		.ascii	"chEvtWaitAll\000"
 4075      74576169 
 4075      74416C6C 
 4075      00
 4076              	.LASF50:
 4077 021c 725F6375 		.ascii	"r_current\000"
 4077      7272656E 
 4077      7400
 4078              	.LASF48:
 4079 0226 725F6F6C 		.ascii	"r_older\000"
 4079      64657200 
 4080              	.LASF59:
 4081 022e 656C5F6D 		.ascii	"el_mask\000"
 4081      61736B00 
 4082              	.LASF77:
 4083 0236 68616E64 		.ascii	"handlers\000"
 4083      6C657273 
 4083      00
 4084              	.LASF14:
 4085 023f 74726566 		.ascii	"trefs_t\000"
 4085      735F7400 
 4086              	.LASF23:
 4087 0247 705F7072 		.ascii	"p_prev\000"
 4087      657600
 4088              	.LASF15:
 4089 024e 74707269 		.ascii	"tprio_t\000"
 4089      6F5F7400 
 4090              	.LASF70:
 4091 0256 63684576 		.ascii	"chEvtClearFlags\000"
 4091      74436C65 
 4091      6172466C 
 4091      61677300 
 4092              	.LASF6:
 4093 0266 696E7433 		.ascii	"int32_t\000"
 4093      325F7400 
 4094              	.LASF2:
 4095 026e 756E7369 		.ascii	"unsigned char\000"
 4095      676E6564 
 4095      20636861 
 4095      7200
 4096              	.LASF78:
 4097 027c 63684576 		.ascii	"chEvtWaitOne\000"
 4097      74576169 
 4097      744F6E65 
 4097      00
 4098              	.LASF58:
ARM GAS  /tmp/ccVkfzR7.s 			page 77


 4099 0289 656C5F6C 		.ascii	"el_listener\000"
 4099      69737465 
 4099      6E657200 
 4100              	.LASF36:
 4101 0295 705F6D74 		.ascii	"p_mtxlist\000"
 4101      786C6973 
 4101      7400
 4102              	.LASF3:
 4103 029f 73686F72 		.ascii	"short int\000"
 4103      7420696E 
 4103      7400
 4104              	.LASF28:
 4105 02a9 705F7374 		.ascii	"p_state\000"
 4105      61746500 
 4106              	.LASF45:
 4107 02b1 725F7072 		.ascii	"r_prio\000"
 4107      696F00
 4108              	.LASF66:
 4109 02b8 65776D61 		.ascii	"ewmask\000"
 4109      736B00
 4110              	.LASF22:
 4111 02bf 705F6E65 		.ascii	"p_next\000"
 4111      787400
 4112              	.LASF29:
 4113 02c6 705F666C 		.ascii	"p_flags\000"
 4113      61677300 
 4114              	.LASF74:
 4115 02ce 63684576 		.ascii	"chEvtBroadcastI\000"
 4115      7442726F 
 4115      61646361 
 4115      73744900 
 4116              	.LASF87:
 4117 02de 63686962 		.ascii	"chibios/os/kernel/src/chevents.c\000"
 4117      696F732F 
 4117      6F732F6B 
 4117      65726E65 
 4117      6C2F7372 
 4118              	.LASF21:
 4119 02ff 54687265 		.ascii	"Thread\000"
 4119      616400
 4120              	.LASF35:
 4121 0306 705F6570 		.ascii	"p_epending\000"
 4121      656E6469 
 4121      6E6700
 4122              	.LASF8:
 4123 0311 75696E74 		.ascii	"uint32_t\000"
 4123      33325F74 
 4123      00
 4124              	.LASF44:
 4125 031a 725F7175 		.ascii	"r_queue\000"
 4125      65756500 
 4126              	.LASF55:
 4127 0322 6D5F6E65 		.ascii	"m_next\000"
 4127      787400
 4128              	.LASF19:
 4129 0329 73797374 		.ascii	"systime_t\000"
 4129      696D655F 
ARM GAS  /tmp/ccVkfzR7.s 			page 78


 4129      7400
 4130              	.LASF37:
 4131 0333 705F7265 		.ascii	"p_realprio\000"
 4131      616C7072 
 4131      696F00
 4132              	.LASF31:
 4133 033e 705F7469 		.ascii	"p_time\000"
 4133      6D6500
 4134              	.LASF43:
 4135 0345 696E7463 		.ascii	"intctx\000"
 4135      747800
 4136              	.LASF33:
 4137 034c 705F6D73 		.ascii	"p_msgqueue\000"
 4137      67717565 
 4137      756500
 4138              	.LASF30:
 4139 0357 705F7265 		.ascii	"p_refs\000"
 4139      667300
 4140              	.LASF51:
 4141 035e 52656164 		.ascii	"ReadyList\000"
 4141      794C6973 
 4141      7400
 4142              	.LASF85:
 4143 0368 726C6973 		.ascii	"rlist\000"
 4143      7400
 4144              	.LASF5:
 4145 036e 75696E74 		.ascii	"uint8_t\000"
 4145      385F7400 
 4146              	.LASF56:
 4147 0376 4576656E 		.ascii	"EventListener\000"
 4147      744C6973 
 4147      74656E65 
 4147      7200
 4148              	.LASF81:
 4149 0384 63684576 		.ascii	"chEvtWaitOneTimeout\000"
 4149      74576169 
 4149      744F6E65 
 4149      54696D65 
 4149      6F757400 
 4150              	.LASF86:
 4151 0398 474E5520 		.ascii	"GNU C 4.5.1\000"
 4151      4320342E 
 4151      352E3100 
 4152              	.LASF61:
 4153 03a4 65735F6E 		.ascii	"es_next\000"
 4153      65787400 
 4154              	.LASF49:
 4155 03ac 725F7072 		.ascii	"r_preempt\000"
 4155      65656D70 
 4155      7400
 4156              	.LASF54:
 4157 03b6 6D5F6F77 		.ascii	"m_owner\000"
 4157      6E657200 
 4158              	.LASF25:
 4159 03be 705F6374 		.ascii	"p_ctx\000"
 4159      7800
 4160              	.LASF32:
ARM GAS  /tmp/ccVkfzR7.s 			page 79


 4161 03c4 705F7761 		.ascii	"p_waiting\000"
 4161      6974696E 
 4161      6700
 4162              	.LASF72:
 4163 03ce 63684576 		.ascii	"chEvtSignalI\000"
 4163      74536967 
 4163      6E616C49 
 4163      00
 4164              		.ident	"GCC: (GNU) 4.5.1"
ARM GAS  /tmp/ccVkfzR7.s 			page 80


DEFINED SYMBOLS
                            *ABS*:0000000000000000 chevents.c
     /tmp/ccVkfzR7.s:24     .text.chEvtRegisterMask:0000000000000000 $t
     /tmp/ccVkfzR7.s:30     .text.chEvtRegisterMask:0000000000000000 chEvtRegisterMask
     /tmp/ccVkfzR7.s:89     .text.chEvtUnregister:0000000000000000 $t
     /tmp/ccVkfzR7.s:95     .text.chEvtUnregister:0000000000000000 chEvtUnregister
     /tmp/ccVkfzR7.s:162    .text.chEvtClearFlags:0000000000000000 $t
     /tmp/ccVkfzR7.s:168    .text.chEvtClearFlags:0000000000000000 chEvtClearFlags
     /tmp/ccVkfzR7.s:222    .text.chEvtAddFlags:0000000000000000 $t
     /tmp/ccVkfzR7.s:228    .text.chEvtAddFlags:0000000000000000 chEvtAddFlags
     /tmp/ccVkfzR7.s:276    .text.chEvtSignalI:0000000000000000 $t
     /tmp/ccVkfzR7.s:282    .text.chEvtSignalI:0000000000000000 chEvtSignalI
     /tmp/ccVkfzR7.s:340    .text.chEvtSignal:0000000000000000 $t
     /tmp/ccVkfzR7.s:346    .text.chEvtSignal:0000000000000000 chEvtSignal
     /tmp/ccVkfzR7.s:389    .text.chEvtBroadcastI:0000000000000000 $t
     /tmp/ccVkfzR7.s:395    .text.chEvtBroadcastI:0000000000000000 chEvtBroadcastI
     /tmp/ccVkfzR7.s:435    .text.chEvtBroadcast:0000000000000000 $t
     /tmp/ccVkfzR7.s:441    .text.chEvtBroadcast:0000000000000000 chEvtBroadcast
     /tmp/ccVkfzR7.s:484    .text.chEvtDispatch:0000000000000000 $t
     /tmp/ccVkfzR7.s:490    .text.chEvtDispatch:0000000000000000 chEvtDispatch
     /tmp/ccVkfzR7.s:549    .text.chEvtWaitOne:0000000000000000 $t
     /tmp/ccVkfzR7.s:555    .text.chEvtWaitOne:0000000000000000 chEvtWaitOne
     /tmp/ccVkfzR7.s:627    .text.chEvtWaitAny:0000000000000000 $t
     /tmp/ccVkfzR7.s:633    .text.chEvtWaitAny:0000000000000000 chEvtWaitAny
     /tmp/ccVkfzR7.s:702    .text.chEvtWaitAll:0000000000000000 $t
     /tmp/ccVkfzR7.s:708    .text.chEvtWaitAll:0000000000000000 chEvtWaitAll
     /tmp/ccVkfzR7.s:774    .text.chEvtWaitOneTimeout:0000000000000000 $t
     /tmp/ccVkfzR7.s:780    .text.chEvtWaitOneTimeout:0000000000000000 chEvtWaitOneTimeout
     /tmp/ccVkfzR7.s:888    .text.chEvtWaitAnyTimeout:0000000000000000 $t
     /tmp/ccVkfzR7.s:894    .text.chEvtWaitAnyTimeout:0000000000000000 chEvtWaitAnyTimeout
     /tmp/ccVkfzR7.s:998    .text.chEvtWaitAllTimeout:0000000000000000 $t
     /tmp/ccVkfzR7.s:1004   .text.chEvtWaitAllTimeout:0000000000000000 chEvtWaitAllTimeout
                     .debug_frame:0000000000000010 $d

UNDEFINED SYMBOLS
rlist
chSchReadyI
chSchRescheduleS
chSchGoSleepS
chSchGoSleepTimeoutS
