ARM GAS  /tmp/ccePAp3r.s 			page 1


   1              		.syntax unified
   2              		.cpu cortex-m3
   3              		.fpu softvfp
   4              		.eabi_attribute 20, 1
   5              		.eabi_attribute 21, 1
   6              		.eabi_attribute 23, 3
   7              		.eabi_attribute 24, 1
   8              		.eabi_attribute 25, 1
   9              		.eabi_attribute 26, 1
  10              		.eabi_attribute 30, 2
  11              		.eabi_attribute 18, 4
  12              		.thumb
  13              		.file	"chevents.c"
  20 0000 E7020000 		.text
  20      02004501 
  20      00000201 
  20      FB0E0D00 
  20      01010101 
  21              	.Ltext0:
  22              		.cfi_sections	.debug_frame
  23              		.section	.text.chEvtRegisterMask,"ax",%progbits
  24              		.align	2
  25              		.p2align 4,,15
  26              		.global	chEvtRegisterMask
  27              		.thumb
  28              		.thumb_func
  29              		.type	chEvtRegisterMask, %function
  30              	chEvtRegisterMask:
  31              	.LFB7:
  32              		.file 1 "../../os/kernel/src/chevents.c"
  33              		.loc 1 81 0
  34              		.cfi_startproc
  35              		@ args = 0, pretend = 0, frame = 0
  36              		@ frame_needed = 0, uses_anonymous_args = 0
  37              		@ link register save eliminated.
  38              	.LVL0:
  39 0000 10B4     		push	{r4}
  40              	.LCFI0:
  41              		.cfi_def_cfa_offset 4
  42              	.LBB2:
  43              		.loc 1 85 0
  44 0002 2023     		movs	r3, #32
  45              	.LVL1:
  46              	@ 85 "../../os/kernel/src/chevents.c" 1
  47 0004 83F31188 		msr     BASEPRI, r3
  48              	@ 0 "" 2
  49              		.thumb
  50              	.LBE2:
  51              		.loc 1 88 0
  52 0008 40F20004 		movw	r4, #:lower16:rlist
  53              		.cfi_offset 4, -4
ARM GAS  /tmp/ccePAp3r.s 			page 2


  54 000c C0F20004 		movt	r4, #:upper16:rlist
  55 0010 E369     		ldr	r3, [r4, #28]
  56              	.LVL2:
  57              		.loc 1 86 0
  58 0012 0468     		ldr	r4, [r0, #0]
  59              		.loc 1 88 0
  60 0014 4B60     		str	r3, [r1, #4]
  61              		.loc 1 86 0
  62 0016 0C60     		str	r4, [r1, #0]
  63              		.loc 1 89 0
  64 0018 8A60     		str	r2, [r1, #8]
  65              		.loc 1 87 0
  66 001a 0160     		str	r1, [r0, #0]
  67              	.LBB3:
  68              		.loc 1 90 0
  69 001c 0023     		movs	r3, #0
  70              	.LVL3:
  71              	@ 90 "../../os/kernel/src/chevents.c" 1
  72 001e 83F31188 		msr     BASEPRI, r3
  73              	@ 0 "" 2
  74              		.thumb
  75              	.LBE3:
  76              		.loc 1 91 0
  77 0022 10BC     		pop	{r4}
  78 0024 7047     		bx	lr
  79              		.cfi_endproc
  80              	.LFE7:
  81              		.size	chEvtRegisterMask, .-chEvtRegisterMask
  82 0026 00BFAFF3 		.section	.text.chEvtUnregister,"ax",%progbits
  82      0080AFF3 
  82      0080
  83              		.align	2
  84              		.p2align 4,,15
  85              		.global	chEvtUnregister
  86              		.thumb
  87              		.thumb_func
  88              		.type	chEvtUnregister, %function
  89              	chEvtUnregister:
  90              	.LFB8:
  91              		.loc 1 106 0
  92              		.cfi_startproc
  93              		@ args = 0, pretend = 0, frame = 0
  94              		@ frame_needed = 0, uses_anonymous_args = 0
  95              		@ link register save eliminated.
  96              	.LVL4:
  97              	.LBB4:
  98              		.loc 1 112 0
  99 0000 2023     		movs	r3, #32
 100              	.LVL5:
 101              	@ 112 "../../os/kernel/src/chevents.c" 1
 102 0002 83F31188 		msr     BASEPRI, r3
 103              	@ 0 "" 2
 104              		.thumb
 105 0006 0246     		mov	r2, r0
 106              	.LVL6:
 107              	.LBE4:
 108              		.loc 1 113 0
ARM GAS  /tmp/ccePAp3r.s 			page 3


 109 0008 02E0     		b	.L4
 110              	.LVL7:
 111              	.L7:
 112              		.loc 1 114 0
 113 000a 9942     		cmp	r1, r3
 114 000c 07D0     		beq	.L10
 115              		.loc 1 116 0
 116 000e 1A46     		mov	r2, r3
 117              	.LVL8:
 118              	.L4:
 119              		.loc 1 113 0
 120 0010 1368     		ldr	r3, [r2, #0]
 121              	.LVL9:
 122 0012 9842     		cmp	r0, r3
 123 0014 F9D1     		bne	.L7
 124              	.LBB5:
 125              		.loc 1 120 0
 126 0016 0023     		movs	r3, #0
 127              	.LVL10:
 128              	@ 120 "../../os/kernel/src/chevents.c" 1
 129 0018 83F31188 		msr     BASEPRI, r3
 130              	@ 0 "" 2
 131              		.thumb
 132              	.LBE5:
 133              		.loc 1 121 0
 134 001c 7047     		bx	lr
 135              	.LVL11:
 136              	.L10:
 137              		.loc 1 115 0
 138 001e 0B68     		ldr	r3, [r1, #0]
 139              	.LVL12:
 140 0020 1360     		str	r3, [r2, #0]
 141              	.LVL13:
 142              	.LBB6:
 143              		.loc 1 120 0
 144 0022 0023     		movs	r3, #0
 145              	.LVL14:
 146              	@ 120 "../../os/kernel/src/chevents.c" 1
 147 0024 83F31188 		msr     BASEPRI, r3
 148              	@ 0 "" 2
 149              		.thumb
 150              	.LBE6:
 151              		.loc 1 121 0
 152 0028 7047     		bx	lr
 153              		.cfi_endproc
 154              	.LFE8:
 155              		.size	chEvtUnregister, .-chEvtUnregister
 156 002a 00BFAFF3 		.section	.text.chEvtClearFlags,"ax",%progbits
 156      0080
 157              		.align	2
 158              		.p2align 4,,15
 159              		.global	chEvtClearFlags
 160              		.thumb
 161              		.thumb_func
 162              		.type	chEvtClearFlags, %function
 163              	chEvtClearFlags:
 164              	.LFB9:
ARM GAS  /tmp/ccePAp3r.s 			page 4


 165              		.loc 1 131 0
 166              		.cfi_startproc
 167              		@ args = 0, pretend = 0, frame = 0
 168              		@ frame_needed = 0, uses_anonymous_args = 0
 169              		@ link register save eliminated.
 170              	.LVL15:
 171 0000 10B4     		push	{r4}
 172              	.LCFI1:
 173              		.cfi_def_cfa_offset 4
 174              	.LBB7:
 175              		.loc 1 134 0
 176 0002 2023     		movs	r3, #32
 177              	.LVL16:
 178              	@ 134 "../../os/kernel/src/chevents.c" 1
 179 0004 83F31188 		msr     BASEPRI, r3
 180              	@ 0 "" 2
 181              		.thumb
 182              	.LBE7:
 183              		.loc 1 136 0
 184 0008 40F20003 		movw	r3, #:lower16:rlist
 185              	.LVL17:
 186 000c C0F20003 		movt	r3, #:upper16:rlist
 187 0010 D969     		ldr	r1, [r3, #28]
 188              	.LBB8:
 189              		.loc 1 139 0
 190 0012 0023     		movs	r3, #0
 191              	.LVL18:
 192              	.LBE8:
 193              		.loc 1 136 0
 194 0014 4A6B     		ldr	r2, [r1, #52]
 195              		.loc 1 137 0
 196 0016 22EA0004 		bic	r4, r2, r0
 197              		.cfi_offset 4, -4
 198 001a 4C63     		str	r4, [r1, #52]
 199              	.LBB9:
 200              		.loc 1 139 0
 201              	@ 139 "../../os/kernel/src/chevents.c" 1
 202 001c 83F31188 		msr     BASEPRI, r3
 203              	@ 0 "" 2
 204              		.thumb
 205              	.LBE9:
 206              		.loc 1 141 0
 207 0020 1040     		ands	r0, r0, r2
 208              	.LVL19:
 209 0022 10BC     		pop	{r4}
 210 0024 7047     		bx	lr
 211              		.cfi_endproc
 212              	.LFE9:
 213              		.size	chEvtClearFlags, .-chEvtClearFlags
 214 0026 00BFAFF3 		.section	.text.chEvtAddFlags,"ax",%progbits
 214      0080AFF3 
 214      0080
 215              		.align	2
 216              		.p2align 4,,15
 217              		.global	chEvtAddFlags
 218              		.thumb
 219              		.thumb_func
ARM GAS  /tmp/ccePAp3r.s 			page 5


 220              		.type	chEvtAddFlags, %function
 221              	chEvtAddFlags:
 222              	.LFB10:
 223              		.loc 1 152 0
 224              		.cfi_startproc
 225              		@ args = 0, pretend = 0, frame = 0
 226              		@ frame_needed = 0, uses_anonymous_args = 0
 227              		@ link register save eliminated.
 228              	.LVL20:
 229              	.LBB10:
 230              		.loc 1 154 0
 231 0000 2023     		movs	r3, #32
 232              	.LVL21:
 233              	@ 154 "../../os/kernel/src/chevents.c" 1
 234 0002 83F31188 		msr     BASEPRI, r3
 235              	@ 0 "" 2
 236              		.thumb
 237              	.LBE10:
 238              		.loc 1 156 0
 239 0006 40F20003 		movw	r3, #:lower16:rlist
 240              	.LVL22:
 241 000a C0F20003 		movt	r3, #:upper16:rlist
 242 000e DA69     		ldr	r2, [r3, #28]
 243              	.LBB11:
 244              		.loc 1 158 0
 245 0010 0023     		movs	r3, #0
 246              	.LVL23:
 247              	.LBE11:
 248              		.loc 1 156 0
 249 0012 516B     		ldr	r1, [r2, #52]
 250 0014 0843     		orrs	r0, r0, r1
 251              	.LVL24:
 252 0016 5063     		str	r0, [r2, #52]
 253              	.LBB12:
 254              		.loc 1 158 0
 255              	@ 158 "../../os/kernel/src/chevents.c" 1
 256 0018 83F31188 		msr     BASEPRI, r3
 257              	@ 0 "" 2
 258              		.thumb
 259              	.LBE12:
 260              		.loc 1 160 0
 261 001c 7047     		bx	lr
 262              		.cfi_endproc
 263              	.LFE10:
 264              		.size	chEvtAddFlags, .-chEvtAddFlags
 265 001e 00BF     		.section	.text.chEvtDispatch,"ax",%progbits
 266              		.align	2
 267              		.p2align 4,,15
 268              		.global	chEvtDispatch
 269              		.thumb
 270              		.thumb_func
 271              		.type	chEvtDispatch, %function
 272              	chEvtDispatch:
 273              	.LFB15:
 274              		.loc 1 254 0
 275              		.cfi_startproc
 276              		@ args = 0, pretend = 0, frame = 0
ARM GAS  /tmp/ccePAp3r.s 			page 6


 277              		@ frame_needed = 0, uses_anonymous_args = 0
 278              	.LVL25:
 279 0000 F8B5     		push	{r3, r4, r5, r6, r7, lr}
 280              	.LCFI2:
 281              		.cfi_def_cfa_offset 24
 282              		.loc 1 254 0
 283 0002 0546     		mov	r5, r0
 284              		.cfi_offset 14, -4
 285              		.cfi_offset 7, -8
 286              		.cfi_offset 6, -12
 287              		.cfi_offset 5, -16
 288              		.cfi_offset 4, -20
 289              		.cfi_offset 3, -24
 290              		.loc 1 260 0
 291 0004 0C46     		mov	r4, r1
 292 0006 99B1     		cbz	r1, .L19
 293              	.LVL26:
 294 0008 0026     		movs	r6, #0
 295              	.LVL27:
 296              		.loc 1 261 0
 297 000a 0127     		movs	r7, #1
 298 000c 17FA06F3 		lsls	r3, r7, r6
 299 0010 2342     		tst	r3, r4
 300 0012 05D1     		bne	.L20
 301              	.LVL28:
 302              	.L17:
 303              		.loc 1 260 0
 304 0014 64B1     		cbz	r4, .L19
 305              	.L21:
 306              		.loc 1 268 0
 307 0016 0136     		adds	r6, r6, #1
 308              		.loc 1 261 0
 309 0018 17FA06F3 		lsls	r3, r7, r6
 310 001c 2342     		tst	r3, r4
 311 001e F9D0     		beq	.L17
 312              	.L20:
 313              		.loc 1 265 0
 314 0020 24EA0304 		bic	r4, r4, r3
 315              		.loc 1 266 0
 316 0024 55F82620 		ldr	r2, [r5, r6, lsl #2]
 317 0028 3046     		mov	r0, r6
 318 002a 9047     		blx	r2
 319              		.loc 1 260 0
 320 002c 002C     		cmp	r4, #0
 321 002e F2D1     		bne	.L21
 322              	.LVL29:
 323              	.L19:
 324 0030 F8BD     		pop	{r3, r4, r5, r6, r7, pc}
 325              		.cfi_endproc
 326              	.LFE15:
 327              		.size	chEvtDispatch, .-chEvtDispatch
 328 0032 00BFAFF3 		.section	.text.chEvtWaitAllTimeout,"ax",%progbits
 328      0080AFF3 
 328      0080AFF3 
 328      0080
 329              		.align	2
 330              		.p2align 4,,15
ARM GAS  /tmp/ccePAp3r.s 			page 7


 331              		.global	chEvtWaitAllTimeout
 332              		.thumb
 333              		.thumb_func
 334              		.type	chEvtWaitAllTimeout, %function
 335              	chEvtWaitAllTimeout:
 336              	.LFB21:
 337              		.loc 1 469 0
 338              		.cfi_startproc
 339              		@ args = 0, pretend = 0, frame = 0
 340              		@ frame_needed = 0, uses_anonymous_args = 0
 341              	.LVL30:
 342 0000 38B5     		push	{r3, r4, r5, lr}
 343              	.LCFI3:
 344              		.cfi_def_cfa_offset 16
 345              		.loc 1 470 0
 346 0002 40F20003 		movw	r3, #:lower16:rlist
 347              		.cfi_offset 14, -4
 348              		.cfi_offset 5, -8
 349              		.cfi_offset 4, -12
 350              		.cfi_offset 3, -16
 351 0006 C0F20003 		movt	r3, #:upper16:rlist
 352 000a DD69     		ldr	r5, [r3, #28]
 353              	.LVL31:
 354              		.loc 1 469 0
 355 000c 0446     		mov	r4, r0
 356              	.LBB13:
 357              		.loc 1 472 0
 358 000e 2023     		movs	r3, #32
 359              	.LVL32:
 360              	@ 472 "../../os/kernel/src/chevents.c" 1
 361 0010 83F31188 		msr     BASEPRI, r3
 362              	@ 0 "" 2
 363              		.thumb
 364              	.LBE13:
 365              		.loc 1 474 0
 366 0014 6B6B     		ldr	r3, [r5, #52]
 367              	.LVL33:
 368 0016 1840     		ands	r0, r0, r3
 369              	.LVL34:
 370 0018 A042     		cmp	r0, r4
 371 001a 0ED0     		beq	.L23
 372              		.loc 1 475 0
 373 001c 29B9     		cbnz	r1, .L24
 374              	.LBB14:
 375              		.loc 1 476 0
 376 001e 0B46     		mov	r3, r1
 377              	.LVL35:
 378              	@ 476 "../../os/kernel/src/chevents.c" 1
 379 0020 83F31188 		msr     BASEPRI, r3
 380              	@ 0 "" 2
 381              		.thumb
 382 0024 0C46     		mov	r4, r1
 383              	.LBE14:
 384              		.loc 1 489 0
 385 0026 2046     		mov	r0, r4
 386 0028 38BD     		pop	{r3, r4, r5, pc}
 387              	.LVL36:
ARM GAS  /tmp/ccePAp3r.s 			page 8


 388              	.L24:
 389              		.loc 1 480 0
 390 002a 0920     		movs	r0, #9
 391              		.loc 1 479 0
 392 002c 2C62     		str	r4, [r5, #32]
 393              		.loc 1 480 0
 394 002e FFF7FEFF 		bl	chSchGoSleepTimeoutS
 395              	.LVL37:
 396 0032 0028     		cmp	r0, #0
 397 0034 A8BF     		it	ge
 398 0036 6B6B     		ldrge	r3, [r5, #52]
 399 0038 07DB     		blt	.L28
 400              	.LVL38:
 401              	.L23:
 402              		.loc 1 485 0
 403 003a 23EA0401 		bic	r1, r3, r4
 404              	.LVL39:
 405 003e 6963     		str	r1, [r5, #52]
 406              	.LBB15:
 407              		.loc 1 487 0
 408 0040 0023     		movs	r3, #0
 409              	.LVL40:
 410              	@ 487 "../../os/kernel/src/chevents.c" 1
 411 0042 83F31188 		msr     BASEPRI, r3
 412              	@ 0 "" 2
 413              	.LVL41:
 414              		.thumb
 415              	.L25:
 416              	.LBE15:
 417              		.loc 1 489 0
 418 0046 2046     		mov	r0, r4
 419 0048 38BD     		pop	{r3, r4, r5, pc}
 420              	.LVL42:
 421              	.L28:
 422              	.LBB16:
 423              		.loc 1 481 0
 424 004a 0023     		movs	r3, #0
 425              	.LVL43:
 426              	@ 481 "../../os/kernel/src/chevents.c" 1
 427 004c 83F31188 		msr     BASEPRI, r3
 428              	@ 0 "" 2
 429              		.thumb
 430 0050 1C46     		mov	r4, r3
 431              	.LBE16:
 432              		.loc 1 482 0
 433 0052 F8E7     		b	.L25
 434              		.cfi_endproc
 435              	.LFE21:
 436              		.size	chEvtWaitAllTimeout, .-chEvtWaitAllTimeout
 437 0054 AFF30080 		.section	.text.chEvtWaitAnyTimeout,"ax",%progbits
 437      AFF30080 
 437      AFF30080 
 438              		.align	2
 439              		.p2align 4,,15
 440              		.global	chEvtWaitAnyTimeout
 441              		.thumb
 442              		.thumb_func
ARM GAS  /tmp/ccePAp3r.s 			page 9


 443              		.type	chEvtWaitAnyTimeout, %function
 444              	chEvtWaitAnyTimeout:
 445              	.LFB20:
 446              		.loc 1 428 0
 447              		.cfi_startproc
 448              		@ args = 0, pretend = 0, frame = 0
 449              		@ frame_needed = 0, uses_anonymous_args = 0
 450              	.LVL44:
 451              		.loc 1 429 0
 452 0000 40F20003 		movw	r3, #:lower16:rlist
 453 0004 C0F20003 		movt	r3, #:upper16:rlist
 454              		.loc 1 428 0
 455 0008 70B5     		push	{r4, r5, r6, lr}
 456              	.LCFI4:
 457              		.cfi_def_cfa_offset 16
 458              		.loc 1 429 0
 459 000a DE69     		ldr	r6, [r3, #28]
 460              		.cfi_offset 14, -4
 461              		.cfi_offset 6, -8
 462              		.cfi_offset 5, -12
 463              		.cfi_offset 4, -16
 464              	.LVL45:
 465              		.loc 1 428 0
 466 000c 0446     		mov	r4, r0
 467              	.LBB17:
 468              		.loc 1 432 0
 469 000e 2023     		movs	r3, #32
 470              	.LVL46:
 471              	@ 432 "../../os/kernel/src/chevents.c" 1
 472 0010 83F31188 		msr     BASEPRI, r3
 473              	@ 0 "" 2
 474              		.thumb
 475              	.LBE17:
 476              		.loc 1 434 0
 477 0014 736B     		ldr	r3, [r6, #52]
 478              	.LVL47:
 479 0016 10EA0305 		ands	r5, r0, r3
 480              	.LVL48:
 481 001a 0ED1     		bne	.L30
 482              		.loc 1 435 0
 483 001c 21B9     		cbnz	r1, .L31
 484              	.LBB18:
 485              		.loc 1 436 0
 486 001e 2B46     		mov	r3, r5
 487              	.LVL49:
 488              	@ 436 "../../os/kernel/src/chevents.c" 1
 489 0020 83F31188 		msr     BASEPRI, r3
 490              	@ 0 "" 2
 491              		.thumb
 492              	.LBE18:
 493              		.loc 1 450 0
 494 0024 2846     		mov	r0, r5
 495              	.LVL50:
 496 0026 70BD     		pop	{r4, r5, r6, pc}
 497              	.LVL51:
 498              	.L31:
 499              		.loc 1 439 0
ARM GAS  /tmp/ccePAp3r.s 			page 10


 500 0028 3062     		str	r0, [r6, #32]
 501              		.loc 1 440 0
 502 002a 0820     		movs	r0, #8
 503              	.LVL52:
 504 002c FFF7FEFF 		bl	chSchGoSleepTimeoutS
 505              	.LVL53:
 506 0030 0028     		cmp	r0, #0
 507 0032 0ADB     		blt	.L35
 508              		.loc 1 444 0
 509 0034 736B     		ldr	r3, [r6, #52]
 510 0036 04EA0305 		and	r5, r4, r3
 511              	.LVL54:
 512              	.L30:
 513              		.loc 1 446 0
 514 003a 23EA0500 		bic	r0, r3, r5
 515 003e 7063     		str	r0, [r6, #52]
 516              	.LBB19:
 517              		.loc 1 448 0
 518 0040 0023     		movs	r3, #0
 519              	.LVL55:
 520              	@ 448 "../../os/kernel/src/chevents.c" 1
 521 0042 83F31188 		msr     BASEPRI, r3
 522              	@ 0 "" 2
 523              	.LVL56:
 524              		.thumb
 525              	.L32:
 526              	.LBE19:
 527              		.loc 1 450 0
 528 0046 2846     		mov	r0, r5
 529 0048 70BD     		pop	{r4, r5, r6, pc}
 530              	.LVL57:
 531              	.L35:
 532              	.LBB20:
 533              		.loc 1 441 0
 534 004a 2B46     		mov	r3, r5
 535              	.LVL58:
 536              	@ 441 "../../os/kernel/src/chevents.c" 1
 537 004c 83F31188 		msr     BASEPRI, r3
 538              	@ 0 "" 2
 539              		.thumb
 540              	.LBE20:
 541              		.loc 1 442 0
 542 0050 F9E7     		b	.L32
 543              		.cfi_endproc
 544              	.LFE20:
 545              		.size	chEvtWaitAnyTimeout, .-chEvtWaitAnyTimeout
 546 0052 00BFAFF3 		.section	.text.chEvtWaitOneTimeout,"ax",%progbits
 546      0080AFF3 
 546      0080AFF3 
 546      0080
 547              		.align	2
 548              		.p2align 4,,15
 549              		.global	chEvtWaitOneTimeout
 550              		.thumb
 551              		.thumb_func
 552              		.type	chEvtWaitOneTimeout, %function
 553              	chEvtWaitOneTimeout:
ARM GAS  /tmp/ccePAp3r.s 			page 11


 554              	.LFB19:
 555              		.loc 1 385 0
 556              		.cfi_startproc
 557              		@ args = 0, pretend = 0, frame = 0
 558              		@ frame_needed = 0, uses_anonymous_args = 0
 559              	.LVL59:
 560              		.loc 1 386 0
 561 0000 40F20003 		movw	r3, #:lower16:rlist
 562 0004 C0F20003 		movt	r3, #:upper16:rlist
 563              		.loc 1 385 0
 564 0008 70B5     		push	{r4, r5, r6, lr}
 565              	.LCFI5:
 566              		.cfi_def_cfa_offset 16
 567              		.loc 1 386 0
 568 000a DE69     		ldr	r6, [r3, #28]
 569              		.cfi_offset 14, -4
 570              		.cfi_offset 6, -8
 571              		.cfi_offset 5, -12
 572              		.cfi_offset 4, -16
 573              	.LVL60:
 574              		.loc 1 385 0
 575 000c 0546     		mov	r5, r0
 576              	.LBB21:
 577              		.loc 1 389 0
 578 000e 2023     		movs	r3, #32
 579              	.LVL61:
 580              	@ 389 "../../os/kernel/src/chevents.c" 1
 581 0010 83F31188 		msr     BASEPRI, r3
 582              	@ 0 "" 2
 583              		.thumb
 584              	.LBE21:
 585              		.loc 1 391 0
 586 0014 736B     		ldr	r3, [r6, #52]
 587              	.LVL62:
 588 0016 10EA0304 		ands	r4, r0, r3
 589              	.LVL63:
 590 001a 0ED1     		bne	.L37
 591              		.loc 1 392 0
 592 001c 21B9     		cbnz	r1, .L38
 593              	.LBB22:
 594              		.loc 1 393 0
 595 001e 2346     		mov	r3, r4
 596              	.LVL64:
 597              	@ 393 "../../os/kernel/src/chevents.c" 1
 598 0020 83F31188 		msr     BASEPRI, r3
 599              	@ 0 "" 2
 600              		.thumb
 601              	.LBE22:
 602              		.loc 1 408 0
 603 0024 2046     		mov	r0, r4
 604              	.LVL65:
 605 0026 70BD     		pop	{r4, r5, r6, pc}
 606              	.LVL66:
 607              	.L38:
 608              		.loc 1 396 0
 609 0028 3062     		str	r0, [r6, #32]
 610              		.loc 1 397 0
ARM GAS  /tmp/ccePAp3r.s 			page 12


 611 002a 0820     		movs	r0, #8
 612              	.LVL67:
 613 002c FFF7FEFF 		bl	chSchGoSleepTimeoutS
 614              	.LVL68:
 615 0030 0028     		cmp	r0, #0
 616 0032 0CDB     		blt	.L42
 617              		.loc 1 401 0
 618 0034 736B     		ldr	r3, [r6, #52]
 619 0036 05EA0304 		and	r4, r5, r3
 620              	.LVL69:
 621              	.L37:
 622              		.loc 1 403 0
 623 003a 6242     		negs	r2, r4
 624 003c 1440     		ands	r4, r4, r2
 625              		.loc 1 404 0
 626 003e 23EA0400 		bic	r0, r3, r4
 627 0042 7063     		str	r0, [r6, #52]
 628              	.LBB23:
 629              		.loc 1 406 0
 630 0044 0023     		movs	r3, #0
 631              	.LVL70:
 632              	@ 406 "../../os/kernel/src/chevents.c" 1
 633 0046 83F31188 		msr     BASEPRI, r3
 634              	@ 0 "" 2
 635              	.LVL71:
 636              		.thumb
 637              	.L39:
 638              	.LBE23:
 639              		.loc 1 408 0
 640 004a 2046     		mov	r0, r4
 641 004c 70BD     		pop	{r4, r5, r6, pc}
 642              	.LVL72:
 643              	.L42:
 644              	.LBB24:
 645              		.loc 1 398 0
 646 004e 2346     		mov	r3, r4
 647              	.LVL73:
 648              	@ 398 "../../os/kernel/src/chevents.c" 1
 649 0050 83F31188 		msr     BASEPRI, r3
 650              	@ 0 "" 2
 651              		.thumb
 652              	.LBE24:
 653              		.loc 1 399 0
 654 0054 F9E7     		b	.L39
 655              		.cfi_endproc
 656              	.LFE19:
 657              		.size	chEvtWaitOneTimeout, .-chEvtWaitOneTimeout
 658 0056 00BFAFF3 		.section	.text.chEvtWaitAll,"ax",%progbits
 658      0080AFF3 
 658      0080
 659              		.align	2
 660              		.p2align 4,,15
 661              		.global	chEvtWaitAll
 662              		.thumb
 663              		.thumb_func
 664              		.type	chEvtWaitAll, %function
 665              	chEvtWaitAll:
ARM GAS  /tmp/ccePAp3r.s 			page 13


 666              	.LFB18:
 667              		.loc 1 346 0
 668              		.cfi_startproc
 669              		@ args = 0, pretend = 0, frame = 0
 670              		@ frame_needed = 0, uses_anonymous_args = 0
 671              	.LVL74:
 672 0000 38B5     		push	{r3, r4, r5, lr}
 673              	.LCFI6:
 674              		.cfi_def_cfa_offset 16
 675              		.loc 1 347 0
 676 0002 40F20003 		movw	r3, #:lower16:rlist
 677              		.cfi_offset 14, -4
 678              		.cfi_offset 5, -8
 679              		.cfi_offset 4, -12
 680              		.cfi_offset 3, -16
 681 0006 C0F20003 		movt	r3, #:upper16:rlist
 682 000a DD69     		ldr	r5, [r3, #28]
 683              	.LVL75:
 684              		.loc 1 346 0
 685 000c 0446     		mov	r4, r0
 686              	.LBB25:
 687              		.loc 1 349 0
 688 000e 2023     		movs	r3, #32
 689              	.LVL76:
 690              	@ 349 "../../os/kernel/src/chevents.c" 1
 691 0010 83F31188 		msr     BASEPRI, r3
 692              	@ 0 "" 2
 693              		.thumb
 694              	.LBE25:
 695              		.loc 1 351 0
 696 0014 6B6B     		ldr	r3, [r5, #52]
 697              	.LVL77:
 698 0016 00EA0302 		and	r2, r0, r3
 699 001a 8242     		cmp	r2, r0
 700 001c 04D0     		beq	.L44
 701              		.loc 1 352 0
 702 001e 2862     		str	r0, [r5, #32]
 703              		.loc 1 353 0
 704 0020 0920     		movs	r0, #9
 705              	.LVL78:
 706 0022 FFF7FEFF 		bl	chSchGoSleepS
 707 0026 6B6B     		ldr	r3, [r5, #52]
 708              	.LVL79:
 709              	.L44:
 710              		.loc 1 355 0
 711 0028 23EA0400 		bic	r0, r3, r4
 712 002c 6863     		str	r0, [r5, #52]
 713              	.LBB26:
 714              		.loc 1 357 0
 715 002e 0023     		movs	r3, #0
 716              	.LVL80:
 717              	@ 357 "../../os/kernel/src/chevents.c" 1
 718 0030 83F31188 		msr     BASEPRI, r3
 719              	@ 0 "" 2
 720              		.thumb
 721              	.LBE26:
 722              		.loc 1 359 0
ARM GAS  /tmp/ccePAp3r.s 			page 14


 723 0034 2046     		mov	r0, r4
 724 0036 38BD     		pop	{r3, r4, r5, pc}
 725              		.cfi_endproc
 726              	.LFE18:
 727              		.size	chEvtWaitAll, .-chEvtWaitAll
 728 0038 AFF30080 		.section	.text.chEvtWaitAny,"ax",%progbits
 728      AFF30080 
 729              		.align	2
 730              		.p2align 4,,15
 731              		.global	chEvtWaitAny
 732              		.thumb
 733              		.thumb_func
 734              		.type	chEvtWaitAny, %function
 735              	chEvtWaitAny:
 736              	.LFB17:
 737              		.loc 1 318 0
 738              		.cfi_startproc
 739              		@ args = 0, pretend = 0, frame = 0
 740              		@ frame_needed = 0, uses_anonymous_args = 0
 741              	.LVL81:
 742 0000 38B5     		push	{r3, r4, r5, lr}
 743              	.LCFI7:
 744              		.cfi_def_cfa_offset 16
 745              		.loc 1 319 0
 746 0002 40F20003 		movw	r3, #:lower16:rlist
 747              		.cfi_offset 14, -4
 748              		.cfi_offset 5, -8
 749              		.cfi_offset 4, -12
 750              		.cfi_offset 3, -16
 751 0006 C0F20003 		movt	r3, #:upper16:rlist
 752 000a DC69     		ldr	r4, [r3, #28]
 753              	.LVL82:
 754              		.loc 1 318 0
 755 000c 0546     		mov	r5, r0
 756              	.LBB27:
 757              		.loc 1 322 0
 758 000e 2023     		movs	r3, #32
 759              	.LVL83:
 760              	@ 322 "../../os/kernel/src/chevents.c" 1
 761 0010 83F31188 		msr     BASEPRI, r3
 762              	@ 0 "" 2
 763              		.thumb
 764              	.LBE27:
 765              		.loc 1 324 0
 766 0014 636B     		ldr	r3, [r4, #52]
 767              	.LVL84:
 768 0016 1840     		ands	r0, r0, r3
 769              	.LVL85:
 770 0018 06D1     		bne	.L47
 771              		.loc 1 326 0
 772 001a 0820     		movs	r0, #8
 773              	.LVL86:
 774              		.loc 1 325 0
 775 001c 2562     		str	r5, [r4, #32]
 776              		.loc 1 326 0
 777 001e FFF7FEFF 		bl	chSchGoSleepS
 778              		.loc 1 327 0
ARM GAS  /tmp/ccePAp3r.s 			page 15


 779 0022 636B     		ldr	r3, [r4, #52]
 780 0024 05EA0300 		and	r0, r5, r3
 781              	.LVL87:
 782              	.L47:
 783              		.loc 1 329 0
 784 0028 23EA0001 		bic	r1, r3, r0
 785 002c 6163     		str	r1, [r4, #52]
 786              	.LBB28:
 787              		.loc 1 331 0
 788 002e 0023     		movs	r3, #0
 789              	.LVL88:
 790              	@ 331 "../../os/kernel/src/chevents.c" 1
 791 0030 83F31188 		msr     BASEPRI, r3
 792              	@ 0 "" 2
 793              	.LVL89:
 794              		.thumb
 795              	.LBE28:
 796              		.loc 1 333 0
 797 0034 38BD     		pop	{r3, r4, r5, pc}
 798              		.cfi_endproc
 799              	.LFE17:
 800              		.size	chEvtWaitAny, .-chEvtWaitAny
 801 0036 00BFAFF3 		.section	.text.chEvtWaitOne,"ax",%progbits
 801      0080AFF3 
 801      0080
 802              		.align	2
 803              		.p2align 4,,15
 804              		.global	chEvtWaitOne
 805              		.thumb
 806              		.thumb_func
 807              		.type	chEvtWaitOne, %function
 808              	chEvtWaitOne:
 809              	.LFB16:
 810              		.loc 1 289 0
 811              		.cfi_startproc
 812              		@ args = 0, pretend = 0, frame = 0
 813              		@ frame_needed = 0, uses_anonymous_args = 0
 814              	.LVL90:
 815 0000 38B5     		push	{r3, r4, r5, lr}
 816              	.LCFI8:
 817              		.cfi_def_cfa_offset 16
 818              		.loc 1 290 0
 819 0002 40F20003 		movw	r3, #:lower16:rlist
 820              		.cfi_offset 14, -4
 821              		.cfi_offset 5, -8
 822              		.cfi_offset 4, -12
 823              		.cfi_offset 3, -16
 824 0006 C0F20003 		movt	r3, #:upper16:rlist
 825 000a DC69     		ldr	r4, [r3, #28]
 826              	.LVL91:
 827              		.loc 1 289 0
 828 000c 0546     		mov	r5, r0
 829              	.LBB29:
 830              		.loc 1 293 0
 831 000e 2023     		movs	r3, #32
 832              	.LVL92:
 833              	@ 293 "../../os/kernel/src/chevents.c" 1
ARM GAS  /tmp/ccePAp3r.s 			page 16


 834 0010 83F31188 		msr     BASEPRI, r3
 835              	@ 0 "" 2
 836              		.thumb
 837              	.LBE29:
 838              		.loc 1 295 0
 839 0014 636B     		ldr	r3, [r4, #52]
 840              	.LVL93:
 841 0016 10EA0302 		ands	r2, r0, r3
 842              	.LVL94:
 843 001a 06D1     		bne	.L50
 844              		.loc 1 296 0
 845 001c 2062     		str	r0, [r4, #32]
 846              		.loc 1 297 0
 847 001e 0820     		movs	r0, #8
 848              	.LVL95:
 849 0020 FFF7FEFF 		bl	chSchGoSleepS
 850              	.LVL96:
 851              		.loc 1 298 0
 852 0024 636B     		ldr	r3, [r4, #52]
 853 0026 05EA0302 		and	r2, r5, r3
 854              	.LVL97:
 855              	.L50:
 856              		.loc 1 300 0
 857 002a 5042     		negs	r0, r2
 858 002c 1040     		ands	r0, r0, r2
 859              	.LVL98:
 860              		.loc 1 301 0
 861 002e 23EA0001 		bic	r1, r3, r0
 862 0032 6163     		str	r1, [r4, #52]
 863              	.LBB30:
 864              		.loc 1 303 0
 865 0034 0023     		movs	r3, #0
 866              	.LVL99:
 867              	@ 303 "../../os/kernel/src/chevents.c" 1
 868 0036 83F31188 		msr     BASEPRI, r3
 869              	@ 0 "" 2
 870              	.LVL100:
 871              		.thumb
 872              	.LBE30:
 873              		.loc 1 305 0
 874 003a 38BD     		pop	{r3, r4, r5, pc}
 875              		.cfi_endproc
 876              	.LFE16:
 877              		.size	chEvtWaitOne, .-chEvtWaitOne
 878 003c AFF30080 		.section	.text.chEvtSignalI,"ax",%progbits
 879              		.align	2
 880              		.p2align 4,,15
 881              		.global	chEvtSignalI
 882              		.thumb
 883              		.thumb_func
 884              		.type	chEvtSignalI, %function
 885              	chEvtSignalI:
 886              	.LFB12:
 887              		.loc 1 192 0
 888              		.cfi_startproc
 889              		@ args = 0, pretend = 0, frame = 0
 890              		@ frame_needed = 0, uses_anonymous_args = 0
ARM GAS  /tmp/ccePAp3r.s 			page 17


 891              	.LVL101:
 892 0000 08B5     		push	{r3, lr}
 893              	.LCFI9:
 894              		.cfi_def_cfa_offset 8
 895              		.loc 1 196 0
 896 0002 426B     		ldr	r2, [r0, #52]
 897              		.loc 1 198 0
 898 0004 037E     		ldrb	r3, [r0, #24]	@ zero_extendqisi2
 899              		.cfi_offset 14, -4
 900              		.cfi_offset 3, -8
 901              		.loc 1 196 0
 902 0006 41EA0202 		orr	r2, r1, r2
 903              		.loc 1 198 0
 904 000a 082B     		cmp	r3, #8
 905              		.loc 1 196 0
 906 000c 4263     		str	r2, [r0, #52]
 907              		.loc 1 198 0
 908 000e 0BD0     		beq	.L57
 909 0010 092B     		cmp	r3, #9
 910 0012 00D0     		beq	.L58
 911              	.L56:
 912 0014 08BD     		pop	{r3, pc}
 913              	.L58:
 914              		.loc 1 201 0
 915 0016 016A     		ldr	r1, [r0, #32]
 916              	.LVL102:
 917              		.loc 1 198 0
 918 0018 0A40     		ands	r2, r2, r1
 919 001a 9142     		cmp	r1, r2
 920 001c FAD1     		bne	.L56
 921              	.LVL103:
 922              	.L54:
 923              		.loc 1 202 0
 924 001e FFF7FEFF 		bl	chSchReadyI
 925              	.LVL104:
 926 0022 0022     		movs	r2, #0
 927 0024 0262     		str	r2, [r0, #32]
 928 0026 08BD     		pop	{r3, pc}
 929              	.LVL105:
 930              	.L57:
 931              		.loc 1 199 0
 932 0028 036A     		ldr	r3, [r0, #32]
 933 002a 1A42     		tst	r2, r3
 934 002c F7D1     		bne	.L54
 935 002e 08BD     		pop	{r3, pc}
 936              		.cfi_endproc
 937              	.LFE12:
 938              		.size	chEvtSignalI, .-chEvtSignalI
 939              		.section	.text.chEvtBroadcastI,"ax",%progbits
 940              		.align	2
 941              		.p2align 4,,15
 942              		.global	chEvtBroadcastI
 943              		.thumb
 944              		.thumb_func
 945              		.type	chEvtBroadcastI, %function
 946              	chEvtBroadcastI:
 947              	.LFB14:
ARM GAS  /tmp/ccePAp3r.s 			page 18


 948              		.loc 1 233 0
 949              		.cfi_startproc
 950              		@ args = 0, pretend = 0, frame = 0
 951              		@ frame_needed = 0, uses_anonymous_args = 0
 952              	.LVL106:
 953 0000 38B5     		push	{r3, r4, r5, lr}
 954              	.LCFI10:
 955              		.cfi_def_cfa_offset 16
 956              		.loc 1 238 0
 957 0002 0468     		ldr	r4, [r0, #0]
 958              		.cfi_offset 14, -4
 959              		.cfi_offset 5, -8
 960              		.cfi_offset 4, -12
 961              		.cfi_offset 3, -16
 962              	.LVL107:
 963              		.loc 1 233 0
 964 0004 0546     		mov	r5, r0
 965              		.loc 1 239 0
 966 0006 8442     		cmp	r4, r0
 967 0008 06D0     		beq	.L62
 968              	.L63:
 969              		.loc 1 240 0
 970 000a 6068     		ldr	r0, [r4, #4]
 971              	.LVL108:
 972 000c A168     		ldr	r1, [r4, #8]
 973 000e FFF7FEFF 		bl	chEvtSignalI
 974              		.loc 1 241 0
 975 0012 2468     		ldr	r4, [r4, #0]
 976              		.loc 1 239 0
 977 0014 AC42     		cmp	r4, r5
 978 0016 F8D1     		bne	.L63
 979              	.LVL109:
 980              	.L62:
 981 0018 38BD     		pop	{r3, r4, r5, pc}
 982              		.cfi_endproc
 983              	.LFE14:
 984              		.size	chEvtBroadcastI, .-chEvtBroadcastI
 985 001a 00BFAFF3 		.section	.text.chEvtBroadcast,"ax",%progbits
 985      0080
 986              		.align	2
 987              		.p2align 4,,15
 988              		.global	chEvtBroadcast
 989              		.thumb
 990              		.thumb_func
 991              		.type	chEvtBroadcast, %function
 992              	chEvtBroadcast:
 993              	.LFB13:
 994              		.loc 1 213 0
 995              		.cfi_startproc
 996              		@ args = 0, pretend = 0, frame = 0
 997              		@ frame_needed = 0, uses_anonymous_args = 0
 998              	.LVL110:
 999 0000 08B5     		push	{r3, lr}
 1000              	.LCFI11:
 1001              		.cfi_def_cfa_offset 8
 1002              	.LBB31:
 1003              		.loc 1 215 0
ARM GAS  /tmp/ccePAp3r.s 			page 19


 1004 0002 2023     		movs	r3, #32
 1005              		.cfi_offset 14, -4
 1006              		.cfi_offset 3, -8
 1007              	.LVL111:
 1008              	@ 215 "../../os/kernel/src/chevents.c" 1
 1009 0004 83F31188 		msr     BASEPRI, r3
 1010              	@ 0 "" 2
 1011              		.thumb
 1012              	.LBE31:
 1013              		.loc 1 216 0
 1014 0008 FFF7FEFF 		bl	chEvtBroadcastI
 1015              	.LVL112:
 1016              		.loc 1 217 0
 1017 000c FFF7FEFF 		bl	chSchRescheduleS
 1018              	.LBB32:
 1019              		.loc 1 218 0
 1020 0010 0023     		movs	r3, #0
 1021              	.LVL113:
 1022              	@ 218 "../../os/kernel/src/chevents.c" 1
 1023 0012 83F31188 		msr     BASEPRI, r3
 1024              	@ 0 "" 2
 1025              		.thumb
 1026              	.LBE32:
 1027              		.loc 1 219 0
 1028 0016 08BD     		pop	{r3, pc}
 1029              		.cfi_endproc
 1030              	.LFE13:
 1031              		.size	chEvtBroadcast, .-chEvtBroadcast
 1032 0018 AFF30080 		.section	.text.chEvtSignal,"ax",%progbits
 1032      AFF30080 
 1033              		.align	2
 1034              		.p2align 4,,15
 1035              		.global	chEvtSignal
 1036              		.thumb
 1037              		.thumb_func
 1038              		.type	chEvtSignal, %function
 1039              	chEvtSignal:
 1040              	.LFB11:
 1041              		.loc 1 170 0
 1042              		.cfi_startproc
 1043              		@ args = 0, pretend = 0, frame = 0
 1044              		@ frame_needed = 0, uses_anonymous_args = 0
 1045              	.LVL114:
 1046 0000 08B5     		push	{r3, lr}
 1047              	.LCFI12:
 1048              		.cfi_def_cfa_offset 8
 1049              	.LBB33:
 1050              		.loc 1 174 0
 1051 0002 2023     		movs	r3, #32
 1052              		.cfi_offset 14, -4
 1053              		.cfi_offset 3, -8
 1054              	.LVL115:
 1055              	@ 174 "../../os/kernel/src/chevents.c" 1
 1056 0004 83F31188 		msr     BASEPRI, r3
 1057              	@ 0 "" 2
 1058              		.thumb
 1059              	.LBE33:
ARM GAS  /tmp/ccePAp3r.s 			page 20


 1060              		.loc 1 175 0
 1061 0008 FFF7FEFF 		bl	chEvtSignalI
 1062              	.LVL116:
 1063              		.loc 1 176 0
 1064 000c FFF7FEFF 		bl	chSchRescheduleS
 1065              	.LBB34:
 1066              		.loc 1 177 0
 1067 0010 0023     		movs	r3, #0
 1068              	.LVL117:
 1069              	@ 177 "../../os/kernel/src/chevents.c" 1
 1070 0012 83F31188 		msr     BASEPRI, r3
 1071              	@ 0 "" 2
 1072              		.thumb
 1073              	.LBE34:
 1074              		.loc 1 178 0
 1075 0016 08BD     		pop	{r3, pc}
 1076              		.cfi_endproc
 1077              	.LFE11:
 1078              		.size	chEvtSignal, .-chEvtSignal
 1079 0018 AFF30080 		.text
 1079      AFF30080 
 1080              	.Letext0: