ARM GAS  /tmp/ccePAp3r.s 			page 1


   1              		.syntax unified
   2              		.cpu cortex-m3
   3              		.fpu softvfp
   4              		.eabi_attribute 20, 1
   5              		.eabi_attribute 21, 1
   6              		.eabi_attribute 23, 3
   7              		.eabi_attribute 24, 1
   8              		.eabi_attribute 25, 1
   9              		.eabi_attribute 26, 1
  10              		.eabi_attribute 30, 2
  11              		.eabi_attribute 18, 4
  12              		.thumb
  13              		.file	"chevents.c"
  14              		.section	.debug_abbrev,"",%progbits
  15              	.Ldebug_abbrev0:
  16              		.section	.debug_info,"",%progbits
  17              	.Ldebug_info0:
  18              		.section	.debug_line,"",%progbits
  19              	.Ldebug_line0:
  20 0000 E7020000 		.text
  20      02004501 
  20      00000201 
  20      FB0E0D00 
  20      01010101 
  21              	.Ltext0:
  22              		.cfi_sections	.debug_frame
  23              		.section	.text.chEvtRegisterMask,"ax",%progbits
  24              		.align	2
  25              		.p2align 4,,15
  26              		.global	chEvtRegisterMask
  27              		.thumb
  28              		.thumb_func
  29              		.type	chEvtRegisterMask, %function
  30              	chEvtRegisterMask:
  31              	.LFB7:
  32              		.file 1 "../../os/kernel/src/chevents.c"
  33              		.loc 1 81 0
  34              		.cfi_startproc
  35              		@ args = 0, pretend = 0, frame = 0
  36              		@ frame_needed = 0, uses_anonymous_args = 0
  37              		@ link register save eliminated.
  38              	.LVL0:
  39 0000 10B4     		push	{r4}
  40              	.LCFI0:
  41              		.cfi_def_cfa_offset 4
  42              	.LBB2:
  43              		.loc 1 85 0
  44 0002 2023     		movs	r3, #32
  45              	.LVL1:
  46              	@ 85 "../../os/kernel/src/chevents.c" 1
  47 0004 83F31188 		msr     BASEPRI, r3
  48              	@ 0 "" 2
  49              		.thumb
  50              	.LBE2:
  51              		.loc 1 88 0
  52 0008 40F20004 		movw	r4, #:lower16:rlist
  53              		.cfi_offset 4, -4
ARM GAS  /tmp/ccePAp3r.s 			page 2


  54 000c C0F20004 		movt	r4, #:upper16:rlist
  55 0010 E369     		ldr	r3, [r4, #28]
  56              	.LVL2:
  57              		.loc 1 86 0
  58 0012 0468     		ldr	r4, [r0, #0]
  59              		.loc 1 88 0
  60 0014 4B60     		str	r3, [r1, #4]
  61              		.loc 1 86 0
  62 0016 0C60     		str	r4, [r1, #0]
  63              		.loc 1 89 0
  64 0018 8A60     		str	r2, [r1, #8]
  65              		.loc 1 87 0
  66 001a 0160     		str	r1, [r0, #0]
  67              	.LBB3:
  68              		.loc 1 90 0
  69 001c 0023     		movs	r3, #0
  70              	.LVL3:
  71              	@ 90 "../../os/kernel/src/chevents.c" 1
  72 001e 83F31188 		msr     BASEPRI, r3
  73              	@ 0 "" 2
  74              		.thumb
  75              	.LBE3:
  76              		.loc 1 91 0
  77 0022 10BC     		pop	{r4}
  78 0024 7047     		bx	lr
  79              		.cfi_endproc
  80              	.LFE7:
  81              		.size	chEvtRegisterMask, .-chEvtRegisterMask
  82 0026 00BFAFF3 		.section	.text.chEvtUnregister,"ax",%progbits
  82      0080AFF3 
  82      0080
  83              		.align	2
  84              		.p2align 4,,15
  85              		.global	chEvtUnregister
  86              		.thumb
  87              		.thumb_func
  88              		.type	chEvtUnregister, %function
  89              	chEvtUnregister:
  90              	.LFB8:
  91              		.loc 1 106 0
  92              		.cfi_startproc
  93              		@ args = 0, pretend = 0, frame = 0
  94              		@ frame_needed = 0, uses_anonymous_args = 0
  95              		@ link register save eliminated.
  96              	.LVL4:
  97              	.LBB4:
  98              		.loc 1 112 0
  99 0000 2023     		movs	r3, #32
 100              	.LVL5:
 101              	@ 112 "../../os/kernel/src/chevents.c" 1
 102 0002 83F31188 		msr     BASEPRI, r3
 103              	@ 0 "" 2
 104              		.thumb
 105 0006 0246     		mov	r2, r0
 106              	.LVL6:
 107              	.LBE4:
 108              		.loc 1 113 0
ARM GAS  /tmp/ccePAp3r.s 			page 3


 109 0008 02E0     		b	.L4
 110              	.LVL7:
 111              	.L7:
 112              		.loc 1 114 0
 113 000a 9942     		cmp	r1, r3
 114 000c 07D0     		beq	.L10
 115              		.loc 1 116 0
 116 000e 1A46     		mov	r2, r3
 117              	.LVL8:
 118              	.L4:
 119              		.loc 1 113 0
 120 0010 1368     		ldr	r3, [r2, #0]
 121              	.LVL9:
 122 0012 9842     		cmp	r0, r3
 123 0014 F9D1     		bne	.L7
 124              	.LBB5:
 125              		.loc 1 120 0
 126 0016 0023     		movs	r3, #0
 127              	.LVL10:
 128              	@ 120 "../../os/kernel/src/chevents.c" 1
 129 0018 83F31188 		msr     BASEPRI, r3
 130              	@ 0 "" 2
 131              		.thumb
 132              	.LBE5:
 133              		.loc 1 121 0
 134 001c 7047     		bx	lr
 135              	.LVL11:
 136              	.L10:
 137              		.loc 1 115 0
 138 001e 0B68     		ldr	r3, [r1, #0]
 139              	.LVL12:
 140 0020 1360     		str	r3, [r2, #0]
 141              	.LVL13:
 142              	.LBB6:
 143              		.loc 1 120 0
 144 0022 0023     		movs	r3, #0
 145              	.LVL14:
 146              	@ 120 "../../os/kernel/src/chevents.c" 1
 147 0024 83F31188 		msr     BASEPRI, r3
 148              	@ 0 "" 2
 149              		.thumb
 150              	.LBE6:
 151              		.loc 1 121 0
 152 0028 7047     		bx	lr
 153              		.cfi_endproc
 154              	.LFE8:
 155              		.size	chEvtUnregister, .-chEvtUnregister
 156 002a 00BFAFF3 		.section	.text.chEvtClearFlags,"ax",%progbits
 156      0080
 157              		.align	2
 158              		.p2align 4,,15
 159              		.global	chEvtClearFlags
 160              		.thumb
 161              		.thumb_func
 162              		.type	chEvtClearFlags, %function
 163              	chEvtClearFlags:
 164              	.LFB9:
ARM GAS  /tmp/ccePAp3r.s 			page 4


 165              		.loc 1 131 0
 166              		.cfi_startproc
 167              		@ args = 0, pretend = 0, frame = 0
 168              		@ frame_needed = 0, uses_anonymous_args = 0
 169              		@ link register save eliminated.
 170              	.LVL15:
 171 0000 10B4     		push	{r4}
 172              	.LCFI1:
 173              		.cfi_def_cfa_offset 4
 174              	.LBB7:
 175              		.loc 1 134 0
 176 0002 2023     		movs	r3, #32
 177              	.LVL16:
 178              	@ 134 "../../os/kernel/src/chevents.c" 1
 179 0004 83F31188 		msr     BASEPRI, r3
 180              	@ 0 "" 2
 181              		.thumb
 182              	.LBE7:
 183              		.loc 1 136 0
 184 0008 40F20003 		movw	r3, #:lower16:rlist
 185              	.LVL17:
 186 000c C0F20003 		movt	r3, #:upper16:rlist
 187 0010 D969     		ldr	r1, [r3, #28]
 188              	.LBB8:
 189              		.loc 1 139 0
 190 0012 0023     		movs	r3, #0
 191              	.LVL18:
 192              	.LBE8:
 193              		.loc 1 136 0
 194 0014 4A6B     		ldr	r2, [r1, #52]
 195              		.loc 1 137 0
 196 0016 22EA0004 		bic	r4, r2, r0
 197              		.cfi_offset 4, -4
 198 001a 4C63     		str	r4, [r1, #52]
 199              	.LBB9:
 200              		.loc 1 139 0
 201              	@ 139 "../../os/kernel/src/chevents.c" 1
 202 001c 83F31188 		msr     BASEPRI, r3
 203              	@ 0 "" 2
 204              		.thumb
 205              	.LBE9:
 206              		.loc 1 141 0
 207 0020 1040     		ands	r0, r0, r2
 208              	.LVL19:
 209 0022 10BC     		pop	{r4}
 210 0024 7047     		bx	lr
 211              		.cfi_endproc
 212              	.LFE9:
 213              		.size	chEvtClearFlags, .-chEvtClearFlags
 214 0026 00BFAFF3 		.section	.text.chEvtAddFlags,"ax",%progbits
 214      0080AFF3 
 214      0080
 215              		.align	2
 216              		.p2align 4,,15
 217              		.global	chEvtAddFlags
 218              		.thumb
 219              		.thumb_func
ARM GAS  /tmp/ccePAp3r.s 			page 5


 220              		.type	chEvtAddFlags, %function
 221              	chEvtAddFlags:
 222              	.LFB10:
 223              		.loc 1 152 0
 224              		.cfi_startproc
 225              		@ args = 0, pretend = 0, frame = 0
 226              		@ frame_needed = 0, uses_anonymous_args = 0
 227              		@ link register save eliminated.
 228              	.LVL20:
 229              	.LBB10:
 230              		.loc 1 154 0
 231 0000 2023     		movs	r3, #32
 232              	.LVL21:
 233              	@ 154 "../../os/kernel/src/chevents.c" 1
 234 0002 83F31188 		msr     BASEPRI, r3
 235              	@ 0 "" 2
 236              		.thumb
 237              	.LBE10:
 238              		.loc 1 156 0
 239 0006 40F20003 		movw	r3, #:lower16:rlist
 240              	.LVL22:
 241 000a C0F20003 		movt	r3, #:upper16:rlist
 242 000e DA69     		ldr	r2, [r3, #28]
 243              	.LBB11:
 244              		.loc 1 158 0
 245 0010 0023     		movs	r3, #0
 246              	.LVL23:
 247              	.LBE11:
 248              		.loc 1 156 0
 249 0012 516B     		ldr	r1, [r2, #52]
 250 0014 0843     		orrs	r0, r0, r1
 251              	.LVL24:
 252 0016 5063     		str	r0, [r2, #52]
 253              	.LBB12:
 254              		.loc 1 158 0
 255              	@ 158 "../../os/kernel/src/chevents.c" 1
 256 0018 83F31188 		msr     BASEPRI, r3
 257              	@ 0 "" 2
 258              		.thumb
 259              	.LBE12:
 260              		.loc 1 160 0
 261 001c 7047     		bx	lr
 262              		.cfi_endproc
 263              	.LFE10:
 264              		.size	chEvtAddFlags, .-chEvtAddFlags
 265 001e 00BF     		.section	.text.chEvtDispatch,"ax",%progbits
 266              		.align	2
 267              		.p2align 4,,15
 268              		.global	chEvtDispatch
 269              		.thumb
 270              		.thumb_func
 271              		.type	chEvtDispatch, %function
 272              	chEvtDispatch:
 273              	.LFB15:
 274              		.loc 1 254 0
 275              		.cfi_startproc
 276              		@ args = 0, pretend = 0, frame = 0
ARM GAS  /tmp/ccePAp3r.s 			page 6


 277              		@ frame_needed = 0, uses_anonymous_args = 0
 278              	.LVL25:
 279 0000 F8B5     		push	{r3, r4, r5, r6, r7, lr}
 280              	.LCFI2:
 281              		.cfi_def_cfa_offset 24
 282              		.loc 1 254 0
 283 0002 0546     		mov	r5, r0
 284              		.cfi_offset 14, -4
 285              		.cfi_offset 7, -8
 286              		.cfi_offset 6, -12
 287              		.cfi_offset 5, -16
 288              		.cfi_offset 4, -20
 289              		.cfi_offset 3, -24
 290              		.loc 1 260 0
 291 0004 0C46     		mov	r4, r1
 292 0006 99B1     		cbz	r1, .L19
 293              	.LVL26:
 294 0008 0026     		movs	r6, #0
 295              	.LVL27:
 296              		.loc 1 261 0
 297 000a 0127     		movs	r7, #1
 298 000c 17FA06F3 		lsls	r3, r7, r6
 299 0010 2342     		tst	r3, r4
 300 0012 05D1     		bne	.L20
 301              	.LVL28:
 302              	.L17:
 303              		.loc 1 260 0
 304 0014 64B1     		cbz	r4, .L19
 305              	.L21:
 306              		.loc 1 268 0
 307 0016 0136     		adds	r6, r6, #1
 308              		.loc 1 261 0
 309 0018 17FA06F3 		lsls	r3, r7, r6
 310 001c 2342     		tst	r3, r4
 311 001e F9D0     		beq	.L17
 312              	.L20:
 313              		.loc 1 265 0
 314 0020 24EA0304 		bic	r4, r4, r3
 315              		.loc 1 266 0
 316 0024 55F82620 		ldr	r2, [r5, r6, lsl #2]
 317 0028 3046     		mov	r0, r6
 318 002a 9047     		blx	r2
 319              		.loc 1 260 0
 320 002c 002C     		cmp	r4, #0
 321 002e F2D1     		bne	.L21
 322              	.LVL29:
 323              	.L19:
 324 0030 F8BD     		pop	{r3, r4, r5, r6, r7, pc}
 325              		.cfi_endproc
 326              	.LFE15:
 327              		.size	chEvtDispatch, .-chEvtDispatch
 328 0032 00BFAFF3 		.section	.text.chEvtWaitAllTimeout,"ax",%progbits
 328      0080AFF3 
 328      0080AFF3 
 328      0080
 329              		.align	2
 330              		.p2align 4,,15
ARM GAS  /tmp/ccePAp3r.s 			page 7


 331              		.global	chEvtWaitAllTimeout
 332              		.thumb
 333              		.thumb_func
 334              		.type	chEvtWaitAllTimeout, %function
 335              	chEvtWaitAllTimeout:
 336              	.LFB21:
 337              		.loc 1 469 0
 338              		.cfi_startproc
 339              		@ args = 0, pretend = 0, frame = 0
 340              		@ frame_needed = 0, uses_anonymous_args = 0
 341              	.LVL30:
 342 0000 38B5     		push	{r3, r4, r5, lr}
 343              	.LCFI3:
 344              		.cfi_def_cfa_offset 16
 345              		.loc 1 470 0
 346 0002 40F20003 		movw	r3, #:lower16:rlist
 347              		.cfi_offset 14, -4
 348              		.cfi_offset 5, -8
 349              		.cfi_offset 4, -12
 350              		.cfi_offset 3, -16
 351 0006 C0F20003 		movt	r3, #:upper16:rlist
 352 000a DD69     		ldr	r5, [r3, #28]
 353              	.LVL31:
 354              		.loc 1 469 0
 355 000c 0446     		mov	r4, r0
 356              	.LBB13:
 357              		.loc 1 472 0
 358 000e 2023     		movs	r3, #32
 359              	.LVL32:
 360              	@ 472 "../../os/kernel/src/chevents.c" 1
 361 0010 83F31188 		msr     BASEPRI, r3
 362              	@ 0 "" 2
 363              		.thumb
 364              	.LBE13:
 365              		.loc 1 474 0
 366 0014 6B6B     		ldr	r3, [r5, #52]
 367              	.LVL33:
 368 0016 1840     		ands	r0, r0, r3
 369              	.LVL34:
 370 0018 A042     		cmp	r0, r4
 371 001a 0ED0     		beq	.L23
 372              		.loc 1 475 0
 373 001c 29B9     		cbnz	r1, .L24
 374              	.LBB14:
 375              		.loc 1 476 0
 376 001e 0B46     		mov	r3, r1
 377              	.LVL35:
 378              	@ 476 "../../os/kernel/src/chevents.c" 1
 379 0020 83F31188 		msr     BASEPRI, r3
 380              	@ 0 "" 2
 381              		.thumb
 382 0024 0C46     		mov	r4, r1
 383              	.LBE14:
 384              		.loc 1 489 0
 385 0026 2046     		mov	r0, r4
 386 0028 38BD     		pop	{r3, r4, r5, pc}
 387              	.LVL36:
ARM GAS  /tmp/ccePAp3r.s 			page 8


 388              	.L24:
 389              		.loc 1 480 0
 390 002a 0920     		movs	r0, #9
 391              		.loc 1 479 0
 392 002c 2C62     		str	r4, [r5, #32]
 393              		.loc 1 480 0
 394 002e FFF7FEFF 		bl	chSchGoSleepTimeoutS
 395              	.LVL37:
 396 0032 0028     		cmp	r0, #0
 397 0034 A8BF     		it	ge
 398 0036 6B6B     		ldrge	r3, [r5, #52]
 399 0038 07DB     		blt	.L28
 400              	.LVL38:
 401              	.L23:
 402              		.loc 1 485 0
 403 003a 23EA0401 		bic	r1, r3, r4
 404              	.LVL39:
 405 003e 6963     		str	r1, [r5, #52]
 406              	.LBB15:
 407              		.loc 1 487 0
 408 0040 0023     		movs	r3, #0
 409              	.LVL40:
 410              	@ 487 "../../os/kernel/src/chevents.c" 1
 411 0042 83F31188 		msr     BASEPRI, r3
 412              	@ 0 "" 2
 413              	.LVL41:
 414              		.thumb
 415              	.L25:
 416              	.LBE15:
 417              		.loc 1 489 0
 418 0046 2046     		mov	r0, r4
 419 0048 38BD     		pop	{r3, r4, r5, pc}
 420              	.LVL42:
 421              	.L28:
 422              	.LBB16:
 423              		.loc 1 481 0
 424 004a 0023     		movs	r3, #0
 425              	.LVL43:
 426              	@ 481 "../../os/kernel/src/chevents.c" 1
 427 004c 83F31188 		msr     BASEPRI, r3
 428              	@ 0 "" 2
 429              		.thumb
 430 0050 1C46     		mov	r4, r3
 431              	.LBE16:
 432              		.loc 1 482 0
 433 0052 F8E7     		b	.L25
 434              		.cfi_endproc
 435              	.LFE21:
 436              		.size	chEvtWaitAllTimeout, .-chEvtWaitAllTimeout
 437 0054 AFF30080 		.section	.text.chEvtWaitAnyTimeout,"ax",%progbits
 437      AFF30080 
 437      AFF30080 
 438              		.align	2
 439              		.p2align 4,,15
 440              		.global	chEvtWaitAnyTimeout
 441              		.thumb
 442              		.thumb_func
ARM GAS  /tmp/ccePAp3r.s 			page 9


 443              		.type	chEvtWaitAnyTimeout, %function
 444              	chEvtWaitAnyTimeout:
 445              	.LFB20:
 446              		.loc 1 428 0
 447              		.cfi_startproc
 448              		@ args = 0, pretend = 0, frame = 0
 449              		@ frame_needed = 0, uses_anonymous_args = 0
 450              	.LVL44:
 451              		.loc 1 429 0
 452 0000 40F20003 		movw	r3, #:lower16:rlist
 453 0004 C0F20003 		movt	r3, #:upper16:rlist
 454              		.loc 1 428 0
 455 0008 70B5     		push	{r4, r5, r6, lr}
 456              	.LCFI4:
 457              		.cfi_def_cfa_offset 16
 458              		.loc 1 429 0
 459 000a DE69     		ldr	r6, [r3, #28]
 460              		.cfi_offset 14, -4
 461              		.cfi_offset 6, -8
 462              		.cfi_offset 5, -12
 463              		.cfi_offset 4, -16
 464              	.LVL45:
 465              		.loc 1 428 0
 466 000c 0446     		mov	r4, r0
 467              	.LBB17:
 468              		.loc 1 432 0
 469 000e 2023     		movs	r3, #32
 470              	.LVL46:
 471              	@ 432 "../../os/kernel/src/chevents.c" 1
 472 0010 83F31188 		msr     BASEPRI, r3
 473              	@ 0 "" 2
 474              		.thumb
 475              	.LBE17:
 476              		.loc 1 434 0
 477 0014 736B     		ldr	r3, [r6, #52]
 478              	.LVL47:
 479 0016 10EA0305 		ands	r5, r0, r3
 480              	.LVL48:
 481 001a 0ED1     		bne	.L30
 482              		.loc 1 435 0
 483 001c 21B9     		cbnz	r1, .L31
 484              	.LBB18:
 485              		.loc 1 436 0
 486 001e 2B46     		mov	r3, r5
 487              	.LVL49:
 488              	@ 436 "../../os/kernel/src/chevents.c" 1
 489 0020 83F31188 		msr     BASEPRI, r3
 490              	@ 0 "" 2
 491              		.thumb
 492              	.LBE18:
 493              		.loc 1 450 0
 494 0024 2846     		mov	r0, r5
 495              	.LVL50:
 496 0026 70BD     		pop	{r4, r5, r6, pc}
 497              	.LVL51:
 498              	.L31:
 499              		.loc 1 439 0
ARM GAS  /tmp/ccePAp3r.s 			page 10


 500 0028 3062     		str	r0, [r6, #32]
 501              		.loc 1 440 0
 502 002a 0820     		movs	r0, #8
 503              	.LVL52:
 504 002c FFF7FEFF 		bl	chSchGoSleepTimeoutS
 505              	.LVL53:
 506 0030 0028     		cmp	r0, #0
 507 0032 0ADB     		blt	.L35
 508              		.loc 1 444 0
 509 0034 736B     		ldr	r3, [r6, #52]
 510 0036 04EA0305 		and	r5, r4, r3
 511              	.LVL54:
 512              	.L30:
 513              		.loc 1 446 0
 514 003a 23EA0500 		bic	r0, r3, r5
 515 003e 7063     		str	r0, [r6, #52]
 516              	.LBB19:
 517              		.loc 1 448 0
 518 0040 0023     		movs	r3, #0
 519              	.LVL55:
 520              	@ 448 "../../os/kernel/src/chevents.c" 1
 521 0042 83F31188 		msr     BASEPRI, r3
 522              	@ 0 "" 2
 523              	.LVL56:
 524              		.thumb
 525              	.L32:
 526              	.LBE19:
 527              		.loc 1 450 0
 528 0046 2846     		mov	r0, r5
 529 0048 70BD     		pop	{r4, r5, r6, pc}
 530              	.LVL57:
 531              	.L35:
 532              	.LBB20:
 533              		.loc 1 441 0
 534 004a 2B46     		mov	r3, r5
 535              	.LVL58:
 536              	@ 441 "../../os/kernel/src/chevents.c" 1
 537 004c 83F31188 		msr     BASEPRI, r3
 538              	@ 0 "" 2
 539              		.thumb
 540              	.LBE20:
 541              		.loc 1 442 0
 542 0050 F9E7     		b	.L32
 543              		.cfi_endproc
 544              	.LFE20:
 545              		.size	chEvtWaitAnyTimeout, .-chEvtWaitAnyTimeout
 546 0052 00BFAFF3 		.section	.text.chEvtWaitOneTimeout,"ax",%progbits
 546      0080AFF3 
 546      0080AFF3 
 546      0080
 547              		.align	2
 548              		.p2align 4,,15
 549              		.global	chEvtWaitOneTimeout
 550              		.thumb
 551              		.thumb_func
 552              		.type	chEvtWaitOneTimeout, %function
 553              	chEvtWaitOneTimeout:
ARM GAS  /tmp/ccePAp3r.s 			page 11


 554              	.LFB19:
 555              		.loc 1 385 0
 556              		.cfi_startproc
 557              		@ args = 0, pretend = 0, frame = 0
 558              		@ frame_needed = 0, uses_anonymous_args = 0
 559              	.LVL59:
 560              		.loc 1 386 0
 561 0000 40F20003 		movw	r3, #:lower16:rlist
 562 0004 C0F20003 		movt	r3, #:upper16:rlist
 563              		.loc 1 385 0
 564 0008 70B5     		push	{r4, r5, r6, lr}
 565              	.LCFI5:
 566              		.cfi_def_cfa_offset 16
 567              		.loc 1 386 0
 568 000a DE69     		ldr	r6, [r3, #28]
 569              		.cfi_offset 14, -4
 570              		.cfi_offset 6, -8
 571              		.cfi_offset 5, -12
 572              		.cfi_offset 4, -16
 573              	.LVL60:
 574              		.loc 1 385 0
 575 000c 0546     		mov	r5, r0
 576              	.LBB21:
 577              		.loc 1 389 0
 578 000e 2023     		movs	r3, #32
 579              	.LVL61:
 580              	@ 389 "../../os/kernel/src/chevents.c" 1
 581 0010 83F31188 		msr     BASEPRI, r3
 582              	@ 0 "" 2
 583              		.thumb
 584              	.LBE21:
 585              		.loc 1 391 0
 586 0014 736B     		ldr	r3, [r6, #52]
 587              	.LVL62:
 588 0016 10EA0304 		ands	r4, r0, r3
 589              	.LVL63:
 590 001a 0ED1     		bne	.L37
 591              		.loc 1 392 0
 592 001c 21B9     		cbnz	r1, .L38
 593              	.LBB22:
 594              		.loc 1 393 0
 595 001e 2346     		mov	r3, r4
 596              	.LVL64:
 597              	@ 393 "../../os/kernel/src/chevents.c" 1
 598 0020 83F31188 		msr     BASEPRI, r3
 599              	@ 0 "" 2
 600              		.thumb
 601              	.LBE22:
 602              		.loc 1 408 0
 603 0024 2046     		mov	r0, r4
 604              	.LVL65:
 605 0026 70BD     		pop	{r4, r5, r6, pc}
 606              	.LVL66:
 607              	.L38:
 608              		.loc 1 396 0
 609 0028 3062     		str	r0, [r6, #32]
 610              		.loc 1 397 0
ARM GAS  /tmp/ccePAp3r.s 			page 12


 611 002a 0820     		movs	r0, #8
 612              	.LVL67:
 613 002c FFF7FEFF 		bl	chSchGoSleepTimeoutS
 614              	.LVL68:
 615 0030 0028     		cmp	r0, #0
 616 0032 0CDB     		blt	.L42
 617              		.loc 1 401 0
 618 0034 736B     		ldr	r3, [r6, #52]
 619 0036 05EA0304 		and	r4, r5, r3
 620              	.LVL69:
 621              	.L37:
 622              		.loc 1 403 0
 623 003a 6242     		negs	r2, r4
 624 003c 1440     		ands	r4, r4, r2
 625              		.loc 1 404 0
 626 003e 23EA0400 		bic	r0, r3, r4
 627 0042 7063     		str	r0, [r6, #52]
 628              	.LBB23:
 629              		.loc 1 406 0
 630 0044 0023     		movs	r3, #0
 631              	.LVL70:
 632              	@ 406 "../../os/kernel/src/chevents.c" 1
 633 0046 83F31188 		msr     BASEPRI, r3
 634              	@ 0 "" 2
 635              	.LVL71:
 636              		.thumb
 637              	.L39:
 638              	.LBE23:
 639              		.loc 1 408 0
 640 004a 2046     		mov	r0, r4
 641 004c 70BD     		pop	{r4, r5, r6, pc}
 642              	.LVL72:
 643              	.L42:
 644              	.LBB24:
 645              		.loc 1 398 0
 646 004e 2346     		mov	r3, r4
 647              	.LVL73:
 648              	@ 398 "../../os/kernel/src/chevents.c" 1
 649 0050 83F31188 		msr     BASEPRI, r3
 650              	@ 0 "" 2
 651              		.thumb
 652              	.LBE24:
 653              		.loc 1 399 0
 654 0054 F9E7     		b	.L39
 655              		.cfi_endproc
 656              	.LFE19:
 657              		.size	chEvtWaitOneTimeout, .-chEvtWaitOneTimeout
 658 0056 00BFAFF3 		.section	.text.chEvtWaitAll,"ax",%progbits
 658      0080AFF3 
 658      0080
 659              		.align	2
 660              		.p2align 4,,15
 661              		.global	chEvtWaitAll
 662              		.thumb
 663              		.thumb_func
 664              		.type	chEvtWaitAll, %function
 665              	chEvtWaitAll:
ARM GAS  /tmp/ccePAp3r.s 			page 13


 666              	.LFB18:
 667              		.loc 1 346 0
 668              		.cfi_startproc
 669              		@ args = 0, pretend = 0, frame = 0
 670              		@ frame_needed = 0, uses_anonymous_args = 0
 671              	.LVL74:
 672 0000 38B5     		push	{r3, r4, r5, lr}
 673              	.LCFI6:
 674              		.cfi_def_cfa_offset 16
 675              		.loc 1 347 0
 676 0002 40F20003 		movw	r3, #:lower16:rlist
 677              		.cfi_offset 14, -4
 678              		.cfi_offset 5, -8
 679              		.cfi_offset 4, -12
 680              		.cfi_offset 3, -16
 681 0006 C0F20003 		movt	r3, #:upper16:rlist
 682 000a DD69     		ldr	r5, [r3, #28]
 683              	.LVL75:
 684              		.loc 1 346 0
 685 000c 0446     		mov	r4, r0
 686              	.LBB25:
 687              		.loc 1 349 0
 688 000e 2023     		movs	r3, #32
 689              	.LVL76:
 690              	@ 349 "../../os/kernel/src/chevents.c" 1
 691 0010 83F31188 		msr     BASEPRI, r3
 692              	@ 0 "" 2
 693              		.thumb
 694              	.LBE25:
 695              		.loc 1 351 0
 696 0014 6B6B     		ldr	r3, [r5, #52]
 697              	.LVL77:
 698 0016 00EA0302 		and	r2, r0, r3
 699 001a 8242     		cmp	r2, r0
 700 001c 04D0     		beq	.L44
 701              		.loc 1 352 0
 702 001e 2862     		str	r0, [r5, #32]
 703              		.loc 1 353 0
 704 0020 0920     		movs	r0, #9
 705              	.LVL78:
 706 0022 FFF7FEFF 		bl	chSchGoSleepS
 707 0026 6B6B     		ldr	r3, [r5, #52]
 708              	.LVL79:
 709              	.L44:
 710              		.loc 1 355 0
 711 0028 23EA0400 		bic	r0, r3, r4
 712 002c 6863     		str	r0, [r5, #52]
 713              	.LBB26:
 714              		.loc 1 357 0
 715 002e 0023     		movs	r3, #0
 716              	.LVL80:
 717              	@ 357 "../../os/kernel/src/chevents.c" 1
 718 0030 83F31188 		msr     BASEPRI, r3
 719              	@ 0 "" 2
 720              		.thumb
 721              	.LBE26:
 722              		.loc 1 359 0
ARM GAS  /tmp/ccePAp3r.s 			page 14


 723 0034 2046     		mov	r0, r4
 724 0036 38BD     		pop	{r3, r4, r5, pc}
 725              		.cfi_endproc
 726              	.LFE18:
 727              		.size	chEvtWaitAll, .-chEvtWaitAll
 728 0038 AFF30080 		.section	.text.chEvtWaitAny,"ax",%progbits
 728      AFF30080 
 729              		.align	2
 730              		.p2align 4,,15
 731              		.global	chEvtWaitAny
 732              		.thumb
 733              		.thumb_func
 734              		.type	chEvtWaitAny, %function
 735              	chEvtWaitAny:
 736              	.LFB17:
 737              		.loc 1 318 0
 738              		.cfi_startproc
 739              		@ args = 0, pretend = 0, frame = 0
 740              		@ frame_needed = 0, uses_anonymous_args = 0
 741              	.LVL81:
 742 0000 38B5     		push	{r3, r4, r5, lr}
 743              	.LCFI7:
 744              		.cfi_def_cfa_offset 16
 745              		.loc 1 319 0
 746 0002 40F20003 		movw	r3, #:lower16:rlist
 747              		.cfi_offset 14, -4
 748              		.cfi_offset 5, -8
 749              		.cfi_offset 4, -12
 750              		.cfi_offset 3, -16
 751 0006 C0F20003 		movt	r3, #:upper16:rlist
 752 000a DC69     		ldr	r4, [r3, #28]
 753              	.LVL82:
 754              		.loc 1 318 0
 755 000c 0546     		mov	r5, r0
 756              	.LBB27:
 757              		.loc 1 322 0
 758 000e 2023     		movs	r3, #32
 759              	.LVL83:
 760              	@ 322 "../../os/kernel/src/chevents.c" 1
 761 0010 83F31188 		msr     BASEPRI, r3
 762              	@ 0 "" 2
 763              		.thumb
 764              	.LBE27:
 765              		.loc 1 324 0
 766 0014 636B     		ldr	r3, [r4, #52]
 767              	.LVL84:
 768 0016 1840     		ands	r0, r0, r3
 769              	.LVL85:
 770 0018 06D1     		bne	.L47
 771              		.loc 1 326 0
 772 001a 0820     		movs	r0, #8
 773              	.LVL86:
 774              		.loc 1 325 0
 775 001c 2562     		str	r5, [r4, #32]
 776              		.loc 1 326 0
 777 001e FFF7FEFF 		bl	chSchGoSleepS
 778              		.loc 1 327 0
ARM GAS  /tmp/ccePAp3r.s 			page 15


 779 0022 636B     		ldr	r3, [r4, #52]
 780 0024 05EA0300 		and	r0, r5, r3
 781              	.LVL87:
 782              	.L47:
 783              		.loc 1 329 0
 784 0028 23EA0001 		bic	r1, r3, r0
 785 002c 6163     		str	r1, [r4, #52]
 786              	.LBB28:
 787              		.loc 1 331 0
 788 002e 0023     		movs	r3, #0
 789              	.LVL88:
 790              	@ 331 "../../os/kernel/src/chevents.c" 1
 791 0030 83F31188 		msr     BASEPRI, r3
 792              	@ 0 "" 2
 793              	.LVL89:
 794              		.thumb
 795              	.LBE28:
 796              		.loc 1 333 0
 797 0034 38BD     		pop	{r3, r4, r5, pc}
 798              		.cfi_endproc
 799              	.LFE17:
 800              		.size	chEvtWaitAny, .-chEvtWaitAny
 801 0036 00BFAFF3 		.section	.text.chEvtWaitOne,"ax",%progbits
 801      0080AFF3 
 801      0080
 802              		.align	2
 803              		.p2align 4,,15
 804              		.global	chEvtWaitOne
 805              		.thumb
 806              		.thumb_func
 807              		.type	chEvtWaitOne, %function
 808              	chEvtWaitOne:
 809              	.LFB16:
 810              		.loc 1 289 0
 811              		.cfi_startproc
 812              		@ args = 0, pretend = 0, frame = 0
 813              		@ frame_needed = 0, uses_anonymous_args = 0
 814              	.LVL90:
 815 0000 38B5     		push	{r3, r4, r5, lr}
 816              	.LCFI8:
 817              		.cfi_def_cfa_offset 16
 818              		.loc 1 290 0
 819 0002 40F20003 		movw	r3, #:lower16:rlist
 820              		.cfi_offset 14, -4
 821              		.cfi_offset 5, -8
 822              		.cfi_offset 4, -12
 823              		.cfi_offset 3, -16
 824 0006 C0F20003 		movt	r3, #:upper16:rlist
 825 000a DC69     		ldr	r4, [r3, #28]
 826              	.LVL91:
 827              		.loc 1 289 0
 828 000c 0546     		mov	r5, r0
 829              	.LBB29:
 830              		.loc 1 293 0
 831 000e 2023     		movs	r3, #32
 832              	.LVL92:
 833              	@ 293 "../../os/kernel/src/chevents.c" 1
ARM GAS  /tmp/ccePAp3r.s 			page 16


 834 0010 83F31188 		msr     BASEPRI, r3
 835              	@ 0 "" 2
 836              		.thumb
 837              	.LBE29:
 838              		.loc 1 295 0
 839 0014 636B     		ldr	r3, [r4, #52]
 840              	.LVL93:
 841 0016 10EA0302 		ands	r2, r0, r3
 842              	.LVL94:
 843 001a 06D1     		bne	.L50
 844              		.loc 1 296 0
 845 001c 2062     		str	r0, [r4, #32]
 846              		.loc 1 297 0
 847 001e 0820     		movs	r0, #8
 848              	.LVL95:
 849 0020 FFF7FEFF 		bl	chSchGoSleepS
 850              	.LVL96:
 851              		.loc 1 298 0
 852 0024 636B     		ldr	r3, [r4, #52]
 853 0026 05EA0302 		and	r2, r5, r3
 854              	.LVL97:
 855              	.L50:
 856              		.loc 1 300 0
 857 002a 5042     		negs	r0, r2
 858 002c 1040     		ands	r0, r0, r2
 859              	.LVL98:
 860              		.loc 1 301 0
 861 002e 23EA0001 		bic	r1, r3, r0
 862 0032 6163     		str	r1, [r4, #52]
 863              	.LBB30:
 864              		.loc 1 303 0
 865 0034 0023     		movs	r3, #0
 866              	.LVL99:
 867              	@ 303 "../../os/kernel/src/chevents.c" 1
 868 0036 83F31188 		msr     BASEPRI, r3
 869              	@ 0 "" 2
 870              	.LVL100:
 871              		.thumb
 872              	.LBE30:
 873              		.loc 1 305 0
 874 003a 38BD     		pop	{r3, r4, r5, pc}
 875              		.cfi_endproc
 876              	.LFE16:
 877              		.size	chEvtWaitOne, .-chEvtWaitOne
 878 003c AFF30080 		.section	.text.chEvtSignalI,"ax",%progbits
 879              		.align	2
 880              		.p2align 4,,15
 881              		.global	chEvtSignalI
 882              		.thumb
 883              		.thumb_func
 884              		.type	chEvtSignalI, %function
 885              	chEvtSignalI:
 886              	.LFB12:
 887              		.loc 1 192 0
 888              		.cfi_startproc
 889              		@ args = 0, pretend = 0, frame = 0
 890              		@ frame_needed = 0, uses_anonymous_args = 0
ARM GAS  /tmp/ccePAp3r.s 			page 17


 891              	.LVL101:
 892 0000 08B5     		push	{r3, lr}
 893              	.LCFI9:
 894              		.cfi_def_cfa_offset 8
 895              		.loc 1 196 0
 896 0002 426B     		ldr	r2, [r0, #52]
 897              		.loc 1 198 0
 898 0004 037E     		ldrb	r3, [r0, #24]	@ zero_extendqisi2
 899              		.cfi_offset 14, -4
 900              		.cfi_offset 3, -8
 901              		.loc 1 196 0
 902 0006 41EA0202 		orr	r2, r1, r2
 903              		.loc 1 198 0
 904 000a 082B     		cmp	r3, #8
 905              		.loc 1 196 0
 906 000c 4263     		str	r2, [r0, #52]
 907              		.loc 1 198 0
 908 000e 0BD0     		beq	.L57
 909 0010 092B     		cmp	r3, #9
 910 0012 00D0     		beq	.L58
 911              	.L56:
 912 0014 08BD     		pop	{r3, pc}
 913              	.L58:
 914              		.loc 1 201 0
 915 0016 016A     		ldr	r1, [r0, #32]
 916              	.LVL102:
 917              		.loc 1 198 0
 918 0018 0A40     		ands	r2, r2, r1
 919 001a 9142     		cmp	r1, r2
 920 001c FAD1     		bne	.L56
 921              	.LVL103:
 922              	.L54:
 923              		.loc 1 202 0
 924 001e FFF7FEFF 		bl	chSchReadyI
 925              	.LVL104:
 926 0022 0022     		movs	r2, #0
 927 0024 0262     		str	r2, [r0, #32]
 928 0026 08BD     		pop	{r3, pc}
 929              	.LVL105:
 930              	.L57:
 931              		.loc 1 199 0
 932 0028 036A     		ldr	r3, [r0, #32]
 933 002a 1A42     		tst	r2, r3
 934 002c F7D1     		bne	.L54
 935 002e 08BD     		pop	{r3, pc}
 936              		.cfi_endproc
 937              	.LFE12:
 938              		.size	chEvtSignalI, .-chEvtSignalI
 939              		.section	.text.chEvtBroadcastI,"ax",%progbits
 940              		.align	2
 941              		.p2align 4,,15
 942              		.global	chEvtBroadcastI
 943              		.thumb
 944              		.thumb_func
 945              		.type	chEvtBroadcastI, %function
 946              	chEvtBroadcastI:
 947              	.LFB14:
ARM GAS  /tmp/ccePAp3r.s 			page 18


 948              		.loc 1 233 0
 949              		.cfi_startproc
 950              		@ args = 0, pretend = 0, frame = 0
 951              		@ frame_needed = 0, uses_anonymous_args = 0
 952              	.LVL106:
 953 0000 38B5     		push	{r3, r4, r5, lr}
 954              	.LCFI10:
 955              		.cfi_def_cfa_offset 16
 956              		.loc 1 238 0
 957 0002 0468     		ldr	r4, [r0, #0]
 958              		.cfi_offset 14, -4
 959              		.cfi_offset 5, -8
 960              		.cfi_offset 4, -12
 961              		.cfi_offset 3, -16
 962              	.LVL107:
 963              		.loc 1 233 0
 964 0004 0546     		mov	r5, r0
 965              		.loc 1 239 0
 966 0006 8442     		cmp	r4, r0
 967 0008 06D0     		beq	.L62
 968              	.L63:
 969              		.loc 1 240 0
 970 000a 6068     		ldr	r0, [r4, #4]
 971              	.LVL108:
 972 000c A168     		ldr	r1, [r4, #8]
 973 000e FFF7FEFF 		bl	chEvtSignalI
 974              		.loc 1 241 0
 975 0012 2468     		ldr	r4, [r4, #0]
 976              		.loc 1 239 0
 977 0014 AC42     		cmp	r4, r5
 978 0016 F8D1     		bne	.L63
 979              	.LVL109:
 980              	.L62:
 981 0018 38BD     		pop	{r3, r4, r5, pc}
 982              		.cfi_endproc
 983              	.LFE14:
 984              		.size	chEvtBroadcastI, .-chEvtBroadcastI
 985 001a 00BFAFF3 		.section	.text.chEvtBroadcast,"ax",%progbits
 985      0080
 986              		.align	2
 987              		.p2align 4,,15
 988              		.global	chEvtBroadcast
 989              		.thumb
 990              		.thumb_func
 991              		.type	chEvtBroadcast, %function
 992              	chEvtBroadcast:
 993              	.LFB13:
 994              		.loc 1 213 0
 995              		.cfi_startproc
 996              		@ args = 0, pretend = 0, frame = 0
 997              		@ frame_needed = 0, uses_anonymous_args = 0
 998              	.LVL110:
 999 0000 08B5     		push	{r3, lr}
 1000              	.LCFI11:
 1001              		.cfi_def_cfa_offset 8
 1002              	.LBB31:
 1003              		.loc 1 215 0
ARM GAS  /tmp/ccePAp3r.s 			page 19


 1004 0002 2023     		movs	r3, #32
 1005              		.cfi_offset 14, -4
 1006              		.cfi_offset 3, -8
 1007              	.LVL111:
 1008              	@ 215 "../../os/kernel/src/chevents.c" 1
 1009 0004 83F31188 		msr     BASEPRI, r3
 1010              	@ 0 "" 2
 1011              		.thumb
 1012              	.LBE31:
 1013              		.loc 1 216 0
 1014 0008 FFF7FEFF 		bl	chEvtBroadcastI
 1015              	.LVL112:
 1016              		.loc 1 217 0
 1017 000c FFF7FEFF 		bl	chSchRescheduleS
 1018              	.LBB32:
 1019              		.loc 1 218 0
 1020 0010 0023     		movs	r3, #0
 1021              	.LVL113:
 1022              	@ 218 "../../os/kernel/src/chevents.c" 1
 1023 0012 83F31188 		msr     BASEPRI, r3
 1024              	@ 0 "" 2
 1025              		.thumb
 1026              	.LBE32:
 1027              		.loc 1 219 0
 1028 0016 08BD     		pop	{r3, pc}
 1029              		.cfi_endproc
 1030              	.LFE13:
 1031              		.size	chEvtBroadcast, .-chEvtBroadcast
 1032 0018 AFF30080 		.section	.text.chEvtSignal,"ax",%progbits
 1032      AFF30080 
 1033              		.align	2
 1034              		.p2align 4,,15
 1035              		.global	chEvtSignal
 1036              		.thumb
 1037              		.thumb_func
 1038              		.type	chEvtSignal, %function
 1039              	chEvtSignal:
 1040              	.LFB11:
 1041              		.loc 1 170 0
 1042              		.cfi_startproc
 1043              		@ args = 0, pretend = 0, frame = 0
 1044              		@ frame_needed = 0, uses_anonymous_args = 0
 1045              	.LVL114:
 1046 0000 08B5     		push	{r3, lr}
 1047              	.LCFI12:
 1048              		.cfi_def_cfa_offset 8
 1049              	.LBB33:
 1050              		.loc 1 174 0
 1051 0002 2023     		movs	r3, #32
 1052              		.cfi_offset 14, -4
 1053              		.cfi_offset 3, -8
 1054              	.LVL115:
 1055              	@ 174 "../../os/kernel/src/chevents.c" 1
 1056 0004 83F31188 		msr     BASEPRI, r3
 1057              	@ 0 "" 2
 1058              		.thumb
 1059              	.LBE33:
ARM GAS  /tmp/ccePAp3r.s 			page 20


 1060              		.loc 1 175 0
 1061 0008 FFF7FEFF 		bl	chEvtSignalI
 1062              	.LVL116:
 1063              		.loc 1 176 0
 1064 000c FFF7FEFF 		bl	chSchRescheduleS
 1065              	.LBB34:
 1066              		.loc 1 177 0
 1067 0010 0023     		movs	r3, #0
 1068              	.LVL117:
 1069              	@ 177 "../../os/kernel/src/chevents.c" 1
 1070 0012 83F31188 		msr     BASEPRI, r3
 1071              	@ 0 "" 2
 1072              		.thumb
 1073              	.LBE34:
 1074              		.loc 1 178 0
 1075 0016 08BD     		pop	{r3, pc}
 1076              		.cfi_endproc
 1077              	.LFE11:
 1078              		.size	chEvtSignal, .-chEvtSignal
 1079 0018 AFF30080 		.text
 1079      AFF30080 
 1080              	.Letext0:
 1081              		.section	.debug_loc,"",%progbits
 1082              	.Ldebug_loc0:
 1083              	.LLST0:
 1084 0000 00000000 		.4byte	.LFB7
 1085 0004 02000000 		.4byte	.LCFI0
 1086 0008 0100     		.2byte	0x1
 1087 000a 5D       		.byte	0x5d
 1088 000b 02000000 		.4byte	.LCFI0
 1089 000f 26000000 		.4byte	.LFE7
 1090 0013 0200     		.2byte	0x2
 1091 0015 7D       		.byte	0x7d
 1092 0016 04       		.sleb128 4
 1093 0017 00000000 		.4byte	0x0
 1094 001b 00000000 		.4byte	0x0
 1095              	.LLST1:
 1096 001f 04000000 		.4byte	.LVL1
 1097 0023 12000000 		.4byte	.LVL2
 1098 0027 0100     		.2byte	0x1
 1099 0029 53       		.byte	0x53
 1100 002a 00000000 		.4byte	0x0
 1101 002e 00000000 		.4byte	0x0
 1102              	.LLST3:
 1103 0032 08000000 		.4byte	.LVL6
 1104 0036 0A000000 		.4byte	.LVL7
 1105 003a 0100     		.2byte	0x1
 1106 003c 52       		.byte	0x52
 1107 003d 0A000000 		.4byte	.LVL7
 1108 0041 10000000 		.4byte	.LVL8
 1109 0045 0100     		.2byte	0x1
 1110 0047 53       		.byte	0x53
 1111 0048 10000000 		.4byte	.LVL8
 1112 004c 12000000 		.4byte	.LVL9
 1113 0050 0100     		.2byte	0x1
 1114 0052 52       		.byte	0x52
 1115 0053 12000000 		.4byte	.LVL9
ARM GAS  /tmp/ccePAp3r.s 			page 21


 1116 0057 18000000 		.4byte	.LVL10
 1117 005b 0100     		.2byte	0x1
 1118 005d 53       		.byte	0x53
 1119 005e 1E000000 		.4byte	.LVL11
 1120 0062 20000000 		.4byte	.LVL12
 1121 0066 0100     		.2byte	0x1
 1122 0068 53       		.byte	0x53
 1123 0069 22000000 		.4byte	.LVL13
 1124 006d 2A000000 		.4byte	.LFE8
 1125 0071 0100     		.2byte	0x1
 1126 0073 52       		.byte	0x52
 1127 0074 00000000 		.4byte	0x0
 1128 0078 00000000 		.4byte	0x0
 1129              	.LLST4:
 1130 007c 02000000 		.4byte	.LVL5
 1131 0080 0A000000 		.4byte	.LVL7
 1132 0084 0100     		.2byte	0x1
 1133 0086 53       		.byte	0x53
 1134 0087 10000000 		.4byte	.LVL8
 1135 008b 12000000 		.4byte	.LVL9
 1136 008f 0100     		.2byte	0x1
 1137 0091 53       		.byte	0x53
 1138 0092 00000000 		.4byte	0x0
 1139 0096 00000000 		.4byte	0x0
 1140              	.LLST5:
 1141 009a 18000000 		.4byte	.LVL10
 1142 009e 1E000000 		.4byte	.LVL11
 1143 00a2 0100     		.2byte	0x1
 1144 00a4 53       		.byte	0x53
 1145 00a5 24000000 		.4byte	.LVL14
 1146 00a9 2A000000 		.4byte	.LFE8
 1147 00ad 0100     		.2byte	0x1
 1148 00af 53       		.byte	0x53
 1149 00b0 00000000 		.4byte	0x0
 1150 00b4 00000000 		.4byte	0x0
 1151              	.LLST6:
 1152 00b8 00000000 		.4byte	.LFB9
 1153 00bc 02000000 		.4byte	.LCFI1
 1154 00c0 0100     		.2byte	0x1
 1155 00c2 5D       		.byte	0x5d
 1156 00c3 02000000 		.4byte	.LCFI1
 1157 00c7 26000000 		.4byte	.LFE9
 1158 00cb 0200     		.2byte	0x2
 1159 00cd 7D       		.byte	0x7d
 1160 00ce 04       		.sleb128 4
 1161 00cf 00000000 		.4byte	0x0
 1162 00d3 00000000 		.4byte	0x0
 1163              	.LLST7:
 1164 00d7 00000000 		.4byte	.LVL15
 1165 00db 22000000 		.4byte	.LVL19
 1166 00df 0100     		.2byte	0x1
 1167 00e1 50       		.byte	0x50
 1168 00e2 00000000 		.4byte	0x0
 1169 00e6 00000000 		.4byte	0x0
 1170              	.LLST8:
 1171 00ea 04000000 		.4byte	.LVL16
 1172 00ee 0C000000 		.4byte	.LVL17
ARM GAS  /tmp/ccePAp3r.s 			page 22


 1173 00f2 0100     		.2byte	0x1
 1174 00f4 53       		.byte	0x53
 1175 00f5 00000000 		.4byte	0x0
 1176 00f9 00000000 		.4byte	0x0
 1177              	.LLST10:
 1178 00fd 00000000 		.4byte	.LVL20
 1179 0101 16000000 		.4byte	.LVL24
 1180 0105 0100     		.2byte	0x1
 1181 0107 50       		.byte	0x50
 1182 0108 00000000 		.4byte	0x0
 1183 010c 00000000 		.4byte	0x0
 1184              	.LLST11:
 1185 0110 02000000 		.4byte	.LVL21
 1186 0114 0A000000 		.4byte	.LVL22
 1187 0118 0100     		.2byte	0x1
 1188 011a 53       		.byte	0x53
 1189 011b 00000000 		.4byte	0x0
 1190 011f 00000000 		.4byte	0x0
 1191              	.LLST12:
 1192 0123 00000000 		.4byte	.LFB15
 1193 0127 02000000 		.4byte	.LCFI2
 1194 012b 0100     		.2byte	0x1
 1195 012d 5D       		.byte	0x5d
 1196 012e 02000000 		.4byte	.LCFI2
 1197 0132 32000000 		.4byte	.LFE15
 1198 0136 0200     		.2byte	0x2
 1199 0138 7D       		.byte	0x7d
 1200 0139 18       		.sleb128 24
 1201 013a 00000000 		.4byte	0x0
 1202 013e 00000000 		.4byte	0x0
 1203              	.LLST13:
 1204 0142 00000000 		.4byte	.LVL25
 1205 0146 08000000 		.4byte	.LVL26
 1206 014a 0100     		.2byte	0x1
 1207 014c 50       		.byte	0x50
 1208 014d 08000000 		.4byte	.LVL26
 1209 0151 32000000 		.4byte	.LFE15
 1210 0155 0100     		.2byte	0x1
 1211 0157 55       		.byte	0x55
 1212 0158 00000000 		.4byte	0x0
 1213 015c 00000000 		.4byte	0x0
 1214              	.LLST14:
 1215 0160 00000000 		.4byte	.LVL25
 1216 0164 14000000 		.4byte	.LVL28
 1217 0168 0100     		.2byte	0x1
 1218 016a 51       		.byte	0x51
 1219 016b 14000000 		.4byte	.LVL28
 1220 016f 32000000 		.4byte	.LFE15
 1221 0173 0100     		.2byte	0x1
 1222 0175 54       		.byte	0x54
 1223 0176 00000000 		.4byte	0x0
 1224 017a 00000000 		.4byte	0x0
 1225              	.LLST15:
 1226 017e 00000000 		.4byte	.LFB21
 1227 0182 02000000 		.4byte	.LCFI3
 1228 0186 0100     		.2byte	0x1
 1229 0188 5D       		.byte	0x5d
ARM GAS  /tmp/ccePAp3r.s 			page 23


 1230 0189 02000000 		.4byte	.LCFI3
 1231 018d 54000000 		.4byte	.LFE21
 1232 0191 0200     		.2byte	0x2
 1233 0193 7D       		.byte	0x7d
 1234 0194 10       		.sleb128 16
 1235 0195 00000000 		.4byte	0x0
 1236 0199 00000000 		.4byte	0x0
 1237              	.LLST16:
 1238 019d 00000000 		.4byte	.LVL30
 1239 01a1 18000000 		.4byte	.LVL34
 1240 01a5 0100     		.2byte	0x1
 1241 01a7 50       		.byte	0x50
 1242 01a8 18000000 		.4byte	.LVL34
 1243 01ac 54000000 		.4byte	.LFE21
 1244 01b0 0100     		.2byte	0x1
 1245 01b2 54       		.byte	0x54
 1246 01b3 00000000 		.4byte	0x0
 1247 01b7 00000000 		.4byte	0x0
 1248              	.LLST17:
 1249 01bb 00000000 		.4byte	.LVL30
 1250 01bf 32000000 		.4byte	.LVL37
 1251 01c3 0100     		.2byte	0x1
 1252 01c5 51       		.byte	0x51
 1253 01c6 3A000000 		.4byte	.LVL38
 1254 01ca 3E000000 		.4byte	.LVL39
 1255 01ce 0100     		.2byte	0x1
 1256 01d0 51       		.byte	0x51
 1257 01d1 00000000 		.4byte	0x0
 1258 01d5 00000000 		.4byte	0x0
 1259              	.LLST18:
 1260 01d9 10000000 		.4byte	.LVL32
 1261 01dd 16000000 		.4byte	.LVL33
 1262 01e1 0100     		.2byte	0x1
 1263 01e3 53       		.byte	0x53
 1264 01e4 00000000 		.4byte	0x0
 1265 01e8 00000000 		.4byte	0x0
 1266              	.LLST19:
 1267 01ec 20000000 		.4byte	.LVL35
 1268 01f0 2A000000 		.4byte	.LVL36
 1269 01f4 0100     		.2byte	0x1
 1270 01f6 53       		.byte	0x53
 1271 01f7 00000000 		.4byte	0x0
 1272 01fb 00000000 		.4byte	0x0
 1273              	.LLST20:
 1274 01ff 42000000 		.4byte	.LVL40
 1275 0203 4A000000 		.4byte	.LVL42
 1276 0207 0100     		.2byte	0x1
 1277 0209 53       		.byte	0x53
 1278 020a 00000000 		.4byte	0x0
 1279 020e 00000000 		.4byte	0x0
 1280              	.LLST21:
 1281 0212 46000000 		.4byte	.LVL41
 1282 0216 4A000000 		.4byte	.LVL42
 1283 021a 0100     		.2byte	0x1
 1284 021c 53       		.byte	0x53
 1285 021d 4C000000 		.4byte	.LVL43
 1286 0221 54000000 		.4byte	.LFE21
ARM GAS  /tmp/ccePAp3r.s 			page 24


 1287 0225 0100     		.2byte	0x1
 1288 0227 53       		.byte	0x53
 1289 0228 00000000 		.4byte	0x0
 1290 022c 00000000 		.4byte	0x0
 1291              	.LLST22:
 1292 0230 00000000 		.4byte	.LFB20
 1293 0234 0A000000 		.4byte	.LCFI4
 1294 0238 0100     		.2byte	0x1
 1295 023a 5D       		.byte	0x5d
 1296 023b 0A000000 		.4byte	.LCFI4
 1297 023f 52000000 		.4byte	.LFE20
 1298 0243 0200     		.2byte	0x2
 1299 0245 7D       		.byte	0x7d
 1300 0246 10       		.sleb128 16
 1301 0247 00000000 		.4byte	0x0
 1302 024b 00000000 		.4byte	0x0
 1303              	.LLST23:
 1304 024f 00000000 		.4byte	.LVL44
 1305 0253 26000000 		.4byte	.LVL50
 1306 0257 0100     		.2byte	0x1
 1307 0259 50       		.byte	0x50
 1308 025a 26000000 		.4byte	.LVL50
 1309 025e 28000000 		.4byte	.LVL51
 1310 0262 0100     		.2byte	0x1
 1311 0264 54       		.byte	0x54
 1312 0265 28000000 		.4byte	.LVL51
 1313 0269 2C000000 		.4byte	.LVL52
 1314 026d 0100     		.2byte	0x1
 1315 026f 50       		.byte	0x50
 1316 0270 2C000000 		.4byte	.LVL52
 1317 0274 52000000 		.4byte	.LFE20
 1318 0278 0100     		.2byte	0x1
 1319 027a 54       		.byte	0x54
 1320 027b 00000000 		.4byte	0x0
 1321 027f 00000000 		.4byte	0x0
 1322              	.LLST24:
 1323 0283 00000000 		.4byte	.LVL44
 1324 0287 30000000 		.4byte	.LVL53
 1325 028b 0100     		.2byte	0x1
 1326 028d 51       		.byte	0x51
 1327 028e 3A000000 		.4byte	.LVL54
 1328 0292 4A000000 		.4byte	.LVL57
 1329 0296 0100     		.2byte	0x1
 1330 0298 51       		.byte	0x51
 1331 0299 00000000 		.4byte	0x0
 1332 029d 00000000 		.4byte	0x0
 1333              	.LLST25:
 1334 02a1 10000000 		.4byte	.LVL46
 1335 02a5 16000000 		.4byte	.LVL47
 1336 02a9 0100     		.2byte	0x1
 1337 02ab 53       		.byte	0x53
 1338 02ac 00000000 		.4byte	0x0
 1339 02b0 00000000 		.4byte	0x0
 1340              	.LLST26:
 1341 02b4 20000000 		.4byte	.LVL49
 1342 02b8 28000000 		.4byte	.LVL51
 1343 02bc 0100     		.2byte	0x1
ARM GAS  /tmp/ccePAp3r.s 			page 25


 1344 02be 53       		.byte	0x53
 1345 02bf 00000000 		.4byte	0x0
 1346 02c3 00000000 		.4byte	0x0
 1347              	.LLST27:
 1348 02c7 42000000 		.4byte	.LVL55
 1349 02cb 4A000000 		.4byte	.LVL57
 1350 02cf 0100     		.2byte	0x1
 1351 02d1 53       		.byte	0x53
 1352 02d2 00000000 		.4byte	0x0
 1353 02d6 00000000 		.4byte	0x0
 1354              	.LLST28:
 1355 02da 46000000 		.4byte	.LVL56
 1356 02de 4A000000 		.4byte	.LVL57
 1357 02e2 0100     		.2byte	0x1
 1358 02e4 53       		.byte	0x53
 1359 02e5 4C000000 		.4byte	.LVL58
 1360 02e9 52000000 		.4byte	.LFE20
 1361 02ed 0100     		.2byte	0x1
 1362 02ef 53       		.byte	0x53
 1363 02f0 00000000 		.4byte	0x0
 1364 02f4 00000000 		.4byte	0x0
 1365              	.LLST29:
 1366 02f8 00000000 		.4byte	.LFB19
 1367 02fc 0A000000 		.4byte	.LCFI5
 1368 0300 0100     		.2byte	0x1
 1369 0302 5D       		.byte	0x5d
 1370 0303 0A000000 		.4byte	.LCFI5
 1371 0307 56000000 		.4byte	.LFE19
 1372 030b 0200     		.2byte	0x2
 1373 030d 7D       		.byte	0x7d
 1374 030e 10       		.sleb128 16
 1375 030f 00000000 		.4byte	0x0
 1376 0313 00000000 		.4byte	0x0
 1377              	.LLST30:
 1378 0317 00000000 		.4byte	.LVL59
 1379 031b 26000000 		.4byte	.LVL65
 1380 031f 0100     		.2byte	0x1
 1381 0321 50       		.byte	0x50
 1382 0322 26000000 		.4byte	.LVL65
 1383 0326 28000000 		.4byte	.LVL66
 1384 032a 0100     		.2byte	0x1
 1385 032c 55       		.byte	0x55
 1386 032d 28000000 		.4byte	.LVL66
 1387 0331 2C000000 		.4byte	.LVL67
 1388 0335 0100     		.2byte	0x1
 1389 0337 50       		.byte	0x50
 1390 0338 2C000000 		.4byte	.LVL67
 1391 033c 56000000 		.4byte	.LFE19
 1392 0340 0100     		.2byte	0x1
 1393 0342 55       		.byte	0x55
 1394 0343 00000000 		.4byte	0x0
 1395 0347 00000000 		.4byte	0x0
 1396              	.LLST31:
 1397 034b 00000000 		.4byte	.LVL59
 1398 034f 30000000 		.4byte	.LVL68
 1399 0353 0100     		.2byte	0x1
 1400 0355 51       		.byte	0x51
ARM GAS  /tmp/ccePAp3r.s 			page 26


 1401 0356 3A000000 		.4byte	.LVL69
 1402 035a 4E000000 		.4byte	.LVL72
 1403 035e 0100     		.2byte	0x1
 1404 0360 51       		.byte	0x51
 1405 0361 00000000 		.4byte	0x0
 1406 0365 00000000 		.4byte	0x0
 1407              	.LLST32:
 1408 0369 10000000 		.4byte	.LVL61
 1409 036d 16000000 		.4byte	.LVL62
 1410 0371 0100     		.2byte	0x1
 1411 0373 53       		.byte	0x53
 1412 0374 00000000 		.4byte	0x0
 1413 0378 00000000 		.4byte	0x0
 1414              	.LLST33:
 1415 037c 20000000 		.4byte	.LVL64
 1416 0380 28000000 		.4byte	.LVL66
 1417 0384 0100     		.2byte	0x1
 1418 0386 53       		.byte	0x53
 1419 0387 00000000 		.4byte	0x0
 1420 038b 00000000 		.4byte	0x0
 1421              	.LLST34:
 1422 038f 46000000 		.4byte	.LVL70
 1423 0393 4E000000 		.4byte	.LVL72
 1424 0397 0100     		.2byte	0x1
 1425 0399 53       		.byte	0x53
 1426 039a 00000000 		.4byte	0x0
 1427 039e 00000000 		.4byte	0x0
 1428              	.LLST35:
 1429 03a2 4A000000 		.4byte	.LVL71
 1430 03a6 4E000000 		.4byte	.LVL72
 1431 03aa 0100     		.2byte	0x1
 1432 03ac 53       		.byte	0x53
 1433 03ad 50000000 		.4byte	.LVL73
 1434 03b1 56000000 		.4byte	.LFE19
 1435 03b5 0100     		.2byte	0x1
 1436 03b7 53       		.byte	0x53
 1437 03b8 00000000 		.4byte	0x0
 1438 03bc 00000000 		.4byte	0x0
 1439              	.LLST36:
 1440 03c0 00000000 		.4byte	.LFB18
 1441 03c4 02000000 		.4byte	.LCFI6
 1442 03c8 0100     		.2byte	0x1
 1443 03ca 5D       		.byte	0x5d
 1444 03cb 02000000 		.4byte	.LCFI6
 1445 03cf 38000000 		.4byte	.LFE18
 1446 03d3 0200     		.2byte	0x2
 1447 03d5 7D       		.byte	0x7d
 1448 03d6 10       		.sleb128 16
 1449 03d7 00000000 		.4byte	0x0
 1450 03db 00000000 		.4byte	0x0
 1451              	.LLST37:
 1452 03df 00000000 		.4byte	.LVL74
 1453 03e3 22000000 		.4byte	.LVL78
 1454 03e7 0100     		.2byte	0x1
 1455 03e9 50       		.byte	0x50
 1456 03ea 22000000 		.4byte	.LVL78
 1457 03ee 38000000 		.4byte	.LFE18
ARM GAS  /tmp/ccePAp3r.s 			page 27


 1458 03f2 0100     		.2byte	0x1
 1459 03f4 54       		.byte	0x54
 1460 03f5 00000000 		.4byte	0x0
 1461 03f9 00000000 		.4byte	0x0
 1462              	.LLST38:
 1463 03fd 10000000 		.4byte	.LVL76
 1464 0401 16000000 		.4byte	.LVL77
 1465 0405 0100     		.2byte	0x1
 1466 0407 53       		.byte	0x53
 1467 0408 00000000 		.4byte	0x0
 1468 040c 00000000 		.4byte	0x0
 1469              	.LLST39:
 1470 0410 00000000 		.4byte	.LFB17
 1471 0414 02000000 		.4byte	.LCFI7
 1472 0418 0100     		.2byte	0x1
 1473 041a 5D       		.byte	0x5d
 1474 041b 02000000 		.4byte	.LCFI7
 1475 041f 36000000 		.4byte	.LFE17
 1476 0423 0200     		.2byte	0x2
 1477 0425 7D       		.byte	0x7d
 1478 0426 10       		.sleb128 16
 1479 0427 00000000 		.4byte	0x0
 1480 042b 00000000 		.4byte	0x0
 1481              	.LLST40:
 1482 042f 00000000 		.4byte	.LVL81
 1483 0433 18000000 		.4byte	.LVL85
 1484 0437 0100     		.2byte	0x1
 1485 0439 50       		.byte	0x50
 1486 043a 18000000 		.4byte	.LVL85
 1487 043e 36000000 		.4byte	.LFE17
 1488 0442 0100     		.2byte	0x1
 1489 0444 55       		.byte	0x55
 1490 0445 00000000 		.4byte	0x0
 1491 0449 00000000 		.4byte	0x0
 1492              	.LLST41:
 1493 044d 18000000 		.4byte	.LVL85
 1494 0451 1C000000 		.4byte	.LVL86
 1495 0455 0100     		.2byte	0x1
 1496 0457 50       		.byte	0x50
 1497 0458 28000000 		.4byte	.LVL87
 1498 045c 34000000 		.4byte	.LVL89
 1499 0460 0100     		.2byte	0x1
 1500 0462 50       		.byte	0x50
 1501 0463 00000000 		.4byte	0x0
 1502 0467 00000000 		.4byte	0x0
 1503              	.LLST42:
 1504 046b 10000000 		.4byte	.LVL83
 1505 046f 16000000 		.4byte	.LVL84
 1506 0473 0100     		.2byte	0x1
 1507 0475 53       		.byte	0x53
 1508 0476 00000000 		.4byte	0x0
 1509 047a 00000000 		.4byte	0x0
 1510              	.LLST43:
 1511 047e 00000000 		.4byte	.LFB16
 1512 0482 02000000 		.4byte	.LCFI8
 1513 0486 0100     		.2byte	0x1
 1514 0488 5D       		.byte	0x5d
ARM GAS  /tmp/ccePAp3r.s 			page 28


 1515 0489 02000000 		.4byte	.LCFI8
 1516 048d 3C000000 		.4byte	.LFE16
 1517 0491 0200     		.2byte	0x2
 1518 0493 7D       		.byte	0x7d
 1519 0494 10       		.sleb128 16
 1520 0495 00000000 		.4byte	0x0
 1521 0499 00000000 		.4byte	0x0
 1522              	.LLST44:
 1523 049d 00000000 		.4byte	.LVL90
 1524 04a1 20000000 		.4byte	.LVL95
 1525 04a5 0100     		.2byte	0x1
 1526 04a7 50       		.byte	0x50
 1527 04a8 20000000 		.4byte	.LVL95
 1528 04ac 3C000000 		.4byte	.LFE16
 1529 04b0 0100     		.2byte	0x1
 1530 04b2 55       		.byte	0x55
 1531 04b3 00000000 		.4byte	0x0
 1532 04b7 00000000 		.4byte	0x0
 1533              	.LLST45:
 1534 04bb 1A000000 		.4byte	.LVL94
 1535 04bf 24000000 		.4byte	.LVL96
 1536 04c3 0100     		.2byte	0x1
 1537 04c5 52       		.byte	0x52
 1538 04c6 2A000000 		.4byte	.LVL97
 1539 04ca 2E000000 		.4byte	.LVL98
 1540 04ce 0100     		.2byte	0x1
 1541 04d0 52       		.byte	0x52
 1542 04d1 2E000000 		.4byte	.LVL98
 1543 04d5 3A000000 		.4byte	.LVL100
 1544 04d9 0100     		.2byte	0x1
 1545 04db 50       		.byte	0x50
 1546 04dc 00000000 		.4byte	0x0
 1547 04e0 00000000 		.4byte	0x0
 1548              	.LLST46:
 1549 04e4 10000000 		.4byte	.LVL92
 1550 04e8 16000000 		.4byte	.LVL93
 1551 04ec 0100     		.2byte	0x1
 1552 04ee 53       		.byte	0x53
 1553 04ef 00000000 		.4byte	0x0
 1554 04f3 00000000 		.4byte	0x0
 1555              	.LLST47:
 1556 04f7 00000000 		.4byte	.LFB12
 1557 04fb 02000000 		.4byte	.LCFI9
 1558 04ff 0100     		.2byte	0x1
 1559 0501 5D       		.byte	0x5d
 1560 0502 02000000 		.4byte	.LCFI9
 1561 0506 30000000 		.4byte	.LFE12
 1562 050a 0200     		.2byte	0x2
 1563 050c 7D       		.byte	0x7d
 1564 050d 08       		.sleb128 8
 1565 050e 00000000 		.4byte	0x0
 1566 0512 00000000 		.4byte	0x0
 1567              	.LLST48:
 1568 0516 00000000 		.4byte	.LVL101
 1569 051a 22000000 		.4byte	.LVL104
 1570 051e 0100     		.2byte	0x1
 1571 0520 50       		.byte	0x50
ARM GAS  /tmp/ccePAp3r.s 			page 29


 1572 0521 28000000 		.4byte	.LVL105
 1573 0525 30000000 		.4byte	.LFE12
 1574 0529 0100     		.2byte	0x1
 1575 052b 50       		.byte	0x50
 1576 052c 00000000 		.4byte	0x0
 1577 0530 00000000 		.4byte	0x0
 1578              	.LLST49:
 1579 0534 00000000 		.4byte	.LVL101
 1580 0538 18000000 		.4byte	.LVL102
 1581 053c 0100     		.2byte	0x1
 1582 053e 51       		.byte	0x51
 1583 053f 1E000000 		.4byte	.LVL103
 1584 0543 22000000 		.4byte	.LVL104
 1585 0547 0100     		.2byte	0x1
 1586 0549 51       		.byte	0x51
 1587 054a 28000000 		.4byte	.LVL105
 1588 054e 30000000 		.4byte	.LFE12
 1589 0552 0100     		.2byte	0x1
 1590 0554 51       		.byte	0x51
 1591 0555 00000000 		.4byte	0x0
 1592 0559 00000000 		.4byte	0x0
 1593              	.LLST50:
 1594 055d 00000000 		.4byte	.LFB14
 1595 0561 02000000 		.4byte	.LCFI10
 1596 0565 0100     		.2byte	0x1
 1597 0567 5D       		.byte	0x5d
 1598 0568 02000000 		.4byte	.LCFI10
 1599 056c 1A000000 		.4byte	.LFE14
 1600 0570 0200     		.2byte	0x2
 1601 0572 7D       		.byte	0x7d
 1602 0573 10       		.sleb128 16
 1603 0574 00000000 		.4byte	0x0
 1604 0578 00000000 		.4byte	0x0
 1605              	.LLST51:
 1606 057c 00000000 		.4byte	.LVL106
 1607 0580 0C000000 		.4byte	.LVL108
 1608 0584 0100     		.2byte	0x1
 1609 0586 50       		.byte	0x50
 1610 0587 0C000000 		.4byte	.LVL108
 1611 058b 1A000000 		.4byte	.LFE14
 1612 058f 0100     		.2byte	0x1
 1613 0591 55       		.byte	0x55
 1614 0592 00000000 		.4byte	0x0
 1615 0596 00000000 		.4byte	0x0
 1616              	.LLST52:
 1617 059a 00000000 		.4byte	.LFB13
 1618 059e 02000000 		.4byte	.LCFI11
 1619 05a2 0100     		.2byte	0x1
 1620 05a4 5D       		.byte	0x5d
 1621 05a5 02000000 		.4byte	.LCFI11
 1622 05a9 18000000 		.4byte	.LFE13
 1623 05ad 0200     		.2byte	0x2
 1624 05af 7D       		.byte	0x7d
 1625 05b0 08       		.sleb128 8
 1626 05b1 00000000 		.4byte	0x0
 1627 05b5 00000000 		.4byte	0x0
 1628              	.LLST53:
ARM GAS  /tmp/ccePAp3r.s 			page 30


 1629 05b9 00000000 		.4byte	.LVL110
 1630 05bd 0C000000 		.4byte	.LVL112
 1631 05c1 0100     		.2byte	0x1
 1632 05c3 50       		.byte	0x50
 1633 05c4 00000000 		.4byte	0x0
 1634 05c8 00000000 		.4byte	0x0
 1635              	.LLST54:
 1636 05cc 04000000 		.4byte	.LVL111
 1637 05d0 0C000000 		.4byte	.LVL112
 1638 05d4 0100     		.2byte	0x1
 1639 05d6 53       		.byte	0x53
 1640 05d7 00000000 		.4byte	0x0
 1641 05db 00000000 		.4byte	0x0
 1642              	.LLST55:
 1643 05df 00000000 		.4byte	.LFB11
 1644 05e3 02000000 		.4byte	.LCFI12
 1645 05e7 0100     		.2byte	0x1
 1646 05e9 5D       		.byte	0x5d
 1647 05ea 02000000 		.4byte	.LCFI12
 1648 05ee 18000000 		.4byte	.LFE11
 1649 05f2 0200     		.2byte	0x2
 1650 05f4 7D       		.byte	0x7d
 1651 05f5 08       		.sleb128 8
 1652 05f6 00000000 		.4byte	0x0
 1653 05fa 00000000 		.4byte	0x0
 1654              	.LLST56:
 1655 05fe 00000000 		.4byte	.LVL114
 1656 0602 0C000000 		.4byte	.LVL116
 1657 0606 0100     		.2byte	0x1
 1658 0608 50       		.byte	0x50
 1659 0609 00000000 		.4byte	0x0
 1660 060d 00000000 		.4byte	0x0
 1661              	.LLST57:
 1662 0611 00000000 		.4byte	.LVL114
 1663 0615 0C000000 		.4byte	.LVL116
 1664 0619 0100     		.2byte	0x1
 1665 061b 51       		.byte	0x51
 1666 061c 00000000 		.4byte	0x0
 1667 0620 00000000 		.4byte	0x0
 1668              	.LLST58:
 1669 0624 04000000 		.4byte	.LVL115
 1670 0628 0C000000 		.4byte	.LVL116
 1671 062c 0100     		.2byte	0x1
 1672 062e 53       		.byte	0x53
 1673 062f 00000000 		.4byte	0x0
 1674 0633 00000000 		.4byte	0x0
 1675              		.file 2 "/usr/local/LPCXpresso/tools/bin/../lib/gcc/arm-none-eabi/4.4.1/../../../../arm-none-eabi/
 1676              		.file 3 "../../os/ports/GCC/ARMCMx/chtypes.h"
 1677              		.file 4 "../../os/kernel/include/chlists.h"
 1678              		.file 5 "../../os/kernel/include/chthreads.h"
 1679              		.file 6 "../../os/ports/GCC/ARMCMx/chcore.h"
 1680              		.file 7 "../../os/ports/GCC/ARMCMx/chcore_v7m.h"
 1681              		.file 8 "../../os/kernel/include/chschd.h"
 1682              		.file 9 "../../os/kernel/include/chmtx.h"
 1683              		.file 10 "../../os/kernel/include/chevents.h"
 1684              		.section	.debug_info
 1685 0000 AD0B0000 		.4byte	0xbad
ARM GAS  /tmp/ccePAp3r.s 			page 31


 1686 0004 0200     		.2byte	0x2
 1687 0006 00000000 		.4byte	.Ldebug_abbrev0
 1688 000a 04       		.byte	0x4
 1689 000b 01       		.uleb128 0x1
 1690 000c 39000000 		.4byte	.LASF85
 1691 0010 01       		.byte	0x1
 1692 0011 5D030000 		.4byte	.LASF86
 1693 0015 60000000 		.4byte	.LASF87
 1694 0019 00000000 		.4byte	0x0
 1695 001d 00000000 		.4byte	0x0
 1696 0021 48000000 		.4byte	.Ldebug_ranges0+0x48
 1697 0025 00000000 		.4byte	.Ldebug_line0
 1698 0029 02       		.uleb128 0x2
 1699 002a 04       		.byte	0x4
 1700 002b 05       		.byte	0x5
 1701 002c 696E7400 		.ascii	"int\000"
 1702 0030 03       		.uleb128 0x3
 1703 0031 04       		.byte	0x4
 1704 0032 07       		.byte	0x7
 1705 0033 4A010000 		.4byte	.LASF0
 1706 0037 03       		.uleb128 0x3
 1707 0038 01       		.byte	0x1
 1708 0039 06       		.byte	0x6
 1709 003a 99000000 		.4byte	.LASF1
 1710 003e 04       		.uleb128 0x4
 1711 003f 55030000 		.4byte	.LASF5
 1712 0043 02       		.byte	0x2
 1713 0044 2A       		.byte	0x2a
 1714 0045 49000000 		.4byte	0x49
 1715 0049 03       		.uleb128 0x3
 1716 004a 01       		.byte	0x1
 1717 004b 08       		.byte	0x8
 1718 004c 76020000 		.4byte	.LASF2
 1719 0050 03       		.uleb128 0x3
 1720 0051 02       		.byte	0x2
 1721 0052 05       		.byte	0x5
 1722 0053 A7020000 		.4byte	.LASF3
 1723 0057 03       		.uleb128 0x3
 1724 0058 02       		.byte	0x2
 1725 0059 07       		.byte	0x7
 1726 005a 71010000 		.4byte	.LASF4
 1727 005e 04       		.uleb128 0x4
 1728 005f 6E020000 		.4byte	.LASF6
 1729 0063 02       		.byte	0x2
 1730 0064 4F       		.byte	0x4f
 1731 0065 69000000 		.4byte	0x69
 1732 0069 03       		.uleb128 0x3
 1733 006a 04       		.byte	0x4
 1734 006b 05       		.byte	0x5
 1735 006c D7000000 		.4byte	.LASF7
 1736 0070 04       		.uleb128 0x4
 1737 0071 F8020000 		.4byte	.LASF8
 1738 0075 02       		.byte	0x2
 1739 0076 50       		.byte	0x50
 1740 0077 7B000000 		.4byte	0x7b
 1741 007b 03       		.uleb128 0x3
 1742 007c 04       		.byte	0x4
ARM GAS  /tmp/ccePAp3r.s 			page 32


 1743 007d 07       		.byte	0x7
 1744 007e 57010000 		.4byte	.LASF9
 1745 0082 03       		.uleb128 0x3
 1746 0083 08       		.byte	0x8
 1747 0084 05       		.byte	0x5
 1748 0085 F6000000 		.4byte	.LASF10
 1749 0089 03       		.uleb128 0x3
 1750 008a 08       		.byte	0x8
 1751 008b 07       		.byte	0x7
 1752 008c 19000000 		.4byte	.LASF11
 1753 0090 04       		.uleb128 0x4
 1754 0091 B4010000 		.4byte	.LASF12
 1755 0095 03       		.byte	0x3
 1756 0096 2E       		.byte	0x2e
 1757 0097 3E000000 		.4byte	0x3e
 1758 009b 04       		.uleb128 0x4
 1759 009c E0000000 		.4byte	.LASF13
 1760 00a0 03       		.byte	0x3
 1761 00a1 2F       		.byte	0x2f
 1762 00a2 3E000000 		.4byte	0x3e
 1763 00a6 04       		.uleb128 0x4
 1764 00a7 47020000 		.4byte	.LASF14
 1765 00ab 03       		.byte	0x3
 1766 00ac 30       		.byte	0x30
 1767 00ad 3E000000 		.4byte	0x3e
 1768 00b1 04       		.uleb128 0x4
 1769 00b2 56020000 		.4byte	.LASF15
 1770 00b6 03       		.byte	0x3
 1771 00b7 31       		.byte	0x31
 1772 00b8 70000000 		.4byte	0x70
 1773 00bc 04       		.uleb128 0x4
 1774 00bd 96010000 		.4byte	.LASF16
 1775 00c1 03       		.byte	0x3
 1776 00c2 32       		.byte	0x32
 1777 00c3 5E000000 		.4byte	0x5e
 1778 00c7 04       		.uleb128 0x4
 1779 00c8 22010000 		.4byte	.LASF17
 1780 00cc 03       		.byte	0x3
 1781 00cd 33       		.byte	0x33
 1782 00ce 5E000000 		.4byte	0x5e
 1783 00d2 04       		.uleb128 0x4
 1784 00d3 C8010000 		.4byte	.LASF18
 1785 00d7 03       		.byte	0x3
 1786 00d8 34       		.byte	0x34
 1787 00d9 70000000 		.4byte	0x70
 1788 00dd 04       		.uleb128 0x4
 1789 00de 10030000 		.4byte	.LASF19
 1790 00e2 03       		.byte	0x3
 1791 00e3 35       		.byte	0x35
 1792 00e4 70000000 		.4byte	0x70
 1793 00e8 04       		.uleb128 0x4
 1794 00e9 44010000 		.4byte	.LASF20
 1795 00ed 03       		.byte	0x3
 1796 00ee 36       		.byte	0x36
 1797 00ef 5E000000 		.4byte	0x5e
 1798 00f3 04       		.uleb128 0x4
 1799 00f4 E6020000 		.4byte	.LASF21
ARM GAS  /tmp/ccePAp3r.s 			page 33


 1800 00f8 04       		.byte	0x4
 1801 00f9 29       		.byte	0x29
 1802 00fa FE000000 		.4byte	0xfe
 1803 00fe 05       		.uleb128 0x5
 1804 00ff E6020000 		.4byte	.LASF21
 1805 0103 44       		.byte	0x44
 1806 0104 04       		.byte	0x4
 1807 0105 29       		.byte	0x29
 1808 0106 07020000 		.4byte	0x207
 1809 010a 06       		.uleb128 0x6
 1810 010b C7020000 		.4byte	.LASF22
 1811 010f 05       		.byte	0x5
 1812 0110 2F       		.byte	0x2f
 1813 0111 2C020000 		.4byte	0x22c
 1814 0115 02       		.byte	0x2
 1815 0116 23       		.byte	0x23
 1816 0117 00       		.uleb128 0x0
 1817 0118 06       		.uleb128 0x6
 1818 0119 4F020000 		.4byte	.LASF23
 1819 011d 05       		.byte	0x5
 1820 011e 31       		.byte	0x31
 1821 011f 2C020000 		.4byte	0x22c
 1822 0123 02       		.byte	0x2
 1823 0124 23       		.byte	0x23
 1824 0125 04       		.uleb128 0x4
 1825 0126 06       		.uleb128 0x6
 1826 0127 59000000 		.4byte	.LASF24
 1827 012b 05       		.byte	0x5
 1828 012c 33       		.byte	0x33
 1829 012d B1000000 		.4byte	0xb1
 1830 0131 02       		.byte	0x2
 1831 0132 23       		.byte	0x23
 1832 0133 08       		.uleb128 0x8
 1833 0134 06       		.uleb128 0x6
 1834 0135 BF030000 		.4byte	.LASF25
 1835 0139 05       		.byte	0x5
 1836 013a 34       		.byte	0x34
 1837 013b 70020000 		.4byte	0x270
 1838 013f 02       		.byte	0x2
 1839 0140 23       		.byte	0x23
 1840 0141 0C       		.uleb128 0xc
 1841 0142 06       		.uleb128 0x6
 1842 0143 04010000 		.4byte	.LASF26
 1843 0147 05       		.byte	0x5
 1844 0148 36       		.byte	0x36
 1845 0149 2C020000 		.4byte	0x22c
 1846 014d 02       		.byte	0x2
 1847 014e 23       		.byte	0x23
 1848 014f 10       		.uleb128 0x10
 1849 0150 06       		.uleb128 0x6
 1850 0151 F7010000 		.4byte	.LASF27
 1851 0155 05       		.byte	0x5
 1852 0156 37       		.byte	0x37
 1853 0157 2C020000 		.4byte	0x22c
 1854 015b 02       		.byte	0x2
 1855 015c 23       		.byte	0x23
 1856 015d 14       		.uleb128 0x14
ARM GAS  /tmp/ccePAp3r.s 			page 34


 1857 015e 06       		.uleb128 0x6
 1858 015f B1020000 		.4byte	.LASF28
 1859 0163 05       		.byte	0x5
 1860 0164 3D       		.byte	0x3d
 1861 0165 9B000000 		.4byte	0x9b
 1862 0169 02       		.byte	0x2
 1863 016a 23       		.byte	0x23
 1864 016b 18       		.uleb128 0x18
 1865 016c 06       		.uleb128 0x6
 1866 016d CE020000 		.4byte	.LASF29
 1867 0171 05       		.byte	0x5
 1868 0172 41       		.byte	0x41
 1869 0173 90000000 		.4byte	0x90
 1870 0177 02       		.byte	0x2
 1871 0178 23       		.byte	0x23
 1872 0179 19       		.uleb128 0x19
 1873 017a 06       		.uleb128 0x6
 1874 017b 3E030000 		.4byte	.LASF30
 1875 017f 05       		.byte	0x5
 1876 0180 46       		.byte	0x46
 1877 0181 A6000000 		.4byte	0xa6
 1878 0185 02       		.byte	0x2
 1879 0186 23       		.byte	0x23
 1880 0187 1A       		.uleb128 0x1a
 1881 0188 06       		.uleb128 0x6
 1882 0189 25030000 		.4byte	.LASF31
 1883 018d 05       		.byte	0x5
 1884 018e 53       		.byte	0x53
 1885 018f 18030000 		.4byte	0x318
 1886 0193 02       		.byte	0x2
 1887 0194 23       		.byte	0x23
 1888 0195 1C       		.uleb128 0x1c
 1889 0196 07       		.uleb128 0x7
 1890 0197 705F7500 		.ascii	"p_u\000"
 1891 019b 05       		.byte	0x5
 1892 019c 78       		.byte	0x78
 1893 019d 66040000 		.4byte	0x466
 1894 01a1 02       		.byte	0x2
 1895 01a2 23       		.byte	0x23
 1896 01a3 20       		.uleb128 0x20
 1897 01a4 06       		.uleb128 0x6
 1898 01a5 C5030000 		.4byte	.LASF32
 1899 01a9 05       		.byte	0x5
 1900 01aa 7D       		.byte	0x7d
 1901 01ab 54020000 		.4byte	0x254
 1902 01af 02       		.byte	0x2
 1903 01b0 23       		.byte	0x23
 1904 01b1 24       		.uleb128 0x24
 1905 01b2 06       		.uleb128 0x6
 1906 01b3 33030000 		.4byte	.LASF33
 1907 01b7 05       		.byte	0x5
 1908 01b8 83       		.byte	0x83
 1909 01b9 32020000 		.4byte	0x232
 1910 01bd 02       		.byte	0x2
 1911 01be 23       		.byte	0x23
 1912 01bf 28       		.uleb128 0x28
 1913 01c0 06       		.uleb128 0x6
ARM GAS  /tmp/ccePAp3r.s 			page 35


 1914 01c1 00000000 		.4byte	.LASF34
 1915 01c5 05       		.byte	0x5
 1916 01c6 87       		.byte	0x87
 1917 01c7 BC000000 		.4byte	0xbc
 1918 01cb 02       		.byte	0x2
 1919 01cc 23       		.byte	0x23
 1920 01cd 30       		.uleb128 0x30
 1921 01ce 06       		.uleb128 0x6
 1922 01cf ED020000 		.4byte	.LASF35
 1923 01d3 05       		.byte	0x5
 1924 01d4 8D       		.byte	0x8d
 1925 01d5 D2000000 		.4byte	0xd2
 1926 01d9 02       		.byte	0x2
 1927 01da 23       		.byte	0x23
 1928 01db 34       		.uleb128 0x34
 1929 01dc 06       		.uleb128 0x6
 1930 01dd 9D020000 		.4byte	.LASF36
 1931 01e1 05       		.byte	0x5
 1932 01e2 94       		.byte	0x94
 1933 01e3 9B040000 		.4byte	0x49b
 1934 01e7 02       		.byte	0x2
 1935 01e8 23       		.byte	0x23
 1936 01e9 38       		.uleb128 0x38
 1937 01ea 06       		.uleb128 0x6
 1938 01eb 1A030000 		.4byte	.LASF37
 1939 01ef 05       		.byte	0x5
 1940 01f0 98       		.byte	0x98
 1941 01f1 B1000000 		.4byte	0xb1
 1942 01f5 02       		.byte	0x2
 1943 01f6 23       		.byte	0x23
 1944 01f7 3C       		.uleb128 0x3c
 1945 01f8 06       		.uleb128 0x6
 1946 01f9 B9000000 		.4byte	.LASF38
 1947 01fd 05       		.byte	0x5
 1948 01fe 9E       		.byte	0x9e
 1949 01ff 6E020000 		.4byte	0x26e
 1950 0203 02       		.byte	0x2
 1951 0204 23       		.byte	0x23
 1952 0205 40       		.uleb128 0x40
 1953 0206 00       		.byte	0x0
 1954 0207 08       		.uleb128 0x8
 1955 0208 08       		.byte	0x8
 1956 0209 04       		.byte	0x4
 1957 020a 60       		.byte	0x60
 1958 020b 2C020000 		.4byte	0x22c
 1959 020f 06       		.uleb128 0x6
 1960 0210 C7020000 		.4byte	.LASF22
 1961 0214 04       		.byte	0x4
 1962 0215 61       		.byte	0x61
 1963 0216 2C020000 		.4byte	0x22c
 1964 021a 02       		.byte	0x2
 1965 021b 23       		.byte	0x23
 1966 021c 00       		.uleb128 0x0
 1967 021d 06       		.uleb128 0x6
 1968 021e 4F020000 		.4byte	.LASF23
 1969 0222 04       		.byte	0x4
 1970 0223 63       		.byte	0x63
ARM GAS  /tmp/ccePAp3r.s 			page 36


 1971 0224 2C020000 		.4byte	0x22c
 1972 0228 02       		.byte	0x2
 1973 0229 23       		.byte	0x23
 1974 022a 04       		.uleb128 0x4
 1975 022b 00       		.byte	0x0
 1976 022c 09       		.uleb128 0x9
 1977 022d 04       		.byte	0x4
 1978 022e F3000000 		.4byte	0xf3
 1979 0232 04       		.uleb128 0x4
 1980 0233 05020000 		.4byte	.LASF39
 1981 0237 04       		.byte	0x4
 1982 0238 65       		.byte	0x65
 1983 0239 07020000 		.4byte	0x207
 1984 023d 08       		.uleb128 0x8
 1985 023e 04       		.byte	0x4
 1986 023f 04       		.byte	0x4
 1987 0240 6A       		.byte	0x6a
 1988 0241 54020000 		.4byte	0x254
 1989 0245 06       		.uleb128 0x6
 1990 0246 C7020000 		.4byte	.LASF22
 1991 024a 04       		.byte	0x4
 1992 024b 6C       		.byte	0x6c
 1993 024c 2C020000 		.4byte	0x22c
 1994 0250 02       		.byte	0x2
 1995 0251 23       		.byte	0x23
 1996 0252 00       		.uleb128 0x0
 1997 0253 00       		.byte	0x0
 1998 0254 04       		.uleb128 0x4
 1999 0255 BC010000 		.4byte	.LASF40
 2000 0259 04       		.byte	0x4
 2001 025a 6F       		.byte	0x6f
 2002 025b 3D020000 		.4byte	0x23d
 2003 025f 0A       		.uleb128 0xa
 2004 0260 04       		.byte	0x4
 2005 0261 07       		.byte	0x7
 2006 0262 0B       		.uleb128 0xb
 2007 0263 19010000 		.4byte	.LASF41
 2008 0267 06       		.byte	0x6
 2009 0268 0F01     		.2byte	0x10f
 2010 026a 6E020000 		.4byte	0x26e
 2011 026e 0C       		.uleb128 0xc
 2012 026f 04       		.byte	0x4
 2013 0270 0D       		.uleb128 0xd
 2014 0271 69010000 		.4byte	.LASF42
 2015 0275 04       		.byte	0x4
 2016 0276 06       		.byte	0x6
 2017 0277 2B01     		.2byte	0x12b
 2018 0279 8D020000 		.4byte	0x28d
 2019 027d 0E       		.uleb128 0xe
 2020 027e 72313300 		.ascii	"r13\000"
 2021 0282 06       		.byte	0x6
 2022 0283 2C01     		.2byte	0x12c
 2023 0285 12030000 		.4byte	0x312
 2024 0289 02       		.byte	0x2
 2025 028a 23       		.byte	0x23
 2026 028b 00       		.uleb128 0x0
 2027 028c 00       		.byte	0x0
ARM GAS  /tmp/ccePAp3r.s 			page 37


 2028 028d 0D       		.uleb128 0xd
 2029 028e 2C030000 		.4byte	.LASF43
 2030 0292 24       		.byte	0x24
 2031 0293 06       		.byte	0x6
 2032 0294 2C01     		.2byte	0x12c
 2033 0296 12030000 		.4byte	0x312
 2034 029a 07       		.uleb128 0x7
 2035 029b 723400   		.ascii	"r4\000"
 2036 029e 07       		.byte	0x7
 2037 029f 37       		.byte	0x37
 2038 02a0 62020000 		.4byte	0x262
 2039 02a4 02       		.byte	0x2
 2040 02a5 23       		.byte	0x23
 2041 02a6 00       		.uleb128 0x0
 2042 02a7 07       		.uleb128 0x7
 2043 02a8 723500   		.ascii	"r5\000"
 2044 02ab 07       		.byte	0x7
 2045 02ac 38       		.byte	0x38
 2046 02ad 62020000 		.4byte	0x262
 2047 02b1 02       		.byte	0x2
 2048 02b2 23       		.byte	0x23
 2049 02b3 04       		.uleb128 0x4
 2050 02b4 07       		.uleb128 0x7
 2051 02b5 723600   		.ascii	"r6\000"
 2052 02b8 07       		.byte	0x7
 2053 02b9 39       		.byte	0x39
 2054 02ba 62020000 		.4byte	0x262
 2055 02be 02       		.byte	0x2
 2056 02bf 23       		.byte	0x23
 2057 02c0 08       		.uleb128 0x8
 2058 02c1 07       		.uleb128 0x7
 2059 02c2 723700   		.ascii	"r7\000"
 2060 02c5 07       		.byte	0x7
 2061 02c6 3B       		.byte	0x3b
 2062 02c7 62020000 		.4byte	0x262
 2063 02cb 02       		.byte	0x2
 2064 02cc 23       		.byte	0x23
 2065 02cd 0C       		.uleb128 0xc
 2066 02ce 07       		.uleb128 0x7
 2067 02cf 723800   		.ascii	"r8\000"
 2068 02d2 07       		.byte	0x7
 2069 02d3 3D       		.byte	0x3d
 2070 02d4 62020000 		.4byte	0x262
 2071 02d8 02       		.byte	0x2
 2072 02d9 23       		.byte	0x23
 2073 02da 10       		.uleb128 0x10
 2074 02db 07       		.uleb128 0x7
 2075 02dc 723900   		.ascii	"r9\000"
 2076 02df 07       		.byte	0x7
 2077 02e0 3E       		.byte	0x3e
 2078 02e1 62020000 		.4byte	0x262
 2079 02e5 02       		.byte	0x2
 2080 02e6 23       		.byte	0x23
 2081 02e7 14       		.uleb128 0x14
 2082 02e8 07       		.uleb128 0x7
 2083 02e9 72313000 		.ascii	"r10\000"
 2084 02ed 07       		.byte	0x7
ARM GAS  /tmp/ccePAp3r.s 			page 38


 2085 02ee 3F       		.byte	0x3f
 2086 02ef 62020000 		.4byte	0x262
 2087 02f3 02       		.byte	0x2
 2088 02f4 23       		.byte	0x23
 2089 02f5 18       		.uleb128 0x18
 2090 02f6 07       		.uleb128 0x7
 2091 02f7 72313100 		.ascii	"r11\000"
 2092 02fb 07       		.byte	0x7
 2093 02fc 40       		.byte	0x40
 2094 02fd 62020000 		.4byte	0x262
 2095 0301 02       		.byte	0x2
 2096 0302 23       		.byte	0x23
 2097 0303 1C       		.uleb128 0x1c
 2098 0304 07       		.uleb128 0x7
 2099 0305 6C7200   		.ascii	"lr\000"
 2100 0308 07       		.byte	0x7
 2101 0309 41       		.byte	0x41
 2102 030a 62020000 		.4byte	0x262
 2103 030e 02       		.byte	0x2
 2104 030f 23       		.byte	0x23
 2105 0310 20       		.uleb128 0x20
 2106 0311 00       		.byte	0x0
 2107 0312 09       		.uleb128 0x9
 2108 0313 04       		.byte	0x4
 2109 0314 8D020000 		.4byte	0x28d
 2110 0318 0F       		.uleb128 0xf
 2111 0319 DD000000 		.4byte	0xdd
 2112 031d 08       		.uleb128 0x8
 2113 031e 20       		.byte	0x20
 2114 031f 08       		.byte	0x8
 2115 0320 4F       		.byte	0x4f
 2116 0321 88030000 		.4byte	0x388
 2117 0325 06       		.uleb128 0x6
 2118 0326 01030000 		.4byte	.LASF44
 2119 032a 08       		.byte	0x8
 2120 032b 50       		.byte	0x50
 2121 032c 32020000 		.4byte	0x232
 2122 0330 02       		.byte	0x2
 2123 0331 23       		.byte	0x23
 2124 0332 00       		.uleb128 0x0
 2125 0333 06       		.uleb128 0x6
 2126 0334 B9020000 		.4byte	.LASF45
 2127 0338 08       		.byte	0x8
 2128 0339 51       		.byte	0x51
 2129 033a B1000000 		.4byte	0xb1
 2130 033e 02       		.byte	0x2
 2131 033f 23       		.byte	0x23
 2132 0340 08       		.uleb128 0x8
 2133 0341 06       		.uleb128 0x6
 2134 0342 FF010000 		.4byte	.LASF46
 2135 0346 08       		.byte	0x8
 2136 0347 53       		.byte	0x53
 2137 0348 70020000 		.4byte	0x270
 2138 034c 02       		.byte	0x2
 2139 034d 23       		.byte	0x23
 2140 034e 0C       		.uleb128 0xc
 2141 034f 06       		.uleb128 0x6
ARM GAS  /tmp/ccePAp3r.s 			page 39


 2142 0350 0C010000 		.4byte	.LASF47
 2143 0354 08       		.byte	0x8
 2144 0355 56       		.byte	0x56
 2145 0356 2C020000 		.4byte	0x22c
 2146 035a 02       		.byte	0x2
 2147 035b 23       		.byte	0x23
 2148 035c 10       		.uleb128 0x10
 2149 035d 06       		.uleb128 0x6
 2150 035e 2E020000 		.4byte	.LASF48
 2151 0362 08       		.byte	0x8
 2152 0363 57       		.byte	0x57
 2153 0364 2C020000 		.4byte	0x22c
 2154 0368 02       		.byte	0x2
 2155 0369 23       		.byte	0x23
 2156 036a 14       		.uleb128 0x14
 2157 036b 06       		.uleb128 0x6
 2158 036c AD030000 		.4byte	.LASF49
 2159 0370 08       		.byte	0x8
 2160 0371 5B       		.byte	0x5b
 2161 0372 E8000000 		.4byte	0xe8
 2162 0376 02       		.byte	0x2
 2163 0377 23       		.byte	0x23
 2164 0378 18       		.uleb128 0x18
 2165 0379 06       		.uleb128 0x6
 2166 037a 24020000 		.4byte	.LASF50
 2167 037e 08       		.byte	0x8
 2168 037f 5E       		.byte	0x5e
 2169 0380 2C020000 		.4byte	0x22c
 2170 0384 02       		.byte	0x2
 2171 0385 23       		.byte	0x23
 2172 0386 1C       		.uleb128 0x1c
 2173 0387 00       		.byte	0x0
 2174 0388 04       		.uleb128 0x4
 2175 0389 45030000 		.4byte	.LASF51
 2176 038d 08       		.byte	0x8
 2177 038e 61       		.byte	0x61
 2178 038f 1D030000 		.4byte	0x31d
 2179 0393 05       		.uleb128 0x5
 2180 0394 D4010000 		.4byte	.LASF52
 2181 0398 10       		.byte	0x10
 2182 0399 09       		.byte	0x9
 2183 039a 2B       		.byte	0x2b
 2184 039b CA030000 		.4byte	0x3ca
 2185 039f 06       		.uleb128 0x6
 2186 03a0 C1000000 		.4byte	.LASF53
 2187 03a4 09       		.byte	0x9
 2188 03a5 2C       		.byte	0x2c
 2189 03a6 32020000 		.4byte	0x232
 2190 03aa 02       		.byte	0x2
 2191 03ab 23       		.byte	0x23
 2192 03ac 00       		.uleb128 0x0
 2193 03ad 06       		.uleb128 0x6
 2194 03ae B7030000 		.4byte	.LASF54
 2195 03b2 09       		.byte	0x9
 2196 03b3 2E       		.byte	0x2e
 2197 03b4 2C020000 		.4byte	0x22c
 2198 03b8 02       		.byte	0x2
ARM GAS  /tmp/ccePAp3r.s 			page 40


 2199 03b9 23       		.byte	0x23
 2200 03ba 08       		.uleb128 0x8
 2201 03bb 06       		.uleb128 0x6
 2202 03bc 09030000 		.4byte	.LASF55
 2203 03c0 09       		.byte	0x9
 2204 03c1 30       		.byte	0x30
 2205 03c2 CA030000 		.4byte	0x3ca
 2206 03c6 02       		.byte	0x2
 2207 03c7 23       		.byte	0x23
 2208 03c8 0C       		.uleb128 0xc
 2209 03c9 00       		.byte	0x0
 2210 03ca 09       		.uleb128 0x9
 2211 03cb 04       		.byte	0x4
 2212 03cc 93030000 		.4byte	0x393
 2213 03d0 04       		.uleb128 0x4
 2214 03d1 D4010000 		.4byte	.LASF52
 2215 03d5 09       		.byte	0x9
 2216 03d6 32       		.byte	0x32
 2217 03d7 93030000 		.4byte	0x393
 2218 03db 04       		.uleb128 0x4
 2219 03dc 7C030000 		.4byte	.LASF56
 2220 03e0 0A       		.byte	0xa
 2221 03e1 28       		.byte	0x28
 2222 03e2 E6030000 		.4byte	0x3e6
 2223 03e6 05       		.uleb128 0x5
 2224 03e7 7C030000 		.4byte	.LASF56
 2225 03eb 0C       		.byte	0xc
 2226 03ec 0A       		.byte	0xa
 2227 03ed 28       		.byte	0x28
 2228 03ee 1D040000 		.4byte	0x41d
 2229 03f2 06       		.uleb128 0x6
 2230 03f3 9C010000 		.4byte	.LASF57
 2231 03f7 0A       		.byte	0xa
 2232 03f8 2E       		.byte	0x2e
 2233 03f9 1D040000 		.4byte	0x41d
 2234 03fd 02       		.byte	0x2
 2235 03fe 23       		.byte	0x23
 2236 03ff 00       		.uleb128 0x0
 2237 0400 06       		.uleb128 0x6
 2238 0401 91020000 		.4byte	.LASF58
 2239 0405 0A       		.byte	0xa
 2240 0406 31       		.byte	0x31
 2241 0407 2C020000 		.4byte	0x22c
 2242 040b 02       		.byte	0x2
 2243 040c 23       		.byte	0x23
 2244 040d 04       		.uleb128 0x4
 2245 040e 06       		.uleb128 0x6
 2246 040f 36020000 		.4byte	.LASF59
 2247 0413 0A       		.byte	0xa
 2248 0414 33       		.byte	0x33
 2249 0415 D2000000 		.4byte	0xd2
 2250 0419 02       		.byte	0x2
 2251 041a 23       		.byte	0x23
 2252 041b 08       		.uleb128 0x8
 2253 041c 00       		.byte	0x0
 2254 041d 09       		.uleb128 0x9
 2255 041e 04       		.byte	0x4
ARM GAS  /tmp/ccePAp3r.s 			page 41


 2256 041f DB030000 		.4byte	0x3db
 2257 0423 05       		.uleb128 0x5
 2258 0424 2C010000 		.4byte	.LASF60
 2259 0428 04       		.byte	0x4
 2260 0429 0A       		.byte	0xa
 2261 042a 3B       		.byte	0x3b
 2262 042b 3E040000 		.4byte	0x43e
 2263 042f 06       		.uleb128 0x6
 2264 0430 A5030000 		.4byte	.LASF61
 2265 0434 0A       		.byte	0xa
 2266 0435 3C       		.byte	0x3c
 2267 0436 1D040000 		.4byte	0x41d
 2268 043a 02       		.byte	0x2
 2269 043b 23       		.byte	0x23
 2270 043c 00       		.uleb128 0x0
 2271 043d 00       		.byte	0x0
 2272 043e 04       		.uleb128 0x4
 2273 043f 2C010000 		.4byte	.LASF60
 2274 0443 0A       		.byte	0xa
 2275 0444 3F       		.byte	0x3f
 2276 0445 23040000 		.4byte	0x423
 2277 0449 04       		.uleb128 0x4
 2278 044a 38010000 		.4byte	.LASF62
 2279 044e 0A       		.byte	0xa
 2280 044f 83       		.byte	0x83
 2281 0450 54040000 		.4byte	0x454
 2282 0454 09       		.uleb128 0x9
 2283 0455 04       		.byte	0x4
 2284 0456 5A040000 		.4byte	0x45a
 2285 045a 10       		.uleb128 0x10
 2286 045b 01       		.byte	0x1
 2287 045c 66040000 		.4byte	0x466
 2288 0460 11       		.uleb128 0x11
 2289 0461 C7000000 		.4byte	0xc7
 2290 0465 00       		.byte	0x0
 2291 0466 12       		.uleb128 0x12
 2292 0467 04       		.byte	0x4
 2293 0468 05       		.byte	0x5
 2294 0469 5A       		.byte	0x5a
 2295 046a 9B040000 		.4byte	0x49b
 2296 046e 13       		.uleb128 0x13
 2297 046f 06000000 		.4byte	.LASF63
 2298 0473 05       		.byte	0x5
 2299 0474 61       		.byte	0x61
 2300 0475 BC000000 		.4byte	0xbc
 2301 0479 13       		.uleb128 0x13
 2302 047a 30000000 		.4byte	.LASF64
 2303 047e 05       		.byte	0x5
 2304 047f 68       		.byte	0x68
 2305 0480 BC000000 		.4byte	0xbc
 2306 0484 13       		.uleb128 0x13
 2307 0485 9E030000 		.4byte	.LASF65
 2308 0489 05       		.byte	0x5
 2309 048a 6F       		.byte	0x6f
 2310 048b 6E020000 		.4byte	0x26e
 2311 048f 13       		.uleb128 0x13
 2312 0490 C0020000 		.4byte	.LASF66
ARM GAS  /tmp/ccePAp3r.s 			page 42


 2313 0494 05       		.byte	0x5
 2314 0495 76       		.byte	0x76
 2315 0496 D2000000 		.4byte	0xd2
 2316 049a 00       		.byte	0x0
 2317 049b 09       		.uleb128 0x9
 2318 049c 04       		.byte	0x4
 2319 049d D0030000 		.4byte	0x3d0
 2320 04a1 14       		.uleb128 0x14
 2321 04a2 01       		.byte	0x1
 2322 04a3 84010000 		.4byte	.LASF68
 2323 04a7 01       		.byte	0x1
 2324 04a8 51       		.byte	0x51
 2325 04a9 01       		.byte	0x1
 2326 04aa 00000000 		.4byte	.LFB7
 2327 04ae 26000000 		.4byte	.LFE7
 2328 04b2 00000000 		.4byte	.LLST0
 2329 04b6 16050000 		.4byte	0x516
 2330 04ba 15       		.uleb128 0x15
 2331 04bb 65737000 		.ascii	"esp\000"
 2332 04bf 01       		.byte	0x1
 2333 04c0 51       		.byte	0x51
 2334 04c1 16050000 		.4byte	0x516
 2335 04c5 01       		.byte	0x1
 2336 04c6 50       		.byte	0x50
 2337 04c7 15       		.uleb128 0x15
 2338 04c8 656C7000 		.ascii	"elp\000"
 2339 04cc 01       		.byte	0x1
 2340 04cd 51       		.byte	0x51
 2341 04ce 1D040000 		.4byte	0x41d
 2342 04d2 01       		.byte	0x1
 2343 04d3 51       		.byte	0x51
 2344 04d4 16       		.uleb128 0x16
 2345 04d5 14010000 		.4byte	.LASF67
 2346 04d9 01       		.byte	0x1
 2347 04da 51       		.byte	0x51
 2348 04db D2000000 		.4byte	0xd2
 2349 04df 01       		.byte	0x1
 2350 04e0 52       		.byte	0x52
 2351 04e1 17       		.uleb128 0x17
 2352 04e2 02000000 		.4byte	.LBB2
 2353 04e6 08000000 		.4byte	.LBE2
 2354 04ea FE040000 		.4byte	0x4fe
 2355 04ee 18       		.uleb128 0x18
 2356 04ef 746D7000 		.ascii	"tmp\000"
 2357 04f3 01       		.byte	0x1
 2358 04f4 55       		.byte	0x55
 2359 04f5 70000000 		.4byte	0x70
 2360 04f9 1F000000 		.4byte	.LLST1
 2361 04fd 00       		.byte	0x0
 2362 04fe 19       		.uleb128 0x19
 2363 04ff 1C000000 		.4byte	.LBB3
 2364 0503 22000000 		.4byte	.LBE3
 2365 0507 1A       		.uleb128 0x1a
 2366 0508 746D7000 		.ascii	"tmp\000"
 2367 050c 01       		.byte	0x1
 2368 050d 5A       		.byte	0x5a
 2369 050e 70000000 		.4byte	0x70
ARM GAS  /tmp/ccePAp3r.s 			page 43


 2370 0512 01       		.byte	0x1
 2371 0513 53       		.byte	0x53
 2372 0514 00       		.byte	0x0
 2373 0515 00       		.byte	0x0
 2374 0516 09       		.uleb128 0x9
 2375 0517 04       		.byte	0x4
 2376 0518 3E040000 		.4byte	0x43e
 2377 051c 1B       		.uleb128 0x1b
 2378 051d 01       		.byte	0x1
 2379 051e A4010000 		.4byte	.LASF69
 2380 0522 01       		.byte	0x1
 2381 0523 6A       		.byte	0x6a
 2382 0524 01       		.byte	0x1
 2383 0525 00000000 		.4byte	.LFB8
 2384 0529 2A000000 		.4byte	.LFE8
 2385 052d 01       		.byte	0x1
 2386 052e 5D       		.byte	0x5d
 2387 052f 8D050000 		.4byte	0x58d
 2388 0533 15       		.uleb128 0x15
 2389 0534 65737000 		.ascii	"esp\000"
 2390 0538 01       		.byte	0x1
 2391 0539 6A       		.byte	0x6a
 2392 053a 16050000 		.4byte	0x516
 2393 053e 01       		.byte	0x1
 2394 053f 50       		.byte	0x50
 2395 0540 15       		.uleb128 0x15
 2396 0541 656C7000 		.ascii	"elp\000"
 2397 0545 01       		.byte	0x1
 2398 0546 6A       		.byte	0x6a
 2399 0547 1D040000 		.4byte	0x41d
 2400 054b 01       		.byte	0x1
 2401 054c 51       		.byte	0x51
 2402 054d 18       		.uleb128 0x18
 2403 054e 7000     		.ascii	"p\000"
 2404 0550 01       		.byte	0x1
 2405 0551 6B       		.byte	0x6b
 2406 0552 1D040000 		.4byte	0x41d
 2407 0556 32000000 		.4byte	.LLST3
 2408 055a 17       		.uleb128 0x17
 2409 055b 00000000 		.4byte	.LBB4
 2410 055f 08000000 		.4byte	.LBE4
 2411 0563 77050000 		.4byte	0x577
 2412 0567 18       		.uleb128 0x18
 2413 0568 746D7000 		.ascii	"tmp\000"
 2414 056c 01       		.byte	0x1
 2415 056d 70       		.byte	0x70
 2416 056e 70000000 		.4byte	0x70
 2417 0572 7C000000 		.4byte	.LLST4
 2418 0576 00       		.byte	0x0
 2419 0577 1C       		.uleb128 0x1c
 2420 0578 00000000 		.4byte	.Ldebug_ranges0+0x0
 2421 057c 18       		.uleb128 0x18
 2422 057d 746D7000 		.ascii	"tmp\000"
 2423 0581 01       		.byte	0x1
 2424 0582 78       		.byte	0x78
 2425 0583 70000000 		.4byte	0x70
 2426 0587 9A000000 		.4byte	.LLST5
ARM GAS  /tmp/ccePAp3r.s 			page 44


 2427 058b 00       		.byte	0x0
 2428 058c 00       		.byte	0x0
 2429 058d 1D       		.uleb128 0x1d
 2430 058e 01       		.byte	0x1
 2431 058f 5E020000 		.4byte	.LASF70
 2432 0593 01       		.byte	0x1
 2433 0594 83       		.byte	0x83
 2434 0595 01       		.byte	0x1
 2435 0596 D2000000 		.4byte	0xd2
 2436 059a 00000000 		.4byte	.LFB9
 2437 059e 26000000 		.4byte	.LFE9
 2438 05a2 B8000000 		.4byte	.LLST6
 2439 05a6 F3050000 		.4byte	0x5f3
 2440 05aa 1E       		.uleb128 0x1e
 2441 05ab 14010000 		.4byte	.LASF67
 2442 05af 01       		.byte	0x1
 2443 05b0 83       		.byte	0x83
 2444 05b1 D2000000 		.4byte	0xd2
 2445 05b5 D7000000 		.4byte	.LLST7
 2446 05b9 1F       		.uleb128 0x1f
 2447 05ba 6D00     		.ascii	"m\000"
 2448 05bc 01       		.byte	0x1
 2449 05bd 84       		.byte	0x84
 2450 05be D2000000 		.4byte	0xd2
 2451 05c2 17       		.uleb128 0x17
 2452 05c3 02000000 		.4byte	.LBB7
 2453 05c7 08000000 		.4byte	.LBE7
 2454 05cb DF050000 		.4byte	0x5df
 2455 05cf 18       		.uleb128 0x18
 2456 05d0 746D7000 		.ascii	"tmp\000"
 2457 05d4 01       		.byte	0x1
 2458 05d5 86       		.byte	0x86
 2459 05d6 70000000 		.4byte	0x70
 2460 05da EA000000 		.4byte	.LLST8
 2461 05de 00       		.byte	0x0
 2462 05df 1C       		.uleb128 0x1c
 2463 05e0 18000000 		.4byte	.Ldebug_ranges0+0x18
 2464 05e4 1A       		.uleb128 0x1a
 2465 05e5 746D7000 		.ascii	"tmp\000"
 2466 05e9 01       		.byte	0x1
 2467 05ea 8B       		.byte	0x8b
 2468 05eb 70000000 		.4byte	0x70
 2469 05ef 01       		.byte	0x1
 2470 05f0 53       		.byte	0x53
 2471 05f1 00       		.byte	0x0
 2472 05f2 00       		.byte	0x0
 2473 05f3 20       		.uleb128 0x20
 2474 05f4 01       		.byte	0x1
 2475 05f5 C9000000 		.4byte	.LASF71
 2476 05f9 01       		.byte	0x1
 2477 05fa 98       		.byte	0x98
 2478 05fb 01       		.byte	0x1
 2479 05fc D2000000 		.4byte	0xd2
 2480 0600 00000000 		.4byte	.LFB10
 2481 0604 1E000000 		.4byte	.LFE10
 2482 0608 01       		.byte	0x1
 2483 0609 5D       		.byte	0x5d
ARM GAS  /tmp/ccePAp3r.s 			page 45


 2484 060a 4E060000 		.4byte	0x64e
 2485 060e 1E       		.uleb128 0x1e
 2486 060f 14010000 		.4byte	.LASF67
 2487 0613 01       		.byte	0x1
 2488 0614 98       		.byte	0x98
 2489 0615 D2000000 		.4byte	0xd2
 2490 0619 FD000000 		.4byte	.LLST10
 2491 061d 17       		.uleb128 0x17
 2492 061e 00000000 		.4byte	.LBB10
 2493 0622 06000000 		.4byte	.LBE10
 2494 0626 3A060000 		.4byte	0x63a
 2495 062a 18       		.uleb128 0x18
 2496 062b 746D7000 		.ascii	"tmp\000"
 2497 062f 01       		.byte	0x1
 2498 0630 9A       		.byte	0x9a
 2499 0631 70000000 		.4byte	0x70
 2500 0635 10010000 		.4byte	.LLST11
 2501 0639 00       		.byte	0x0
 2502 063a 1C       		.uleb128 0x1c
 2503 063b 30000000 		.4byte	.Ldebug_ranges0+0x30
 2504 063f 1A       		.uleb128 0x1a
 2505 0640 746D7000 		.ascii	"tmp\000"
 2506 0644 01       		.byte	0x1
 2507 0645 9E       		.byte	0x9e
 2508 0646 70000000 		.4byte	0x70
 2509 064a 01       		.byte	0x1
 2510 064b 53       		.byte	0x53
 2511 064c 00       		.byte	0x0
 2512 064d 00       		.byte	0x0
 2513 064e 14       		.uleb128 0x14
 2514 064f 01       		.byte	0x1
 2515 0650 DA010000 		.4byte	.LASF72
 2516 0654 01       		.byte	0x1
 2517 0655 FE       		.byte	0xfe
 2518 0656 01       		.byte	0x1
 2519 0657 00000000 		.4byte	.LFB15
 2520 065b 32000000 		.4byte	.LFE15
 2521 065f 23010000 		.4byte	.LLST12
 2522 0663 93060000 		.4byte	0x693
 2523 0667 1E       		.uleb128 0x1e
 2524 0668 3E020000 		.4byte	.LASF73
 2525 066c 01       		.byte	0x1
 2526 066d FE       		.byte	0xfe
 2527 066e 93060000 		.4byte	0x693
 2528 0672 42010000 		.4byte	.LLST13
 2529 0676 1E       		.uleb128 0x1e
 2530 0677 14010000 		.4byte	.LASF67
 2531 067b 01       		.byte	0x1
 2532 067c FE       		.byte	0xfe
 2533 067d D2000000 		.4byte	0xd2
 2534 0681 60010000 		.4byte	.LLST14
 2535 0685 1A       		.uleb128 0x1a
 2536 0686 65696400 		.ascii	"eid\000"
 2537 068a 01       		.byte	0x1
 2538 068b FF       		.byte	0xff
 2539 068c C7000000 		.4byte	0xc7
 2540 0690 01       		.byte	0x1
ARM GAS  /tmp/ccePAp3r.s 			page 46


 2541 0691 56       		.byte	0x56
 2542 0692 00       		.byte	0x0
 2543 0693 09       		.uleb128 0x9
 2544 0694 04       		.byte	0x4
 2545 0695 99060000 		.4byte	0x699
 2546 0699 21       		.uleb128 0x21
 2547 069a 49040000 		.4byte	0x449
 2548 069e 22       		.uleb128 0x22
 2549 069f 01       		.byte	0x1
 2550 06a0 A5000000 		.4byte	.LASF74
 2551 06a4 01       		.byte	0x1
 2552 06a5 D501     		.2byte	0x1d5
 2553 06a7 01       		.byte	0x1
 2554 06a8 D2000000 		.4byte	0xd2
 2555 06ac 00000000 		.4byte	.LFB21
 2556 06b0 54000000 		.4byte	.LFE21
 2557 06b4 7E010000 		.4byte	.LLST15
 2558 06b8 5F070000 		.4byte	0x75f
 2559 06bc 23       		.uleb128 0x23
 2560 06bd 14010000 		.4byte	.LASF67
 2561 06c1 01       		.byte	0x1
 2562 06c2 D501     		.2byte	0x1d5
 2563 06c4 D2000000 		.4byte	0xd2
 2564 06c8 9D010000 		.4byte	.LLST16
 2565 06cc 23       		.uleb128 0x23
 2566 06cd 12020000 		.4byte	.LASF75
 2567 06d1 01       		.byte	0x1
 2568 06d2 D501     		.2byte	0x1d5
 2569 06d4 DD000000 		.4byte	0xdd
 2570 06d8 BB010000 		.4byte	.LLST17
 2571 06dc 24       		.uleb128 0x24
 2572 06dd 63747000 		.ascii	"ctp\000"
 2573 06e1 01       		.byte	0x1
 2574 06e2 D601     		.2byte	0x1d6
 2575 06e4 2C020000 		.4byte	0x22c
 2576 06e8 01       		.byte	0x1
 2577 06e9 55       		.byte	0x55
 2578 06ea 17       		.uleb128 0x17
 2579 06eb 0E000000 		.4byte	.LBB13
 2580 06ef 14000000 		.4byte	.LBE13
 2581 06f3 08070000 		.4byte	0x708
 2582 06f7 25       		.uleb128 0x25
 2583 06f8 746D7000 		.ascii	"tmp\000"
 2584 06fc 01       		.byte	0x1
 2585 06fd D801     		.2byte	0x1d8
 2586 06ff 70000000 		.4byte	0x70
 2587 0703 D9010000 		.4byte	.LLST18
 2588 0707 00       		.byte	0x0
 2589 0708 17       		.uleb128 0x17
 2590 0709 1E000000 		.4byte	.LBB14
 2591 070d 26000000 		.4byte	.LBE14
 2592 0711 26070000 		.4byte	0x726
 2593 0715 25       		.uleb128 0x25
 2594 0716 746D7000 		.ascii	"tmp\000"
 2595 071a 01       		.byte	0x1
 2596 071b DC01     		.2byte	0x1dc
 2597 071d 70000000 		.4byte	0x70
ARM GAS  /tmp/ccePAp3r.s 			page 47


 2598 0721 EC010000 		.4byte	.LLST19
 2599 0725 00       		.byte	0x0
 2600 0726 17       		.uleb128 0x17
 2601 0727 40000000 		.4byte	.LBB15
 2602 072b 46000000 		.4byte	.LBE15
 2603 072f 44070000 		.4byte	0x744
 2604 0733 25       		.uleb128 0x25
 2605 0734 746D7000 		.ascii	"tmp\000"
 2606 0738 01       		.byte	0x1
 2607 0739 E701     		.2byte	0x1e7
 2608 073b 70000000 		.4byte	0x70
 2609 073f FF010000 		.4byte	.LLST20
 2610 0743 00       		.byte	0x0
 2611 0744 19       		.uleb128 0x19
 2612 0745 4A000000 		.4byte	.LBB16
 2613 0749 52000000 		.4byte	.LBE16
 2614 074d 25       		.uleb128 0x25
 2615 074e 746D7000 		.ascii	"tmp\000"
 2616 0752 01       		.byte	0x1
 2617 0753 E101     		.2byte	0x1e1
 2618 0755 70000000 		.4byte	0x70
 2619 0759 12020000 		.4byte	.LLST21
 2620 075d 00       		.byte	0x0
 2621 075e 00       		.byte	0x0
 2622 075f 22       		.uleb128 0x22
 2623 0760 01       		.byte	0x1
 2624 0761 45000000 		.4byte	.LASF76
 2625 0765 01       		.byte	0x1
 2626 0766 AC01     		.2byte	0x1ac
 2627 0768 01       		.byte	0x1
 2628 0769 D2000000 		.4byte	0xd2
 2629 076d 00000000 		.4byte	.LFB20
 2630 0771 52000000 		.4byte	.LFE20
 2631 0775 30020000 		.4byte	.LLST22
 2632 0779 2C080000 		.4byte	0x82c
 2633 077d 23       		.uleb128 0x23
 2634 077e 14010000 		.4byte	.LASF67
 2635 0782 01       		.byte	0x1
 2636 0783 AC01     		.2byte	0x1ac
 2637 0785 D2000000 		.4byte	0xd2
 2638 0789 4F020000 		.4byte	.LLST23
 2639 078d 23       		.uleb128 0x23
 2640 078e 12020000 		.4byte	.LASF75
 2641 0792 01       		.byte	0x1
 2642 0793 AC01     		.2byte	0x1ac
 2643 0795 DD000000 		.4byte	0xdd
 2644 0799 83020000 		.4byte	.LLST24
 2645 079d 24       		.uleb128 0x24
 2646 079e 63747000 		.ascii	"ctp\000"
 2647 07a2 01       		.byte	0x1
 2648 07a3 AD01     		.2byte	0x1ad
 2649 07a5 2C020000 		.4byte	0x22c
 2650 07a9 01       		.byte	0x1
 2651 07aa 56       		.byte	0x56
 2652 07ab 24       		.uleb128 0x24
 2653 07ac 6D00     		.ascii	"m\000"
 2654 07ae 01       		.byte	0x1
ARM GAS  /tmp/ccePAp3r.s 			page 48


 2655 07af AE01     		.2byte	0x1ae
 2656 07b1 D2000000 		.4byte	0xd2
 2657 07b5 01       		.byte	0x1
 2658 07b6 55       		.byte	0x55
 2659 07b7 17       		.uleb128 0x17
 2660 07b8 0E000000 		.4byte	.LBB17
 2661 07bc 14000000 		.4byte	.LBE17
 2662 07c0 D5070000 		.4byte	0x7d5
 2663 07c4 25       		.uleb128 0x25
 2664 07c5 746D7000 		.ascii	"tmp\000"
 2665 07c9 01       		.byte	0x1
 2666 07ca B001     		.2byte	0x1b0
 2667 07cc 70000000 		.4byte	0x70
 2668 07d0 A1020000 		.4byte	.LLST25
 2669 07d4 00       		.byte	0x0
 2670 07d5 17       		.uleb128 0x17
 2671 07d6 1E000000 		.4byte	.LBB18
 2672 07da 24000000 		.4byte	.LBE18
 2673 07de F3070000 		.4byte	0x7f3
 2674 07e2 25       		.uleb128 0x25
 2675 07e3 746D7000 		.ascii	"tmp\000"
 2676 07e7 01       		.byte	0x1
 2677 07e8 B401     		.2byte	0x1b4
 2678 07ea 70000000 		.4byte	0x70
 2679 07ee B4020000 		.4byte	.LLST26
 2680 07f2 00       		.byte	0x0
 2681 07f3 17       		.uleb128 0x17
 2682 07f4 40000000 		.4byte	.LBB19
 2683 07f8 46000000 		.4byte	.LBE19
 2684 07fc 11080000 		.4byte	0x811
 2685 0800 25       		.uleb128 0x25
 2686 0801 746D7000 		.ascii	"tmp\000"
 2687 0805 01       		.byte	0x1
 2688 0806 C001     		.2byte	0x1c0
 2689 0808 70000000 		.4byte	0x70
 2690 080c C7020000 		.4byte	.LLST27
 2691 0810 00       		.byte	0x0
 2692 0811 19       		.uleb128 0x19
 2693 0812 4A000000 		.4byte	.LBB20
 2694 0816 50000000 		.4byte	.LBE20
 2695 081a 25       		.uleb128 0x25
 2696 081b 746D7000 		.ascii	"tmp\000"
 2697 081f 01       		.byte	0x1
 2698 0820 B901     		.2byte	0x1b9
 2699 0822 70000000 		.4byte	0x70
 2700 0826 DA020000 		.4byte	.LLST28
 2701 082a 00       		.byte	0x0
 2702 082b 00       		.byte	0x0
 2703 082c 22       		.uleb128 0x22
 2704 082d 01       		.byte	0x1
 2705 082e 8A030000 		.4byte	.LASF77
 2706 0832 01       		.byte	0x1
 2707 0833 8101     		.2byte	0x181
 2708 0835 01       		.byte	0x1
 2709 0836 D2000000 		.4byte	0xd2
 2710 083a 00000000 		.4byte	.LFB19
 2711 083e 56000000 		.4byte	.LFE19
ARM GAS  /tmp/ccePAp3r.s 			page 49


 2712 0842 F8020000 		.4byte	.LLST29
 2713 0846 F9080000 		.4byte	0x8f9
 2714 084a 23       		.uleb128 0x23
 2715 084b 14010000 		.4byte	.LASF67
 2716 084f 01       		.byte	0x1
 2717 0850 8101     		.2byte	0x181
 2718 0852 D2000000 		.4byte	0xd2
 2719 0856 17030000 		.4byte	.LLST30
 2720 085a 23       		.uleb128 0x23
 2721 085b 12020000 		.4byte	.LASF75
 2722 085f 01       		.byte	0x1
 2723 0860 8101     		.2byte	0x181
 2724 0862 DD000000 		.4byte	0xdd
 2725 0866 4B030000 		.4byte	.LLST31
 2726 086a 24       		.uleb128 0x24
 2727 086b 63747000 		.ascii	"ctp\000"
 2728 086f 01       		.byte	0x1
 2729 0870 8201     		.2byte	0x182
 2730 0872 2C020000 		.4byte	0x22c
 2731 0876 01       		.byte	0x1
 2732 0877 56       		.byte	0x56
 2733 0878 24       		.uleb128 0x24
 2734 0879 6D00     		.ascii	"m\000"
 2735 087b 01       		.byte	0x1
 2736 087c 8301     		.2byte	0x183
 2737 087e D2000000 		.4byte	0xd2
 2738 0882 01       		.byte	0x1
 2739 0883 54       		.byte	0x54
 2740 0884 17       		.uleb128 0x17
 2741 0885 0E000000 		.4byte	.LBB21
 2742 0889 14000000 		.4byte	.LBE21
 2743 088d A2080000 		.4byte	0x8a2
 2744 0891 25       		.uleb128 0x25
 2745 0892 746D7000 		.ascii	"tmp\000"
 2746 0896 01       		.byte	0x1
 2747 0897 8501     		.2byte	0x185
 2748 0899 70000000 		.4byte	0x70
 2749 089d 69030000 		.4byte	.LLST32
 2750 08a1 00       		.byte	0x0
 2751 08a2 17       		.uleb128 0x17
 2752 08a3 1E000000 		.4byte	.LBB22
 2753 08a7 24000000 		.4byte	.LBE22
 2754 08ab C0080000 		.4byte	0x8c0
 2755 08af 25       		.uleb128 0x25
 2756 08b0 746D7000 		.ascii	"tmp\000"
 2757 08b4 01       		.byte	0x1
 2758 08b5 8901     		.2byte	0x189
 2759 08b7 70000000 		.4byte	0x70
 2760 08bb 7C030000 		.4byte	.LLST33
 2761 08bf 00       		.byte	0x0
 2762 08c0 17       		.uleb128 0x17
 2763 08c1 44000000 		.4byte	.LBB23
 2764 08c5 4A000000 		.4byte	.LBE23
 2765 08c9 DE080000 		.4byte	0x8de
 2766 08cd 25       		.uleb128 0x25
 2767 08ce 746D7000 		.ascii	"tmp\000"
 2768 08d2 01       		.byte	0x1
ARM GAS  /tmp/ccePAp3r.s 			page 50


 2769 08d3 9601     		.2byte	0x196
 2770 08d5 70000000 		.4byte	0x70
 2771 08d9 8F030000 		.4byte	.LLST34
 2772 08dd 00       		.byte	0x0
 2773 08de 19       		.uleb128 0x19
 2774 08df 4E000000 		.4byte	.LBB24
 2775 08e3 54000000 		.4byte	.LBE24
 2776 08e7 25       		.uleb128 0x25
 2777 08e8 746D7000 		.ascii	"tmp\000"
 2778 08ec 01       		.byte	0x1
 2779 08ed 8E01     		.2byte	0x18e
 2780 08ef 70000000 		.4byte	0x70
 2781 08f3 A2030000 		.4byte	.LLST35
 2782 08f7 00       		.byte	0x0
 2783 08f8 00       		.byte	0x0
 2784 08f9 22       		.uleb128 0x22
 2785 08fa 01       		.byte	0x1
 2786 08fb 17020000 		.4byte	.LASF78
 2787 08ff 01       		.byte	0x1
 2788 0900 5A01     		.2byte	0x15a
 2789 0902 01       		.byte	0x1
 2790 0903 D2000000 		.4byte	0xd2
 2791 0907 00000000 		.4byte	.LFB18
 2792 090b 38000000 		.4byte	.LFE18
 2793 090f C0030000 		.4byte	.LLST36
 2794 0913 6C090000 		.4byte	0x96c
 2795 0917 23       		.uleb128 0x23
 2796 0918 14010000 		.4byte	.LASF67
 2797 091c 01       		.byte	0x1
 2798 091d 5A01     		.2byte	0x15a
 2799 091f D2000000 		.4byte	0xd2
 2800 0923 DF030000 		.4byte	.LLST37
 2801 0927 24       		.uleb128 0x24
 2802 0928 63747000 		.ascii	"ctp\000"
 2803 092c 01       		.byte	0x1
 2804 092d 5B01     		.2byte	0x15b
 2805 092f 2C020000 		.4byte	0x22c
 2806 0933 01       		.byte	0x1
 2807 0934 55       		.byte	0x55
 2808 0935 17       		.uleb128 0x17
 2809 0936 0E000000 		.4byte	.LBB25
 2810 093a 14000000 		.4byte	.LBE25
 2811 093e 53090000 		.4byte	0x953
 2812 0942 25       		.uleb128 0x25
 2813 0943 746D7000 		.ascii	"tmp\000"
 2814 0947 01       		.byte	0x1
 2815 0948 5D01     		.2byte	0x15d
 2816 094a 70000000 		.4byte	0x70
 2817 094e FD030000 		.4byte	.LLST38
 2818 0952 00       		.byte	0x0
 2819 0953 19       		.uleb128 0x19
 2820 0954 2E000000 		.4byte	.LBB26
 2821 0958 34000000 		.4byte	.LBE26
 2822 095c 24       		.uleb128 0x24
 2823 095d 746D7000 		.ascii	"tmp\000"
 2824 0961 01       		.byte	0x1
 2825 0962 6501     		.2byte	0x165
ARM GAS  /tmp/ccePAp3r.s 			page 51


 2826 0964 70000000 		.4byte	0x70
 2827 0968 01       		.byte	0x1
 2828 0969 53       		.byte	0x53
 2829 096a 00       		.byte	0x0
 2830 096b 00       		.byte	0x0
 2831 096c 22       		.uleb128 0x22
 2832 096d 01       		.byte	0x1
 2833 096e E9000000 		.4byte	.LASF79
 2834 0972 01       		.byte	0x1
 2835 0973 3E01     		.2byte	0x13e
 2836 0975 01       		.byte	0x1
 2837 0976 D2000000 		.4byte	0xd2
 2838 097a 00000000 		.4byte	.LFB17
 2839 097e 36000000 		.4byte	.LFE17
 2840 0982 10040000 		.4byte	.LLST39
 2841 0986 ED090000 		.4byte	0x9ed
 2842 098a 23       		.uleb128 0x23
 2843 098b 14010000 		.4byte	.LASF67
 2844 098f 01       		.byte	0x1
 2845 0990 3E01     		.2byte	0x13e
 2846 0992 D2000000 		.4byte	0xd2
 2847 0996 2F040000 		.4byte	.LLST40
 2848 099a 24       		.uleb128 0x24
 2849 099b 63747000 		.ascii	"ctp\000"
 2850 099f 01       		.byte	0x1
 2851 09a0 3F01     		.2byte	0x13f
 2852 09a2 2C020000 		.4byte	0x22c
 2853 09a6 01       		.byte	0x1
 2854 09a7 54       		.byte	0x54
 2855 09a8 25       		.uleb128 0x25
 2856 09a9 6D00     		.ascii	"m\000"
 2857 09ab 01       		.byte	0x1
 2858 09ac 4001     		.2byte	0x140
 2859 09ae D2000000 		.4byte	0xd2
 2860 09b2 4D040000 		.4byte	.LLST41
 2861 09b6 17       		.uleb128 0x17
 2862 09b7 0E000000 		.4byte	.LBB27
 2863 09bb 14000000 		.4byte	.LBE27
 2864 09bf D4090000 		.4byte	0x9d4
 2865 09c3 25       		.uleb128 0x25
 2866 09c4 746D7000 		.ascii	"tmp\000"
 2867 09c8 01       		.byte	0x1
 2868 09c9 4201     		.2byte	0x142
 2869 09cb 70000000 		.4byte	0x70
 2870 09cf 6B040000 		.4byte	.LLST42
 2871 09d3 00       		.byte	0x0
 2872 09d4 19       		.uleb128 0x19
 2873 09d5 2E000000 		.4byte	.LBB28
 2874 09d9 34000000 		.4byte	.LBE28
 2875 09dd 24       		.uleb128 0x24
 2876 09de 746D7000 		.ascii	"tmp\000"
 2877 09e2 01       		.byte	0x1
 2878 09e3 4B01     		.2byte	0x14b
 2879 09e5 70000000 		.4byte	0x70
 2880 09e9 01       		.byte	0x1
 2881 09ea 53       		.byte	0x53
 2882 09eb 00       		.byte	0x0
ARM GAS  /tmp/ccePAp3r.s 			page 52


 2883 09ec 00       		.byte	0x0
 2884 09ed 22       		.uleb128 0x22
 2885 09ee 01       		.byte	0x1
 2886 09ef 84020000 		.4byte	.LASF80
 2887 09f3 01       		.byte	0x1
 2888 09f4 2101     		.2byte	0x121
 2889 09f6 01       		.byte	0x1
 2890 09f7 D2000000 		.4byte	0xd2
 2891 09fb 00000000 		.4byte	.LFB16
 2892 09ff 3C000000 		.4byte	.LFE16
 2893 0a03 7E040000 		.4byte	.LLST43
 2894 0a07 6E0A0000 		.4byte	0xa6e
 2895 0a0b 23       		.uleb128 0x23
 2896 0a0c 14010000 		.4byte	.LASF67
 2897 0a10 01       		.byte	0x1
 2898 0a11 2101     		.2byte	0x121
 2899 0a13 D2000000 		.4byte	0xd2
 2900 0a17 9D040000 		.4byte	.LLST44
 2901 0a1b 24       		.uleb128 0x24
 2902 0a1c 63747000 		.ascii	"ctp\000"
 2903 0a20 01       		.byte	0x1
 2904 0a21 2201     		.2byte	0x122
 2905 0a23 2C020000 		.4byte	0x22c
 2906 0a27 01       		.byte	0x1
 2907 0a28 54       		.byte	0x54
 2908 0a29 25       		.uleb128 0x25
 2909 0a2a 6D00     		.ascii	"m\000"
 2910 0a2c 01       		.byte	0x1
 2911 0a2d 2301     		.2byte	0x123
 2912 0a2f D2000000 		.4byte	0xd2
 2913 0a33 BB040000 		.4byte	.LLST45
 2914 0a37 17       		.uleb128 0x17
 2915 0a38 0E000000 		.4byte	.LBB29
 2916 0a3c 14000000 		.4byte	.LBE29
 2917 0a40 550A0000 		.4byte	0xa55
 2918 0a44 25       		.uleb128 0x25
 2919 0a45 746D7000 		.ascii	"tmp\000"
 2920 0a49 01       		.byte	0x1
 2921 0a4a 2501     		.2byte	0x125
 2922 0a4c 70000000 		.4byte	0x70
 2923 0a50 E4040000 		.4byte	.LLST46
 2924 0a54 00       		.byte	0x0
 2925 0a55 19       		.uleb128 0x19
 2926 0a56 34000000 		.4byte	.LBB30
 2927 0a5a 3A000000 		.4byte	.LBE30
 2928 0a5e 24       		.uleb128 0x24
 2929 0a5f 746D7000 		.ascii	"tmp\000"
 2930 0a63 01       		.byte	0x1
 2931 0a64 2F01     		.2byte	0x12f
 2932 0a66 70000000 		.4byte	0x70
 2933 0a6a 01       		.byte	0x1
 2934 0a6b 53       		.byte	0x53
 2935 0a6c 00       		.byte	0x0
 2936 0a6d 00       		.byte	0x0
 2937 0a6e 14       		.uleb128 0x14
 2938 0a6f 01       		.byte	0x1
 2939 0a70 CF030000 		.4byte	.LASF81
ARM GAS  /tmp/ccePAp3r.s 			page 53


 2940 0a74 01       		.byte	0x1
 2941 0a75 C0       		.byte	0xc0
 2942 0a76 01       		.byte	0x1
 2943 0a77 00000000 		.4byte	.LFB12
 2944 0a7b 30000000 		.4byte	.LFE12
 2945 0a7f F7040000 		.4byte	.LLST47
 2946 0a83 A50A0000 		.4byte	0xaa5
 2947 0a87 26       		.uleb128 0x26
 2948 0a88 747000   		.ascii	"tp\000"
 2949 0a8b 01       		.byte	0x1
 2950 0a8c C0       		.byte	0xc0
 2951 0a8d 2C020000 		.4byte	0x22c
 2952 0a91 16050000 		.4byte	.LLST48
 2953 0a95 1E       		.uleb128 0x1e
 2954 0a96 14010000 		.4byte	.LASF67
 2955 0a9a 01       		.byte	0x1
 2956 0a9b C0       		.byte	0xc0
 2957 0a9c D2000000 		.4byte	0xd2
 2958 0aa0 34050000 		.4byte	.LLST49
 2959 0aa4 00       		.byte	0x0
 2960 0aa5 14       		.uleb128 0x14
 2961 0aa6 01       		.byte	0x1
 2962 0aa7 D6020000 		.4byte	.LASF82
 2963 0aab 01       		.byte	0x1
 2964 0aac E9       		.byte	0xe9
 2965 0aad 01       		.byte	0x1
 2966 0aae 00000000 		.4byte	.LFB14
 2967 0ab2 1A000000 		.4byte	.LFE14
 2968 0ab6 5D050000 		.4byte	.LLST50
 2969 0aba DB0A0000 		.4byte	0xadb
 2970 0abe 26       		.uleb128 0x26
 2971 0abf 65737000 		.ascii	"esp\000"
 2972 0ac3 01       		.byte	0x1
 2973 0ac4 E9       		.byte	0xe9
 2974 0ac5 16050000 		.4byte	0x516
 2975 0ac9 7C050000 		.4byte	.LLST51
 2976 0acd 1A       		.uleb128 0x1a
 2977 0ace 656C7000 		.ascii	"elp\000"
 2978 0ad2 01       		.byte	0x1
 2979 0ad3 EA       		.byte	0xea
 2980 0ad4 1D040000 		.4byte	0x41d
 2981 0ad8 01       		.byte	0x1
 2982 0ad9 54       		.byte	0x54
 2983 0ada 00       		.byte	0x0
 2984 0adb 14       		.uleb128 0x14
 2985 0adc 01       		.byte	0x1
 2986 0add E8010000 		.4byte	.LASF83
 2987 0ae1 01       		.byte	0x1
 2988 0ae2 D5       		.byte	0xd5
 2989 0ae3 01       		.byte	0x1
 2990 0ae4 00000000 		.4byte	.LFB13
 2991 0ae8 18000000 		.4byte	.LFE13
 2992 0aec 9A050000 		.4byte	.LLST52
 2993 0af0 380B0000 		.4byte	0xb38
 2994 0af4 26       		.uleb128 0x26
 2995 0af5 65737000 		.ascii	"esp\000"
 2996 0af9 01       		.byte	0x1
ARM GAS  /tmp/ccePAp3r.s 			page 54


 2997 0afa D5       		.byte	0xd5
 2998 0afb 16050000 		.4byte	0x516
 2999 0aff B9050000 		.4byte	.LLST53
 3000 0b03 17       		.uleb128 0x17
 3001 0b04 02000000 		.4byte	.LBB31
 3002 0b08 08000000 		.4byte	.LBE31
 3003 0b0c 200B0000 		.4byte	0xb20
 3004 0b10 18       		.uleb128 0x18
 3005 0b11 746D7000 		.ascii	"tmp\000"
 3006 0b15 01       		.byte	0x1
 3007 0b16 D7       		.byte	0xd7
 3008 0b17 70000000 		.4byte	0x70
 3009 0b1b CC050000 		.4byte	.LLST54
 3010 0b1f 00       		.byte	0x0
 3011 0b20 19       		.uleb128 0x19
 3012 0b21 10000000 		.4byte	.LBB32
 3013 0b25 16000000 		.4byte	.LBE32
 3014 0b29 1A       		.uleb128 0x1a
 3015 0b2a 746D7000 		.ascii	"tmp\000"
 3016 0b2e 01       		.byte	0x1
 3017 0b2f DA       		.byte	0xda
 3018 0b30 70000000 		.4byte	0x70
 3019 0b34 01       		.byte	0x1
 3020 0b35 53       		.byte	0x53
 3021 0b36 00       		.byte	0x0
 3022 0b37 00       		.byte	0x0
 3023 0b38 14       		.uleb128 0x14
 3024 0b39 01       		.byte	0x1
 3025 0b3a 0D000000 		.4byte	.LASF84
 3026 0b3e 01       		.byte	0x1
 3027 0b3f AA       		.byte	0xaa
 3028 0b40 01       		.byte	0x1
 3029 0b41 00000000 		.4byte	.LFB11
 3030 0b45 18000000 		.4byte	.LFE11
 3031 0b49 DF050000 		.4byte	.LLST55
 3032 0b4d A30B0000 		.4byte	0xba3
 3033 0b51 26       		.uleb128 0x26
 3034 0b52 747000   		.ascii	"tp\000"
 3035 0b55 01       		.byte	0x1
 3036 0b56 AA       		.byte	0xaa
 3037 0b57 2C020000 		.4byte	0x22c
 3038 0b5b FE050000 		.4byte	.LLST56
 3039 0b5f 1E       		.uleb128 0x1e
 3040 0b60 14010000 		.4byte	.LASF67
 3041 0b64 01       		.byte	0x1
 3042 0b65 AA       		.byte	0xaa
 3043 0b66 D2000000 		.4byte	0xd2
 3044 0b6a 11060000 		.4byte	.LLST57
 3045 0b6e 17       		.uleb128 0x17
 3046 0b6f 02000000 		.4byte	.LBB33
 3047 0b73 08000000 		.4byte	.LBE33
 3048 0b77 8B0B0000 		.4byte	0xb8b
 3049 0b7b 18       		.uleb128 0x18
 3050 0b7c 746D7000 		.ascii	"tmp\000"
 3051 0b80 01       		.byte	0x1
 3052 0b81 AE       		.byte	0xae
 3053 0b82 70000000 		.4byte	0x70
ARM GAS  /tmp/ccePAp3r.s 			page 55


 3054 0b86 24060000 		.4byte	.LLST58
 3055 0b8a 00       		.byte	0x0
 3056 0b8b 19       		.uleb128 0x19
 3057 0b8c 10000000 		.4byte	.LBB34
 3058 0b90 16000000 		.4byte	.LBE34
 3059 0b94 1A       		.uleb128 0x1a
 3060 0b95 746D7000 		.ascii	"tmp\000"
 3061 0b99 01       		.byte	0x1
 3062 0b9a B1       		.byte	0xb1
 3063 0b9b 70000000 		.4byte	0x70
 3064 0b9f 01       		.byte	0x1
 3065 0ba0 53       		.byte	0x53
 3066 0ba1 00       		.byte	0x0
 3067 0ba2 00       		.byte	0x0
 3068 0ba3 27       		.uleb128 0x27
 3069 0ba4 4F030000 		.4byte	.LASF88
 3070 0ba8 08       		.byte	0x8
 3071 0ba9 65       		.byte	0x65
 3072 0baa 88030000 		.4byte	0x388
 3073 0bae 01       		.byte	0x1
 3074 0baf 01       		.byte	0x1
 3075 0bb0 00       		.byte	0x0
 3076              		.section	.debug_abbrev
 3077 0000 01       		.uleb128 0x1
 3078 0001 11       		.uleb128 0x11
 3079 0002 01       		.byte	0x1
 3080 0003 25       		.uleb128 0x25
 3081 0004 0E       		.uleb128 0xe
 3082 0005 13       		.uleb128 0x13
 3083 0006 0B       		.uleb128 0xb
 3084 0007 03       		.uleb128 0x3
 3085 0008 0E       		.uleb128 0xe
 3086 0009 1B       		.uleb128 0x1b
 3087 000a 0E       		.uleb128 0xe
 3088 000b 11       		.uleb128 0x11
 3089 000c 01       		.uleb128 0x1
 3090 000d 52       		.uleb128 0x52
 3091 000e 01       		.uleb128 0x1
 3092 000f 55       		.uleb128 0x55
 3093 0010 06       		.uleb128 0x6
 3094 0011 10       		.uleb128 0x10
 3095 0012 06       		.uleb128 0x6
 3096 0013 00       		.byte	0x0
 3097 0014 00       		.byte	0x0
 3098 0015 02       		.uleb128 0x2
 3099 0016 24       		.uleb128 0x24
 3100 0017 00       		.byte	0x0
 3101 0018 0B       		.uleb128 0xb
 3102 0019 0B       		.uleb128 0xb
 3103 001a 3E       		.uleb128 0x3e
 3104 001b 0B       		.uleb128 0xb
 3105 001c 03       		.uleb128 0x3
 3106 001d 08       		.uleb128 0x8
 3107 001e 00       		.byte	0x0
 3108 001f 00       		.byte	0x0
 3109 0020 03       		.uleb128 0x3
 3110 0021 24       		.uleb128 0x24
ARM GAS  /tmp/ccePAp3r.s 			page 56


 3111 0022 00       		.byte	0x0
 3112 0023 0B       		.uleb128 0xb
 3113 0024 0B       		.uleb128 0xb
 3114 0025 3E       		.uleb128 0x3e
 3115 0026 0B       		.uleb128 0xb
 3116 0027 03       		.uleb128 0x3
 3117 0028 0E       		.uleb128 0xe
 3118 0029 00       		.byte	0x0
 3119 002a 00       		.byte	0x0
 3120 002b 04       		.uleb128 0x4
 3121 002c 16       		.uleb128 0x16
 3122 002d 00       		.byte	0x0
 3123 002e 03       		.uleb128 0x3
 3124 002f 0E       		.uleb128 0xe
 3125 0030 3A       		.uleb128 0x3a
 3126 0031 0B       		.uleb128 0xb
 3127 0032 3B       		.uleb128 0x3b
 3128 0033 0B       		.uleb128 0xb
 3129 0034 49       		.uleb128 0x49
 3130 0035 13       		.uleb128 0x13
 3131 0036 00       		.byte	0x0
 3132 0037 00       		.byte	0x0
 3133 0038 05       		.uleb128 0x5
 3134 0039 13       		.uleb128 0x13
 3135 003a 01       		.byte	0x1
 3136 003b 03       		.uleb128 0x3
 3137 003c 0E       		.uleb128 0xe
 3138 003d 0B       		.uleb128 0xb
 3139 003e 0B       		.uleb128 0xb
 3140 003f 3A       		.uleb128 0x3a
 3141 0040 0B       		.uleb128 0xb
 3142 0041 3B       		.uleb128 0x3b
 3143 0042 0B       		.uleb128 0xb
 3144 0043 01       		.uleb128 0x1
 3145 0044 13       		.uleb128 0x13
 3146 0045 00       		.byte	0x0
 3147 0046 00       		.byte	0x0
 3148 0047 06       		.uleb128 0x6
 3149 0048 0D       		.uleb128 0xd
 3150 0049 00       		.byte	0x0
 3151 004a 03       		.uleb128 0x3
 3152 004b 0E       		.uleb128 0xe
 3153 004c 3A       		.uleb128 0x3a
 3154 004d 0B       		.uleb128 0xb
 3155 004e 3B       		.uleb128 0x3b
 3156 004f 0B       		.uleb128 0xb
 3157 0050 49       		.uleb128 0x49
 3158 0051 13       		.uleb128 0x13
 3159 0052 38       		.uleb128 0x38
 3160 0053 0A       		.uleb128 0xa
 3161 0054 00       		.byte	0x0
 3162 0055 00       		.byte	0x0
 3163 0056 07       		.uleb128 0x7
 3164 0057 0D       		.uleb128 0xd
 3165 0058 00       		.byte	0x0
 3166 0059 03       		.uleb128 0x3
 3167 005a 08       		.uleb128 0x8
ARM GAS  /tmp/ccePAp3r.s 			page 57


 3168 005b 3A       		.uleb128 0x3a
 3169 005c 0B       		.uleb128 0xb
 3170 005d 3B       		.uleb128 0x3b
 3171 005e 0B       		.uleb128 0xb
 3172 005f 49       		.uleb128 0x49
 3173 0060 13       		.uleb128 0x13
 3174 0061 38       		.uleb128 0x38
 3175 0062 0A       		.uleb128 0xa
 3176 0063 00       		.byte	0x0
 3177 0064 00       		.byte	0x0
 3178 0065 08       		.uleb128 0x8
 3179 0066 13       		.uleb128 0x13
 3180 0067 01       		.byte	0x1
 3181 0068 0B       		.uleb128 0xb
 3182 0069 0B       		.uleb128 0xb
 3183 006a 3A       		.uleb128 0x3a
 3184 006b 0B       		.uleb128 0xb
 3185 006c 3B       		.uleb128 0x3b
 3186 006d 0B       		.uleb128 0xb
 3187 006e 01       		.uleb128 0x1
 3188 006f 13       		.uleb128 0x13
 3189 0070 00       		.byte	0x0
 3190 0071 00       		.byte	0x0
 3191 0072 09       		.uleb128 0x9
 3192 0073 0F       		.uleb128 0xf
 3193 0074 00       		.byte	0x0
 3194 0075 0B       		.uleb128 0xb
 3195 0076 0B       		.uleb128 0xb
 3196 0077 49       		.uleb128 0x49
 3197 0078 13       		.uleb128 0x13
 3198 0079 00       		.byte	0x0
 3199 007a 00       		.byte	0x0
 3200 007b 0A       		.uleb128 0xa
 3201 007c 24       		.uleb128 0x24
 3202 007d 00       		.byte	0x0
 3203 007e 0B       		.uleb128 0xb
 3204 007f 0B       		.uleb128 0xb
 3205 0080 3E       		.uleb128 0x3e
 3206 0081 0B       		.uleb128 0xb
 3207 0082 00       		.byte	0x0
 3208 0083 00       		.byte	0x0
 3209 0084 0B       		.uleb128 0xb
 3210 0085 16       		.uleb128 0x16
 3211 0086 00       		.byte	0x0
 3212 0087 03       		.uleb128 0x3
 3213 0088 0E       		.uleb128 0xe
 3214 0089 3A       		.uleb128 0x3a
 3215 008a 0B       		.uleb128 0xb
 3216 008b 3B       		.uleb128 0x3b
 3217 008c 05       		.uleb128 0x5
 3218 008d 49       		.uleb128 0x49
 3219 008e 13       		.uleb128 0x13
 3220 008f 00       		.byte	0x0
 3221 0090 00       		.byte	0x0
 3222 0091 0C       		.uleb128 0xc
 3223 0092 0F       		.uleb128 0xf
 3224 0093 00       		.byte	0x0
ARM GAS  /tmp/ccePAp3r.s 			page 58


 3225 0094 0B       		.uleb128 0xb
 3226 0095 0B       		.uleb128 0xb
 3227 0096 00       		.byte	0x0
 3228 0097 00       		.byte	0x0
 3229 0098 0D       		.uleb128 0xd
 3230 0099 13       		.uleb128 0x13
 3231 009a 01       		.byte	0x1
 3232 009b 03       		.uleb128 0x3
 3233 009c 0E       		.uleb128 0xe
 3234 009d 0B       		.uleb128 0xb
 3235 009e 0B       		.uleb128 0xb
 3236 009f 3A       		.uleb128 0x3a
 3237 00a0 0B       		.uleb128 0xb
 3238 00a1 3B       		.uleb128 0x3b
 3239 00a2 05       		.uleb128 0x5
 3240 00a3 01       		.uleb128 0x1
 3241 00a4 13       		.uleb128 0x13
 3242 00a5 00       		.byte	0x0
 3243 00a6 00       		.byte	0x0
 3244 00a7 0E       		.uleb128 0xe
 3245 00a8 0D       		.uleb128 0xd
 3246 00a9 00       		.byte	0x0
 3247 00aa 03       		.uleb128 0x3
 3248 00ab 08       		.uleb128 0x8
 3249 00ac 3A       		.uleb128 0x3a
 3250 00ad 0B       		.uleb128 0xb
 3251 00ae 3B       		.uleb128 0x3b
 3252 00af 05       		.uleb128 0x5
 3253 00b0 49       		.uleb128 0x49
 3254 00b1 13       		.uleb128 0x13
 3255 00b2 38       		.uleb128 0x38
 3256 00b3 0A       		.uleb128 0xa
 3257 00b4 00       		.byte	0x0
 3258 00b5 00       		.byte	0x0
 3259 00b6 0F       		.uleb128 0xf
 3260 00b7 35       		.uleb128 0x35
 3261 00b8 00       		.byte	0x0
 3262 00b9 49       		.uleb128 0x49
 3263 00ba 13       		.uleb128 0x13
 3264 00bb 00       		.byte	0x0
 3265 00bc 00       		.byte	0x0
 3266 00bd 10       		.uleb128 0x10
 3267 00be 15       		.uleb128 0x15
 3268 00bf 01       		.byte	0x1
 3269 00c0 27       		.uleb128 0x27
 3270 00c1 0C       		.uleb128 0xc
 3271 00c2 01       		.uleb128 0x1
 3272 00c3 13       		.uleb128 0x13
 3273 00c4 00       		.byte	0x0
 3274 00c5 00       		.byte	0x0
 3275 00c6 11       		.uleb128 0x11
 3276 00c7 05       		.uleb128 0x5
 3277 00c8 00       		.byte	0x0
 3278 00c9 49       		.uleb128 0x49
 3279 00ca 13       		.uleb128 0x13
 3280 00cb 00       		.byte	0x0
 3281 00cc 00       		.byte	0x0
ARM GAS  /tmp/ccePAp3r.s 			page 59


 3282 00cd 12       		.uleb128 0x12
 3283 00ce 17       		.uleb128 0x17
 3284 00cf 01       		.byte	0x1
 3285 00d0 0B       		.uleb128 0xb
 3286 00d1 0B       		.uleb128 0xb
 3287 00d2 3A       		.uleb128 0x3a
 3288 00d3 0B       		.uleb128 0xb
 3289 00d4 3B       		.uleb128 0x3b
 3290 00d5 0B       		.uleb128 0xb
 3291 00d6 01       		.uleb128 0x1
 3292 00d7 13       		.uleb128 0x13
 3293 00d8 00       		.byte	0x0
 3294 00d9 00       		.byte	0x0
 3295 00da 13       		.uleb128 0x13
 3296 00db 0D       		.uleb128 0xd
 3297 00dc 00       		.byte	0x0
 3298 00dd 03       		.uleb128 0x3
 3299 00de 0E       		.uleb128 0xe
 3300 00df 3A       		.uleb128 0x3a
 3301 00e0 0B       		.uleb128 0xb
 3302 00e1 3B       		.uleb128 0x3b
 3303 00e2 0B       		.uleb128 0xb
 3304 00e3 49       		.uleb128 0x49
 3305 00e4 13       		.uleb128 0x13
 3306 00e5 00       		.byte	0x0
 3307 00e6 00       		.byte	0x0
 3308 00e7 14       		.uleb128 0x14
 3309 00e8 2E       		.uleb128 0x2e
 3310 00e9 01       		.byte	0x1
 3311 00ea 3F       		.uleb128 0x3f
 3312 00eb 0C       		.uleb128 0xc
 3313 00ec 03       		.uleb128 0x3
 3314 00ed 0E       		.uleb128 0xe
 3315 00ee 3A       		.uleb128 0x3a
 3316 00ef 0B       		.uleb128 0xb
 3317 00f0 3B       		.uleb128 0x3b
 3318 00f1 0B       		.uleb128 0xb
 3319 00f2 27       		.uleb128 0x27
 3320 00f3 0C       		.uleb128 0xc
 3321 00f4 11       		.uleb128 0x11
 3322 00f5 01       		.uleb128 0x1
 3323 00f6 12       		.uleb128 0x12
 3324 00f7 01       		.uleb128 0x1
 3325 00f8 40       		.uleb128 0x40
 3326 00f9 06       		.uleb128 0x6
 3327 00fa 01       		.uleb128 0x1
 3328 00fb 13       		.uleb128 0x13
 3329 00fc 00       		.byte	0x0
 3330 00fd 00       		.byte	0x0
 3331 00fe 15       		.uleb128 0x15
 3332 00ff 05       		.uleb128 0x5
 3333 0100 00       		.byte	0x0
 3334 0101 03       		.uleb128 0x3
 3335 0102 08       		.uleb128 0x8
 3336 0103 3A       		.uleb128 0x3a
 3337 0104 0B       		.uleb128 0xb
 3338 0105 3B       		.uleb128 0x3b
ARM GAS  /tmp/ccePAp3r.s 			page 60


 3339 0106 0B       		.uleb128 0xb
 3340 0107 49       		.uleb128 0x49
 3341 0108 13       		.uleb128 0x13
 3342 0109 02       		.uleb128 0x2
 3343 010a 0A       		.uleb128 0xa
 3344 010b 00       		.byte	0x0
 3345 010c 00       		.byte	0x0
 3346 010d 16       		.uleb128 0x16
 3347 010e 05       		.uleb128 0x5
 3348 010f 00       		.byte	0x0
 3349 0110 03       		.uleb128 0x3
 3350 0111 0E       		.uleb128 0xe
 3351 0112 3A       		.uleb128 0x3a
 3352 0113 0B       		.uleb128 0xb
 3353 0114 3B       		.uleb128 0x3b
 3354 0115 0B       		.uleb128 0xb
 3355 0116 49       		.uleb128 0x49
 3356 0117 13       		.uleb128 0x13
 3357 0118 02       		.uleb128 0x2
 3358 0119 0A       		.uleb128 0xa
 3359 011a 00       		.byte	0x0
 3360 011b 00       		.byte	0x0
 3361 011c 17       		.uleb128 0x17
 3362 011d 0B       		.uleb128 0xb
 3363 011e 01       		.byte	0x1
 3364 011f 11       		.uleb128 0x11
 3365 0120 01       		.uleb128 0x1
 3366 0121 12       		.uleb128 0x12
 3367 0122 01       		.uleb128 0x1
 3368 0123 01       		.uleb128 0x1
 3369 0124 13       		.uleb128 0x13
 3370 0125 00       		.byte	0x0
 3371 0126 00       		.byte	0x0
 3372 0127 18       		.uleb128 0x18
 3373 0128 34       		.uleb128 0x34
 3374 0129 00       		.byte	0x0
 3375 012a 03       		.uleb128 0x3
 3376 012b 08       		.uleb128 0x8
 3377 012c 3A       		.uleb128 0x3a
 3378 012d 0B       		.uleb128 0xb
 3379 012e 3B       		.uleb128 0x3b
 3380 012f 0B       		.uleb128 0xb
 3381 0130 49       		.uleb128 0x49
 3382 0131 13       		.uleb128 0x13
 3383 0132 02       		.uleb128 0x2
 3384 0133 06       		.uleb128 0x6
 3385 0134 00       		.byte	0x0
 3386 0135 00       		.byte	0x0
 3387 0136 19       		.uleb128 0x19
 3388 0137 0B       		.uleb128 0xb
 3389 0138 01       		.byte	0x1
 3390 0139 11       		.uleb128 0x11
 3391 013a 01       		.uleb128 0x1
 3392 013b 12       		.uleb128 0x12
 3393 013c 01       		.uleb128 0x1
 3394 013d 00       		.byte	0x0
 3395 013e 00       		.byte	0x0
ARM GAS  /tmp/ccePAp3r.s 			page 61


 3396 013f 1A       		.uleb128 0x1a
 3397 0140 34       		.uleb128 0x34
 3398 0141 00       		.byte	0x0
 3399 0142 03       		.uleb128 0x3
 3400 0143 08       		.uleb128 0x8
 3401 0144 3A       		.uleb128 0x3a
 3402 0145 0B       		.uleb128 0xb
 3403 0146 3B       		.uleb128 0x3b
 3404 0147 0B       		.uleb128 0xb
 3405 0148 49       		.uleb128 0x49
 3406 0149 13       		.uleb128 0x13
 3407 014a 02       		.uleb128 0x2
 3408 014b 0A       		.uleb128 0xa
 3409 014c 00       		.byte	0x0
 3410 014d 00       		.byte	0x0
 3411 014e 1B       		.uleb128 0x1b
 3412 014f 2E       		.uleb128 0x2e
 3413 0150 01       		.byte	0x1
 3414 0151 3F       		.uleb128 0x3f
 3415 0152 0C       		.uleb128 0xc
 3416 0153 03       		.uleb128 0x3
 3417 0154 0E       		.uleb128 0xe
 3418 0155 3A       		.uleb128 0x3a
 3419 0156 0B       		.uleb128 0xb
 3420 0157 3B       		.uleb128 0x3b
 3421 0158 0B       		.uleb128 0xb
 3422 0159 27       		.uleb128 0x27
 3423 015a 0C       		.uleb128 0xc
 3424 015b 11       		.uleb128 0x11
 3425 015c 01       		.uleb128 0x1
 3426 015d 12       		.uleb128 0x12
 3427 015e 01       		.uleb128 0x1
 3428 015f 40       		.uleb128 0x40
 3429 0160 0A       		.uleb128 0xa
 3430 0161 01       		.uleb128 0x1
 3431 0162 13       		.uleb128 0x13
 3432 0163 00       		.byte	0x0
 3433 0164 00       		.byte	0x0
 3434 0165 1C       		.uleb128 0x1c
 3435 0166 0B       		.uleb128 0xb
 3436 0167 01       		.byte	0x1
 3437 0168 55       		.uleb128 0x55
 3438 0169 06       		.uleb128 0x6
 3439 016a 00       		.byte	0x0
 3440 016b 00       		.byte	0x0
 3441 016c 1D       		.uleb128 0x1d
 3442 016d 2E       		.uleb128 0x2e
 3443 016e 01       		.byte	0x1
 3444 016f 3F       		.uleb128 0x3f
 3445 0170 0C       		.uleb128 0xc
 3446 0171 03       		.uleb128 0x3
 3447 0172 0E       		.uleb128 0xe
 3448 0173 3A       		.uleb128 0x3a
 3449 0174 0B       		.uleb128 0xb
 3450 0175 3B       		.uleb128 0x3b
 3451 0176 0B       		.uleb128 0xb
 3452 0177 27       		.uleb128 0x27
ARM GAS  /tmp/ccePAp3r.s 			page 62


 3453 0178 0C       		.uleb128 0xc
 3454 0179 49       		.uleb128 0x49
 3455 017a 13       		.uleb128 0x13
 3456 017b 11       		.uleb128 0x11
 3457 017c 01       		.uleb128 0x1
 3458 017d 12       		.uleb128 0x12
 3459 017e 01       		.uleb128 0x1
 3460 017f 40       		.uleb128 0x40
 3461 0180 06       		.uleb128 0x6
 3462 0181 01       		.uleb128 0x1
 3463 0182 13       		.uleb128 0x13
 3464 0183 00       		.byte	0x0
 3465 0184 00       		.byte	0x0
 3466 0185 1E       		.uleb128 0x1e
 3467 0186 05       		.uleb128 0x5
 3468 0187 00       		.byte	0x0
 3469 0188 03       		.uleb128 0x3
 3470 0189 0E       		.uleb128 0xe
 3471 018a 3A       		.uleb128 0x3a
 3472 018b 0B       		.uleb128 0xb
 3473 018c 3B       		.uleb128 0x3b
 3474 018d 0B       		.uleb128 0xb
 3475 018e 49       		.uleb128 0x49
 3476 018f 13       		.uleb128 0x13
 3477 0190 02       		.uleb128 0x2
 3478 0191 06       		.uleb128 0x6
 3479 0192 00       		.byte	0x0
 3480 0193 00       		.byte	0x0
 3481 0194 1F       		.uleb128 0x1f
 3482 0195 34       		.uleb128 0x34
 3483 0196 00       		.byte	0x0
 3484 0197 03       		.uleb128 0x3
 3485 0198 08       		.uleb128 0x8
 3486 0199 3A       		.uleb128 0x3a
 3487 019a 0B       		.uleb128 0xb
 3488 019b 3B       		.uleb128 0x3b
 3489 019c 0B       		.uleb128 0xb
 3490 019d 49       		.uleb128 0x49
 3491 019e 13       		.uleb128 0x13
 3492 019f 00       		.byte	0x0
 3493 01a0 00       		.byte	0x0
 3494 01a1 20       		.uleb128 0x20
 3495 01a2 2E       		.uleb128 0x2e
 3496 01a3 01       		.byte	0x1
 3497 01a4 3F       		.uleb128 0x3f
 3498 01a5 0C       		.uleb128 0xc
 3499 01a6 03       		.uleb128 0x3
 3500 01a7 0E       		.uleb128 0xe
 3501 01a8 3A       		.uleb128 0x3a
 3502 01a9 0B       		.uleb128 0xb
 3503 01aa 3B       		.uleb128 0x3b
 3504 01ab 0B       		.uleb128 0xb
 3505 01ac 27       		.uleb128 0x27
 3506 01ad 0C       		.uleb128 0xc
 3507 01ae 49       		.uleb128 0x49
 3508 01af 13       		.uleb128 0x13
 3509 01b0 11       		.uleb128 0x11
ARM GAS  /tmp/ccePAp3r.s 			page 63


 3510 01b1 01       		.uleb128 0x1
 3511 01b2 12       		.uleb128 0x12
 3512 01b3 01       		.uleb128 0x1
 3513 01b4 40       		.uleb128 0x40
 3514 01b5 0A       		.uleb128 0xa
 3515 01b6 01       		.uleb128 0x1
 3516 01b7 13       		.uleb128 0x13
 3517 01b8 00       		.byte	0x0
 3518 01b9 00       		.byte	0x0
 3519 01ba 21       		.uleb128 0x21
 3520 01bb 26       		.uleb128 0x26
 3521 01bc 00       		.byte	0x0
 3522 01bd 49       		.uleb128 0x49
 3523 01be 13       		.uleb128 0x13
 3524 01bf 00       		.byte	0x0
 3525 01c0 00       		.byte	0x0
 3526 01c1 22       		.uleb128 0x22
 3527 01c2 2E       		.uleb128 0x2e
 3528 01c3 01       		.byte	0x1
 3529 01c4 3F       		.uleb128 0x3f
 3530 01c5 0C       		.uleb128 0xc
 3531 01c6 03       		.uleb128 0x3
 3532 01c7 0E       		.uleb128 0xe
 3533 01c8 3A       		.uleb128 0x3a
 3534 01c9 0B       		.uleb128 0xb
 3535 01ca 3B       		.uleb128 0x3b
 3536 01cb 05       		.uleb128 0x5
 3537 01cc 27       		.uleb128 0x27
 3538 01cd 0C       		.uleb128 0xc
 3539 01ce 49       		.uleb128 0x49
 3540 01cf 13       		.uleb128 0x13
 3541 01d0 11       		.uleb128 0x11
 3542 01d1 01       		.uleb128 0x1
 3543 01d2 12       		.uleb128 0x12
 3544 01d3 01       		.uleb128 0x1
 3545 01d4 40       		.uleb128 0x40
 3546 01d5 06       		.uleb128 0x6
 3547 01d6 01       		.uleb128 0x1
 3548 01d7 13       		.uleb128 0x13
 3549 01d8 00       		.byte	0x0
 3550 01d9 00       		.byte	0x0
 3551 01da 23       		.uleb128 0x23
 3552 01db 05       		.uleb128 0x5
 3553 01dc 00       		.byte	0x0
 3554 01dd 03       		.uleb128 0x3
 3555 01de 0E       		.uleb128 0xe
 3556 01df 3A       		.uleb128 0x3a
 3557 01e0 0B       		.uleb128 0xb
 3558 01e1 3B       		.uleb128 0x3b
 3559 01e2 05       		.uleb128 0x5
 3560 01e3 49       		.uleb128 0x49
 3561 01e4 13       		.uleb128 0x13
 3562 01e5 02       		.uleb128 0x2
 3563 01e6 06       		.uleb128 0x6
 3564 01e7 00       		.byte	0x0
 3565 01e8 00       		.byte	0x0
 3566 01e9 24       		.uleb128 0x24
ARM GAS  /tmp/ccePAp3r.s 			page 64


 3567 01ea 34       		.uleb128 0x34
 3568 01eb 00       		.byte	0x0
 3569 01ec 03       		.uleb128 0x3
 3570 01ed 08       		.uleb128 0x8
 3571 01ee 3A       		.uleb128 0x3a
 3572 01ef 0B       		.uleb128 0xb
 3573 01f0 3B       		.uleb128 0x3b
 3574 01f1 05       		.uleb128 0x5
 3575 01f2 49       		.uleb128 0x49
 3576 01f3 13       		.uleb128 0x13
 3577 01f4 02       		.uleb128 0x2
 3578 01f5 0A       		.uleb128 0xa
 3579 01f6 00       		.byte	0x0
 3580 01f7 00       		.byte	0x0
 3581 01f8 25       		.uleb128 0x25
 3582 01f9 34       		.uleb128 0x34
 3583 01fa 00       		.byte	0x0
 3584 01fb 03       		.uleb128 0x3
 3585 01fc 08       		.uleb128 0x8
 3586 01fd 3A       		.uleb128 0x3a
 3587 01fe 0B       		.uleb128 0xb
 3588 01ff 3B       		.uleb128 0x3b
 3589 0200 05       		.uleb128 0x5
 3590 0201 49       		.uleb128 0x49
 3591 0202 13       		.uleb128 0x13
 3592 0203 02       		.uleb128 0x2
 3593 0204 06       		.uleb128 0x6
 3594 0205 00       		.byte	0x0
 3595 0206 00       		.byte	0x0
 3596 0207 26       		.uleb128 0x26
 3597 0208 05       		.uleb128 0x5
 3598 0209 00       		.byte	0x0
 3599 020a 03       		.uleb128 0x3
 3600 020b 08       		.uleb128 0x8
 3601 020c 3A       		.uleb128 0x3a
 3602 020d 0B       		.uleb128 0xb
 3603 020e 3B       		.uleb128 0x3b
 3604 020f 0B       		.uleb128 0xb
 3605 0210 49       		.uleb128 0x49
 3606 0211 13       		.uleb128 0x13
 3607 0212 02       		.uleb128 0x2
 3608 0213 06       		.uleb128 0x6
 3609 0214 00       		.byte	0x0
 3610 0215 00       		.byte	0x0
 3611 0216 27       		.uleb128 0x27
 3612 0217 34       		.uleb128 0x34
 3613 0218 00       		.byte	0x0
 3614 0219 03       		.uleb128 0x3
 3615 021a 0E       		.uleb128 0xe
 3616 021b 3A       		.uleb128 0x3a
 3617 021c 0B       		.uleb128 0xb
 3618 021d 3B       		.uleb128 0x3b
 3619 021e 0B       		.uleb128 0xb
 3620 021f 49       		.uleb128 0x49
 3621 0220 13       		.uleb128 0x13
 3622 0221 3F       		.uleb128 0x3f
 3623 0222 0C       		.uleb128 0xc
ARM GAS  /tmp/ccePAp3r.s 			page 65


 3624 0223 3C       		.uleb128 0x3c
 3625 0224 0C       		.uleb128 0xc
 3626 0225 00       		.byte	0x0
 3627 0226 00       		.byte	0x0
 3628 0227 00       		.byte	0x0
 3629              		.section	.debug_pubnames,"",%progbits
 3630 0000 33010000 		.4byte	0x133
 3631 0004 0200     		.2byte	0x2
 3632 0006 00000000 		.4byte	.Ldebug_info0
 3633 000a B10B0000 		.4byte	0xbb1
 3634 000e A1040000 		.4byte	0x4a1
 3635 0012 63684576 		.ascii	"chEvtRegisterMask\000"
 3635      74526567 
 3635      69737465 
 3635      724D6173 
 3635      6B00
 3636 0024 1C050000 		.4byte	0x51c
 3637 0028 63684576 		.ascii	"chEvtUnregister\000"
 3637      74556E72 
 3637      65676973 
 3637      74657200 
 3638 0038 8D050000 		.4byte	0x58d
 3639 003c 63684576 		.ascii	"chEvtClearFlags\000"
 3639      74436C65 
 3639      6172466C 
 3639      61677300 
 3640 004c F3050000 		.4byte	0x5f3
 3641 0050 63684576 		.ascii	"chEvtAddFlags\000"
 3641      74416464 
 3641      466C6167 
 3641      7300
 3642 005e 4E060000 		.4byte	0x64e
 3643 0062 63684576 		.ascii	"chEvtDispatch\000"
 3643      74446973 
 3643      70617463 
 3643      6800
 3644 0070 9E060000 		.4byte	0x69e
 3645 0074 63684576 		.ascii	"chEvtWaitAllTimeout\000"
 3645      74576169 
 3645      74416C6C 
 3645      54696D65 
 3645      6F757400 
 3646 0088 5F070000 		.4byte	0x75f
 3647 008c 63684576 		.ascii	"chEvtWaitAnyTimeout\000"
 3647      74576169 
 3647      74416E79 
 3647      54696D65 
 3647      6F757400 
 3648 00a0 2C080000 		.4byte	0x82c
 3649 00a4 63684576 		.ascii	"chEvtWaitOneTimeout\000"
 3649      74576169 
 3649      744F6E65 
 3649      54696D65 
 3649      6F757400 
 3650 00b8 F9080000 		.4byte	0x8f9
 3651 00bc 63684576 		.ascii	"chEvtWaitAll\000"
 3651      74576169 
ARM GAS  /tmp/ccePAp3r.s 			page 66


 3651      74416C6C 
 3651      00
 3652 00c9 6C090000 		.4byte	0x96c
 3653 00cd 63684576 		.ascii	"chEvtWaitAny\000"
 3653      74576169 
 3653      74416E79 
 3653      00
 3654 00da ED090000 		.4byte	0x9ed
 3655 00de 63684576 		.ascii	"chEvtWaitOne\000"
 3655      74576169 
 3655      744F6E65 
 3655      00
 3656 00eb 6E0A0000 		.4byte	0xa6e
 3657 00ef 63684576 		.ascii	"chEvtSignalI\000"
 3657      74536967 
 3657      6E616C49 
 3657      00
 3658 00fc A50A0000 		.4byte	0xaa5
 3659 0100 63684576 		.ascii	"chEvtBroadcastI\000"
 3659      7442726F 
 3659      61646361 
 3659      73744900 
 3660 0110 DB0A0000 		.4byte	0xadb
 3661 0114 63684576 		.ascii	"chEvtBroadcast\000"
 3661      7442726F 
 3661      61646361 
 3661      737400
 3662 0123 380B0000 		.4byte	0xb38
 3663 0127 63684576 		.ascii	"chEvtSignal\000"
 3663      74536967 
 3663      6E616C00 
 3664 0133 00000000 		.4byte	0x0
 3665              		.section	.debug_aranges,"",%progbits
 3666 0000 8C000000 		.4byte	0x8c
 3667 0004 0200     		.2byte	0x2
 3668 0006 00000000 		.4byte	.Ldebug_info0
 3669 000a 04       		.byte	0x4
 3670 000b 00       		.byte	0x0
 3671 000c 0000     		.2byte	0x0
 3672 000e 0000     		.2byte	0x0
 3673 0010 00000000 		.4byte	.LFB7
 3674 0014 26000000 		.4byte	.LFE7-.LFB7
 3675 0018 00000000 		.4byte	.LFB8
 3676 001c 2A000000 		.4byte	.LFE8-.LFB8
 3677 0020 00000000 		.4byte	.LFB9
 3678 0024 26000000 		.4byte	.LFE9-.LFB9
 3679 0028 00000000 		.4byte	.LFB10
 3680 002c 1E000000 		.4byte	.LFE10-.LFB10
 3681 0030 00000000 		.4byte	.LFB15
 3682 0034 32000000 		.4byte	.LFE15-.LFB15
 3683 0038 00000000 		.4byte	.LFB21
 3684 003c 54000000 		.4byte	.LFE21-.LFB21
 3685 0040 00000000 		.4byte	.LFB20
 3686 0044 52000000 		.4byte	.LFE20-.LFB20
 3687 0048 00000000 		.4byte	.LFB19
 3688 004c 56000000 		.4byte	.LFE19-.LFB19
 3689 0050 00000000 		.4byte	.LFB18
ARM GAS  /tmp/ccePAp3r.s 			page 67


 3690 0054 38000000 		.4byte	.LFE18-.LFB18
 3691 0058 00000000 		.4byte	.LFB17
 3692 005c 36000000 		.4byte	.LFE17-.LFB17
 3693 0060 00000000 		.4byte	.LFB16
 3694 0064 3C000000 		.4byte	.LFE16-.LFB16
 3695 0068 00000000 		.4byte	.LFB12
 3696 006c 30000000 		.4byte	.LFE12-.LFB12
 3697 0070 00000000 		.4byte	.LFB14
 3698 0074 1A000000 		.4byte	.LFE14-.LFB14
 3699 0078 00000000 		.4byte	.LFB13
 3700 007c 18000000 		.4byte	.LFE13-.LFB13
 3701 0080 00000000 		.4byte	.LFB11
 3702 0084 18000000 		.4byte	.LFE11-.LFB11
 3703 0088 00000000 		.4byte	0x0
 3704 008c 00000000 		.4byte	0x0
 3705              		.section	.debug_ranges,"",%progbits
 3706              	.Ldebug_ranges0:
 3707 0000 16000000 		.4byte	.LBB5
 3708 0004 1C000000 		.4byte	.LBE5
 3709 0008 22000000 		.4byte	.LBB6
 3710 000c 28000000 		.4byte	.LBE6
 3711 0010 00000000 		.4byte	0x0
 3712 0014 00000000 		.4byte	0x0
 3713 0018 12000000 		.4byte	.LBB8
 3714 001c 14000000 		.4byte	.LBE8
 3715 0020 1C000000 		.4byte	.LBB9
 3716 0024 20000000 		.4byte	.LBE9
 3717 0028 00000000 		.4byte	0x0
 3718 002c 00000000 		.4byte	0x0
 3719 0030 10000000 		.4byte	.LBB11
 3720 0034 12000000 		.4byte	.LBE11
 3721 0038 18000000 		.4byte	.LBB12
 3722 003c 1C000000 		.4byte	.LBE12
 3723 0040 00000000 		.4byte	0x0
 3724 0044 00000000 		.4byte	0x0
 3725 0048 00000000 		.4byte	.Ltext0
 3726 004c 00000000 		.4byte	.Letext0
 3727 0050 00000000 		.4byte	.LFB7
 3728 0054 26000000 		.4byte	.LFE7
 3729 0058 00000000 		.4byte	.LFB8
 3730 005c 2A000000 		.4byte	.LFE8
 3731 0060 00000000 		.4byte	.LFB9
 3732 0064 26000000 		.4byte	.LFE9
 3733 0068 00000000 		.4byte	.LFB10
 3734 006c 1E000000 		.4byte	.LFE10
 3735 0070 00000000 		.4byte	.LFB15
 3736 0074 32000000 		.4byte	.LFE15
 3737 0078 00000000 		.4byte	.LFB21
 3738 007c 54000000 		.4byte	.LFE21
 3739 0080 00000000 		.4byte	.LFB20
 3740 0084 52000000 		.4byte	.LFE20
 3741 0088 00000000 		.4byte	.LFB19
 3742 008c 56000000 		.4byte	.LFE19
 3743 0090 00000000 		.4byte	.LFB18
 3744 0094 38000000 		.4byte	.LFE18
 3745 0098 00000000 		.4byte	.LFB17
 3746 009c 36000000 		.4byte	.LFE17
ARM GAS  /tmp/ccePAp3r.s 			page 68


 3747 00a0 00000000 		.4byte	.LFB16
 3748 00a4 3C000000 		.4byte	.LFE16
 3749 00a8 00000000 		.4byte	.LFB12
 3750 00ac 30000000 		.4byte	.LFE12
 3751 00b0 00000000 		.4byte	.LFB14
 3752 00b4 1A000000 		.4byte	.LFE14
 3753 00b8 00000000 		.4byte	.LFB13
 3754 00bc 18000000 		.4byte	.LFE13
 3755 00c0 00000000 		.4byte	.LFB11
 3756 00c4 18000000 		.4byte	.LFE11
 3757 00c8 00000000 		.4byte	0x0
 3758 00cc 00000000 		.4byte	0x0
 3759              		.section	.debug_str,"MS",%progbits,1
 3760              	.LASF34:
 3761 0000 705F6D73 		.ascii	"p_msg\000"
 3761      6700
 3762              	.LASF63:
 3763 0006 7264796D 		.ascii	"rdymsg\000"
 3763      736700
 3764              	.LASF84:
 3765 000d 63684576 		.ascii	"chEvtSignal\000"
 3765      74536967 
 3765      6E616C00 
 3766              	.LASF11:
 3767 0019 6C6F6E67 		.ascii	"long long unsigned int\000"
 3767      206C6F6E 
 3767      6720756E 
 3767      7369676E 
 3767      65642069 
 3768              	.LASF64:
 3769 0030 65786974 		.ascii	"exitcode\000"
 3769      636F6465 
 3769      00
 3770              	.LASF85:
 3771 0039 474E5520 		.ascii	"GNU C 4.4.1\000"
 3771      4320342E 
 3771      342E3100 
 3772              	.LASF76:
 3773 0045 63684576 		.ascii	"chEvtWaitAnyTimeout\000"
 3773      74576169 
 3773      74416E79 
 3773      54696D65 
 3773      6F757400 
 3774              	.LASF24:
 3775 0059 705F7072 		.ascii	"p_prio\000"
 3775      696F00
 3776              	.LASF87:
 3777 0060 2F686F6D 		.ascii	"/home/dan/Downloads/ChibiOS_2.2.3/demos/ARMCM3-STM3"
 3777      652F6461 
 3777      6E2F446F 
 3777      776E6C6F 
 3777      6164732F 
 3778 0093 32463130 		.ascii	"2F103\000"
 3778      3300
 3779              	.LASF1:
 3780 0099 7369676E 		.ascii	"signed char\000"
 3780      65642063 
ARM GAS  /tmp/ccePAp3r.s 			page 69


 3780      68617200 
 3781              	.LASF74:
 3782 00a5 63684576 		.ascii	"chEvtWaitAllTimeout\000"
 3782      74576169 
 3782      74416C6C 
 3782      54696D65 
 3782      6F757400 
 3783              	.LASF38:
 3784 00b9 705F6D70 		.ascii	"p_mpool\000"
 3784      6F6F6C00 
 3785              	.LASF53:
 3786 00c1 6D5F7175 		.ascii	"m_queue\000"
 3786      65756500 
 3787              	.LASF71:
 3788 00c9 63684576 		.ascii	"chEvtAddFlags\000"
 3788      74416464 
 3788      466C6167 
 3788      7300
 3789              	.LASF7:
 3790 00d7 6C6F6E67 		.ascii	"long int\000"
 3790      20696E74 
 3790      00
 3791              	.LASF13:
 3792 00e0 74737461 		.ascii	"tstate_t\000"
 3792      74655F74 
 3792      00
 3793              	.LASF79:
 3794 00e9 63684576 		.ascii	"chEvtWaitAny\000"
 3794      74576169 
 3794      74416E79 
 3794      00
 3795              	.LASF10:
 3796 00f6 6C6F6E67 		.ascii	"long long int\000"
 3796      206C6F6E 
 3796      6720696E 
 3796      7400
 3797              	.LASF26:
 3798 0104 705F6E65 		.ascii	"p_newer\000"
 3798      77657200 
 3799              	.LASF47:
 3800 010c 725F6E65 		.ascii	"r_newer\000"
 3800      77657200 
 3801              	.LASF67:
 3802 0114 6D61736B 		.ascii	"mask\000"
 3802      00
 3803              	.LASF41:
 3804 0119 72656761 		.ascii	"regarm_t\000"
 3804      726D5F74 
 3804      00
 3805              	.LASF17:
 3806 0122 6576656E 		.ascii	"eventid_t\000"
 3806      7469645F 
 3806      7400
 3807              	.LASF60:
 3808 012c 4576656E 		.ascii	"EventSource\000"
 3808      74536F75 
 3808      72636500 
ARM GAS  /tmp/ccePAp3r.s 			page 70


 3809              	.LASF62:
 3810 0138 65766861 		.ascii	"evhandler_t\000"
 3810      6E646C65 
 3810      725F7400 
 3811              	.LASF20:
 3812 0144 636E745F 		.ascii	"cnt_t\000"
 3812      7400
 3813              	.LASF0:
 3814 014a 756E7369 		.ascii	"unsigned int\000"
 3814      676E6564 
 3814      20696E74 
 3814      00
 3815              	.LASF9:
 3816 0157 6C6F6E67 		.ascii	"long unsigned int\000"
 3816      20756E73 
 3816      69676E65 
 3816      6420696E 
 3816      7400
 3817              	.LASF42:
 3818 0169 636F6E74 		.ascii	"context\000"
 3818      65787400 
 3819              	.LASF4:
 3820 0171 73686F72 		.ascii	"short unsigned int\000"
 3820      7420756E 
 3820      7369676E 
 3820      65642069 
 3820      6E7400
 3821              	.LASF68:
 3822 0184 63684576 		.ascii	"chEvtRegisterMask\000"
 3822      74526567 
 3822      69737465 
 3822      724D6173 
 3822      6B00
 3823              	.LASF16:
 3824 0196 6D73675F 		.ascii	"msg_t\000"
 3824      7400
 3825              	.LASF57:
 3826 019c 656C5F6E 		.ascii	"el_next\000"
 3826      65787400 
 3827              	.LASF69:
 3828 01a4 63684576 		.ascii	"chEvtUnregister\000"
 3828      74556E72 
 3828      65676973 
 3828      74657200 
 3829              	.LASF12:
 3830 01b4 746D6F64 		.ascii	"tmode_t\000"
 3830      655F7400 
 3831              	.LASF40:
 3832 01bc 54687265 		.ascii	"ThreadsList\000"
 3832      6164734C 
 3832      69737400 
 3833              	.LASF18:
 3834 01c8 6576656E 		.ascii	"eventmask_t\000"
 3834      746D6173 
 3834      6B5F7400 
 3835              	.LASF52:
 3836 01d4 4D757465 		.ascii	"Mutex\000"
ARM GAS  /tmp/ccePAp3r.s 			page 71


 3836      7800
 3837              	.LASF72:
 3838 01da 63684576 		.ascii	"chEvtDispatch\000"
 3838      74446973 
 3838      70617463 
 3838      6800
 3839              	.LASF83:
 3840 01e8 63684576 		.ascii	"chEvtBroadcast\000"
 3840      7442726F 
 3840      61646361 
 3840      737400
 3841              	.LASF27:
 3842 01f7 705F6F6C 		.ascii	"p_older\000"
 3842      64657200 
 3843              	.LASF46:
 3844 01ff 725F6374 		.ascii	"r_ctx\000"
 3844      7800
 3845              	.LASF39:
 3846 0205 54687265 		.ascii	"ThreadsQueue\000"
 3846      61647351 
 3846      75657565 
 3846      00
 3847              	.LASF75:
 3848 0212 74696D65 		.ascii	"time\000"
 3848      00
 3849              	.LASF78:
 3850 0217 63684576 		.ascii	"chEvtWaitAll\000"
 3850      74576169 
 3850      74416C6C 
 3850      00
 3851              	.LASF50:
 3852 0224 725F6375 		.ascii	"r_current\000"
 3852      7272656E 
 3852      7400
 3853              	.LASF48:
 3854 022e 725F6F6C 		.ascii	"r_older\000"
 3854      64657200 
 3855              	.LASF59:
 3856 0236 656C5F6D 		.ascii	"el_mask\000"
 3856      61736B00 
 3857              	.LASF73:
 3858 023e 68616E64 		.ascii	"handlers\000"
 3858      6C657273 
 3858      00
 3859              	.LASF14:
 3860 0247 74726566 		.ascii	"trefs_t\000"
 3860      735F7400 
 3861              	.LASF23:
 3862 024f 705F7072 		.ascii	"p_prev\000"
 3862      657600
 3863              	.LASF15:
 3864 0256 74707269 		.ascii	"tprio_t\000"
 3864      6F5F7400 
 3865              	.LASF70:
 3866 025e 63684576 		.ascii	"chEvtClearFlags\000"
 3866      74436C65 
 3866      6172466C 
ARM GAS  /tmp/ccePAp3r.s 			page 72


 3866      61677300 
 3867              	.LASF6:
 3868 026e 696E7433 		.ascii	"int32_t\000"
 3868      325F7400 
 3869              	.LASF2:
 3870 0276 756E7369 		.ascii	"unsigned char\000"
 3870      676E6564 
 3870      20636861 
 3870      7200
 3871              	.LASF80:
 3872 0284 63684576 		.ascii	"chEvtWaitOne\000"
 3872      74576169 
 3872      744F6E65 
 3872      00
 3873              	.LASF58:
 3874 0291 656C5F6C 		.ascii	"el_listener\000"
 3874      69737465 
 3874      6E657200 
 3875              	.LASF36:
 3876 029d 705F6D74 		.ascii	"p_mtxlist\000"
 3876      786C6973 
 3876      7400
 3877              	.LASF3:
 3878 02a7 73686F72 		.ascii	"short int\000"
 3878      7420696E 
 3878      7400
 3879              	.LASF28:
 3880 02b1 705F7374 		.ascii	"p_state\000"
 3880      61746500 
 3881              	.LASF45:
 3882 02b9 725F7072 		.ascii	"r_prio\000"
 3882      696F00
 3883              	.LASF66:
 3884 02c0 65776D61 		.ascii	"ewmask\000"
 3884      736B00
 3885              	.LASF22:
 3886 02c7 705F6E65 		.ascii	"p_next\000"
 3886      787400
 3887              	.LASF29:
 3888 02ce 705F666C 		.ascii	"p_flags\000"
 3888      61677300 
 3889              	.LASF82:
 3890 02d6 63684576 		.ascii	"chEvtBroadcastI\000"
 3890      7442726F 
 3890      61646361 
 3890      73744900 
 3891              	.LASF21:
 3892 02e6 54687265 		.ascii	"Thread\000"
 3892      616400
 3893              	.LASF35:
 3894 02ed 705F6570 		.ascii	"p_epending\000"
 3894      656E6469 
 3894      6E6700
 3895              	.LASF8:
 3896 02f8 75696E74 		.ascii	"uint32_t\000"
 3896      33325F74 
 3896      00
ARM GAS  /tmp/ccePAp3r.s 			page 73


 3897              	.LASF44:
 3898 0301 725F7175 		.ascii	"r_queue\000"
 3898      65756500 
 3899              	.LASF55:
 3900 0309 6D5F6E65 		.ascii	"m_next\000"
 3900      787400
 3901              	.LASF19:
 3902 0310 73797374 		.ascii	"systime_t\000"
 3902      696D655F 
 3902      7400
 3903              	.LASF37:
 3904 031a 705F7265 		.ascii	"p_realprio\000"
 3904      616C7072 
 3904      696F00
 3905              	.LASF31:
 3906 0325 705F7469 		.ascii	"p_time\000"
 3906      6D6500
 3907              	.LASF43:
 3908 032c 696E7463 		.ascii	"intctx\000"
 3908      747800
 3909              	.LASF33:
 3910 0333 705F6D73 		.ascii	"p_msgqueue\000"
 3910      67717565 
 3910      756500
 3911              	.LASF30:
 3912 033e 705F7265 		.ascii	"p_refs\000"
 3912      667300
 3913              	.LASF51:
 3914 0345 52656164 		.ascii	"ReadyList\000"
 3914      794C6973 
 3914      7400
 3915              	.LASF88:
 3916 034f 726C6973 		.ascii	"rlist\000"
 3916      7400
 3917              	.LASF5:
 3918 0355 75696E74 		.ascii	"uint8_t\000"
 3918      385F7400 
 3919              	.LASF86:
 3920 035d 2E2E2F2E 		.ascii	"../../os/kernel/src/chevents.c\000"
 3920      2E2F6F73 
 3920      2F6B6572 
 3920      6E656C2F 
 3920      7372632F 
 3921              	.LASF56:
 3922 037c 4576656E 		.ascii	"EventListener\000"
 3922      744C6973 
 3922      74656E65 
 3922      7200
 3923              	.LASF77:
 3924 038a 63684576 		.ascii	"chEvtWaitOneTimeout\000"
 3924      74576169 
 3924      744F6E65 
 3924      54696D65 
 3924      6F757400 
 3925              	.LASF65:
 3926 039e 77746F62 		.ascii	"wtobjp\000"
 3926      6A7000
ARM GAS  /tmp/ccePAp3r.s 			page 74


 3927              	.LASF61:
 3928 03a5 65735F6E 		.ascii	"es_next\000"
 3928      65787400 
 3929              	.LASF49:
 3930 03ad 725F7072 		.ascii	"r_preempt\000"
 3930      65656D70 
 3930      7400
 3931              	.LASF54:
 3932 03b7 6D5F6F77 		.ascii	"m_owner\000"
 3932      6E657200 
 3933              	.LASF25:
 3934 03bf 705F6374 		.ascii	"p_ctx\000"
 3934      7800
 3935              	.LASF32:
 3936 03c5 705F7761 		.ascii	"p_waiting\000"
 3936      6974696E 
 3936      6700
 3937              	.LASF81:
 3938 03cf 63684576 		.ascii	"chEvtSignalI\000"
 3938      74536967 
 3938      6E616C49 
 3938      00
 3939              		.ident	"GCC: (Red Suite 2010Q1 by Code Red) 4.4.1"
ARM GAS  /tmp/ccePAp3r.s 			page 75


DEFINED SYMBOLS
                            *ABS*:00000000 chevents.c
     /tmp/ccePAp3r.s:24     .text.chEvtRegisterMask:00000000 $t
     /tmp/ccePAp3r.s:30     .text.chEvtRegisterMask:00000000 chEvtRegisterMask
     /tmp/ccePAp3r.s:83     .text.chEvtUnregister:00000000 $t
     /tmp/ccePAp3r.s:89     .text.chEvtUnregister:00000000 chEvtUnregister
     /tmp/ccePAp3r.s:157    .text.chEvtClearFlags:00000000 $t
     /tmp/ccePAp3r.s:163    .text.chEvtClearFlags:00000000 chEvtClearFlags
     /tmp/ccePAp3r.s:215    .text.chEvtAddFlags:00000000 $t
     /tmp/ccePAp3r.s:221    .text.chEvtAddFlags:00000000 chEvtAddFlags
     /tmp/ccePAp3r.s:266    .text.chEvtDispatch:00000000 $t
     /tmp/ccePAp3r.s:272    .text.chEvtDispatch:00000000 chEvtDispatch
     /tmp/ccePAp3r.s:329    .text.chEvtWaitAllTimeout:00000000 $t
     /tmp/ccePAp3r.s:335    .text.chEvtWaitAllTimeout:00000000 chEvtWaitAllTimeout
     /tmp/ccePAp3r.s:438    .text.chEvtWaitAnyTimeout:00000000 $t
     /tmp/ccePAp3r.s:444    .text.chEvtWaitAnyTimeout:00000000 chEvtWaitAnyTimeout
     /tmp/ccePAp3r.s:547    .text.chEvtWaitOneTimeout:00000000 $t
     /tmp/ccePAp3r.s:553    .text.chEvtWaitOneTimeout:00000000 chEvtWaitOneTimeout
     /tmp/ccePAp3r.s:659    .text.chEvtWaitAll:00000000 $t
     /tmp/ccePAp3r.s:665    .text.chEvtWaitAll:00000000 chEvtWaitAll
     /tmp/ccePAp3r.s:729    .text.chEvtWaitAny:00000000 $t
     /tmp/ccePAp3r.s:735    .text.chEvtWaitAny:00000000 chEvtWaitAny
     /tmp/ccePAp3r.s:802    .text.chEvtWaitOne:00000000 $t
     /tmp/ccePAp3r.s:808    .text.chEvtWaitOne:00000000 chEvtWaitOne
     /tmp/ccePAp3r.s:879    .text.chEvtSignalI:00000000 $t
     /tmp/ccePAp3r.s:885    .text.chEvtSignalI:00000000 chEvtSignalI
     /tmp/ccePAp3r.s:940    .text.chEvtBroadcastI:00000000 $t
     /tmp/ccePAp3r.s:946    .text.chEvtBroadcastI:00000000 chEvtBroadcastI
     /tmp/ccePAp3r.s:986    .text.chEvtBroadcast:00000000 $t
     /tmp/ccePAp3r.s:992    .text.chEvtBroadcast:00000000 chEvtBroadcast
     /tmp/ccePAp3r.s:1033   .text.chEvtSignal:00000000 $t
     /tmp/ccePAp3r.s:1039   .text.chEvtSignal:00000000 chEvtSignal
                     .debug_frame:00000010 $d

UNDEFINED SYMBOLS
rlist
chSchGoSleepTimeoutS
chSchGoSleepS
chSchReadyI
chSchRescheduleS
