ARM GAS  /tmp/cc2gRl7N.s 			page 1


   1              		.syntax unified
   2              		.cpu cortex-m3
   3              		.fpu softvfp
   4              		.eabi_attribute 20, 1
   5              		.eabi_attribute 21, 1
   6              		.eabi_attribute 23, 3
   7              		.eabi_attribute 24, 1
   8              		.eabi_attribute 25, 1
   9              		.eabi_attribute 26, 1
  10              		.eabi_attribute 30, 2
  11              		.eabi_attribute 18, 4
  12              		.thumb
  13              		.file	"chheap.c"
  20 0000 73020000 		.text
  20      02009E01 
  20      00000201 
  20      FB0E0D00 
  20      01010101 
  21              	.Ltext0:
  22              		.cfi_sections	.debug_frame
  23              		.section	.text.chHeapStatus,"ax",%progbits
  24              		.align	2
  25              		.p2align 4,,15
  26              		.global	chHeapStatus
  27              		.thumb
  28              		.thumb_func
  29              		.type	chHeapStatus, %function
  30              	chHeapStatus:
  31              	.LFB11:
  32              		.file 1 "../../os/kernel/src/chheap.c"
  33              		.loc 1 247 0
  34              		.cfi_startproc
  35              		@ args = 0, pretend = 0, frame = 0
  36              		@ frame_needed = 0, uses_anonymous_args = 0
  37              	.LVL0:
  38 0000 38B5     		push	{r3, r4, r5, lr}
  39              	.LCFI0:
  40              		.cfi_def_cfa_offset 16
  41              		.loc 1 251 0
  42 0002 40F20004 		movw	r4, #:lower16:.LANCHOR0
  43              		.cfi_offset 14, -4
  44              		.cfi_offset 5, -8
  45              		.cfi_offset 4, -12
  46              		.cfi_offset 3, -16
  47 0006 C0F20004 		movt	r4, #:upper16:.LANCHOR0
  48 000a 0028     		cmp	r0, #0
  49 000c 18BF     		it	ne
  50 000e 0446     		movne	r4, r0
  51              	.LVL1:
  52              		.loc 1 254 0
  53 0010 04F11000 		add	r0, r4, #16
ARM GAS  /tmp/cc2gRl7N.s 			page 2


  54              		.loc 1 247 0
  55 0014 0D46     		mov	r5, r1
  56              		.loc 1 254 0
  57 0016 FFF7FEFF 		bl	chMtxLock
  58              	.LVL2:
  59              		.loc 1 257 0
  60 001a A368     		ldr	r3, [r4, #8]
  61 001c 6BB1     		cbz	r3, .L10
  62 001e 0022     		movs	r2, #0
  63              	.LVL3:
  64 0020 1446     		mov	r4, r2
  65              	.LVL4:
  66              	.L5:
  67              		.loc 1 258 0
  68 0022 5968     		ldr	r1, [r3, #4]
  69              		.loc 1 257 0
  70 0024 1B68     		ldr	r3, [r3, #0]
  71              		.loc 1 258 0
  72 0026 5218     		adds	r2, r2, r1
  73              		.loc 1 257 0
  74 0028 0134     		adds	r4, r4, #1
  75 002a 002B     		cmp	r3, #0
  76 002c F9D1     		bne	.L5
  77              	.LVL5:
  78              	.L4:
  79              		.loc 1 259 0
  80 002e 05B1     		cbz	r5, .L6
  81              		.loc 1 260 0
  82 0030 2A60     		str	r2, [r5, #0]
  83              	.L6:
  84              		.loc 1 262 0
  85 0032 FFF7FEFF 		bl	chMtxUnlock
  86              	.LVL6:
  87              		.loc 1 264 0
  88 0036 2046     		mov	r0, r4
  89 0038 38BD     		pop	{r3, r4, r5, pc}
  90              	.LVL7:
  91              	.L10:
  92              		.loc 1 257 0
  93 003a 1A46     		mov	r2, r3
  94              	.LVL8:
  95 003c 1C46     		mov	r4, r3
  96              	.LVL9:
  97 003e F6E7     		b	.L4
  98              		.cfi_endproc
  99              	.LFE11:
 100              		.size	chHeapStatus, .-chHeapStatus
 101              		.section	.text.chHeapFree,"ax",%progbits
 102              		.align	2
 103              		.p2align 4,,15
 104              		.global	chHeapFree
 105              		.thumb
 106              		.thumb_func
 107              		.type	chHeapFree, %function
 108              	chHeapFree:
 109              	.LFB10:
 110              		.loc 1 191 0
ARM GAS  /tmp/cc2gRl7N.s 			page 3


 111              		.cfi_startproc
 112              		@ args = 0, pretend = 0, frame = 0
 113              		@ frame_needed = 0, uses_anonymous_args = 0
 114              	.LVL10:
 115 0000 70B5     		push	{r4, r5, r6, lr}
 116              	.LCFI1:
 117              		.cfi_def_cfa_offset 16
 118              		.loc 1 198 0
 119 0002 50F8085C 		ldr	r5, [r0, #-8]
 120              		.cfi_offset 14, -4
 121              		.cfi_offset 6, -8
 122              		.cfi_offset 5, -12
 123              		.cfi_offset 4, -16
 124              	.LVL11:
 125              		.loc 1 197 0
 126 0006 A0F10804 		sub	r4, r0, #8
 127              	.LVL12:
 128              		.loc 1 191 0
 129 000a 0646     		mov	r6, r0
 130              		.loc 1 200 0
 131 000c 05F11000 		add	r0, r5, #16
 132              	.LVL13:
 133              		.loc 1 199 0
 134 0010 0835     		adds	r5, r5, #8
 135              	.LVL14:
 136              		.loc 1 200 0
 137 0012 FFF7FEFF 		bl	chMtxLock
 138 0016 2B46     		mov	r3, r5
 139              		.loc 1 207 0
 140 0018 AB42     		cmp	r3, r5
 141 001a 14BF     		ite	ne
 142 001c 0022     		movne	r2, #0
 143 001e 0122     		moveq	r2, #1
 144 0020 9C42     		cmp	r4, r3
 145 0022 88BF     		it	hi
 146 0024 42F00102 		orrhi	r2, r2, #1
 147 0028 72B1     		cbz	r2, .L12
 148              	.LVL15:
 149              	.L19:
 150              		.loc 1 208 0
 151 002a 1A68     		ldr	r2, [r3, #0]
 152              	.LVL16:
 153              		.loc 1 207 0
 154 002c 7AB1     		cbz	r2, .L13
 155 002e 9442     		cmp	r4, r2
 156 0030 0DD3     		bcc	.L13
 157              		.loc 1 221 0
 158 0032 1346     		mov	r3, r2
 159              	.LVL17:
 160              	.L20:
 161              		.loc 1 207 0
 162 0034 AB42     		cmp	r3, r5
 163 0036 14BF     		ite	ne
 164 0038 0022     		movne	r2, #0
 165 003a 0122     		moveq	r2, #1
 166 003c 9C42     		cmp	r4, r3
 167 003e 88BF     		it	hi
ARM GAS  /tmp/cc2gRl7N.s 			page 4


 168 0040 42F00102 		orrhi	r2, r2, #1
 169 0044 002A     		cmp	r2, #0
 170 0046 F0D1     		bne	.L19
 171              	.L12:
 172              		.loc 1 221 0
 173 0048 1A68     		ldr	r2, [r3, #0]
 174              	.LVL18:
 175 004a 1346     		mov	r3, r2
 176 004c F2E7     		b	.L20
 177              	.LVL19:
 178              	.L13:
 179              		.loc 1 213 0
 180 004e 6168     		ldr	r1, [r4, #4]
 181              		.loc 1 210 0
 182 0050 46F8082C 		str	r2, [r6, #-8]
 183              		.loc 1 211 0
 184 0054 1C60     		str	r4, [r3, #0]
 185              		.loc 1 213 0
 186 0056 01F10802 		add	r2, r1, #8
 187              	.LVL20:
 188 005a 56F8085C 		ldr	r5, [r6, #-8]
 189 005e A018     		adds	r0, r4, r2
 190 0060 A842     		cmp	r0, r5
 191 0062 09D0     		beq	.L21
 192              		.loc 1 218 0
 193 0064 5A68     		ldr	r2, [r3, #4]
 194 0066 02F10800 		add	r0, r2, #8
 195 006a 1918     		adds	r1, r3, r0
 196 006c A142     		cmp	r1, r4
 197 006e 10D0     		beq	.L22
 198              	.L16:
 199              		.loc 1 230 0
 200 0070 BDE87040 		pop	{r4, r5, r6, lr}
 201              		.loc 1 228 0
 202 0074 FFF7FEBF 		b	chMtxUnlock
 203              	.LVL21:
 204              	.L21:
 205              		.loc 1 215 0
 206 0078 4068     		ldr	r0, [r0, #4]
 207              		.loc 1 216 0
 208 007a A258     		ldr	r2, [r4, r2]
 209              		.loc 1 215 0
 210 007c 0918     		adds	r1, r1, r0
 211 007e 0831     		adds	r1, r1, #8
 212 0080 6160     		str	r1, [r4, #4]
 213              		.loc 1 216 0
 214 0082 46F8082C 		str	r2, [r6, #-8]
 215              		.loc 1 218 0
 216 0086 5A68     		ldr	r2, [r3, #4]
 217 0088 02F10800 		add	r0, r2, #8
 218 008c 1918     		adds	r1, r3, r0
 219 008e A142     		cmp	r1, r4
 220 0090 EED1     		bne	.L16
 221              	.L22:
 222              		.loc 1 220 0
 223 0092 6068     		ldr	r0, [r4, #4]
 224              		.loc 1 221 0
ARM GAS  /tmp/cc2gRl7N.s 			page 5


 225 0094 56F8081C 		ldr	r1, [r6, #-8]
 226              		.loc 1 220 0
 227 0098 1218     		adds	r2, r2, r0
 228 009a 0832     		adds	r2, r2, #8
 229              		.loc 1 221 0
 230 009c 1960     		str	r1, [r3, #0]
 231              		.loc 1 220 0
 232 009e 5A60     		str	r2, [r3, #4]
 233 00a0 E6E7     		b	.L16
 234              		.cfi_endproc
 235              	.LFE10:
 236              		.size	chHeapFree, .-chHeapFree
 237 00a2 00BFAFF3 		.section	.text.chHeapAlloc,"ax",%progbits
 237      0080AFF3 
 237      0080AFF3 
 237      0080
 238              		.align	2
 239              		.p2align 4,,15
 240              		.global	chHeapAlloc
 241              		.thumb
 242              		.thumb_func
 243              		.type	chHeapAlloc, %function
 244              	chHeapAlloc:
 245              	.LFB9:
 246              		.loc 1 129 0
 247              		.cfi_startproc
 248              		@ args = 0, pretend = 0, frame = 0
 249              		@ frame_needed = 0, uses_anonymous_args = 0
 250              	.LVL22:
 251 0000 F8B5     		push	{r3, r4, r5, r6, r7, lr}
 252              	.LCFI2:
 253              		.cfi_def_cfa_offset 24
 254              		.loc 1 132 0
 255 0002 40F20004 		movw	r4, #:lower16:.LANCHOR0
 256              		.cfi_offset 14, -4
 257              		.cfi_offset 7, -8
 258              		.cfi_offset 6, -12
 259              		.cfi_offset 5, -16
 260              		.cfi_offset 4, -20
 261              		.cfi_offset 3, -24
 262 0006 C0F20004 		movt	r4, #:upper16:.LANCHOR0
 263 000a 0028     		cmp	r0, #0
 264 000c 18BF     		it	ne
 265 000e 0446     		movne	r4, r0
 266              	.LVL23:
 267              		.loc 1 135 0
 268 0010 0731     		adds	r1, r1, #7
 269              	.LVL24:
 270              		.loc 1 137 0
 271 0012 04F11000 		add	r0, r4, #16
 272              		.loc 1 135 0
 273 0016 21F00706 		bic	r6, r1, #7
 274              	.LVL25:
 275              		.loc 1 136 0
 276 001a 04F10805 		add	r5, r4, #8
 277              	.LVL26:
 278              		.loc 1 137 0
ARM GAS  /tmp/cc2gRl7N.s 			page 6


 279 001e FFF7FEFF 		bl	chMtxLock
 280              		.loc 1 139 0
 281 0022 00E0     		b	.L25
 282              	.LVL27:
 283              	.L26:
 284              		.loc 1 159 0
 285 0024 1D46     		mov	r5, r3
 286              	.LVL28:
 287              	.L25:
 288              		.loc 1 139 0
 289 0026 2B68     		ldr	r3, [r5, #0]
 290              	.LVL29:
 291 0028 C3B1     		cbz	r3, .L33
 292              		.loc 1 141 0
 293 002a 5A68     		ldr	r2, [r3, #4]
 294 002c 9642     		cmp	r6, r2
 295 002e F9D8     		bhi	.L26
 296              		.loc 1 142 0
 297 0030 06F10801 		add	r1, r6, #8
 298 0034 9142     		cmp	r1, r2
 299 0036 0ED8     		bhi	.L34
 300              		.loc 1 151 0
 301 0038 1F68     		ldr	r7, [r3, #0]
 302              		.loc 1 152 0
 303 003a 083A     		subs	r2, r2, #8
 304              		.loc 1 150 0
 305 003c 5818     		adds	r0, r3, r1
 306              	.LVL30:
 307              		.loc 1 152 0
 308 003e 921B     		subs	r2, r2, r6
 309              		.loc 1 151 0
 310 0040 5F50     		str	r7, [r3, r1]
 311              		.loc 1 152 0
 312 0042 4260     		str	r2, [r0, #4]
 313              		.loc 1 153 0
 314 0044 2860     		str	r0, [r5, #0]
 315              		.loc 1 154 0
 316 0046 5E60     		str	r6, [r3, #4]
 317              	.L28:
 318              		.loc 1 156 0
 319 0048 1D46     		mov	r5, r3
 320 004a 45F8084B 		str	r4, [r5], #8
 321              		.loc 1 158 0
 322 004e FFF7FEFF 		bl	chMtxUnlock
 323              	.LVL31:
 324              	.L29:
 325              		.loc 1 178 0
 326 0052 2846     		mov	r0, r5
 327 0054 F8BD     		pop	{r3, r4, r5, r6, r7, pc}
 328              	.LVL32:
 329              	.L34:
 330              		.loc 1 146 0
 331 0056 1A68     		ldr	r2, [r3, #0]
 332 0058 2A60     		str	r2, [r5, #0]
 333 005a F5E7     		b	.L28
 334              	.LVL33:
 335              	.L33:
ARM GAS  /tmp/cc2gRl7N.s 			page 7


 336              		.loc 1 164 0
 337 005c FFF7FEFF 		bl	chMtxUnlock
 338              	.LVL34:
 339              		.loc 1 168 0
 340 0060 2368     		ldr	r3, [r4, #0]
 341 0062 13B9     		cbnz	r3, .L35
 342              	.L31:
 343              		.loc 1 174 0
 344 0064 0025     		movs	r5, #0
 345              		.loc 1 178 0
 346 0066 2846     		mov	r0, r5
 347 0068 F8BD     		pop	{r3, r4, r5, r6, r7, pc}
 348              	.L35:
 349              		.loc 1 169 0
 350 006a 06F10800 		add	r0, r6, #8
 351 006e 9847     		blx	r3
 352              		.loc 1 170 0
 353 0070 0546     		mov	r5, r0
 354 0072 0028     		cmp	r0, #0
 355 0074 F6D0     		beq	.L31
 356              		.loc 1 171 0
 357 0076 0460     		str	r4, [r0, #0]
 358              		.loc 1 172 0
 359 0078 4660     		str	r6, [r0, #4]
 360              		.loc 1 174 0
 361 007a 0835     		adds	r5, r5, #8
 362 007c E9E7     		b	.L29
 363              		.cfi_endproc
 364              	.LFE9:
 365              		.size	chHeapAlloc, .-chHeapAlloc
 366 007e 00BF     		.section	.text.chHeapInit,"ax",%progbits
 367              		.align	2
 368              		.p2align 4,,15
 369              		.global	chHeapInit
 370              		.thumb
 371              		.thumb_func
 372              		.type	chHeapInit, %function
 373              	chHeapInit:
 374              	.LFB8:
 375              		.loc 1 96 0
 376              		.cfi_startproc
 377              		@ args = 0, pretend = 0, frame = 0
 378              		@ frame_needed = 0, uses_anonymous_args = 0
 379              		@ link register save eliminated.
 380              	.LVL35:
 381              		.loc 1 101 0
 382 0000 0023     		movs	r3, #0
 383 0002 0360     		str	r3, [r0, #0]
 384              		.loc 1 102 0
 385 0004 8160     		str	r1, [r0, #8]
 386              		.loc 1 103 0
 387 0006 C360     		str	r3, [r0, #12]
 388              		.loc 1 105 0
 389 0008 083A     		subs	r2, r2, #8
 390              	.LVL36:
 391              		.loc 1 107 0
 392 000a 1030     		adds	r0, r0, #16
ARM GAS  /tmp/cc2gRl7N.s 			page 8


 393              	.LVL37:
 394              		.loc 1 104 0
 395 000c 0B60     		str	r3, [r1, #0]
 396              		.loc 1 105 0
 397 000e 4A60     		str	r2, [r1, #4]
 398              		.loc 1 111 0
 399              		.loc 1 107 0
 400 0010 FFF7FEBF 		b	chMtxInit
 401              	.LVL38:
 402              		.cfi_endproc
 403              	.LFE8:
 404              		.size	chHeapInit, .-chHeapInit
 405 0014 AFF30080 		.section	.text.heap_init,"ax",%progbits
 405      AFF30080 
 405      AFF30080 
 406              		.align	2
 407              		.p2align 4,,15
 408              		.global	heap_init
 409              		.thumb
 410              		.thumb_func
 411              		.type	heap_init, %function
 412              	heap_init:
 413              	.LFB7:
 414              		.loc 1 74 0
 415              		.cfi_startproc
 416              		@ args = 0, pretend = 0, frame = 0
 417              		@ frame_needed = 0, uses_anonymous_args = 0
 418              		@ link register save eliminated.
 419              		.loc 1 75 0
 420 0000 40F20003 		movw	r3, #:lower16:.LANCHOR0
 421 0004 C0F20003 		movt	r3, #:upper16:.LANCHOR0
 422 0008 40F20002 		movw	r2, #:lower16:chCoreAlloc
 423              		.loc 1 76 0
 424 000c 0021     		movs	r1, #0
 425              		.loc 1 75 0
 426 000e C0F20002 		movt	r2, #:upper16:chCoreAlloc
 427              		.loc 1 79 0
 428 0012 03F11000 		add	r0, r3, #16
 429              		.loc 1 75 0
 430 0016 1A60     		str	r2, [r3, #0]
 431              		.loc 1 77 0
 432 0018 D960     		str	r1, [r3, #12]
 433              		.loc 1 76 0
 434 001a 9960     		str	r1, [r3, #8]
 435              		.loc 1 83 0
 436              		.loc 1 79 0
 437 001c FFF7FEBF 		b	chMtxInit
 438              		.cfi_endproc
 439              	.LFE7:
 440              		.size	heap_init, .-heap_init
 441              		.section	.bss.default_heap,"aw",%nobits
 442              		.align	3
 443              		.set	.LANCHOR0,. + 0
 444              		.type	default_heap, %object
 445              		.size	default_heap, 32
 446              	default_heap:
 447 0000 00000000 		.space	32
ARM GAS  /tmp/cc2gRl7N.s 			page 9


 447      00000000 
 447      00000000 
 447      00000000 
 447      00000000 
 448              		.text
 449              	.Letext0: