ARM GAS  /tmp/cc2gRl7N.s 			page 1


   1              		.syntax unified
   2              		.cpu cortex-m3
   3              		.fpu softvfp
   4              		.eabi_attribute 20, 1
   5              		.eabi_attribute 21, 1
   6              		.eabi_attribute 23, 3
   7              		.eabi_attribute 24, 1
   8              		.eabi_attribute 25, 1
   9              		.eabi_attribute 26, 1
  10              		.eabi_attribute 30, 2
  11              		.eabi_attribute 18, 4
  12              		.thumb
  13              		.file	"chheap.c"
  14              		.section	.debug_abbrev,"",%progbits
  15              	.Ldebug_abbrev0:
  16              		.section	.debug_info,"",%progbits
  17              	.Ldebug_info0:
  18              		.section	.debug_line,"",%progbits
  19              	.Ldebug_line0:
  20 0000 73020000 		.text
  20      02009E01 
  20      00000201 
  20      FB0E0D00 
  20      01010101 
  21              	.Ltext0:
  22              		.cfi_sections	.debug_frame
  23              		.section	.text.chHeapStatus,"ax",%progbits
  24              		.align	2
  25              		.p2align 4,,15
  26              		.global	chHeapStatus
  27              		.thumb
  28              		.thumb_func
  29              		.type	chHeapStatus, %function
  30              	chHeapStatus:
  31              	.LFB11:
  32              		.file 1 "../../os/kernel/src/chheap.c"
  33              		.loc 1 247 0
  34              		.cfi_startproc
  35              		@ args = 0, pretend = 0, frame = 0
  36              		@ frame_needed = 0, uses_anonymous_args = 0
  37              	.LVL0:
  38 0000 38B5     		push	{r3, r4, r5, lr}
  39              	.LCFI0:
  40              		.cfi_def_cfa_offset 16
  41              		.loc 1 251 0
  42 0002 40F20004 		movw	r4, #:lower16:.LANCHOR0
  43              		.cfi_offset 14, -4
  44              		.cfi_offset 5, -8
  45              		.cfi_offset 4, -12
  46              		.cfi_offset 3, -16
  47 0006 C0F20004 		movt	r4, #:upper16:.LANCHOR0
  48 000a 0028     		cmp	r0, #0
  49 000c 18BF     		it	ne
  50 000e 0446     		movne	r4, r0
  51              	.LVL1:
  52              		.loc 1 254 0
  53 0010 04F11000 		add	r0, r4, #16
ARM GAS  /tmp/cc2gRl7N.s 			page 2


  54              		.loc 1 247 0
  55 0014 0D46     		mov	r5, r1
  56              		.loc 1 254 0
  57 0016 FFF7FEFF 		bl	chMtxLock
  58              	.LVL2:
  59              		.loc 1 257 0
  60 001a A368     		ldr	r3, [r4, #8]
  61 001c 6BB1     		cbz	r3, .L10
  62 001e 0022     		movs	r2, #0
  63              	.LVL3:
  64 0020 1446     		mov	r4, r2
  65              	.LVL4:
  66              	.L5:
  67              		.loc 1 258 0
  68 0022 5968     		ldr	r1, [r3, #4]
  69              		.loc 1 257 0
  70 0024 1B68     		ldr	r3, [r3, #0]
  71              		.loc 1 258 0
  72 0026 5218     		adds	r2, r2, r1
  73              		.loc 1 257 0
  74 0028 0134     		adds	r4, r4, #1
  75 002a 002B     		cmp	r3, #0
  76 002c F9D1     		bne	.L5
  77              	.LVL5:
  78              	.L4:
  79              		.loc 1 259 0
  80 002e 05B1     		cbz	r5, .L6
  81              		.loc 1 260 0
  82 0030 2A60     		str	r2, [r5, #0]
  83              	.L6:
  84              		.loc 1 262 0
  85 0032 FFF7FEFF 		bl	chMtxUnlock
  86              	.LVL6:
  87              		.loc 1 264 0
  88 0036 2046     		mov	r0, r4
  89 0038 38BD     		pop	{r3, r4, r5, pc}
  90              	.LVL7:
  91              	.L10:
  92              		.loc 1 257 0
  93 003a 1A46     		mov	r2, r3
  94              	.LVL8:
  95 003c 1C46     		mov	r4, r3
  96              	.LVL9:
  97 003e F6E7     		b	.L4
  98              		.cfi_endproc
  99              	.LFE11:
 100              		.size	chHeapStatus, .-chHeapStatus
 101              		.section	.text.chHeapFree,"ax",%progbits
 102              		.align	2
 103              		.p2align 4,,15
 104              		.global	chHeapFree
 105              		.thumb
 106              		.thumb_func
 107              		.type	chHeapFree, %function
 108              	chHeapFree:
 109              	.LFB10:
 110              		.loc 1 191 0
ARM GAS  /tmp/cc2gRl7N.s 			page 3


 111              		.cfi_startproc
 112              		@ args = 0, pretend = 0, frame = 0
 113              		@ frame_needed = 0, uses_anonymous_args = 0
 114              	.LVL10:
 115 0000 70B5     		push	{r4, r5, r6, lr}
 116              	.LCFI1:
 117              		.cfi_def_cfa_offset 16
 118              		.loc 1 198 0
 119 0002 50F8085C 		ldr	r5, [r0, #-8]
 120              		.cfi_offset 14, -4
 121              		.cfi_offset 6, -8
 122              		.cfi_offset 5, -12
 123              		.cfi_offset 4, -16
 124              	.LVL11:
 125              		.loc 1 197 0
 126 0006 A0F10804 		sub	r4, r0, #8
 127              	.LVL12:
 128              		.loc 1 191 0
 129 000a 0646     		mov	r6, r0
 130              		.loc 1 200 0
 131 000c 05F11000 		add	r0, r5, #16
 132              	.LVL13:
 133              		.loc 1 199 0
 134 0010 0835     		adds	r5, r5, #8
 135              	.LVL14:
 136              		.loc 1 200 0
 137 0012 FFF7FEFF 		bl	chMtxLock
 138 0016 2B46     		mov	r3, r5
 139              		.loc 1 207 0
 140 0018 AB42     		cmp	r3, r5
 141 001a 14BF     		ite	ne
 142 001c 0022     		movne	r2, #0
 143 001e 0122     		moveq	r2, #1
 144 0020 9C42     		cmp	r4, r3
 145 0022 88BF     		it	hi
 146 0024 42F00102 		orrhi	r2, r2, #1
 147 0028 72B1     		cbz	r2, .L12
 148              	.LVL15:
 149              	.L19:
 150              		.loc 1 208 0
 151 002a 1A68     		ldr	r2, [r3, #0]
 152              	.LVL16:
 153              		.loc 1 207 0
 154 002c 7AB1     		cbz	r2, .L13
 155 002e 9442     		cmp	r4, r2
 156 0030 0DD3     		bcc	.L13
 157              		.loc 1 221 0
 158 0032 1346     		mov	r3, r2
 159              	.LVL17:
 160              	.L20:
 161              		.loc 1 207 0
 162 0034 AB42     		cmp	r3, r5
 163 0036 14BF     		ite	ne
 164 0038 0022     		movne	r2, #0
 165 003a 0122     		moveq	r2, #1
 166 003c 9C42     		cmp	r4, r3
 167 003e 88BF     		it	hi
ARM GAS  /tmp/cc2gRl7N.s 			page 4


 168 0040 42F00102 		orrhi	r2, r2, #1
 169 0044 002A     		cmp	r2, #0
 170 0046 F0D1     		bne	.L19
 171              	.L12:
 172              		.loc 1 221 0
 173 0048 1A68     		ldr	r2, [r3, #0]
 174              	.LVL18:
 175 004a 1346     		mov	r3, r2
 176 004c F2E7     		b	.L20
 177              	.LVL19:
 178              	.L13:
 179              		.loc 1 213 0
 180 004e 6168     		ldr	r1, [r4, #4]
 181              		.loc 1 210 0
 182 0050 46F8082C 		str	r2, [r6, #-8]
 183              		.loc 1 211 0
 184 0054 1C60     		str	r4, [r3, #0]
 185              		.loc 1 213 0
 186 0056 01F10802 		add	r2, r1, #8
 187              	.LVL20:
 188 005a 56F8085C 		ldr	r5, [r6, #-8]
 189 005e A018     		adds	r0, r4, r2
 190 0060 A842     		cmp	r0, r5
 191 0062 09D0     		beq	.L21
 192              		.loc 1 218 0
 193 0064 5A68     		ldr	r2, [r3, #4]
 194 0066 02F10800 		add	r0, r2, #8
 195 006a 1918     		adds	r1, r3, r0
 196 006c A142     		cmp	r1, r4
 197 006e 10D0     		beq	.L22
 198              	.L16:
 199              		.loc 1 230 0
 200 0070 BDE87040 		pop	{r4, r5, r6, lr}
 201              		.loc 1 228 0
 202 0074 FFF7FEBF 		b	chMtxUnlock
 203              	.LVL21:
 204              	.L21:
 205              		.loc 1 215 0
 206 0078 4068     		ldr	r0, [r0, #4]
 207              		.loc 1 216 0
 208 007a A258     		ldr	r2, [r4, r2]
 209              		.loc 1 215 0
 210 007c 0918     		adds	r1, r1, r0
 211 007e 0831     		adds	r1, r1, #8
 212 0080 6160     		str	r1, [r4, #4]
 213              		.loc 1 216 0
 214 0082 46F8082C 		str	r2, [r6, #-8]
 215              		.loc 1 218 0
 216 0086 5A68     		ldr	r2, [r3, #4]
 217 0088 02F10800 		add	r0, r2, #8
 218 008c 1918     		adds	r1, r3, r0
 219 008e A142     		cmp	r1, r4
 220 0090 EED1     		bne	.L16
 221              	.L22:
 222              		.loc 1 220 0
 223 0092 6068     		ldr	r0, [r4, #4]
 224              		.loc 1 221 0
ARM GAS  /tmp/cc2gRl7N.s 			page 5


 225 0094 56F8081C 		ldr	r1, [r6, #-8]
 226              		.loc 1 220 0
 227 0098 1218     		adds	r2, r2, r0
 228 009a 0832     		adds	r2, r2, #8
 229              		.loc 1 221 0
 230 009c 1960     		str	r1, [r3, #0]
 231              		.loc 1 220 0
 232 009e 5A60     		str	r2, [r3, #4]
 233 00a0 E6E7     		b	.L16
 234              		.cfi_endproc
 235              	.LFE10:
 236              		.size	chHeapFree, .-chHeapFree
 237 00a2 00BFAFF3 		.section	.text.chHeapAlloc,"ax",%progbits
 237      0080AFF3 
 237      0080AFF3 
 237      0080
 238              		.align	2
 239              		.p2align 4,,15
 240              		.global	chHeapAlloc
 241              		.thumb
 242              		.thumb_func
 243              		.type	chHeapAlloc, %function
 244              	chHeapAlloc:
 245              	.LFB9:
 246              		.loc 1 129 0
 247              		.cfi_startproc
 248              		@ args = 0, pretend = 0, frame = 0
 249              		@ frame_needed = 0, uses_anonymous_args = 0
 250              	.LVL22:
 251 0000 F8B5     		push	{r3, r4, r5, r6, r7, lr}
 252              	.LCFI2:
 253              		.cfi_def_cfa_offset 24
 254              		.loc 1 132 0
 255 0002 40F20004 		movw	r4, #:lower16:.LANCHOR0
 256              		.cfi_offset 14, -4
 257              		.cfi_offset 7, -8
 258              		.cfi_offset 6, -12
 259              		.cfi_offset 5, -16
 260              		.cfi_offset 4, -20
 261              		.cfi_offset 3, -24
 262 0006 C0F20004 		movt	r4, #:upper16:.LANCHOR0
 263 000a 0028     		cmp	r0, #0
 264 000c 18BF     		it	ne
 265 000e 0446     		movne	r4, r0
 266              	.LVL23:
 267              		.loc 1 135 0
 268 0010 0731     		adds	r1, r1, #7
 269              	.LVL24:
 270              		.loc 1 137 0
 271 0012 04F11000 		add	r0, r4, #16
 272              		.loc 1 135 0
 273 0016 21F00706 		bic	r6, r1, #7
 274              	.LVL25:
 275              		.loc 1 136 0
 276 001a 04F10805 		add	r5, r4, #8
 277              	.LVL26:
 278              		.loc 1 137 0
ARM GAS  /tmp/cc2gRl7N.s 			page 6


 279 001e FFF7FEFF 		bl	chMtxLock
 280              		.loc 1 139 0
 281 0022 00E0     		b	.L25
 282              	.LVL27:
 283              	.L26:
 284              		.loc 1 159 0
 285 0024 1D46     		mov	r5, r3
 286              	.LVL28:
 287              	.L25:
 288              		.loc 1 139 0
 289 0026 2B68     		ldr	r3, [r5, #0]
 290              	.LVL29:
 291 0028 C3B1     		cbz	r3, .L33
 292              		.loc 1 141 0
 293 002a 5A68     		ldr	r2, [r3, #4]
 294 002c 9642     		cmp	r6, r2
 295 002e F9D8     		bhi	.L26
 296              		.loc 1 142 0
 297 0030 06F10801 		add	r1, r6, #8
 298 0034 9142     		cmp	r1, r2
 299 0036 0ED8     		bhi	.L34
 300              		.loc 1 151 0
 301 0038 1F68     		ldr	r7, [r3, #0]
 302              		.loc 1 152 0
 303 003a 083A     		subs	r2, r2, #8
 304              		.loc 1 150 0
 305 003c 5818     		adds	r0, r3, r1
 306              	.LVL30:
 307              		.loc 1 152 0
 308 003e 921B     		subs	r2, r2, r6
 309              		.loc 1 151 0
 310 0040 5F50     		str	r7, [r3, r1]
 311              		.loc 1 152 0
 312 0042 4260     		str	r2, [r0, #4]
 313              		.loc 1 153 0
 314 0044 2860     		str	r0, [r5, #0]
 315              		.loc 1 154 0
 316 0046 5E60     		str	r6, [r3, #4]
 317              	.L28:
 318              		.loc 1 156 0
 319 0048 1D46     		mov	r5, r3
 320 004a 45F8084B 		str	r4, [r5], #8
 321              		.loc 1 158 0
 322 004e FFF7FEFF 		bl	chMtxUnlock
 323              	.LVL31:
 324              	.L29:
 325              		.loc 1 178 0
 326 0052 2846     		mov	r0, r5
 327 0054 F8BD     		pop	{r3, r4, r5, r6, r7, pc}
 328              	.LVL32:
 329              	.L34:
 330              		.loc 1 146 0
 331 0056 1A68     		ldr	r2, [r3, #0]
 332 0058 2A60     		str	r2, [r5, #0]
 333 005a F5E7     		b	.L28
 334              	.LVL33:
 335              	.L33:
ARM GAS  /tmp/cc2gRl7N.s 			page 7


 336              		.loc 1 164 0
 337 005c FFF7FEFF 		bl	chMtxUnlock
 338              	.LVL34:
 339              		.loc 1 168 0
 340 0060 2368     		ldr	r3, [r4, #0]
 341 0062 13B9     		cbnz	r3, .L35
 342              	.L31:
 343              		.loc 1 174 0
 344 0064 0025     		movs	r5, #0
 345              		.loc 1 178 0
 346 0066 2846     		mov	r0, r5
 347 0068 F8BD     		pop	{r3, r4, r5, r6, r7, pc}
 348              	.L35:
 349              		.loc 1 169 0
 350 006a 06F10800 		add	r0, r6, #8
 351 006e 9847     		blx	r3
 352              		.loc 1 170 0
 353 0070 0546     		mov	r5, r0
 354 0072 0028     		cmp	r0, #0
 355 0074 F6D0     		beq	.L31
 356              		.loc 1 171 0
 357 0076 0460     		str	r4, [r0, #0]
 358              		.loc 1 172 0
 359 0078 4660     		str	r6, [r0, #4]
 360              		.loc 1 174 0
 361 007a 0835     		adds	r5, r5, #8
 362 007c E9E7     		b	.L29
 363              		.cfi_endproc
 364              	.LFE9:
 365              		.size	chHeapAlloc, .-chHeapAlloc
 366 007e 00BF     		.section	.text.chHeapInit,"ax",%progbits
 367              		.align	2
 368              		.p2align 4,,15
 369              		.global	chHeapInit
 370              		.thumb
 371              		.thumb_func
 372              		.type	chHeapInit, %function
 373              	chHeapInit:
 374              	.LFB8:
 375              		.loc 1 96 0
 376              		.cfi_startproc
 377              		@ args = 0, pretend = 0, frame = 0
 378              		@ frame_needed = 0, uses_anonymous_args = 0
 379              		@ link register save eliminated.
 380              	.LVL35:
 381              		.loc 1 101 0
 382 0000 0023     		movs	r3, #0
 383 0002 0360     		str	r3, [r0, #0]
 384              		.loc 1 102 0
 385 0004 8160     		str	r1, [r0, #8]
 386              		.loc 1 103 0
 387 0006 C360     		str	r3, [r0, #12]
 388              		.loc 1 105 0
 389 0008 083A     		subs	r2, r2, #8
 390              	.LVL36:
 391              		.loc 1 107 0
 392 000a 1030     		adds	r0, r0, #16
ARM GAS  /tmp/cc2gRl7N.s 			page 8


 393              	.LVL37:
 394              		.loc 1 104 0
 395 000c 0B60     		str	r3, [r1, #0]
 396              		.loc 1 105 0
 397 000e 4A60     		str	r2, [r1, #4]
 398              		.loc 1 111 0
 399              		.loc 1 107 0
 400 0010 FFF7FEBF 		b	chMtxInit
 401              	.LVL38:
 402              		.cfi_endproc
 403              	.LFE8:
 404              		.size	chHeapInit, .-chHeapInit
 405 0014 AFF30080 		.section	.text.heap_init,"ax",%progbits
 405      AFF30080 
 405      AFF30080 
 406              		.align	2
 407              		.p2align 4,,15
 408              		.global	heap_init
 409              		.thumb
 410              		.thumb_func
 411              		.type	heap_init, %function
 412              	heap_init:
 413              	.LFB7:
 414              		.loc 1 74 0
 415              		.cfi_startproc
 416              		@ args = 0, pretend = 0, frame = 0
 417              		@ frame_needed = 0, uses_anonymous_args = 0
 418              		@ link register save eliminated.
 419              		.loc 1 75 0
 420 0000 40F20003 		movw	r3, #:lower16:.LANCHOR0
 421 0004 C0F20003 		movt	r3, #:upper16:.LANCHOR0
 422 0008 40F20002 		movw	r2, #:lower16:chCoreAlloc
 423              		.loc 1 76 0
 424 000c 0021     		movs	r1, #0
 425              		.loc 1 75 0
 426 000e C0F20002 		movt	r2, #:upper16:chCoreAlloc
 427              		.loc 1 79 0
 428 0012 03F11000 		add	r0, r3, #16
 429              		.loc 1 75 0
 430 0016 1A60     		str	r2, [r3, #0]
 431              		.loc 1 77 0
 432 0018 D960     		str	r1, [r3, #12]
 433              		.loc 1 76 0
 434 001a 9960     		str	r1, [r3, #8]
 435              		.loc 1 83 0
 436              		.loc 1 79 0
 437 001c FFF7FEBF 		b	chMtxInit
 438              		.cfi_endproc
 439              	.LFE7:
 440              		.size	heap_init, .-heap_init
 441              		.section	.bss.default_heap,"aw",%nobits
 442              		.align	3
 443              		.set	.LANCHOR0,. + 0
 444              		.type	default_heap, %object
 445              		.size	default_heap, 32
 446              	default_heap:
 447 0000 00000000 		.space	32
ARM GAS  /tmp/cc2gRl7N.s 			page 9


 447      00000000 
 447      00000000 
 447      00000000 
 447      00000000 
 448              		.text
 449              	.Letext0:
 450              		.section	.debug_loc,"",%progbits
 451              	.Ldebug_loc0:
 452              	.LLST0:
 453 0000 00000000 		.4byte	.LFB11
 454 0004 02000000 		.4byte	.LCFI0
 455 0008 0100     		.2byte	0x1
 456 000a 5D       		.byte	0x5d
 457 000b 02000000 		.4byte	.LCFI0
 458 000f 40000000 		.4byte	.LFE11
 459 0013 0200     		.2byte	0x2
 460 0015 7D       		.byte	0x7d
 461 0016 10       		.sleb128 16
 462 0017 00000000 		.4byte	0x0
 463 001b 00000000 		.4byte	0x0
 464              	.LLST1:
 465 001f 00000000 		.4byte	.LVL0
 466 0023 10000000 		.4byte	.LVL1
 467 0027 0100     		.2byte	0x1
 468 0029 50       		.byte	0x50
 469 002a 10000000 		.4byte	.LVL1
 470 002e 22000000 		.4byte	.LVL4
 471 0032 0100     		.2byte	0x1
 472 0034 54       		.byte	0x54
 473 0035 3A000000 		.4byte	.LVL7
 474 0039 3E000000 		.4byte	.LVL9
 475 003d 0100     		.2byte	0x1
 476 003f 54       		.byte	0x54
 477 0040 00000000 		.4byte	0x0
 478 0044 00000000 		.4byte	0x0
 479              	.LLST2:
 480 0048 00000000 		.4byte	.LVL0
 481 004c 1A000000 		.4byte	.LVL2
 482 0050 0100     		.2byte	0x1
 483 0052 51       		.byte	0x51
 484 0053 1A000000 		.4byte	.LVL2
 485 0057 40000000 		.4byte	.LFE11
 486 005b 0100     		.2byte	0x1
 487 005d 55       		.byte	0x55
 488 005e 00000000 		.4byte	0x0
 489 0062 00000000 		.4byte	0x0
 490              	.LLST3:
 491 0066 22000000 		.4byte	.LVL4
 492 006a 3A000000 		.4byte	.LVL7
 493 006e 0100     		.2byte	0x1
 494 0070 54       		.byte	0x54
 495 0071 3E000000 		.4byte	.LVL9
 496 0075 40000000 		.4byte	.LFE11
 497 0079 0100     		.2byte	0x1
 498 007b 54       		.byte	0x54
 499 007c 00000000 		.4byte	0x0
 500 0080 00000000 		.4byte	0x0
ARM GAS  /tmp/cc2gRl7N.s 			page 10


 501              	.LLST4:
 502 0084 20000000 		.4byte	.LVL3
 503 0088 36000000 		.4byte	.LVL6
 504 008c 0100     		.2byte	0x1
 505 008e 52       		.byte	0x52
 506 008f 3C000000 		.4byte	.LVL8
 507 0093 40000000 		.4byte	.LFE11
 508 0097 0100     		.2byte	0x1
 509 0099 52       		.byte	0x52
 510 009a 00000000 		.4byte	0x0
 511 009e 00000000 		.4byte	0x0
 512              	.LLST5:
 513 00a2 00000000 		.4byte	.LFB10
 514 00a6 02000000 		.4byte	.LCFI1
 515 00aa 0100     		.2byte	0x1
 516 00ac 5D       		.byte	0x5d
 517 00ad 02000000 		.4byte	.LCFI1
 518 00b1 A2000000 		.4byte	.LFE10
 519 00b5 0200     		.2byte	0x2
 520 00b7 7D       		.byte	0x7d
 521 00b8 10       		.sleb128 16
 522 00b9 00000000 		.4byte	0x0
 523 00bd 00000000 		.4byte	0x0
 524              	.LLST6:
 525 00c1 00000000 		.4byte	.LVL10
 526 00c5 10000000 		.4byte	.LVL13
 527 00c9 0100     		.2byte	0x1
 528 00cb 50       		.byte	0x50
 529 00cc 10000000 		.4byte	.LVL13
 530 00d0 A2000000 		.4byte	.LFE10
 531 00d4 0100     		.2byte	0x1
 532 00d6 56       		.byte	0x56
 533 00d7 00000000 		.4byte	0x0
 534 00db 00000000 		.4byte	0x0
 535              	.LLST7:
 536 00df 12000000 		.4byte	.LVL14
 537 00e3 2A000000 		.4byte	.LVL15
 538 00e7 0100     		.2byte	0x1
 539 00e9 55       		.byte	0x55
 540 00ea 2A000000 		.4byte	.LVL15
 541 00ee 2C000000 		.4byte	.LVL16
 542 00f2 0100     		.2byte	0x1
 543 00f4 53       		.byte	0x53
 544 00f5 2C000000 		.4byte	.LVL16
 545 00f9 34000000 		.4byte	.LVL17
 546 00fd 0100     		.2byte	0x1
 547 00ff 52       		.byte	0x52
 548 0100 34000000 		.4byte	.LVL17
 549 0104 4A000000 		.4byte	.LVL18
 550 0108 0100     		.2byte	0x1
 551 010a 53       		.byte	0x53
 552 010b 4A000000 		.4byte	.LVL18
 553 010f 5A000000 		.4byte	.LVL20
 554 0113 0100     		.2byte	0x1
 555 0115 52       		.byte	0x52
 556 0116 5A000000 		.4byte	.LVL20
 557 011a 78000000 		.4byte	.LVL21
ARM GAS  /tmp/cc2gRl7N.s 			page 11


 558 011e 0100     		.2byte	0x1
 559 0120 53       		.byte	0x53
 560 0121 78000000 		.4byte	.LVL21
 561 0125 A2000000 		.4byte	.LFE10
 562 0129 0100     		.2byte	0x1
 563 012b 53       		.byte	0x53
 564 012c 00000000 		.4byte	0x0
 565 0130 00000000 		.4byte	0x0
 566              	.LLST8:
 567 0134 06000000 		.4byte	.LVL11
 568 0138 12000000 		.4byte	.LVL14
 569 013c 0100     		.2byte	0x1
 570 013e 55       		.byte	0x55
 571 013f 00000000 		.4byte	0x0
 572 0143 00000000 		.4byte	0x0
 573              	.LLST9:
 574 0147 00000000 		.4byte	.LFB9
 575 014b 02000000 		.4byte	.LCFI2
 576 014f 0100     		.2byte	0x1
 577 0151 5D       		.byte	0x5d
 578 0152 02000000 		.4byte	.LCFI2
 579 0156 7E000000 		.4byte	.LFE9
 580 015a 0200     		.2byte	0x2
 581 015c 7D       		.byte	0x7d
 582 015d 18       		.sleb128 24
 583 015e 00000000 		.4byte	0x0
 584 0162 00000000 		.4byte	0x0
 585              	.LLST10:
 586 0166 00000000 		.4byte	.LVL22
 587 016a 10000000 		.4byte	.LVL23
 588 016e 0100     		.2byte	0x1
 589 0170 50       		.byte	0x50
 590 0171 10000000 		.4byte	.LVL23
 591 0175 7E000000 		.4byte	.LFE9
 592 0179 0100     		.2byte	0x1
 593 017b 54       		.byte	0x54
 594 017c 00000000 		.4byte	0x0
 595 0180 00000000 		.4byte	0x0
 596              	.LLST11:
 597 0184 00000000 		.4byte	.LVL22
 598 0188 12000000 		.4byte	.LVL24
 599 018c 0100     		.2byte	0x1
 600 018e 51       		.byte	0x51
 601 018f 1A000000 		.4byte	.LVL25
 602 0193 7E000000 		.4byte	.LFE9
 603 0197 0100     		.2byte	0x1
 604 0199 56       		.byte	0x56
 605 019a 00000000 		.4byte	0x0
 606 019e 00000000 		.4byte	0x0
 607              	.LLST12:
 608 01a2 1E000000 		.4byte	.LVL26
 609 01a6 24000000 		.4byte	.LVL27
 610 01aa 0100     		.2byte	0x1
 611 01ac 55       		.byte	0x55
 612 01ad 24000000 		.4byte	.LVL27
 613 01b1 26000000 		.4byte	.LVL28
 614 01b5 0100     		.2byte	0x1
ARM GAS  /tmp/cc2gRl7N.s 			page 12


 615 01b7 53       		.byte	0x53
 616 01b8 26000000 		.4byte	.LVL28
 617 01bc 28000000 		.4byte	.LVL29
 618 01c0 0100     		.2byte	0x1
 619 01c2 55       		.byte	0x55
 620 01c3 28000000 		.4byte	.LVL29
 621 01c7 52000000 		.4byte	.LVL31
 622 01cb 0100     		.2byte	0x1
 623 01cd 53       		.byte	0x53
 624 01ce 56000000 		.4byte	.LVL32
 625 01d2 60000000 		.4byte	.LVL34
 626 01d6 0100     		.2byte	0x1
 627 01d8 53       		.byte	0x53
 628 01d9 00000000 		.4byte	0x0
 629 01dd 00000000 		.4byte	0x0
 630              	.LLST13:
 631 01e1 3E000000 		.4byte	.LVL30
 632 01e5 52000000 		.4byte	.LVL31
 633 01e9 0100     		.2byte	0x1
 634 01eb 50       		.byte	0x50
 635 01ec 00000000 		.4byte	0x0
 636 01f0 00000000 		.4byte	0x0
 637              	.LLST15:
 638 01f4 00000000 		.4byte	.LVL35
 639 01f8 0C000000 		.4byte	.LVL37
 640 01fc 0100     		.2byte	0x1
 641 01fe 50       		.byte	0x50
 642 01ff 00000000 		.4byte	0x0
 643 0203 00000000 		.4byte	0x0
 644              	.LLST16:
 645 0207 00000000 		.4byte	.LVL35
 646 020b 14000000 		.4byte	.LVL38
 647 020f 0100     		.2byte	0x1
 648 0211 51       		.byte	0x51
 649 0212 00000000 		.4byte	0x0
 650 0216 00000000 		.4byte	0x0
 651              	.LLST17:
 652 021a 00000000 		.4byte	.LVL35
 653 021e 0A000000 		.4byte	.LVL36
 654 0222 0100     		.2byte	0x1
 655 0224 52       		.byte	0x52
 656 0225 00000000 		.4byte	0x0
 657 0229 00000000 		.4byte	0x0
 658              		.file 2 "/usr/local/LPCXpresso/tools/bin/../lib/gcc/arm-none-eabi/4.4.1/include/newlib/stddef.h"
 659              		.file 3 "/usr/local/LPCXpresso/tools/bin/../lib/gcc/arm-none-eabi/4.4.1/../../../../arm-none-eabi/
 660              		.file 4 "../../os/ports/GCC/ARMCMx/chtypes.h"
 661              		.file 5 "../../os/kernel/include/chlists.h"
 662              		.file 6 "../../os/kernel/include/chthreads.h"
 663              		.file 7 "../../os/ports/GCC/ARMCMx/chcore.h"
 664              		.file 8 "../../os/ports/GCC/ARMCMx/chcore_v7m.h"
 665              		.file 9 "../../os/kernel/include/chmtx.h"
 666              		.file 10 "../../os/kernel/include/chmemcore.h"
 667              		.file 11 "../../os/kernel/include/chheap.h"
 668              		.section	.debug_info
 669 0000 07060000 		.4byte	0x607
 670 0004 0200     		.2byte	0x2
 671 0006 00000000 		.4byte	.Ldebug_abbrev0
ARM GAS  /tmp/cc2gRl7N.s 			page 13


 672 000a 04       		.byte	0x4
 673 000b 01       		.uleb128 0x1
 674 000c 51000000 		.4byte	.LASF70
 675 0010 01       		.byte	0x1
 676 0011 E9000000 		.4byte	.LASF71
 677 0015 7A000000 		.4byte	.LASF72
 678 0019 00000000 		.4byte	0x0
 679 001d 00000000 		.4byte	0x0
 680 0021 00000000 		.4byte	.Ldebug_ranges0+0x0
 681 0025 00000000 		.4byte	.Ldebug_line0
 682 0029 02       		.uleb128 0x2
 683 002a 04       		.byte	0x4
 684 002b 05       		.byte	0x5
 685 002c 696E7400 		.ascii	"int\000"
 686 0030 03       		.uleb128 0x3
 687 0031 06000000 		.4byte	.LASF2
 688 0035 02       		.byte	0x2
 689 0036 D3       		.byte	0xd3
 690 0037 3B000000 		.4byte	0x3b
 691 003b 04       		.uleb128 0x4
 692 003c 04       		.byte	0x4
 693 003d 07       		.byte	0x7
 694 003e 3E010000 		.4byte	.LASF0
 695 0042 04       		.uleb128 0x4
 696 0043 01       		.byte	0x1
 697 0044 06       		.byte	0x6
 698 0045 B3000000 		.4byte	.LASF1
 699 0049 03       		.uleb128 0x3
 700 004a CC020000 		.4byte	.LASF3
 701 004e 03       		.byte	0x3
 702 004f 2A       		.byte	0x2a
 703 0050 54000000 		.4byte	0x54
 704 0054 04       		.uleb128 0x4
 705 0055 01       		.byte	0x1
 706 0056 08       		.byte	0x8
 707 0057 F3010000 		.4byte	.LASF4
 708 005b 04       		.uleb128 0x4
 709 005c 02       		.byte	0x2
 710 005d 05       		.byte	0x5
 711 005e 16020000 		.4byte	.LASF5
 712 0062 04       		.uleb128 0x4
 713 0063 02       		.byte	0x2
 714 0064 07       		.byte	0x7
 715 0065 6A010000 		.4byte	.LASF6
 716 0069 03       		.uleb128 0x3
 717 006a EB010000 		.4byte	.LASF7
 718 006e 03       		.byte	0x3
 719 006f 4F       		.byte	0x4f
 720 0070 74000000 		.4byte	0x74
 721 0074 04       		.uleb128 0x4
 722 0075 04       		.byte	0x4
 723 0076 05       		.byte	0x5
 724 0077 E0000000 		.4byte	.LASF8
 725 007b 03       		.uleb128 0x3
 726 007c 68020000 		.4byte	.LASF9
 727 0080 03       		.byte	0x3
 728 0081 50       		.byte	0x50
ARM GAS  /tmp/cc2gRl7N.s 			page 14


 729 0082 86000000 		.4byte	0x86
 730 0086 04       		.uleb128 0x4
 731 0087 04       		.byte	0x4
 732 0088 07       		.byte	0x7
 733 0089 4B010000 		.4byte	.LASF10
 734 008d 04       		.uleb128 0x4
 735 008e 08       		.byte	0x8
 736 008f 05       		.byte	0x5
 737 0090 19010000 		.4byte	.LASF11
 738 0094 03       		.uleb128 0x3
 739 0095 14000000 		.4byte	.LASF12
 740 0099 03       		.byte	0x3
 741 009a 78       		.byte	0x78
 742 009b 9F000000 		.4byte	0x9f
 743 009f 04       		.uleb128 0x4
 744 00a0 08       		.byte	0x8
 745 00a1 07       		.byte	0x7
 746 00a2 2A000000 		.4byte	.LASF13
 747 00a6 03       		.uleb128 0x3
 748 00a7 83010000 		.4byte	.LASF14
 749 00ab 04       		.byte	0x4
 750 00ac 2E       		.byte	0x2e
 751 00ad 49000000 		.4byte	0x49
 752 00b1 03       		.uleb128 0x3
 753 00b2 06010000 		.4byte	.LASF15
 754 00b6 04       		.byte	0x4
 755 00b7 2F       		.byte	0x2f
 756 00b8 49000000 		.4byte	0x49
 757 00bc 03       		.uleb128 0x3
 758 00bd D4010000 		.4byte	.LASF16
 759 00c1 04       		.byte	0x4
 760 00c2 30       		.byte	0x30
 761 00c3 49000000 		.4byte	0x49
 762 00c7 03       		.uleb128 0x3
 763 00c8 E3010000 		.4byte	.LASF17
 764 00cc 04       		.byte	0x4
 765 00cd 31       		.byte	0x31
 766 00ce 7B000000 		.4byte	0x7b
 767 00d2 03       		.uleb128 0x3
 768 00d3 7D010000 		.4byte	.LASF18
 769 00d7 04       		.byte	0x4
 770 00d8 32       		.byte	0x32
 771 00d9 69000000 		.4byte	0x69
 772 00dd 03       		.uleb128 0x3
 773 00de 97010000 		.4byte	.LASF19
 774 00e2 04       		.byte	0x4
 775 00e3 34       		.byte	0x34
 776 00e4 7B000000 		.4byte	0x7b
 777 00e8 03       		.uleb128 0x3
 778 00e9 97020000 		.4byte	.LASF20
 779 00ed 04       		.byte	0x4
 780 00ee 35       		.byte	0x35
 781 00ef 7B000000 		.4byte	0x7b
 782 00f3 03       		.uleb128 0x3
 783 00f4 4A020000 		.4byte	.LASF21
 784 00f8 05       		.byte	0x5
 785 00f9 29       		.byte	0x29
ARM GAS  /tmp/cc2gRl7N.s 			page 15


 786 00fa FE000000 		.4byte	0xfe
 787 00fe 05       		.uleb128 0x5
 788 00ff 4A020000 		.4byte	.LASF21
 789 0103 44       		.byte	0x44
 790 0104 05       		.byte	0x5
 791 0105 29       		.byte	0x29
 792 0106 07020000 		.4byte	0x207
 793 010a 06       		.uleb128 0x6
 794 010b 3B020000 		.4byte	.LASF22
 795 010f 06       		.byte	0x6
 796 0110 2F       		.byte	0x2f
 797 0111 2C020000 		.4byte	0x22c
 798 0115 02       		.byte	0x2
 799 0116 23       		.byte	0x23
 800 0117 00       		.uleb128 0x0
 801 0118 06       		.uleb128 0x6
 802 0119 DC010000 		.4byte	.LASF23
 803 011d 06       		.byte	0x6
 804 011e 31       		.byte	0x31
 805 011f 2C020000 		.4byte	0x22c
 806 0123 02       		.byte	0x2
 807 0124 23       		.byte	0x23
 808 0125 04       		.uleb128 0x4
 809 0126 06       		.uleb128 0x6
 810 0127 73000000 		.4byte	.LASF24
 811 012b 06       		.byte	0x6
 812 012c 33       		.byte	0x33
 813 012d C7000000 		.4byte	0xc7
 814 0131 02       		.byte	0x2
 815 0132 23       		.byte	0x23
 816 0133 08       		.uleb128 0x8
 817 0134 06       		.uleb128 0x6
 818 0135 E9020000 		.4byte	.LASF25
 819 0139 06       		.byte	0x6
 820 013a 34       		.byte	0x34
 821 013b 7C020000 		.4byte	0x27c
 822 013f 02       		.byte	0x2
 823 0140 23       		.byte	0x23
 824 0141 0C       		.uleb128 0xc
 825 0142 06       		.uleb128 0x6
 826 0143 27010000 		.4byte	.LASF26
 827 0147 06       		.byte	0x6
 828 0148 36       		.byte	0x36
 829 0149 2C020000 		.4byte	0x22c
 830 014d 02       		.byte	0x2
 831 014e 23       		.byte	0x23
 832 014f 10       		.uleb128 0x10
 833 0150 06       		.uleb128 0x6
 834 0151 B4010000 		.4byte	.LASF27
 835 0155 06       		.byte	0x6
 836 0156 37       		.byte	0x37
 837 0157 2C020000 		.4byte	0x22c
 838 015b 02       		.byte	0x2
 839 015c 23       		.byte	0x23
 840 015d 14       		.uleb128 0x14
 841 015e 06       		.uleb128 0x6
 842 015f 20020000 		.4byte	.LASF28
ARM GAS  /tmp/cc2gRl7N.s 			page 16


 843 0163 06       		.byte	0x6
 844 0164 3D       		.byte	0x3d
 845 0165 B1000000 		.4byte	0xb1
 846 0169 02       		.byte	0x2
 847 016a 23       		.byte	0x23
 848 016b 18       		.uleb128 0x18
 849 016c 06       		.uleb128 0x6
 850 016d 42020000 		.4byte	.LASF29
 851 0171 06       		.byte	0x6
 852 0172 41       		.byte	0x41
 853 0173 A6000000 		.4byte	0xa6
 854 0177 02       		.byte	0x2
 855 0178 23       		.byte	0x23
 856 0179 19       		.uleb128 0x19
 857 017a 06       		.uleb128 0x6
 858 017b C5020000 		.4byte	.LASF30
 859 017f 06       		.byte	0x6
 860 0180 46       		.byte	0x46
 861 0181 BC000000 		.4byte	0xbc
 862 0185 02       		.byte	0x2
 863 0186 23       		.byte	0x23
 864 0187 1A       		.uleb128 0x1a
 865 0188 06       		.uleb128 0x6
 866 0189 AC020000 		.4byte	.LASF31
 867 018d 06       		.byte	0x6
 868 018e 53       		.byte	0x53
 869 018f 24030000 		.4byte	0x324
 870 0193 02       		.byte	0x2
 871 0194 23       		.byte	0x23
 872 0195 1C       		.uleb128 0x1c
 873 0196 07       		.uleb128 0x7
 874 0197 705F7500 		.ascii	"p_u\000"
 875 019b 06       		.byte	0x6
 876 019c 78       		.byte	0x78
 877 019d 43040000 		.4byte	0x443
 878 01a1 02       		.byte	0x2
 879 01a2 23       		.byte	0x23
 880 01a3 20       		.uleb128 0x20
 881 01a4 06       		.uleb128 0x6
 882 01a5 EF020000 		.4byte	.LASF32
 883 01a9 06       		.byte	0x6
 884 01aa 7D       		.byte	0x7d
 885 01ab 54020000 		.4byte	0x254
 886 01af 02       		.byte	0x2
 887 01b0 23       		.byte	0x23
 888 01b1 24       		.uleb128 0x24
 889 01b2 06       		.uleb128 0x6
 890 01b3 BA020000 		.4byte	.LASF33
 891 01b7 06       		.byte	0x6
 892 01b8 83       		.byte	0x83
 893 01b9 32020000 		.4byte	0x232
 894 01bd 02       		.byte	0x2
 895 01be 23       		.byte	0x23
 896 01bf 28       		.uleb128 0x28
 897 01c0 06       		.uleb128 0x6
 898 01c1 00000000 		.4byte	.LASF34
 899 01c5 06       		.byte	0x6
ARM GAS  /tmp/cc2gRl7N.s 			page 17


 900 01c6 87       		.byte	0x87
 901 01c7 D2000000 		.4byte	0xd2
 902 01cb 02       		.byte	0x2
 903 01cc 23       		.byte	0x23
 904 01cd 30       		.uleb128 0x30
 905 01ce 06       		.uleb128 0x6
 906 01cf 5D020000 		.4byte	.LASF35
 907 01d3 06       		.byte	0x6
 908 01d4 8D       		.byte	0x8d
 909 01d5 DD000000 		.4byte	0xdd
 910 01d9 02       		.byte	0x2
 911 01da 23       		.byte	0x23
 912 01db 34       		.uleb128 0x34
 913 01dc 06       		.uleb128 0x6
 914 01dd 0C020000 		.4byte	.LASF36
 915 01e1 06       		.byte	0x6
 916 01e2 94       		.byte	0x94
 917 01e3 78040000 		.4byte	0x478
 918 01e7 02       		.byte	0x2
 919 01e8 23       		.byte	0x23
 920 01e9 38       		.uleb128 0x38
 921 01ea 06       		.uleb128 0x6
 922 01eb A1020000 		.4byte	.LASF37
 923 01ef 06       		.byte	0x6
 924 01f0 98       		.byte	0x98
 925 01f1 C7000000 		.4byte	0xc7
 926 01f5 02       		.byte	0x2
 927 01f6 23       		.byte	0x23
 928 01f7 3C       		.uleb128 0x3c
 929 01f8 06       		.uleb128 0x6
 930 01f9 C5000000 		.4byte	.LASF38
 931 01fd 06       		.byte	0x6
 932 01fe 9E       		.byte	0x9e
 933 01ff 7A020000 		.4byte	0x27a
 934 0203 02       		.byte	0x2
 935 0204 23       		.byte	0x23
 936 0205 40       		.uleb128 0x40
 937 0206 00       		.byte	0x0
 938 0207 08       		.uleb128 0x8
 939 0208 08       		.byte	0x8
 940 0209 05       		.byte	0x5
 941 020a 60       		.byte	0x60
 942 020b 2C020000 		.4byte	0x22c
 943 020f 06       		.uleb128 0x6
 944 0210 3B020000 		.4byte	.LASF22
 945 0214 05       		.byte	0x5
 946 0215 61       		.byte	0x61
 947 0216 2C020000 		.4byte	0x22c
 948 021a 02       		.byte	0x2
 949 021b 23       		.byte	0x23
 950 021c 00       		.uleb128 0x0
 951 021d 06       		.uleb128 0x6
 952 021e DC010000 		.4byte	.LASF23
 953 0222 05       		.byte	0x5
 954 0223 63       		.byte	0x63
 955 0224 2C020000 		.4byte	0x22c
 956 0228 02       		.byte	0x2
ARM GAS  /tmp/cc2gRl7N.s 			page 18


 957 0229 23       		.byte	0x23
 958 022a 04       		.uleb128 0x4
 959 022b 00       		.byte	0x0
 960 022c 09       		.uleb128 0x9
 961 022d 04       		.byte	0x4
 962 022e F3000000 		.4byte	0xf3
 963 0232 03       		.uleb128 0x3
 964 0233 BC010000 		.4byte	.LASF39
 965 0237 05       		.byte	0x5
 966 0238 65       		.byte	0x65
 967 0239 07020000 		.4byte	0x207
 968 023d 08       		.uleb128 0x8
 969 023e 04       		.byte	0x4
 970 023f 05       		.byte	0x5
 971 0240 6A       		.byte	0x6a
 972 0241 54020000 		.4byte	0x254
 973 0245 06       		.uleb128 0x6
 974 0246 3B020000 		.4byte	.LASF22
 975 024a 05       		.byte	0x5
 976 024b 6C       		.byte	0x6c
 977 024c 2C020000 		.4byte	0x22c
 978 0250 02       		.byte	0x2
 979 0251 23       		.byte	0x23
 980 0252 00       		.uleb128 0x0
 981 0253 00       		.byte	0x0
 982 0254 03       		.uleb128 0x3
 983 0255 8B010000 		.4byte	.LASF40
 984 0259 05       		.byte	0x5
 985 025a 6F       		.byte	0x6f
 986 025b 3D020000 		.4byte	0x23d
 987 025f 0A       		.uleb128 0xa
 988 0260 04       		.byte	0x4
 989 0261 07       		.byte	0x7
 990 0262 0B       		.uleb128 0xb
 991 0263 A9010000 		.4byte	.LASF41
 992 0267 07       		.byte	0x7
 993 0268 0401     		.2byte	0x104
 994 026a 94000000 		.4byte	0x94
 995 026e 0B       		.uleb128 0xb
 996 026f 2F010000 		.4byte	.LASF42
 997 0273 07       		.byte	0x7
 998 0274 0F01     		.2byte	0x10f
 999 0276 7A020000 		.4byte	0x27a
 1000 027a 0C       		.uleb128 0xc
 1001 027b 04       		.byte	0x4
 1002 027c 0D       		.uleb128 0xd
 1003 027d 5D010000 		.4byte	.LASF43
 1004 0281 04       		.byte	0x4
 1005 0282 07       		.byte	0x7
 1006 0283 2B01     		.2byte	0x12b
 1007 0285 99020000 		.4byte	0x299
 1008 0289 0E       		.uleb128 0xe
 1009 028a 72313300 		.ascii	"r13\000"
 1010 028e 07       		.byte	0x7
 1011 028f 2C01     		.2byte	0x12c
 1012 0291 1E030000 		.4byte	0x31e
 1013 0295 02       		.byte	0x2
ARM GAS  /tmp/cc2gRl7N.s 			page 19


 1014 0296 23       		.byte	0x23
 1015 0297 00       		.uleb128 0x0
 1016 0298 00       		.byte	0x0
 1017 0299 0D       		.uleb128 0xd
 1018 029a B3020000 		.4byte	.LASF44
 1019 029e 24       		.byte	0x24
 1020 029f 07       		.byte	0x7
 1021 02a0 2C01     		.2byte	0x12c
 1022 02a2 1E030000 		.4byte	0x31e
 1023 02a6 07       		.uleb128 0x7
 1024 02a7 723400   		.ascii	"r4\000"
 1025 02aa 08       		.byte	0x8
 1026 02ab 37       		.byte	0x37
 1027 02ac 6E020000 		.4byte	0x26e
 1028 02b0 02       		.byte	0x2
 1029 02b1 23       		.byte	0x23
 1030 02b2 00       		.uleb128 0x0
 1031 02b3 07       		.uleb128 0x7
 1032 02b4 723500   		.ascii	"r5\000"
 1033 02b7 08       		.byte	0x8
 1034 02b8 38       		.byte	0x38
 1035 02b9 6E020000 		.4byte	0x26e
 1036 02bd 02       		.byte	0x2
 1037 02be 23       		.byte	0x23
 1038 02bf 04       		.uleb128 0x4
 1039 02c0 07       		.uleb128 0x7
 1040 02c1 723600   		.ascii	"r6\000"
 1041 02c4 08       		.byte	0x8
 1042 02c5 39       		.byte	0x39
 1043 02c6 6E020000 		.4byte	0x26e
 1044 02ca 02       		.byte	0x2
 1045 02cb 23       		.byte	0x23
 1046 02cc 08       		.uleb128 0x8
 1047 02cd 07       		.uleb128 0x7
 1048 02ce 723700   		.ascii	"r7\000"
 1049 02d1 08       		.byte	0x8
 1050 02d2 3B       		.byte	0x3b
 1051 02d3 6E020000 		.4byte	0x26e
 1052 02d7 02       		.byte	0x2
 1053 02d8 23       		.byte	0x23
 1054 02d9 0C       		.uleb128 0xc
 1055 02da 07       		.uleb128 0x7
 1056 02db 723800   		.ascii	"r8\000"
 1057 02de 08       		.byte	0x8
 1058 02df 3D       		.byte	0x3d
 1059 02e0 6E020000 		.4byte	0x26e
 1060 02e4 02       		.byte	0x2
 1061 02e5 23       		.byte	0x23
 1062 02e6 10       		.uleb128 0x10
 1063 02e7 07       		.uleb128 0x7
 1064 02e8 723900   		.ascii	"r9\000"
 1065 02eb 08       		.byte	0x8
 1066 02ec 3E       		.byte	0x3e
 1067 02ed 6E020000 		.4byte	0x26e
 1068 02f1 02       		.byte	0x2
 1069 02f2 23       		.byte	0x23
 1070 02f3 14       		.uleb128 0x14
ARM GAS  /tmp/cc2gRl7N.s 			page 20


 1071 02f4 07       		.uleb128 0x7
 1072 02f5 72313000 		.ascii	"r10\000"
 1073 02f9 08       		.byte	0x8
 1074 02fa 3F       		.byte	0x3f
 1075 02fb 6E020000 		.4byte	0x26e
 1076 02ff 02       		.byte	0x2
 1077 0300 23       		.byte	0x23
 1078 0301 18       		.uleb128 0x18
 1079 0302 07       		.uleb128 0x7
 1080 0303 72313100 		.ascii	"r11\000"
 1081 0307 08       		.byte	0x8
 1082 0308 40       		.byte	0x40
 1083 0309 6E020000 		.4byte	0x26e
 1084 030d 02       		.byte	0x2
 1085 030e 23       		.byte	0x23
 1086 030f 1C       		.uleb128 0x1c
 1087 0310 07       		.uleb128 0x7
 1088 0311 6C7200   		.ascii	"lr\000"
 1089 0314 08       		.byte	0x8
 1090 0315 41       		.byte	0x41
 1091 0316 6E020000 		.4byte	0x26e
 1092 031a 02       		.byte	0x2
 1093 031b 23       		.byte	0x23
 1094 031c 20       		.uleb128 0x20
 1095 031d 00       		.byte	0x0
 1096 031e 09       		.uleb128 0x9
 1097 031f 04       		.byte	0x4
 1098 0320 99020000 		.4byte	0x299
 1099 0324 0F       		.uleb128 0xf
 1100 0325 E8000000 		.4byte	0xe8
 1101 0329 05       		.uleb128 0x5
 1102 032a A3010000 		.4byte	.LASF45
 1103 032e 10       		.byte	0x10
 1104 032f 09       		.byte	0x9
 1105 0330 2B       		.byte	0x2b
 1106 0331 60030000 		.4byte	0x360
 1107 0335 06       		.uleb128 0x6
 1108 0336 CD000000 		.4byte	.LASF46
 1109 033a 09       		.byte	0x9
 1110 033b 2C       		.byte	0x2c
 1111 033c 32020000 		.4byte	0x232
 1112 0340 02       		.byte	0x2
 1113 0341 23       		.byte	0x23
 1114 0342 00       		.uleb128 0x0
 1115 0343 06       		.uleb128 0x6
 1116 0344 E1020000 		.4byte	.LASF47
 1117 0348 09       		.byte	0x9
 1118 0349 2E       		.byte	0x2e
 1119 034a 2C020000 		.4byte	0x22c
 1120 034e 02       		.byte	0x2
 1121 034f 23       		.byte	0x23
 1122 0350 08       		.uleb128 0x8
 1123 0351 06       		.uleb128 0x6
 1124 0352 90020000 		.4byte	.LASF48
 1125 0356 09       		.byte	0x9
 1126 0357 30       		.byte	0x30
 1127 0358 60030000 		.4byte	0x360
ARM GAS  /tmp/cc2gRl7N.s 			page 21


 1128 035c 02       		.byte	0x2
 1129 035d 23       		.byte	0x23
 1130 035e 0C       		.uleb128 0xc
 1131 035f 00       		.byte	0x0
 1132 0360 09       		.uleb128 0x9
 1133 0361 04       		.byte	0x4
 1134 0362 29030000 		.4byte	0x329
 1135 0366 03       		.uleb128 0x3
 1136 0367 A3010000 		.4byte	.LASF45
 1137 036b 09       		.byte	0x9
 1138 036c 32       		.byte	0x32
 1139 036d 29030000 		.4byte	0x329
 1140 0371 03       		.uleb128 0x3
 1141 0372 1D000000 		.4byte	.LASF49
 1142 0376 0A       		.byte	0xa
 1143 0377 2B       		.byte	0x2b
 1144 0378 7C030000 		.4byte	0x37c
 1145 037c 09       		.uleb128 0x9
 1146 037d 04       		.byte	0x4
 1147 037e 82030000 		.4byte	0x382
 1148 0382 10       		.uleb128 0x10
 1149 0383 01       		.byte	0x1
 1150 0384 7A020000 		.4byte	0x27a
 1151 0388 92030000 		.4byte	0x392
 1152 038c 11       		.uleb128 0x11
 1153 038d 30000000 		.4byte	0x30
 1154 0391 00       		.byte	0x0
 1155 0392 03       		.uleb128 0x3
 1156 0393 C9010000 		.4byte	.LASF50
 1157 0397 0B       		.byte	0xb
 1158 0398 33       		.byte	0x33
 1159 0399 9D030000 		.4byte	0x39d
 1160 039d 05       		.uleb128 0x5
 1161 039e F9020000 		.4byte	.LASF51
 1162 03a2 20       		.byte	0x20
 1163 03a3 0B       		.byte	0xb
 1164 03a4 33       		.byte	0x33
 1165 03a5 D4030000 		.4byte	0x3d4
 1166 03a9 06       		.uleb128 0x6
 1167 03aa 01020000 		.4byte	.LASF52
 1168 03ae 0B       		.byte	0xb
 1169 03af 47       		.byte	0x47
 1170 03b0 71030000 		.4byte	0x371
 1171 03b4 02       		.byte	0x2
 1172 03b5 23       		.byte	0x23
 1173 03b6 00       		.uleb128 0x0
 1174 03b7 06       		.uleb128 0x6
 1175 03b8 4A000000 		.4byte	.LASF53
 1176 03bc 0B       		.byte	0xb
 1177 03bd 49       		.byte	0x49
 1178 03be F3030000 		.4byte	0x3f3
 1179 03c2 02       		.byte	0x2
 1180 03c3 23       		.byte	0x23
 1181 03c4 08       		.uleb128 0x8
 1182 03c5 06       		.uleb128 0x6
 1183 03c6 BF000000 		.4byte	.LASF54
 1184 03ca 0B       		.byte	0xb
ARM GAS  /tmp/cc2gRl7N.s 			page 22


 1185 03cb 4B       		.byte	0x4b
 1186 03cc 66030000 		.4byte	0x366
 1187 03d0 02       		.byte	0x2
 1188 03d1 23       		.byte	0x23
 1189 03d2 10       		.uleb128 0x10
 1190 03d3 00       		.byte	0x0
 1191 03d4 12       		.uleb128 0x12
 1192 03d5 04       		.byte	0x4
 1193 03d6 0B       		.byte	0xb
 1194 03d7 3B       		.byte	0x3b
 1195 03d8 F3030000 		.4byte	0x3f3
 1196 03dc 13       		.uleb128 0x13
 1197 03dd 6E000000 		.4byte	.LASF55
 1198 03e1 0B       		.byte	0xb
 1199 03e2 3C       		.byte	0x3c
 1200 03e3 14040000 		.4byte	0x414
 1201 03e7 13       		.uleb128 0x13
 1202 03e8 71020000 		.4byte	.LASF56
 1203 03ec 0B       		.byte	0xb
 1204 03ed 3D       		.byte	0x3d
 1205 03ee 1A040000 		.4byte	0x41a
 1206 03f2 00       		.byte	0x0
 1207 03f3 14       		.uleb128 0x14
 1208 03f4 28020000 		.4byte	.LASF73
 1209 03f8 08       		.byte	0x8
 1210 03f9 0B       		.byte	0xb
 1211 03fa 38       		.byte	0x38
 1212 03fb 14040000 		.4byte	0x414
 1213 03ff 13       		.uleb128 0x13
 1214 0400 38010000 		.4byte	.LASF57
 1215 0404 0B       		.byte	0xb
 1216 0405 39       		.byte	0x39
 1217 0406 62020000 		.4byte	0x262
 1218 040a 15       		.uleb128 0x15
 1219 040b 6800     		.ascii	"h\000"
 1220 040d 0B       		.byte	0xb
 1221 040e 40       		.byte	0x40
 1222 040f 20040000 		.4byte	0x420
 1223 0413 00       		.byte	0x0
 1224 0414 09       		.uleb128 0x9
 1225 0415 04       		.byte	0x4
 1226 0416 F3030000 		.4byte	0x3f3
 1227 041a 09       		.uleb128 0x9
 1228 041b 04       		.byte	0x4
 1229 041c 92030000 		.4byte	0x392
 1230 0420 08       		.uleb128 0x8
 1231 0421 08       		.byte	0x8
 1232 0422 0B       		.byte	0xb
 1233 0423 3A       		.byte	0x3a
 1234 0424 43040000 		.4byte	0x443
 1235 0428 07       		.uleb128 0x7
 1236 0429 7500     		.ascii	"u\000"
 1237 042b 0B       		.byte	0xb
 1238 042c 3E       		.byte	0x3e
 1239 042d D4030000 		.4byte	0x3d4
 1240 0431 02       		.byte	0x2
 1241 0432 23       		.byte	0x23
ARM GAS  /tmp/cc2gRl7N.s 			page 23


 1242 0433 00       		.uleb128 0x0
 1243 0434 06       		.uleb128 0x6
 1244 0435 65010000 		.4byte	.LASF58
 1245 0439 0B       		.byte	0xb
 1246 043a 3F       		.byte	0x3f
 1247 043b 30000000 		.4byte	0x30
 1248 043f 02       		.byte	0x2
 1249 0440 23       		.byte	0x23
 1250 0441 04       		.uleb128 0x4
 1251 0442 00       		.byte	0x0
 1252 0443 12       		.uleb128 0x12
 1253 0444 04       		.byte	0x4
 1254 0445 06       		.byte	0x6
 1255 0446 5A       		.byte	0x5a
 1256 0447 78040000 		.4byte	0x478
 1257 044b 13       		.uleb128 0x13
 1258 044c 0D000000 		.4byte	.LASF59
 1259 0450 06       		.byte	0x6
 1260 0451 61       		.byte	0x61
 1261 0452 D2000000 		.4byte	0xd2
 1262 0456 13       		.uleb128 0x13
 1263 0457 41000000 		.4byte	.LASF60
 1264 045b 06       		.byte	0x6
 1265 045c 68       		.byte	0x68
 1266 045d D2000000 		.4byte	0xd2
 1267 0461 13       		.uleb128 0x13
 1268 0462 D4020000 		.4byte	.LASF61
 1269 0466 06       		.byte	0x6
 1270 0467 6F       		.byte	0x6f
 1271 0468 7A020000 		.4byte	0x27a
 1272 046c 13       		.uleb128 0x13
 1273 046d 34020000 		.4byte	.LASF62
 1274 0471 06       		.byte	0x6
 1275 0472 76       		.byte	0x76
 1276 0473 DD000000 		.4byte	0xdd
 1277 0477 00       		.byte	0x0
 1278 0478 09       		.uleb128 0x9
 1279 0479 04       		.byte	0x4
 1280 047a 66030000 		.4byte	0x366
 1281 047e 16       		.uleb128 0x16
 1282 047f 01       		.byte	0x1
 1283 0480 83020000 		.4byte	.LASF65
 1284 0484 01       		.byte	0x1
 1285 0485 F7       		.byte	0xf7
 1286 0486 01       		.byte	0x1
 1287 0487 30000000 		.4byte	0x30
 1288 048b 00000000 		.4byte	.LFB11
 1289 048f 40000000 		.4byte	.LFE11
 1290 0493 00000000 		.4byte	.LLST0
 1291 0497 DF040000 		.4byte	0x4df
 1292 049b 17       		.uleb128 0x17
 1293 049c 5D000000 		.4byte	.LASF63
 1294 04a0 01       		.byte	0x1
 1295 04a1 F7       		.byte	0xf7
 1296 04a2 1A040000 		.4byte	0x41a
 1297 04a6 1F000000 		.4byte	.LLST1
 1298 04aa 17       		.uleb128 0x17
ARM GAS  /tmp/cc2gRl7N.s 			page 24


 1299 04ab DB020000 		.4byte	.LASF64
 1300 04af 01       		.byte	0x1
 1301 04b0 F7       		.byte	0xf7
 1302 04b1 DF040000 		.4byte	0x4df
 1303 04b5 48000000 		.4byte	.LLST2
 1304 04b9 18       		.uleb128 0x18
 1305 04ba 717000   		.ascii	"qp\000"
 1306 04bd 01       		.byte	0x1
 1307 04be F8       		.byte	0xf8
 1308 04bf 14040000 		.4byte	0x414
 1309 04c3 19       		.uleb128 0x19
 1310 04c4 6E00     		.ascii	"n\000"
 1311 04c6 01       		.byte	0x1
 1312 04c7 F9       		.byte	0xf9
 1313 04c8 30000000 		.4byte	0x30
 1314 04cc 66000000 		.4byte	.LLST3
 1315 04d0 19       		.uleb128 0x19
 1316 04d1 737A00   		.ascii	"sz\000"
 1317 04d4 01       		.byte	0x1
 1318 04d5 F9       		.byte	0xf9
 1319 04d6 30000000 		.4byte	0x30
 1320 04da 84000000 		.4byte	.LLST4
 1321 04de 00       		.byte	0x0
 1322 04df 09       		.uleb128 0x9
 1323 04e0 04       		.byte	0x4
 1324 04e1 30000000 		.4byte	0x30
 1325 04e5 1A       		.uleb128 0x1a
 1326 04e6 01       		.byte	0x1
 1327 04e7 D5000000 		.4byte	.LASF67
 1328 04eb 01       		.byte	0x1
 1329 04ec BF       		.byte	0xbf
 1330 04ed 01       		.byte	0x1
 1331 04ee 00000000 		.4byte	.LFB10
 1332 04f2 A2000000 		.4byte	.LFE10
 1333 04f6 A2000000 		.4byte	.LLST5
 1334 04fa 35050000 		.4byte	0x535
 1335 04fe 1B       		.uleb128 0x1b
 1336 04ff 7000     		.ascii	"p\000"
 1337 0501 01       		.byte	0x1
 1338 0502 BF       		.byte	0xbf
 1339 0503 7A020000 		.4byte	0x27a
 1340 0507 C1000000 		.4byte	.LLST6
 1341 050b 19       		.uleb128 0x19
 1342 050c 717000   		.ascii	"qp\000"
 1343 050f 01       		.byte	0x1
 1344 0510 C0       		.byte	0xc0
 1345 0511 14040000 		.4byte	0x414
 1346 0515 DF000000 		.4byte	.LLST7
 1347 0519 1C       		.uleb128 0x1c
 1348 051a 687000   		.ascii	"hp\000"
 1349 051d 01       		.byte	0x1
 1350 051e C0       		.byte	0xc0
 1351 051f 14040000 		.4byte	0x414
 1352 0523 01       		.byte	0x1
 1353 0524 54       		.byte	0x54
 1354 0525 1D       		.uleb128 0x1d
 1355 0526 5D000000 		.4byte	.LASF63
ARM GAS  /tmp/cc2gRl7N.s 			page 25


 1356 052a 01       		.byte	0x1
 1357 052b C1       		.byte	0xc1
 1358 052c 1A040000 		.4byte	0x41a
 1359 0530 34010000 		.4byte	.LLST8
 1360 0534 00       		.byte	0x0
 1361 0535 16       		.uleb128 0x16
 1362 0536 01       		.byte	0x1
 1363 0537 51020000 		.4byte	.LASF66
 1364 053b 01       		.byte	0x1
 1365 053c 81       		.byte	0x81
 1366 053d 01       		.byte	0x1
 1367 053e 7A020000 		.4byte	0x27a
 1368 0542 00000000 		.4byte	.LFB9
 1369 0546 7E000000 		.4byte	.LFE9
 1370 054a 47010000 		.4byte	.LLST9
 1371 054e 97050000 		.4byte	0x597
 1372 0552 17       		.uleb128 0x17
 1373 0553 5D000000 		.4byte	.LASF63
 1374 0557 01       		.byte	0x1
 1375 0558 81       		.byte	0x81
 1376 0559 1A040000 		.4byte	0x41a
 1377 055d 66010000 		.4byte	.LLST10
 1378 0561 17       		.uleb128 0x17
 1379 0562 65010000 		.4byte	.LASF58
 1380 0566 01       		.byte	0x1
 1381 0567 81       		.byte	0x81
 1382 0568 30000000 		.4byte	0x30
 1383 056c 84010000 		.4byte	.LLST11
 1384 0570 19       		.uleb128 0x19
 1385 0571 717000   		.ascii	"qp\000"
 1386 0574 01       		.byte	0x1
 1387 0575 82       		.byte	0x82
 1388 0576 14040000 		.4byte	0x414
 1389 057a A2010000 		.4byte	.LLST12
 1390 057e 18       		.uleb128 0x18
 1391 057f 687000   		.ascii	"hp\000"
 1392 0582 01       		.byte	0x1
 1393 0583 82       		.byte	0x82
 1394 0584 14040000 		.4byte	0x414
 1395 0588 19       		.uleb128 0x19
 1396 0589 667000   		.ascii	"fp\000"
 1397 058c 01       		.byte	0x1
 1398 058d 82       		.byte	0x82
 1399 058e 14040000 		.4byte	0x414
 1400 0592 E1010000 		.4byte	.LLST13
 1401 0596 00       		.byte	0x0
 1402 0597 1E       		.uleb128 0x1e
 1403 0598 01       		.byte	0x1
 1404 0599 63000000 		.4byte	.LASF68
 1405 059d 01       		.byte	0x1
 1406 059e 60       		.byte	0x60
 1407 059f 01       		.byte	0x1
 1408 05a0 00000000 		.4byte	.LFB8
 1409 05a4 14000000 		.4byte	.LFE8
 1410 05a8 01       		.byte	0x1
 1411 05a9 5D       		.byte	0x5d
 1412 05aa E6050000 		.4byte	0x5e6
ARM GAS  /tmp/cc2gRl7N.s 			page 26


 1413 05ae 17       		.uleb128 0x17
 1414 05af 5D000000 		.4byte	.LASF63
 1415 05b3 01       		.byte	0x1
 1416 05b4 60       		.byte	0x60
 1417 05b5 1A040000 		.4byte	0x41a
 1418 05b9 F4010000 		.4byte	.LLST15
 1419 05bd 1B       		.uleb128 0x1b
 1420 05be 62756600 		.ascii	"buf\000"
 1421 05c2 01       		.byte	0x1
 1422 05c3 60       		.byte	0x60
 1423 05c4 7A020000 		.4byte	0x27a
 1424 05c8 07020000 		.4byte	.LLST16
 1425 05cc 17       		.uleb128 0x17
 1426 05cd 65010000 		.4byte	.LASF58
 1427 05d1 01       		.byte	0x1
 1428 05d2 60       		.byte	0x60
 1429 05d3 30000000 		.4byte	0x30
 1430 05d7 1A020000 		.4byte	.LLST17
 1431 05db 18       		.uleb128 0x18
 1432 05dc 687000   		.ascii	"hp\000"
 1433 05df 01       		.byte	0x1
 1434 05e0 61       		.byte	0x61
 1435 05e1 14040000 		.4byte	0x414
 1436 05e5 00       		.byte	0x0
 1437 05e6 1F       		.uleb128 0x1f
 1438 05e7 01       		.byte	0x1
 1439 05e8 0F010000 		.4byte	.LASF74
 1440 05ec 01       		.byte	0x1
 1441 05ed 4A       		.byte	0x4a
 1442 05ee 01       		.byte	0x1
 1443 05ef 00000000 		.4byte	.LFB7
 1444 05f3 20000000 		.4byte	.LFE7
 1445 05f7 01       		.byte	0x1
 1446 05f8 5D       		.byte	0x5d
 1447 05f9 20       		.uleb128 0x20
 1448 05fa 76020000 		.4byte	.LASF69
 1449 05fe 01       		.byte	0x1
 1450 05ff 43       		.byte	0x43
 1451 0600 92030000 		.4byte	0x392
 1452 0604 05       		.byte	0x5
 1453 0605 03       		.byte	0x3
 1454 0606 00000000 		.4byte	default_heap
 1455 060a 00       		.byte	0x0
 1456              		.section	.debug_abbrev
 1457 0000 01       		.uleb128 0x1
 1458 0001 11       		.uleb128 0x11
 1459 0002 01       		.byte	0x1
 1460 0003 25       		.uleb128 0x25
 1461 0004 0E       		.uleb128 0xe
 1462 0005 13       		.uleb128 0x13
 1463 0006 0B       		.uleb128 0xb
 1464 0007 03       		.uleb128 0x3
 1465 0008 0E       		.uleb128 0xe
 1466 0009 1B       		.uleb128 0x1b
 1467 000a 0E       		.uleb128 0xe
 1468 000b 11       		.uleb128 0x11
 1469 000c 01       		.uleb128 0x1
ARM GAS  /tmp/cc2gRl7N.s 			page 27


 1470 000d 52       		.uleb128 0x52
 1471 000e 01       		.uleb128 0x1
 1472 000f 55       		.uleb128 0x55
 1473 0010 06       		.uleb128 0x6
 1474 0011 10       		.uleb128 0x10
 1475 0012 06       		.uleb128 0x6
 1476 0013 00       		.byte	0x0
 1477 0014 00       		.byte	0x0
 1478 0015 02       		.uleb128 0x2
 1479 0016 24       		.uleb128 0x24
 1480 0017 00       		.byte	0x0
 1481 0018 0B       		.uleb128 0xb
 1482 0019 0B       		.uleb128 0xb
 1483 001a 3E       		.uleb128 0x3e
 1484 001b 0B       		.uleb128 0xb
 1485 001c 03       		.uleb128 0x3
 1486 001d 08       		.uleb128 0x8
 1487 001e 00       		.byte	0x0
 1488 001f 00       		.byte	0x0
 1489 0020 03       		.uleb128 0x3
 1490 0021 16       		.uleb128 0x16
 1491 0022 00       		.byte	0x0
 1492 0023 03       		.uleb128 0x3
 1493 0024 0E       		.uleb128 0xe
 1494 0025 3A       		.uleb128 0x3a
 1495 0026 0B       		.uleb128 0xb
 1496 0027 3B       		.uleb128 0x3b
 1497 0028 0B       		.uleb128 0xb
 1498 0029 49       		.uleb128 0x49
 1499 002a 13       		.uleb128 0x13
 1500 002b 00       		.byte	0x0
 1501 002c 00       		.byte	0x0
 1502 002d 04       		.uleb128 0x4
 1503 002e 24       		.uleb128 0x24
 1504 002f 00       		.byte	0x0
 1505 0030 0B       		.uleb128 0xb
 1506 0031 0B       		.uleb128 0xb
 1507 0032 3E       		.uleb128 0x3e
 1508 0033 0B       		.uleb128 0xb
 1509 0034 03       		.uleb128 0x3
 1510 0035 0E       		.uleb128 0xe
 1511 0036 00       		.byte	0x0
 1512 0037 00       		.byte	0x0
 1513 0038 05       		.uleb128 0x5
 1514 0039 13       		.uleb128 0x13
 1515 003a 01       		.byte	0x1
 1516 003b 03       		.uleb128 0x3
 1517 003c 0E       		.uleb128 0xe
 1518 003d 0B       		.uleb128 0xb
 1519 003e 0B       		.uleb128 0xb
 1520 003f 3A       		.uleb128 0x3a
 1521 0040 0B       		.uleb128 0xb
 1522 0041 3B       		.uleb128 0x3b
 1523 0042 0B       		.uleb128 0xb
 1524 0043 01       		.uleb128 0x1
 1525 0044 13       		.uleb128 0x13
 1526 0045 00       		.byte	0x0
ARM GAS  /tmp/cc2gRl7N.s 			page 28


 1527 0046 00       		.byte	0x0
 1528 0047 06       		.uleb128 0x6
 1529 0048 0D       		.uleb128 0xd
 1530 0049 00       		.byte	0x0
 1531 004a 03       		.uleb128 0x3
 1532 004b 0E       		.uleb128 0xe
 1533 004c 3A       		.uleb128 0x3a
 1534 004d 0B       		.uleb128 0xb
 1535 004e 3B       		.uleb128 0x3b
 1536 004f 0B       		.uleb128 0xb
 1537 0050 49       		.uleb128 0x49
 1538 0051 13       		.uleb128 0x13
 1539 0052 38       		.uleb128 0x38
 1540 0053 0A       		.uleb128 0xa
 1541 0054 00       		.byte	0x0
 1542 0055 00       		.byte	0x0
 1543 0056 07       		.uleb128 0x7
 1544 0057 0D       		.uleb128 0xd
 1545 0058 00       		.byte	0x0
 1546 0059 03       		.uleb128 0x3
 1547 005a 08       		.uleb128 0x8
 1548 005b 3A       		.uleb128 0x3a
 1549 005c 0B       		.uleb128 0xb
 1550 005d 3B       		.uleb128 0x3b
 1551 005e 0B       		.uleb128 0xb
 1552 005f 49       		.uleb128 0x49
 1553 0060 13       		.uleb128 0x13
 1554 0061 38       		.uleb128 0x38
 1555 0062 0A       		.uleb128 0xa
 1556 0063 00       		.byte	0x0
 1557 0064 00       		.byte	0x0
 1558 0065 08       		.uleb128 0x8
 1559 0066 13       		.uleb128 0x13
 1560 0067 01       		.byte	0x1
 1561 0068 0B       		.uleb128 0xb
 1562 0069 0B       		.uleb128 0xb
 1563 006a 3A       		.uleb128 0x3a
 1564 006b 0B       		.uleb128 0xb
 1565 006c 3B       		.uleb128 0x3b
 1566 006d 0B       		.uleb128 0xb
 1567 006e 01       		.uleb128 0x1
 1568 006f 13       		.uleb128 0x13
 1569 0070 00       		.byte	0x0
 1570 0071 00       		.byte	0x0
 1571 0072 09       		.uleb128 0x9
 1572 0073 0F       		.uleb128 0xf
 1573 0074 00       		.byte	0x0
 1574 0075 0B       		.uleb128 0xb
 1575 0076 0B       		.uleb128 0xb
 1576 0077 49       		.uleb128 0x49
 1577 0078 13       		.uleb128 0x13
 1578 0079 00       		.byte	0x0
 1579 007a 00       		.byte	0x0
 1580 007b 0A       		.uleb128 0xa
 1581 007c 24       		.uleb128 0x24
 1582 007d 00       		.byte	0x0
 1583 007e 0B       		.uleb128 0xb
ARM GAS  /tmp/cc2gRl7N.s 			page 29


 1584 007f 0B       		.uleb128 0xb
 1585 0080 3E       		.uleb128 0x3e
 1586 0081 0B       		.uleb128 0xb
 1587 0082 00       		.byte	0x0
 1588 0083 00       		.byte	0x0
 1589 0084 0B       		.uleb128 0xb
 1590 0085 16       		.uleb128 0x16
 1591 0086 00       		.byte	0x0
 1592 0087 03       		.uleb128 0x3
 1593 0088 0E       		.uleb128 0xe
 1594 0089 3A       		.uleb128 0x3a
 1595 008a 0B       		.uleb128 0xb
 1596 008b 3B       		.uleb128 0x3b
 1597 008c 05       		.uleb128 0x5
 1598 008d 49       		.uleb128 0x49
 1599 008e 13       		.uleb128 0x13
 1600 008f 00       		.byte	0x0
 1601 0090 00       		.byte	0x0
 1602 0091 0C       		.uleb128 0xc
 1603 0092 0F       		.uleb128 0xf
 1604 0093 00       		.byte	0x0
 1605 0094 0B       		.uleb128 0xb
 1606 0095 0B       		.uleb128 0xb
 1607 0096 00       		.byte	0x0
 1608 0097 00       		.byte	0x0
 1609 0098 0D       		.uleb128 0xd
 1610 0099 13       		.uleb128 0x13
 1611 009a 01       		.byte	0x1
 1612 009b 03       		.uleb128 0x3
 1613 009c 0E       		.uleb128 0xe
 1614 009d 0B       		.uleb128 0xb
 1615 009e 0B       		.uleb128 0xb
 1616 009f 3A       		.uleb128 0x3a
 1617 00a0 0B       		.uleb128 0xb
 1618 00a1 3B       		.uleb128 0x3b
 1619 00a2 05       		.uleb128 0x5
 1620 00a3 01       		.uleb128 0x1
 1621 00a4 13       		.uleb128 0x13
 1622 00a5 00       		.byte	0x0
 1623 00a6 00       		.byte	0x0
 1624 00a7 0E       		.uleb128 0xe
 1625 00a8 0D       		.uleb128 0xd
 1626 00a9 00       		.byte	0x0
 1627 00aa 03       		.uleb128 0x3
 1628 00ab 08       		.uleb128 0x8
 1629 00ac 3A       		.uleb128 0x3a
 1630 00ad 0B       		.uleb128 0xb
 1631 00ae 3B       		.uleb128 0x3b
 1632 00af 05       		.uleb128 0x5
 1633 00b0 49       		.uleb128 0x49
 1634 00b1 13       		.uleb128 0x13
 1635 00b2 38       		.uleb128 0x38
 1636 00b3 0A       		.uleb128 0xa
 1637 00b4 00       		.byte	0x0
 1638 00b5 00       		.byte	0x0
 1639 00b6 0F       		.uleb128 0xf
 1640 00b7 35       		.uleb128 0x35
ARM GAS  /tmp/cc2gRl7N.s 			page 30


 1641 00b8 00       		.byte	0x0
 1642 00b9 49       		.uleb128 0x49
 1643 00ba 13       		.uleb128 0x13
 1644 00bb 00       		.byte	0x0
 1645 00bc 00       		.byte	0x0
 1646 00bd 10       		.uleb128 0x10
 1647 00be 15       		.uleb128 0x15
 1648 00bf 01       		.byte	0x1
 1649 00c0 27       		.uleb128 0x27
 1650 00c1 0C       		.uleb128 0xc
 1651 00c2 49       		.uleb128 0x49
 1652 00c3 13       		.uleb128 0x13
 1653 00c4 01       		.uleb128 0x1
 1654 00c5 13       		.uleb128 0x13
 1655 00c6 00       		.byte	0x0
 1656 00c7 00       		.byte	0x0
 1657 00c8 11       		.uleb128 0x11
 1658 00c9 05       		.uleb128 0x5
 1659 00ca 00       		.byte	0x0
 1660 00cb 49       		.uleb128 0x49
 1661 00cc 13       		.uleb128 0x13
 1662 00cd 00       		.byte	0x0
 1663 00ce 00       		.byte	0x0
 1664 00cf 12       		.uleb128 0x12
 1665 00d0 17       		.uleb128 0x17
 1666 00d1 01       		.byte	0x1
 1667 00d2 0B       		.uleb128 0xb
 1668 00d3 0B       		.uleb128 0xb
 1669 00d4 3A       		.uleb128 0x3a
 1670 00d5 0B       		.uleb128 0xb
 1671 00d6 3B       		.uleb128 0x3b
 1672 00d7 0B       		.uleb128 0xb
 1673 00d8 01       		.uleb128 0x1
 1674 00d9 13       		.uleb128 0x13
 1675 00da 00       		.byte	0x0
 1676 00db 00       		.byte	0x0
 1677 00dc 13       		.uleb128 0x13
 1678 00dd 0D       		.uleb128 0xd
 1679 00de 00       		.byte	0x0
 1680 00df 03       		.uleb128 0x3
 1681 00e0 0E       		.uleb128 0xe
 1682 00e1 3A       		.uleb128 0x3a
 1683 00e2 0B       		.uleb128 0xb
 1684 00e3 3B       		.uleb128 0x3b
 1685 00e4 0B       		.uleb128 0xb
 1686 00e5 49       		.uleb128 0x49
 1687 00e6 13       		.uleb128 0x13
 1688 00e7 00       		.byte	0x0
 1689 00e8 00       		.byte	0x0
 1690 00e9 14       		.uleb128 0x14
 1691 00ea 17       		.uleb128 0x17
 1692 00eb 01       		.byte	0x1
 1693 00ec 03       		.uleb128 0x3
 1694 00ed 0E       		.uleb128 0xe
 1695 00ee 0B       		.uleb128 0xb
 1696 00ef 0B       		.uleb128 0xb
 1697 00f0 3A       		.uleb128 0x3a
ARM GAS  /tmp/cc2gRl7N.s 			page 31


 1698 00f1 0B       		.uleb128 0xb
 1699 00f2 3B       		.uleb128 0x3b
 1700 00f3 0B       		.uleb128 0xb
 1701 00f4 01       		.uleb128 0x1
 1702 00f5 13       		.uleb128 0x13
 1703 00f6 00       		.byte	0x0
 1704 00f7 00       		.byte	0x0
 1705 00f8 15       		.uleb128 0x15
 1706 00f9 0D       		.uleb128 0xd
 1707 00fa 00       		.byte	0x0
 1708 00fb 03       		.uleb128 0x3
 1709 00fc 08       		.uleb128 0x8
 1710 00fd 3A       		.uleb128 0x3a
 1711 00fe 0B       		.uleb128 0xb
 1712 00ff 3B       		.uleb128 0x3b
 1713 0100 0B       		.uleb128 0xb
 1714 0101 49       		.uleb128 0x49
 1715 0102 13       		.uleb128 0x13
 1716 0103 00       		.byte	0x0
 1717 0104 00       		.byte	0x0
 1718 0105 16       		.uleb128 0x16
 1719 0106 2E       		.uleb128 0x2e
 1720 0107 01       		.byte	0x1
 1721 0108 3F       		.uleb128 0x3f
 1722 0109 0C       		.uleb128 0xc
 1723 010a 03       		.uleb128 0x3
 1724 010b 0E       		.uleb128 0xe
 1725 010c 3A       		.uleb128 0x3a
 1726 010d 0B       		.uleb128 0xb
 1727 010e 3B       		.uleb128 0x3b
 1728 010f 0B       		.uleb128 0xb
 1729 0110 27       		.uleb128 0x27
 1730 0111 0C       		.uleb128 0xc
 1731 0112 49       		.uleb128 0x49
 1732 0113 13       		.uleb128 0x13
 1733 0114 11       		.uleb128 0x11
 1734 0115 01       		.uleb128 0x1
 1735 0116 12       		.uleb128 0x12
 1736 0117 01       		.uleb128 0x1
 1737 0118 40       		.uleb128 0x40
 1738 0119 06       		.uleb128 0x6
 1739 011a 01       		.uleb128 0x1
 1740 011b 13       		.uleb128 0x13
 1741 011c 00       		.byte	0x0
 1742 011d 00       		.byte	0x0
 1743 011e 17       		.uleb128 0x17
 1744 011f 05       		.uleb128 0x5
 1745 0120 00       		.byte	0x0
 1746 0121 03       		.uleb128 0x3
 1747 0122 0E       		.uleb128 0xe
 1748 0123 3A       		.uleb128 0x3a
 1749 0124 0B       		.uleb128 0xb
 1750 0125 3B       		.uleb128 0x3b
 1751 0126 0B       		.uleb128 0xb
 1752 0127 49       		.uleb128 0x49
 1753 0128 13       		.uleb128 0x13
 1754 0129 02       		.uleb128 0x2
ARM GAS  /tmp/cc2gRl7N.s 			page 32


 1755 012a 06       		.uleb128 0x6
 1756 012b 00       		.byte	0x0
 1757 012c 00       		.byte	0x0
 1758 012d 18       		.uleb128 0x18
 1759 012e 34       		.uleb128 0x34
 1760 012f 00       		.byte	0x0
 1761 0130 03       		.uleb128 0x3
 1762 0131 08       		.uleb128 0x8
 1763 0132 3A       		.uleb128 0x3a
 1764 0133 0B       		.uleb128 0xb
 1765 0134 3B       		.uleb128 0x3b
 1766 0135 0B       		.uleb128 0xb
 1767 0136 49       		.uleb128 0x49
 1768 0137 13       		.uleb128 0x13
 1769 0138 00       		.byte	0x0
 1770 0139 00       		.byte	0x0
 1771 013a 19       		.uleb128 0x19
 1772 013b 34       		.uleb128 0x34
 1773 013c 00       		.byte	0x0
 1774 013d 03       		.uleb128 0x3
 1775 013e 08       		.uleb128 0x8
 1776 013f 3A       		.uleb128 0x3a
 1777 0140 0B       		.uleb128 0xb
 1778 0141 3B       		.uleb128 0x3b
 1779 0142 0B       		.uleb128 0xb
 1780 0143 49       		.uleb128 0x49
 1781 0144 13       		.uleb128 0x13
 1782 0145 02       		.uleb128 0x2
 1783 0146 06       		.uleb128 0x6
 1784 0147 00       		.byte	0x0
 1785 0148 00       		.byte	0x0
 1786 0149 1A       		.uleb128 0x1a
 1787 014a 2E       		.uleb128 0x2e
 1788 014b 01       		.byte	0x1
 1789 014c 3F       		.uleb128 0x3f
 1790 014d 0C       		.uleb128 0xc
 1791 014e 03       		.uleb128 0x3
 1792 014f 0E       		.uleb128 0xe
 1793 0150 3A       		.uleb128 0x3a
 1794 0151 0B       		.uleb128 0xb
 1795 0152 3B       		.uleb128 0x3b
 1796 0153 0B       		.uleb128 0xb
 1797 0154 27       		.uleb128 0x27
 1798 0155 0C       		.uleb128 0xc
 1799 0156 11       		.uleb128 0x11
 1800 0157 01       		.uleb128 0x1
 1801 0158 12       		.uleb128 0x12
 1802 0159 01       		.uleb128 0x1
 1803 015a 40       		.uleb128 0x40
 1804 015b 06       		.uleb128 0x6
 1805 015c 01       		.uleb128 0x1
 1806 015d 13       		.uleb128 0x13
 1807 015e 00       		.byte	0x0
 1808 015f 00       		.byte	0x0
 1809 0160 1B       		.uleb128 0x1b
 1810 0161 05       		.uleb128 0x5
 1811 0162 00       		.byte	0x0
ARM GAS  /tmp/cc2gRl7N.s 			page 33


 1812 0163 03       		.uleb128 0x3
 1813 0164 08       		.uleb128 0x8
 1814 0165 3A       		.uleb128 0x3a
 1815 0166 0B       		.uleb128 0xb
 1816 0167 3B       		.uleb128 0x3b
 1817 0168 0B       		.uleb128 0xb
 1818 0169 49       		.uleb128 0x49
 1819 016a 13       		.uleb128 0x13
 1820 016b 02       		.uleb128 0x2
 1821 016c 06       		.uleb128 0x6
 1822 016d 00       		.byte	0x0
 1823 016e 00       		.byte	0x0
 1824 016f 1C       		.uleb128 0x1c
 1825 0170 34       		.uleb128 0x34
 1826 0171 00       		.byte	0x0
 1827 0172 03       		.uleb128 0x3
 1828 0173 08       		.uleb128 0x8
 1829 0174 3A       		.uleb128 0x3a
 1830 0175 0B       		.uleb128 0xb
 1831 0176 3B       		.uleb128 0x3b
 1832 0177 0B       		.uleb128 0xb
 1833 0178 49       		.uleb128 0x49
 1834 0179 13       		.uleb128 0x13
 1835 017a 02       		.uleb128 0x2
 1836 017b 0A       		.uleb128 0xa
 1837 017c 00       		.byte	0x0
 1838 017d 00       		.byte	0x0
 1839 017e 1D       		.uleb128 0x1d
 1840 017f 34       		.uleb128 0x34
 1841 0180 00       		.byte	0x0
 1842 0181 03       		.uleb128 0x3
 1843 0182 0E       		.uleb128 0xe
 1844 0183 3A       		.uleb128 0x3a
 1845 0184 0B       		.uleb128 0xb
 1846 0185 3B       		.uleb128 0x3b
 1847 0186 0B       		.uleb128 0xb
 1848 0187 49       		.uleb128 0x49
 1849 0188 13       		.uleb128 0x13
 1850 0189 02       		.uleb128 0x2
 1851 018a 06       		.uleb128 0x6
 1852 018b 00       		.byte	0x0
 1853 018c 00       		.byte	0x0
 1854 018d 1E       		.uleb128 0x1e
 1855 018e 2E       		.uleb128 0x2e
 1856 018f 01       		.byte	0x1
 1857 0190 3F       		.uleb128 0x3f
 1858 0191 0C       		.uleb128 0xc
 1859 0192 03       		.uleb128 0x3
 1860 0193 0E       		.uleb128 0xe
 1861 0194 3A       		.uleb128 0x3a
 1862 0195 0B       		.uleb128 0xb
 1863 0196 3B       		.uleb128 0x3b
 1864 0197 0B       		.uleb128 0xb
 1865 0198 27       		.uleb128 0x27
 1866 0199 0C       		.uleb128 0xc
 1867 019a 11       		.uleb128 0x11
 1868 019b 01       		.uleb128 0x1
ARM GAS  /tmp/cc2gRl7N.s 			page 34


 1869 019c 12       		.uleb128 0x12
 1870 019d 01       		.uleb128 0x1
 1871 019e 40       		.uleb128 0x40
 1872 019f 0A       		.uleb128 0xa
 1873 01a0 01       		.uleb128 0x1
 1874 01a1 13       		.uleb128 0x13
 1875 01a2 00       		.byte	0x0
 1876 01a3 00       		.byte	0x0
 1877 01a4 1F       		.uleb128 0x1f
 1878 01a5 2E       		.uleb128 0x2e
 1879 01a6 00       		.byte	0x0
 1880 01a7 3F       		.uleb128 0x3f
 1881 01a8 0C       		.uleb128 0xc
 1882 01a9 03       		.uleb128 0x3
 1883 01aa 0E       		.uleb128 0xe
 1884 01ab 3A       		.uleb128 0x3a
 1885 01ac 0B       		.uleb128 0xb
 1886 01ad 3B       		.uleb128 0x3b
 1887 01ae 0B       		.uleb128 0xb
 1888 01af 27       		.uleb128 0x27
 1889 01b0 0C       		.uleb128 0xc
 1890 01b1 11       		.uleb128 0x11
 1891 01b2 01       		.uleb128 0x1
 1892 01b3 12       		.uleb128 0x12
 1893 01b4 01       		.uleb128 0x1
 1894 01b5 40       		.uleb128 0x40
 1895 01b6 0A       		.uleb128 0xa
 1896 01b7 00       		.byte	0x0
 1897 01b8 00       		.byte	0x0
 1898 01b9 20       		.uleb128 0x20
 1899 01ba 34       		.uleb128 0x34
 1900 01bb 00       		.byte	0x0
 1901 01bc 03       		.uleb128 0x3
 1902 01bd 0E       		.uleb128 0xe
 1903 01be 3A       		.uleb128 0x3a
 1904 01bf 0B       		.uleb128 0xb
 1905 01c0 3B       		.uleb128 0x3b
 1906 01c1 0B       		.uleb128 0xb
 1907 01c2 49       		.uleb128 0x49
 1908 01c3 13       		.uleb128 0x13
 1909 01c4 02       		.uleb128 0x2
 1910 01c5 0A       		.uleb128 0xa
 1911 01c6 00       		.byte	0x0
 1912 01c7 00       		.byte	0x0
 1913 01c8 00       		.byte	0x0
 1914              		.section	.debug_pubnames,"",%progbits
 1915 0000 5B000000 		.4byte	0x5b
 1916 0004 0200     		.2byte	0x2
 1917 0006 00000000 		.4byte	.Ldebug_info0
 1918 000a 0B060000 		.4byte	0x60b
 1919 000e 7E040000 		.4byte	0x47e
 1920 0012 63684865 		.ascii	"chHeapStatus\000"
 1920      61705374 
 1920      61747573 
 1920      00
 1921 001f E5040000 		.4byte	0x4e5
 1922 0023 63684865 		.ascii	"chHeapFree\000"
ARM GAS  /tmp/cc2gRl7N.s 			page 35


 1922      61704672 
 1922      656500
 1923 002e 35050000 		.4byte	0x535
 1924 0032 63684865 		.ascii	"chHeapAlloc\000"
 1924      6170416C 
 1924      6C6F6300 
 1925 003e 97050000 		.4byte	0x597
 1926 0042 63684865 		.ascii	"chHeapInit\000"
 1926      6170496E 
 1926      697400
 1927 004d E6050000 		.4byte	0x5e6
 1928 0051 68656170 		.ascii	"heap_init\000"
 1928      5F696E69 
 1928      7400
 1929 005b 00000000 		.4byte	0x0
 1930              		.section	.debug_aranges,"",%progbits
 1931 0000 3C000000 		.4byte	0x3c
 1932 0004 0200     		.2byte	0x2
 1933 0006 00000000 		.4byte	.Ldebug_info0
 1934 000a 04       		.byte	0x4
 1935 000b 00       		.byte	0x0
 1936 000c 0000     		.2byte	0x0
 1937 000e 0000     		.2byte	0x0
 1938 0010 00000000 		.4byte	.LFB11
 1939 0014 40000000 		.4byte	.LFE11-.LFB11
 1940 0018 00000000 		.4byte	.LFB10
 1941 001c A2000000 		.4byte	.LFE10-.LFB10
 1942 0020 00000000 		.4byte	.LFB9
 1943 0024 7E000000 		.4byte	.LFE9-.LFB9
 1944 0028 00000000 		.4byte	.LFB8
 1945 002c 14000000 		.4byte	.LFE8-.LFB8
 1946 0030 00000000 		.4byte	.LFB7
 1947 0034 20000000 		.4byte	.LFE7-.LFB7
 1948 0038 00000000 		.4byte	0x0
 1949 003c 00000000 		.4byte	0x0
 1950              		.section	.debug_ranges,"",%progbits
 1951              	.Ldebug_ranges0:
 1952 0000 00000000 		.4byte	.Ltext0
 1953 0004 00000000 		.4byte	.Letext0
 1954 0008 00000000 		.4byte	.LFB11
 1955 000c 40000000 		.4byte	.LFE11
 1956 0010 00000000 		.4byte	.LFB10
 1957 0014 A2000000 		.4byte	.LFE10
 1958 0018 00000000 		.4byte	.LFB9
 1959 001c 7E000000 		.4byte	.LFE9
 1960 0020 00000000 		.4byte	.LFB8
 1961 0024 14000000 		.4byte	.LFE8
 1962 0028 00000000 		.4byte	.LFB7
 1963 002c 20000000 		.4byte	.LFE7
 1964 0030 00000000 		.4byte	0x0
 1965 0034 00000000 		.4byte	0x0
 1966              		.section	.debug_str,"MS",%progbits,1
 1967              	.LASF34:
 1968 0000 705F6D73 		.ascii	"p_msg\000"
 1968      6700
 1969              	.LASF2:
 1970 0006 73697A65 		.ascii	"size_t\000"
ARM GAS  /tmp/cc2gRl7N.s 			page 36


 1970      5F7400
 1971              	.LASF59:
 1972 000d 7264796D 		.ascii	"rdymsg\000"
 1972      736700
 1973              	.LASF12:
 1974 0014 75696E74 		.ascii	"uint64_t\000"
 1974      36345F74 
 1974      00
 1975              	.LASF49:
 1976 001d 6D656D67 		.ascii	"memgetfunc_t\000"
 1976      65746675 
 1976      6E635F74 
 1976      00
 1977              	.LASF13:
 1978 002a 6C6F6E67 		.ascii	"long long unsigned int\000"
 1978      206C6F6E 
 1978      6720756E 
 1978      7369676E 
 1978      65642069 
 1979              	.LASF60:
 1980 0041 65786974 		.ascii	"exitcode\000"
 1980      636F6465 
 1980      00
 1981              	.LASF53:
 1982 004a 685F6672 		.ascii	"h_free\000"
 1982      656500
 1983              	.LASF70:
 1984 0051 474E5520 		.ascii	"GNU C 4.4.1\000"
 1984      4320342E 
 1984      342E3100 
 1985              	.LASF63:
 1986 005d 68656170 		.ascii	"heapp\000"
 1986      7000
 1987              	.LASF68:
 1988 0063 63684865 		.ascii	"chHeapInit\000"
 1988      6170496E 
 1988      697400
 1989              	.LASF55:
 1990 006e 6E657874 		.ascii	"next\000"
 1990      00
 1991              	.LASF24:
 1992 0073 705F7072 		.ascii	"p_prio\000"
 1992      696F00
 1993              	.LASF72:
 1994 007a 2F686F6D 		.ascii	"/home/dan/Downloads/ChibiOS_2.2.3/demos/ARMCM3-STM3"
 1994      652F6461 
 1994      6E2F446F 
 1994      776E6C6F 
 1994      6164732F 
 1995 00ad 32463130 		.ascii	"2F103\000"
 1995      3300
 1996              	.LASF1:
 1997 00b3 7369676E 		.ascii	"signed char\000"
 1997      65642063 
 1997      68617200 
 1998              	.LASF54:
 1999 00bf 685F6D74 		.ascii	"h_mtx\000"
ARM GAS  /tmp/cc2gRl7N.s 			page 37


 1999      7800
 2000              	.LASF38:
 2001 00c5 705F6D70 		.ascii	"p_mpool\000"
 2001      6F6F6C00 
 2002              	.LASF46:
 2003 00cd 6D5F7175 		.ascii	"m_queue\000"
 2003      65756500 
 2004              	.LASF67:
 2005 00d5 63684865 		.ascii	"chHeapFree\000"
 2005      61704672 
 2005      656500
 2006              	.LASF8:
 2007 00e0 6C6F6E67 		.ascii	"long int\000"
 2007      20696E74 
 2007      00
 2008              	.LASF71:
 2009 00e9 2E2E2F2E 		.ascii	"../../os/kernel/src/chheap.c\000"
 2009      2E2F6F73 
 2009      2F6B6572 
 2009      6E656C2F 
 2009      7372632F 
 2010              	.LASF15:
 2011 0106 74737461 		.ascii	"tstate_t\000"
 2011      74655F74 
 2011      00
 2012              	.LASF74:
 2013 010f 68656170 		.ascii	"heap_init\000"
 2013      5F696E69 
 2013      7400
 2014              	.LASF11:
 2015 0119 6C6F6E67 		.ascii	"long long int\000"
 2015      206C6F6E 
 2015      6720696E 
 2015      7400
 2016              	.LASF26:
 2017 0127 705F6E65 		.ascii	"p_newer\000"
 2017      77657200 
 2018              	.LASF42:
 2019 012f 72656761 		.ascii	"regarm_t\000"
 2019      726D5F74 
 2019      00
 2020              	.LASF57:
 2021 0138 616C6967 		.ascii	"align\000"
 2021      6E00
 2022              	.LASF0:
 2023 013e 756E7369 		.ascii	"unsigned int\000"
 2023      676E6564 
 2023      20696E74 
 2023      00
 2024              	.LASF10:
 2025 014b 6C6F6E67 		.ascii	"long unsigned int\000"
 2025      20756E73 
 2025      69676E65 
 2025      6420696E 
 2025      7400
 2026              	.LASF43:
 2027 015d 636F6E74 		.ascii	"context\000"
ARM GAS  /tmp/cc2gRl7N.s 			page 38


 2027      65787400 
 2028              	.LASF58:
 2029 0165 73697A65 		.ascii	"size\000"
 2029      00
 2030              	.LASF6:
 2031 016a 73686F72 		.ascii	"short unsigned int\000"
 2031      7420756E 
 2031      7369676E 
 2031      65642069 
 2031      6E7400
 2032              	.LASF18:
 2033 017d 6D73675F 		.ascii	"msg_t\000"
 2033      7400
 2034              	.LASF14:
 2035 0183 746D6F64 		.ascii	"tmode_t\000"
 2035      655F7400 
 2036              	.LASF40:
 2037 018b 54687265 		.ascii	"ThreadsList\000"
 2037      6164734C 
 2037      69737400 
 2038              	.LASF19:
 2039 0197 6576656E 		.ascii	"eventmask_t\000"
 2039      746D6173 
 2039      6B5F7400 
 2040              	.LASF45:
 2041 01a3 4D757465 		.ascii	"Mutex\000"
 2041      7800
 2042              	.LASF41:
 2043 01a9 73746B61 		.ascii	"stkalign_t\000"
 2043      6C69676E 
 2043      5F7400
 2044              	.LASF27:
 2045 01b4 705F6F6C 		.ascii	"p_older\000"
 2045      64657200 
 2046              	.LASF39:
 2047 01bc 54687265 		.ascii	"ThreadsQueue\000"
 2047      61647351 
 2047      75657565 
 2047      00
 2048              	.LASF50:
 2049 01c9 4D656D6F 		.ascii	"MemoryHeap\000"
 2049      72794865 
 2049      617000
 2050              	.LASF16:
 2051 01d4 74726566 		.ascii	"trefs_t\000"
 2051      735F7400 
 2052              	.LASF23:
 2053 01dc 705F7072 		.ascii	"p_prev\000"
 2053      657600
 2054              	.LASF17:
 2055 01e3 74707269 		.ascii	"tprio_t\000"
 2055      6F5F7400 
 2056              	.LASF7:
 2057 01eb 696E7433 		.ascii	"int32_t\000"
 2057      325F7400 
 2058              	.LASF4:
 2059 01f3 756E7369 		.ascii	"unsigned char\000"
ARM GAS  /tmp/cc2gRl7N.s 			page 39


 2059      676E6564 
 2059      20636861 
 2059      7200
 2060              	.LASF52:
 2061 0201 685F7072 		.ascii	"h_provider\000"
 2061      6F766964 
 2061      657200
 2062              	.LASF36:
 2063 020c 705F6D74 		.ascii	"p_mtxlist\000"
 2063      786C6973 
 2063      7400
 2064              	.LASF5:
 2065 0216 73686F72 		.ascii	"short int\000"
 2065      7420696E 
 2065      7400
 2066              	.LASF28:
 2067 0220 705F7374 		.ascii	"p_state\000"
 2067      61746500 
 2068              	.LASF73:
 2069 0228 68656170 		.ascii	"heap_header\000"
 2069      5F686561 
 2069      64657200 
 2070              	.LASF62:
 2071 0234 65776D61 		.ascii	"ewmask\000"
 2071      736B00
 2072              	.LASF22:
 2073 023b 705F6E65 		.ascii	"p_next\000"
 2073      787400
 2074              	.LASF29:
 2075 0242 705F666C 		.ascii	"p_flags\000"
 2075      61677300 
 2076              	.LASF21:
 2077 024a 54687265 		.ascii	"Thread\000"
 2077      616400
 2078              	.LASF66:
 2079 0251 63684865 		.ascii	"chHeapAlloc\000"
 2079      6170416C 
 2079      6C6F6300 
 2080              	.LASF35:
 2081 025d 705F6570 		.ascii	"p_epending\000"
 2081      656E6469 
 2081      6E6700
 2082              	.LASF9:
 2083 0268 75696E74 		.ascii	"uint32_t\000"
 2083      33325F74 
 2083      00
 2084              	.LASF56:
 2085 0271 68656170 		.ascii	"heap\000"
 2085      00
 2086              	.LASF69:
 2087 0276 64656661 		.ascii	"default_heap\000"
 2087      756C745F 
 2087      68656170 
 2087      00
 2088              	.LASF65:
 2089 0283 63684865 		.ascii	"chHeapStatus\000"
 2089      61705374 
ARM GAS  /tmp/cc2gRl7N.s 			page 40


 2089      61747573 
 2089      00
 2090              	.LASF48:
 2091 0290 6D5F6E65 		.ascii	"m_next\000"
 2091      787400
 2092              	.LASF20:
 2093 0297 73797374 		.ascii	"systime_t\000"
 2093      696D655F 
 2093      7400
 2094              	.LASF37:
 2095 02a1 705F7265 		.ascii	"p_realprio\000"
 2095      616C7072 
 2095      696F00
 2096              	.LASF31:
 2097 02ac 705F7469 		.ascii	"p_time\000"
 2097      6D6500
 2098              	.LASF44:
 2099 02b3 696E7463 		.ascii	"intctx\000"
 2099      747800
 2100              	.LASF33:
 2101 02ba 705F6D73 		.ascii	"p_msgqueue\000"
 2101      67717565 
 2101      756500
 2102              	.LASF30:
 2103 02c5 705F7265 		.ascii	"p_refs\000"
 2103      667300
 2104              	.LASF3:
 2105 02cc 75696E74 		.ascii	"uint8_t\000"
 2105      385F7400 
 2106              	.LASF61:
 2107 02d4 77746F62 		.ascii	"wtobjp\000"
 2107      6A7000
 2108              	.LASF64:
 2109 02db 73697A65 		.ascii	"sizep\000"
 2109      7000
 2110              	.LASF47:
 2111 02e1 6D5F6F77 		.ascii	"m_owner\000"
 2111      6E657200 
 2112              	.LASF25:
 2113 02e9 705F6374 		.ascii	"p_ctx\000"
 2113      7800
 2114              	.LASF32:
 2115 02ef 705F7761 		.ascii	"p_waiting\000"
 2115      6974696E 
 2115      6700
 2116              	.LASF51:
 2117 02f9 6D656D6F 		.ascii	"memory_heap\000"
 2117      72795F68 
 2117      65617000 
 2118              		.ident	"GCC: (Red Suite 2010Q1 by Code Red) 4.4.1"
ARM GAS  /tmp/cc2gRl7N.s 			page 41


DEFINED SYMBOLS
                            *ABS*:00000000 chheap.c
     /tmp/cc2gRl7N.s:24     .text.chHeapStatus:00000000 $t
     /tmp/cc2gRl7N.s:30     .text.chHeapStatus:00000000 chHeapStatus
     /tmp/cc2gRl7N.s:443    .bss.default_heap:00000000 .LANCHOR0
     /tmp/cc2gRl7N.s:102    .text.chHeapFree:00000000 $t
     /tmp/cc2gRl7N.s:108    .text.chHeapFree:00000000 chHeapFree
     /tmp/cc2gRl7N.s:238    .text.chHeapAlloc:00000000 $t
     /tmp/cc2gRl7N.s:244    .text.chHeapAlloc:00000000 chHeapAlloc
     /tmp/cc2gRl7N.s:367    .text.chHeapInit:00000000 $t
     /tmp/cc2gRl7N.s:373    .text.chHeapInit:00000000 chHeapInit
     /tmp/cc2gRl7N.s:406    .text.heap_init:00000000 $t
     /tmp/cc2gRl7N.s:412    .text.heap_init:00000000 heap_init
     /tmp/cc2gRl7N.s:442    .bss.default_heap:00000000 $d
     /tmp/cc2gRl7N.s:446    .bss.default_heap:00000000 default_heap
                     .debug_frame:00000010 $d

UNDEFINED SYMBOLS
chMtxLock
chMtxUnlock
chMtxInit
chCoreAlloc
