ARM GAS  /tmp/ccbFT5WC.s 			page 1


   1              		.syntax unified
   2              		.cpu cortex-m3
   3              		.fpu softvfp
   4              		.eabi_attribute 20, 1
   5              		.eabi_attribute 21, 1
   6              		.eabi_attribute 23, 3
   7              		.eabi_attribute 24, 1
   8              		.eabi_attribute 25, 1
   9              		.eabi_attribute 26, 1
  10              		.eabi_attribute 30, 2
  11              		.eabi_attribute 18, 4
  12              		.thumb
  13              		.file	"chmempools.c"
  20 0000 9F010000 		.text
  20      02001A01 
  20      00000201 
  20      FB0E0D00 
  20      01010101 
  21              	.Ltext0:
  22              		.cfi_sections	.debug_frame
  23              		.section	.text.chPoolInit,"ax",%progbits
  24              		.align	2
  25              		.p2align 4,,15
  26              		.global	chPoolInit
  27              		.thumb
  28              		.thumb_func
  29              		.type	chPoolInit, %function
  30              	chPoolInit:
  31              	.LFB7:
  32              		.file 1 "chibios/os/kernel/src/chmempools.c"
  33              		.loc 1 60 0
  34              		.cfi_startproc
  35              		@ args = 0, pretend = 0, frame = 0
  36              		@ frame_needed = 0, uses_anonymous_args = 0
  37              		@ link register save eliminated.
  38              	.LVL0:
  39              		.loc 1 65 0
  40 0000 0731     		adds	r1, r1, #7
  41              	.LVL1:
  42 0002 21F00701 		bic	r1, r1, #7
  43              	.LVL2:
  44              		.loc 1 64 0
  45 0006 0023     		movs	r3, #0
  46 0008 0360     		str	r3, [r0, #0]
  47              		.loc 1 65 0
  48 000a 4160     		str	r1, [r0, #4]
  49              		.loc 1 66 0
  50 000c 8260     		str	r2, [r0, #8]
  51              		.loc 1 67 0
  52 000e 7047     		bx	lr
  53              		.cfi_endproc
ARM GAS  /tmp/ccbFT5WC.s 			page 2


  54              	.LFE7:
  55              		.size	chPoolInit, .-chPoolInit
  56              		.section	.text.chPoolAllocI,"ax",%progbits
  57              		.align	2
  58              		.p2align 4,,15
  59              		.global	chPoolAllocI
  60              		.thumb
  61              		.thumb_func
  62              		.type	chPoolAllocI, %function
  63              	chPoolAllocI:
  64              	.LFB8:
  65              		.loc 1 78 0
  66              		.cfi_startproc
  67              		@ args = 0, pretend = 0, frame = 0
  68              		@ frame_needed = 0, uses_anonymous_args = 0
  69              	.LVL3:
  70 0000 0246     		mov	r2, r0
  71              		.loc 1 83 0
  72 0002 0068     		ldr	r0, [r0, #0]
  73              	.LVL4:
  74              		.loc 1 78 0
  75 0004 08B5     		push	{r3, lr}
  76              	.LCFI0:
  77              		.cfi_def_cfa_offset 8
  78              		.loc 1 83 0
  79 0006 10B1     		cbz	r0, .L3
  80              		.cfi_offset 14, -4
  81              		.cfi_offset 3, -8
  82              		.loc 1 84 0
  83 0008 0368     		ldr	r3, [r0, #0]
  84 000a 1360     		str	r3, [r2, #0]
  85 000c 08BD     		pop	{r3, pc}
  86              	.L3:
  87              		.loc 1 85 0
  88 000e 9368     		ldr	r3, [r2, #8]
  89 0010 0BB1     		cbz	r3, .L4
  90              		.loc 1 86 0
  91 0012 5068     		ldr	r0, [r2, #4]
  92 0014 9847     		blx	r3
  93              	.LVL5:
  94              	.L4:
  95              		.loc 1 88 0
  96 0016 08BD     		pop	{r3, pc}
  97              		.cfi_endproc
  98              	.LFE8:
  99              		.size	chPoolAllocI, .-chPoolAllocI
 100 0018 AFF30080 		.section	.text.chPoolAlloc,"ax",%progbits
 100      AFF30080 
 101              		.align	2
 102              		.p2align 4,,15
 103              		.global	chPoolAlloc
 104              		.thumb
 105              		.thumb_func
 106              		.type	chPoolAlloc, %function
 107              	chPoolAlloc:
 108              	.LFB9:
 109              		.loc 1 99 0
ARM GAS  /tmp/ccbFT5WC.s 			page 3


 110              		.cfi_startproc
 111              		@ args = 0, pretend = 0, frame = 0
 112              		@ frame_needed = 0, uses_anonymous_args = 0
 113              	.LVL6:
 114 0000 08B5     		push	{r3, lr}
 115              	.LCFI1:
 116              		.cfi_def_cfa_offset 8
 117              		.loc 1 99 0
 118 0002 0246     		mov	r2, r0
 119              	.LBB10:
 120              		.loc 1 102 0
 121 0004 2023     		movs	r3, #32
 122              		.cfi_offset 14, -4
 123              		.cfi_offset 3, -8
 124              	.LVL7:
 125              	@ 102 "chibios/os/kernel/src/chmempools.c" 1
 126 0006 83F31188 		msr     BASEPRI, r3
 127              	@ 0 "" 2
 128              	.LVL8:
 129              		.thumb
 130              	.LBE10:
 131              	.LBB11:
 132              	.LBB12:
 133              		.loc 1 83 0
 134 000a 0068     		ldr	r0, [r0, #0]
 135              	.LVL9:
 136 000c 28B1     		cbz	r0, .L7
 137              		.loc 1 84 0
 138 000e 0368     		ldr	r3, [r0, #0]
 139              	.LVL10:
 140 0010 1360     		str	r3, [r2, #0]
 141              	.LVL11:
 142              	.L8:
 143              	.LBE12:
 144              	.LBE11:
 145              	.LBB14:
 146              		.loc 1 104 0
 147 0012 0023     		movs	r3, #0
 148              	.LVL12:
 149              	@ 104 "chibios/os/kernel/src/chmempools.c" 1
 150 0014 83F31188 		msr     BASEPRI, r3
 151              	@ 0 "" 2
 152              	.LVL13:
 153              		.thumb
 154              	.LBE14:
 155              		.loc 1 106 0
 156 0018 08BD     		pop	{r3, pc}
 157              	.LVL14:
 158              	.L7:
 159              	.LBB15:
 160              	.LBB13:
 161              		.loc 1 85 0
 162 001a 9368     		ldr	r3, [r2, #8]
 163              	.LVL15:
 164 001c 002B     		cmp	r3, #0
 165 001e F8D0     		beq	.L8
 166              		.loc 1 86 0
ARM GAS  /tmp/ccbFT5WC.s 			page 4


 167 0020 5068     		ldr	r0, [r2, #4]
 168 0022 9847     		blx	r3
 169              	.LVL16:
 170              	.LBE13:
 171              	.LBE15:
 172              	.LBB16:
 173              		.loc 1 104 0
 174 0024 0023     		movs	r3, #0
 175              	@ 104 "chibios/os/kernel/src/chmempools.c" 1
 176 0026 83F31188 		msr     BASEPRI, r3
 177              	@ 0 "" 2
 178              	.LVL17:
 179              		.thumb
 180              	.LBE16:
 181              		.loc 1 106 0
 182 002a 08BD     		pop	{r3, pc}
 183              		.cfi_endproc
 184              	.LFE9:
 185              		.size	chPoolAlloc, .-chPoolAlloc
 186 002c AFF30080 		.section	.text.chPoolFreeI,"ax",%progbits
 187              		.align	2
 188              		.p2align 4,,15
 189              		.global	chPoolFreeI
 190              		.thumb
 191              		.thumb_func
 192              		.type	chPoolFreeI, %function
 193              	chPoolFreeI:
 194              	.LFB10:
 195              		.loc 1 120 0
 196              		.cfi_startproc
 197              		@ args = 0, pretend = 0, frame = 0
 198              		@ frame_needed = 0, uses_anonymous_args = 0
 199              		@ link register save eliminated.
 200              	.LVL18:
 201              		.loc 1 126 0
 202 0000 0368     		ldr	r3, [r0, #0]
 203              	.LVL19:
 204 0002 0B60     		str	r3, [r1, #0]
 205              		.loc 1 127 0
 206 0004 0160     		str	r1, [r0, #0]
 207              		.loc 1 128 0
 208 0006 7047     		bx	lr
 209              		.cfi_endproc
 210              	.LFE10:
 211              		.size	chPoolFreeI, .-chPoolFreeI
 212 0008 AFF30080 		.section	.text.chPoolFree,"ax",%progbits
 212      AFF30080 
 213              		.align	2
 214              		.p2align 4,,15
 215              		.global	chPoolFree
 216              		.thumb
 217              		.thumb_func
 218              		.type	chPoolFree, %function
 219              	chPoolFree:
 220              	.LFB11:
 221              		.loc 1 142 0
 222              		.cfi_startproc
ARM GAS  /tmp/ccbFT5WC.s 			page 5


 223              		@ args = 0, pretend = 0, frame = 0
 224              		@ frame_needed = 0, uses_anonymous_args = 0
 225              		@ link register save eliminated.
 226              	.LVL20:
 227              	.LBB17:
 228              		.loc 1 144 0
 229 0000 2023     		movs	r3, #32
 230              	.LVL21:
 231              	@ 144 "chibios/os/kernel/src/chmempools.c" 1
 232 0002 83F31188 		msr     BASEPRI, r3
 233              	@ 0 "" 2
 234              	.LVL22:
 235              		.thumb
 236              	.LBE17:
 237              	.LBB18:
 238              	.LBB19:
 239              		.loc 1 126 0
 240 0006 0268     		ldr	r2, [r0, #0]
 241              	.LBE19:
 242              	.LBE18:
 243              	.LBB21:
 244              		.loc 1 146 0
 245 0008 0023     		movs	r3, #0
 246              	.LVL23:
 247              	.LBE21:
 248              	.LBB22:
 249              	.LBB20:
 250              		.loc 1 126 0
 251 000a 0A60     		str	r2, [r1, #0]
 252              		.loc 1 127 0
 253 000c 0160     		str	r1, [r0, #0]
 254              	.LBE20:
 255              	.LBE22:
 256              	.LBB23:
 257              		.loc 1 146 0
 258              	@ 146 "chibios/os/kernel/src/chmempools.c" 1
 259 000e 83F31188 		msr     BASEPRI, r3
 260              	@ 0 "" 2
 261              	.LVL24:
 262              		.thumb
 263              	.LBE23:
 264              		.loc 1 147 0
 265 0012 7047     		bx	lr
 266              		.cfi_endproc
 267              	.LFE11:
 268              		.size	chPoolFree, .-chPoolFree
 269 0014 AFF30080 		.text
 269      AFF30080 
 269      AFF30080 
 270              	.Letext0: