ARM GAS  /tmp/cc2MeqOu.s 			page 1


   1              		.syntax unified
   2              		.cpu cortex-m3
   3              		.fpu softvfp
   4              		.eabi_attribute 20, 1
   5              		.eabi_attribute 21, 1
   6              		.eabi_attribute 23, 3
   7              		.eabi_attribute 24, 1
   8              		.eabi_attribute 25, 1
   9              		.eabi_attribute 26, 1
  10              		.eabi_attribute 30, 2
  11              		.eabi_attribute 18, 4
  12              		.thumb
  13              		.file	"chmemcore.c"
  20 0000 45010000 		.text
  20      0200E000 
  20      00000201 
  20      FB0E0D00 
  20      01010101 
  21              	.Ltext0:
  22              		.cfi_sections	.debug_frame
  23              		.section	.text.core_init,"ax",%progbits
  24              		.align	2
  25              		.p2align 4,,15
  26              		.global	core_init
  27              		.thumb
  28              		.thumb_func
  29              		.type	core_init, %function
  30              	core_init:
  31              	.LFB7:
  32              		.file 1 "chibios/os/kernel/src/chmemcore.c"
  33              		.loc 1 65 0
  34              		.cfi_startproc
  35              		@ args = 0, pretend = 0, frame = 0
  36              		@ frame_needed = 0, uses_anonymous_args = 0
  37              		@ link register save eliminated.
  38              		.loc 1 69 0
  39 0000 0949     		ldr	r1, .L2
  40              		.loc 1 70 0
  41 0002 40F2000C 		movw	ip, #:lower16:__heap_end__
  42              		.loc 1 69 0
  43 0006 40F20002 		movw	r2, #:lower16:.LANCHOR0
  44              		.loc 1 70 0
  45 000a 40F20003 		movw	r3, #:lower16:.LANCHOR1
  46 000e C0F2000C 		movt	ip, #:upper16:__heap_end__
  47              		.loc 1 69 0
  48 0012 21F00700 		bic	r0, r1, #7
  49 0016 C0F20002 		movt	r2, #:upper16:.LANCHOR0
  50              		.loc 1 70 0
  51 001a C0F20003 		movt	r3, #:upper16:.LANCHOR1
  52 001e 2CF00701 		bic	r1, ip, #7
  53              		.loc 1 69 0
ARM GAS  /tmp/cc2MeqOu.s 			page 2


  54 0022 1060     		str	r0, [r2, #0]
  55              		.loc 1 70 0
  56 0024 1960     		str	r1, [r3, #0]
  57              		.loc 1 76 0
  58 0026 7047     		bx	lr
  59              	.L3:
  60              		.align	2
  61              	.L2:
  62 0028 07000000 		.word	__heap_base__+7
  63              		.cfi_endproc
  64              	.LFE7:
  65              		.size	core_init, .-core_init
  66 002c AFF30080 		.section	.text.chCoreAlloc,"ax",%progbits
  67              		.align	2
  68              		.p2align 4,,15
  69              		.global	chCoreAlloc
  70              		.thumb
  71              		.thumb_func
  72              		.type	chCoreAlloc, %function
  73              	chCoreAlloc:
  74              	.LFB8:
  75              		.loc 1 90 0
  76              		.cfi_startproc
  77              		@ args = 0, pretend = 0, frame = 0
  78              		@ frame_needed = 0, uses_anonymous_args = 0
  79              		@ link register save eliminated.
  80              	.LVL0:
  81              	.LBB6:
  82              		.loc 1 93 0
  83 0000 2023     		movs	r3, #32
  84              	.LVL1:
  85              	@ 93 "chibios/os/kernel/src/chmemcore.c" 1
  86 0002 83F31188 		msr     BASEPRI, r3
  87              	@ 0 "" 2
  88              	.LVL2:
  89              		.thumb
  90              	.LBE6:
  91              	.LBB7:
  92              	.LBB8:
  93              		.loc 1 115 0
  94 0006 40F20003 		movw	r3, #:lower16:.LANCHOR0
  95              	.LVL3:
  96 000a 40F2000C 		movw	ip, #:lower16:.LANCHOR1
  97 000e C0F20003 		movt	r3, #:upper16:.LANCHOR0
  98 0012 C0F2000C 		movt	ip, #:upper16:.LANCHOR1
  99 0016 1968     		ldr	r1, [r3, #0]
 100 0018 DCF80020 		ldr	r2, [ip, #0]
 101              		.loc 1 114 0
 102 001c 0730     		adds	r0, r0, #7
 103              	.LVL4:
 104 001e 20F00700 		bic	r0, r0, #7
 105              	.LVL5:
 106              		.loc 1 115 0
 107 0022 521A     		subs	r2, r2, r1
 108 0024 9042     		cmp	r0, r2
 109              	.LVL6:
 110              		.loc 1 118 0
ARM GAS  /tmp/cc2MeqOu.s 			page 3


 111 0026 9DBF     		ittte	ls
 112 0028 0818     		addls	r0, r1, r0
 113              	.LVL7:
 114 002a 1860     		strls	r0, [r3, #0]
 115              		.loc 1 119 0
 116 002c 0846     		movls	r0, r1
 117              		.loc 1 116 0
 118 002e 0020     		movhi	r0, #0
 119              	.LBE8:
 120              	.LBE7:
 121              	.LBB9:
 122              		.loc 1 95 0
 123 0030 0023     		movs	r3, #0
 124              	.LVL8:
 125              	@ 95 "chibios/os/kernel/src/chmemcore.c" 1
 126 0032 83F31188 		msr     BASEPRI, r3
 127              	@ 0 "" 2
 128              	.LVL9:
 129              		.thumb
 130              	.LBE9:
 131              		.loc 1 97 0
 132 0036 7047     		bx	lr
 133              		.cfi_endproc
 134              	.LFE8:
 135              		.size	chCoreAlloc, .-chCoreAlloc
 136 0038 AFF30080 		.section	.text.chCoreAllocI,"ax",%progbits
 136      AFF30080 
 137              		.align	2
 138              		.p2align 4,,15
 139              		.global	chCoreAllocI
 140              		.thumb
 141              		.thumb_func
 142              		.type	chCoreAllocI, %function
 143              	chCoreAllocI:
 144              	.LFB9:
 145              		.loc 1 111 0
 146              		.cfi_startproc
 147              		@ args = 0, pretend = 0, frame = 0
 148              		@ frame_needed = 0, uses_anonymous_args = 0
 149              		@ link register save eliminated.
 150              	.LVL10:
 151              		.loc 1 115 0
 152 0000 40F20003 		movw	r3, #:lower16:.LANCHOR0
 153 0004 40F2000C 		movw	ip, #:lower16:.LANCHOR1
 154 0008 C0F20003 		movt	r3, #:upper16:.LANCHOR0
 155 000c C0F2000C 		movt	ip, #:upper16:.LANCHOR1
 156 0010 1968     		ldr	r1, [r3, #0]
 157 0012 DCF80020 		ldr	r2, [ip, #0]
 158              		.loc 1 114 0
 159 0016 0730     		adds	r0, r0, #7
 160              	.LVL11:
 161 0018 20F00700 		bic	r0, r0, #7
 162              	.LVL12:
 163              		.loc 1 115 0
 164 001c 521A     		subs	r2, r2, r1
 165 001e 9042     		cmp	r0, r2
 166              	.LVL13:
ARM GAS  /tmp/cc2MeqOu.s 			page 4


 167              		.loc 1 118 0
 168 0020 9DBF     		ittte	ls
 169 0022 0818     		addls	r0, r1, r0
 170              	.LVL14:
 171 0024 1860     		strls	r0, [r3, #0]
 172              		.loc 1 119 0
 173 0026 0846     		movls	r0, r1
 174              		.loc 1 116 0
 175 0028 0020     		movhi	r0, #0
 176              		.loc 1 120 0
 177 002a 7047     		bx	lr
 178              		.cfi_endproc
 179              	.LFE9:
 180              		.size	chCoreAllocI, .-chCoreAllocI
 181 002c AFF30080 		.section	.text.chCoreStatus,"ax",%progbits
 182              		.align	2
 183              		.p2align 4,,15
 184              		.global	chCoreStatus
 185              		.thumb
 186              		.thumb_func
 187              		.type	chCoreStatus, %function
 188              	chCoreStatus:
 189              	.LFB10:
 190              		.loc 1 129 0
 191              		.cfi_startproc
 192              		@ args = 0, pretend = 0, frame = 0
 193              		@ frame_needed = 0, uses_anonymous_args = 0
 194              		@ link register save eliminated.
 195              		.loc 1 131 0
 196 0000 40F20002 		movw	r2, #:lower16:.LANCHOR1
 197 0004 40F20001 		movw	r1, #:lower16:.LANCHOR0
 198 0008 C0F20002 		movt	r2, #:upper16:.LANCHOR1
 199 000c C0F20001 		movt	r1, #:upper16:.LANCHOR0
 200 0010 1068     		ldr	r0, [r2, #0]
 201 0012 0B68     		ldr	r3, [r1, #0]
 202              		.loc 1 132 0
 203 0014 C01A     		subs	r0, r0, r3
 204 0016 7047     		bx	lr
 205              		.cfi_endproc
 206              	.LFE10:
 207              		.size	chCoreStatus, .-chCoreStatus
 208 0018 AFF30080 		.section	.bss.endmem,"aw",%nobits
 208      AFF30080 
 209              		.align	2
 210              		.set	.LANCHOR1,. + 0
 211              		.type	endmem, %object
 212              		.size	endmem, 4
 213              	endmem:
 214 0000 00000000 		.space	4
 215              		.section	.bss.nextmem,"aw",%nobits
 216              		.align	2
 217              		.set	.LANCHOR0,. + 0
 218              		.type	nextmem, %object
 219              		.size	nextmem, 4
 220              	nextmem:
 221 0000 00000000 		.space	4
 222              		.text
ARM GAS  /tmp/cc2MeqOu.s 			page 5


 223              	.Letext0: