ARM GAS  /tmp/ccbFT5WC.s 			page 1


   1              		.syntax unified
   2              		.cpu cortex-m3
   3              		.fpu softvfp
   4              		.eabi_attribute 20, 1
   5              		.eabi_attribute 21, 1
   6              		.eabi_attribute 23, 3
   7              		.eabi_attribute 24, 1
   8              		.eabi_attribute 25, 1
   9              		.eabi_attribute 26, 1
  10              		.eabi_attribute 30, 2
  11              		.eabi_attribute 18, 4
  12              		.thumb
  13              		.file	"chmempools.c"
  14              		.section	.debug_abbrev,"",%progbits
  15              	.Ldebug_abbrev0:
  16              		.section	.debug_info,"",%progbits
  17              	.Ldebug_info0:
  18              		.section	.debug_line,"",%progbits
  19              	.Ldebug_line0:
  20 0000 9F010000 		.text
  20      02001A01 
  20      00000201 
  20      FB0E0D00 
  20      01010101 
  21              	.Ltext0:
  22              		.cfi_sections	.debug_frame
  23              		.section	.text.chPoolInit,"ax",%progbits
  24              		.align	2
  25              		.p2align 4,,15
  26              		.global	chPoolInit
  27              		.thumb
  28              		.thumb_func
  29              		.type	chPoolInit, %function
  30              	chPoolInit:
  31              	.LFB7:
  32              		.file 1 "chibios/os/kernel/src/chmempools.c"
  33              		.loc 1 60 0
  34              		.cfi_startproc
  35              		@ args = 0, pretend = 0, frame = 0
  36              		@ frame_needed = 0, uses_anonymous_args = 0
  37              		@ link register save eliminated.
  38              	.LVL0:
  39              		.loc 1 65 0
  40 0000 0731     		adds	r1, r1, #7
  41              	.LVL1:
  42 0002 21F00701 		bic	r1, r1, #7
  43              	.LVL2:
  44              		.loc 1 64 0
  45 0006 0023     		movs	r3, #0
  46 0008 0360     		str	r3, [r0, #0]
  47              		.loc 1 65 0
  48 000a 4160     		str	r1, [r0, #4]
  49              		.loc 1 66 0
  50 000c 8260     		str	r2, [r0, #8]
  51              		.loc 1 67 0
  52 000e 7047     		bx	lr
  53              		.cfi_endproc
ARM GAS  /tmp/ccbFT5WC.s 			page 2


  54              	.LFE7:
  55              		.size	chPoolInit, .-chPoolInit
  56              		.section	.text.chPoolAllocI,"ax",%progbits
  57              		.align	2
  58              		.p2align 4,,15
  59              		.global	chPoolAllocI
  60              		.thumb
  61              		.thumb_func
  62              		.type	chPoolAllocI, %function
  63              	chPoolAllocI:
  64              	.LFB8:
  65              		.loc 1 78 0
  66              		.cfi_startproc
  67              		@ args = 0, pretend = 0, frame = 0
  68              		@ frame_needed = 0, uses_anonymous_args = 0
  69              	.LVL3:
  70 0000 0246     		mov	r2, r0
  71              		.loc 1 83 0
  72 0002 0068     		ldr	r0, [r0, #0]
  73              	.LVL4:
  74              		.loc 1 78 0
  75 0004 08B5     		push	{r3, lr}
  76              	.LCFI0:
  77              		.cfi_def_cfa_offset 8
  78              		.loc 1 83 0
  79 0006 10B1     		cbz	r0, .L3
  80              		.cfi_offset 14, -4
  81              		.cfi_offset 3, -8
  82              		.loc 1 84 0
  83 0008 0368     		ldr	r3, [r0, #0]
  84 000a 1360     		str	r3, [r2, #0]
  85 000c 08BD     		pop	{r3, pc}
  86              	.L3:
  87              		.loc 1 85 0
  88 000e 9368     		ldr	r3, [r2, #8]
  89 0010 0BB1     		cbz	r3, .L4
  90              		.loc 1 86 0
  91 0012 5068     		ldr	r0, [r2, #4]
  92 0014 9847     		blx	r3
  93              	.LVL5:
  94              	.L4:
  95              		.loc 1 88 0
  96 0016 08BD     		pop	{r3, pc}
  97              		.cfi_endproc
  98              	.LFE8:
  99              		.size	chPoolAllocI, .-chPoolAllocI
 100 0018 AFF30080 		.section	.text.chPoolAlloc,"ax",%progbits
 100      AFF30080 
 101              		.align	2
 102              		.p2align 4,,15
 103              		.global	chPoolAlloc
 104              		.thumb
 105              		.thumb_func
 106              		.type	chPoolAlloc, %function
 107              	chPoolAlloc:
 108              	.LFB9:
 109              		.loc 1 99 0
ARM GAS  /tmp/ccbFT5WC.s 			page 3


 110              		.cfi_startproc
 111              		@ args = 0, pretend = 0, frame = 0
 112              		@ frame_needed = 0, uses_anonymous_args = 0
 113              	.LVL6:
 114 0000 08B5     		push	{r3, lr}
 115              	.LCFI1:
 116              		.cfi_def_cfa_offset 8
 117              		.loc 1 99 0
 118 0002 0246     		mov	r2, r0
 119              	.LBB10:
 120              		.loc 1 102 0
 121 0004 2023     		movs	r3, #32
 122              		.cfi_offset 14, -4
 123              		.cfi_offset 3, -8
 124              	.LVL7:
 125              	@ 102 "chibios/os/kernel/src/chmempools.c" 1
 126 0006 83F31188 		msr     BASEPRI, r3
 127              	@ 0 "" 2
 128              	.LVL8:
 129              		.thumb
 130              	.LBE10:
 131              	.LBB11:
 132              	.LBB12:
 133              		.loc 1 83 0
 134 000a 0068     		ldr	r0, [r0, #0]
 135              	.LVL9:
 136 000c 28B1     		cbz	r0, .L7
 137              		.loc 1 84 0
 138 000e 0368     		ldr	r3, [r0, #0]
 139              	.LVL10:
 140 0010 1360     		str	r3, [r2, #0]
 141              	.LVL11:
 142              	.L8:
 143              	.LBE12:
 144              	.LBE11:
 145              	.LBB14:
 146              		.loc 1 104 0
 147 0012 0023     		movs	r3, #0
 148              	.LVL12:
 149              	@ 104 "chibios/os/kernel/src/chmempools.c" 1
 150 0014 83F31188 		msr     BASEPRI, r3
 151              	@ 0 "" 2
 152              	.LVL13:
 153              		.thumb
 154              	.LBE14:
 155              		.loc 1 106 0
 156 0018 08BD     		pop	{r3, pc}
 157              	.LVL14:
 158              	.L7:
 159              	.LBB15:
 160              	.LBB13:
 161              		.loc 1 85 0
 162 001a 9368     		ldr	r3, [r2, #8]
 163              	.LVL15:
 164 001c 002B     		cmp	r3, #0
 165 001e F8D0     		beq	.L8
 166              		.loc 1 86 0
ARM GAS  /tmp/ccbFT5WC.s 			page 4


 167 0020 5068     		ldr	r0, [r2, #4]
 168 0022 9847     		blx	r3
 169              	.LVL16:
 170              	.LBE13:
 171              	.LBE15:
 172              	.LBB16:
 173              		.loc 1 104 0
 174 0024 0023     		movs	r3, #0
 175              	@ 104 "chibios/os/kernel/src/chmempools.c" 1
 176 0026 83F31188 		msr     BASEPRI, r3
 177              	@ 0 "" 2
 178              	.LVL17:
 179              		.thumb
 180              	.LBE16:
 181              		.loc 1 106 0
 182 002a 08BD     		pop	{r3, pc}
 183              		.cfi_endproc
 184              	.LFE9:
 185              		.size	chPoolAlloc, .-chPoolAlloc
 186 002c AFF30080 		.section	.text.chPoolFreeI,"ax",%progbits
 187              		.align	2
 188              		.p2align 4,,15
 189              		.global	chPoolFreeI
 190              		.thumb
 191              		.thumb_func
 192              		.type	chPoolFreeI, %function
 193              	chPoolFreeI:
 194              	.LFB10:
 195              		.loc 1 120 0
 196              		.cfi_startproc
 197              		@ args = 0, pretend = 0, frame = 0
 198              		@ frame_needed = 0, uses_anonymous_args = 0
 199              		@ link register save eliminated.
 200              	.LVL18:
 201              		.loc 1 126 0
 202 0000 0368     		ldr	r3, [r0, #0]
 203              	.LVL19:
 204 0002 0B60     		str	r3, [r1, #0]
 205              		.loc 1 127 0
 206 0004 0160     		str	r1, [r0, #0]
 207              		.loc 1 128 0
 208 0006 7047     		bx	lr
 209              		.cfi_endproc
 210              	.LFE10:
 211              		.size	chPoolFreeI, .-chPoolFreeI
 212 0008 AFF30080 		.section	.text.chPoolFree,"ax",%progbits
 212      AFF30080 
 213              		.align	2
 214              		.p2align 4,,15
 215              		.global	chPoolFree
 216              		.thumb
 217              		.thumb_func
 218              		.type	chPoolFree, %function
 219              	chPoolFree:
 220              	.LFB11:
 221              		.loc 1 142 0
 222              		.cfi_startproc
ARM GAS  /tmp/ccbFT5WC.s 			page 5


 223              		@ args = 0, pretend = 0, frame = 0
 224              		@ frame_needed = 0, uses_anonymous_args = 0
 225              		@ link register save eliminated.
 226              	.LVL20:
 227              	.LBB17:
 228              		.loc 1 144 0
 229 0000 2023     		movs	r3, #32
 230              	.LVL21:
 231              	@ 144 "chibios/os/kernel/src/chmempools.c" 1
 232 0002 83F31188 		msr     BASEPRI, r3
 233              	@ 0 "" 2
 234              	.LVL22:
 235              		.thumb
 236              	.LBE17:
 237              	.LBB18:
 238              	.LBB19:
 239              		.loc 1 126 0
 240 0006 0268     		ldr	r2, [r0, #0]
 241              	.LBE19:
 242              	.LBE18:
 243              	.LBB21:
 244              		.loc 1 146 0
 245 0008 0023     		movs	r3, #0
 246              	.LVL23:
 247              	.LBE21:
 248              	.LBB22:
 249              	.LBB20:
 250              		.loc 1 126 0
 251 000a 0A60     		str	r2, [r1, #0]
 252              		.loc 1 127 0
 253 000c 0160     		str	r1, [r0, #0]
 254              	.LBE20:
 255              	.LBE22:
 256              	.LBB23:
 257              		.loc 1 146 0
 258              	@ 146 "chibios/os/kernel/src/chmempools.c" 1
 259 000e 83F31188 		msr     BASEPRI, r3
 260              	@ 0 "" 2
 261              	.LVL24:
 262              		.thumb
 263              	.LBE23:
 264              		.loc 1 147 0
 265 0012 7047     		bx	lr
 266              		.cfi_endproc
 267              	.LFE11:
 268              		.size	chPoolFree, .-chPoolFree
 269 0014 AFF30080 		.text
 269      AFF30080 
 269      AFF30080 
 270              	.Letext0:
 271              		.section	.debug_loc,"",%progbits
 272              	.Ldebug_loc0:
 273              	.LLST0:
 274 0000 00000000 		.4byte	.LVL0
 275 0004 02000000 		.4byte	.LVL1
 276 0008 0100     		.2byte	0x1
 277 000a 51       		.byte	0x51
ARM GAS  /tmp/ccbFT5WC.s 			page 6


 278 000b 02000000 		.4byte	.LVL1
 279 000f 06000000 		.4byte	.LVL2
 280 0013 0300     		.2byte	0x3
 281 0015 71       		.byte	0x71
 282 0016 79       		.sleb128 -7
 283 0017 9F       		.byte	0x9f
 284 0018 00000000 		.4byte	0x0
 285 001c 00000000 		.4byte	0x0
 286              	.LLST1:
 287 0020 00000000 		.4byte	.LFB8
 288 0024 06000000 		.4byte	.LCFI0
 289 0028 0200     		.2byte	0x2
 290 002a 7D       		.byte	0x7d
 291 002b 00       		.sleb128 0
 292 002c 06000000 		.4byte	.LCFI0
 293 0030 18000000 		.4byte	.LFE8
 294 0034 0200     		.2byte	0x2
 295 0036 7D       		.byte	0x7d
 296 0037 08       		.sleb128 8
 297 0038 00000000 		.4byte	0x0
 298 003c 00000000 		.4byte	0x0
 299              	.LLST2:
 300 0040 00000000 		.4byte	.LVL3
 301 0044 04000000 		.4byte	.LVL4
 302 0048 0100     		.2byte	0x1
 303 004a 50       		.byte	0x50
 304 004b 04000000 		.4byte	.LVL4
 305 004f 15000000 		.4byte	.LVL5-1
 306 0053 0100     		.2byte	0x1
 307 0055 52       		.byte	0x52
 308 0056 00000000 		.4byte	0x0
 309 005a 00000000 		.4byte	0x0
 310              	.LLST3:
 311 005e 04000000 		.4byte	.LVL4
 312 0062 15000000 		.4byte	.LVL5-1
 313 0066 0200     		.2byte	0x2
 314 0068 72       		.byte	0x72
 315 0069 00       		.sleb128 0
 316 006a 16000000 		.4byte	.LVL5
 317 006e 18000000 		.4byte	.LFE8
 318 0072 0100     		.2byte	0x1
 319 0074 50       		.byte	0x50
 320 0075 00000000 		.4byte	0x0
 321 0079 00000000 		.4byte	0x0
 322              	.LLST4:
 323 007d 00000000 		.4byte	.LFB9
 324 0081 02000000 		.4byte	.LCFI1
 325 0085 0200     		.2byte	0x2
 326 0087 7D       		.byte	0x7d
 327 0088 00       		.sleb128 0
 328 0089 02000000 		.4byte	.LCFI1
 329 008d 2C000000 		.4byte	.LFE9
 330 0091 0200     		.2byte	0x2
 331 0093 7D       		.byte	0x7d
 332 0094 08       		.sleb128 8
 333 0095 00000000 		.4byte	0x0
 334 0099 00000000 		.4byte	0x0
ARM GAS  /tmp/ccbFT5WC.s 			page 7


 335              	.LLST5:
 336 009d 00000000 		.4byte	.LVL6
 337 00a1 0C000000 		.4byte	.LVL9
 338 00a5 0100     		.2byte	0x1
 339 00a7 50       		.byte	0x50
 340 00a8 12000000 		.4byte	.LVL11
 341 00ac 1A000000 		.4byte	.LVL14
 342 00b0 0100     		.2byte	0x1
 343 00b2 52       		.byte	0x52
 344 00b3 1A000000 		.4byte	.LVL14
 345 00b7 23000000 		.4byte	.LVL16-1
 346 00bb 0100     		.2byte	0x1
 347 00bd 52       		.byte	0x52
 348 00be 00000000 		.4byte	0x0
 349 00c2 00000000 		.4byte	0x0
 350              	.LLST6:
 351 00c6 0A000000 		.4byte	.LVL8
 352 00ca 10000000 		.4byte	.LVL10
 353 00ce 0100     		.2byte	0x1
 354 00d0 53       		.byte	0x53
 355 00d1 1A000000 		.4byte	.LVL14
 356 00d5 1C000000 		.4byte	.LVL15
 357 00d9 0100     		.2byte	0x1
 358 00db 53       		.byte	0x53
 359 00dc 00000000 		.4byte	0x0
 360 00e0 00000000 		.4byte	0x0
 361              	.LLST7:
 362 00e4 0A000000 		.4byte	.LVL8
 363 00e8 0C000000 		.4byte	.LVL9
 364 00ec 0100     		.2byte	0x1
 365 00ee 50       		.byte	0x50
 366 00ef 0C000000 		.4byte	.LVL9
 367 00f3 23000000 		.4byte	.LVL16-1
 368 00f7 0100     		.2byte	0x1
 369 00f9 52       		.byte	0x52
 370 00fa 00000000 		.4byte	0x0
 371 00fe 00000000 		.4byte	0x0
 372              	.LLST8:
 373 0102 0C000000 		.4byte	.LVL9
 374 0106 23000000 		.4byte	.LVL16-1
 375 010a 0200     		.2byte	0x2
 376 010c 72       		.byte	0x72
 377 010d 00       		.sleb128 0
 378 010e 24000000 		.4byte	.LVL16
 379 0112 2C000000 		.4byte	.LFE9
 380 0116 0100     		.2byte	0x1
 381 0118 50       		.byte	0x50
 382 0119 00000000 		.4byte	0x0
 383 011d 00000000 		.4byte	0x0
 384              	.LLST9:
 385 0121 18000000 		.4byte	.LVL13
 386 0125 1A000000 		.4byte	.LVL14
 387 0129 0100     		.2byte	0x1
 388 012b 53       		.byte	0x53
 389 012c 2A000000 		.4byte	.LVL17
 390 0130 2C000000 		.4byte	.LFE9
 391 0134 0100     		.2byte	0x1
ARM GAS  /tmp/ccbFT5WC.s 			page 8


 392 0136 53       		.byte	0x53
 393 0137 00000000 		.4byte	0x0
 394 013b 00000000 		.4byte	0x0
 395              	.LLST10:
 396 013f 06000000 		.4byte	.LVL22
 397 0143 0A000000 		.4byte	.LVL23
 398 0147 0100     		.2byte	0x1
 399 0149 53       		.byte	0x53
 400 014a 00000000 		.4byte	0x0
 401 014e 00000000 		.4byte	0x0
 402              	.LLST11:
 403 0152 12000000 		.4byte	.LVL24
 404 0156 14000000 		.4byte	.LFE11
 405 015a 0100     		.2byte	0x1
 406 015c 53       		.byte	0x53
 407 015d 00000000 		.4byte	0x0
 408 0161 00000000 		.4byte	0x0
 409              		.file 2 "/home/dan/arm-cs-tools/lib/gcc/arm-none-eabi/4.5.1/include/stddef.h"
 410              		.file 3 "/home/dan/arm-cs-tools/lib/gcc/arm-none-eabi/4.5.1/../../../../arm-none-eabi/include/stdi
 411              		.file 4 "chibios/os/kernel/include/chmemcore.h"
 412              		.file 5 "chibios/os/kernel/include/chmempools.h"
 413              		.section	.debug_info
 414 0000 1A030000 		.4byte	0x31a
 415 0004 0200     		.2byte	0x2
 416 0006 00000000 		.4byte	.Ldebug_abbrev0
 417 000a 04       		.byte	0x4
 418 000b 01       		.uleb128 0x1
 419 000c 07000000 		.4byte	.LASF22
 420 0010 01       		.byte	0x1
 421 0011 42010000 		.4byte	.LASF23
 422 0015 61000000 		.4byte	.LASF24
 423 0019 00000000 		.4byte	0x0
 424 001d 00000000 		.4byte	0x0
 425 0021 90000000 		.4byte	.Ldebug_ranges0+0x90
 426 0025 00000000 		.4byte	.Ldebug_line0
 427 0029 02       		.uleb128 0x2
 428 002a 04       		.byte	0x4
 429 002b 05       		.byte	0x5
 430 002c 696E7400 		.ascii	"int\000"
 431 0030 03       		.uleb128 0x3
 432 0031 00000000 		.4byte	.LASF6
 433 0035 02       		.byte	0x2
 434 0036 D3       		.byte	0xd3
 435 0037 3B000000 		.4byte	0x3b
 436 003b 04       		.uleb128 0x4
 437 003c 04       		.byte	0x4
 438 003d 07       		.byte	0x7
 439 003e D9000000 		.4byte	.LASF0
 440 0042 04       		.uleb128 0x4
 441 0043 01       		.byte	0x1
 442 0044 06       		.byte	0x6
 443 0045 77010000 		.4byte	.LASF1
 444 0049 04       		.uleb128 0x4
 445 004a 01       		.byte	0x1
 446 004b 08       		.byte	0x8
 447 004c A3000000 		.4byte	.LASF2
 448 0050 04       		.uleb128 0x4
ARM GAS  /tmp/ccbFT5WC.s 			page 9


 449 0051 02       		.byte	0x2
 450 0052 05       		.byte	0x5
 451 0053 2C010000 		.4byte	.LASF3
 452 0057 04       		.uleb128 0x4
 453 0058 02       		.byte	0x2
 454 0059 07       		.byte	0x7
 455 005a 45000000 		.4byte	.LASF4
 456 005e 04       		.uleb128 0x4
 457 005f 04       		.byte	0x4
 458 0060 05       		.byte	0x5
 459 0061 6E010000 		.4byte	.LASF5
 460 0065 03       		.uleb128 0x3
 461 0066 65010000 		.4byte	.LASF7
 462 006a 03       		.byte	0x3
 463 006b 50       		.byte	0x50
 464 006c 70000000 		.4byte	0x70
 465 0070 04       		.uleb128 0x4
 466 0071 04       		.byte	0x4
 467 0072 07       		.byte	0x7
 468 0073 33000000 		.4byte	.LASF8
 469 0077 04       		.uleb128 0x4
 470 0078 08       		.byte	0x8
 471 0079 05       		.byte	0x5
 472 007a 05010000 		.4byte	.LASF9
 473 007e 04       		.uleb128 0x4
 474 007f 08       		.byte	0x8
 475 0080 07       		.byte	0x7
 476 0081 E6000000 		.4byte	.LASF10
 477 0085 05       		.uleb128 0x5
 478 0086 04       		.byte	0x4
 479 0087 03       		.uleb128 0x3
 480 0088 13010000 		.4byte	.LASF11
 481 008c 04       		.byte	0x4
 482 008d 2B       		.byte	0x2b
 483 008e 92000000 		.4byte	0x92
 484 0092 06       		.uleb128 0x6
 485 0093 04       		.byte	0x4
 486 0094 98000000 		.4byte	0x98
 487 0098 07       		.uleb128 0x7
 488 0099 01       		.byte	0x1
 489 009a 85000000 		.4byte	0x85
 490 009e A8000000 		.4byte	0xa8
 491 00a2 08       		.uleb128 0x8
 492 00a3 30000000 		.4byte	0x30
 493 00a7 00       		.byte	0x0
 494 00a8 09       		.uleb128 0x9
 495 00a9 22000000 		.4byte	.LASF25
 496 00ad 04       		.byte	0x4
 497 00ae 05       		.byte	0x5
 498 00af 2B       		.byte	0x2b
 499 00b0 C3000000 		.4byte	0xc3
 500 00b4 0A       		.uleb128 0xa
 501 00b5 FD000000 		.4byte	.LASF12
 502 00b9 05       		.byte	0x5
 503 00ba 2C       		.byte	0x2c
 504 00bb C3000000 		.4byte	0xc3
 505 00bf 02       		.byte	0x2
ARM GAS  /tmp/ccbFT5WC.s 			page 10


 506 00c0 23       		.byte	0x23
 507 00c1 00       		.uleb128 0x0
 508 00c2 00       		.byte	0x0
 509 00c3 06       		.uleb128 0x6
 510 00c4 04       		.byte	0x4
 511 00c5 A8000000 		.4byte	0xa8
 512 00c9 0B       		.uleb128 0xb
 513 00ca 0C       		.byte	0xc
 514 00cb 05       		.byte	0x5
 515 00cc 33       		.byte	0x33
 516 00cd FC000000 		.4byte	0xfc
 517 00d1 0A       		.uleb128 0xa
 518 00d2 83010000 		.4byte	.LASF13
 519 00d6 05       		.byte	0x5
 520 00d7 34       		.byte	0x34
 521 00d8 C3000000 		.4byte	0xc3
 522 00dc 02       		.byte	0x2
 523 00dd 23       		.byte	0x23
 524 00de 00       		.uleb128 0x0
 525 00df 0A       		.uleb128 0xa
 526 00e0 13000000 		.4byte	.LASF14
 527 00e4 05       		.byte	0x5
 528 00e5 35       		.byte	0x35
 529 00e6 30000000 		.4byte	0x30
 530 00ea 02       		.byte	0x2
 531 00eb 23       		.byte	0x23
 532 00ec 04       		.uleb128 0x4
 533 00ed 0A       		.uleb128 0xa
 534 00ee 20010000 		.4byte	.LASF15
 535 00f2 05       		.byte	0x5
 536 00f3 37       		.byte	0x37
 537 00f4 87000000 		.4byte	0x87
 538 00f8 02       		.byte	0x2
 539 00f9 23       		.byte	0x23
 540 00fa 08       		.uleb128 0x8
 541 00fb 00       		.byte	0x0
 542 00fc 03       		.uleb128 0x3
 543 00fd BC000000 		.4byte	.LASF16
 544 0101 05       		.byte	0x5
 545 0102 39       		.byte	0x39
 546 0103 C9000000 		.4byte	0xc9
 547 0107 0C       		.uleb128 0xc
 548 0108 01       		.byte	0x1
 549 0109 CC000000 		.4byte	.LASF20
 550 010d 01       		.byte	0x1
 551 010e 4E       		.byte	0x4e
 552 010f 01       		.byte	0x1
 553 0110 85000000 		.4byte	0x85
 554 0114 01       		.byte	0x1
 555 0115 2F010000 		.4byte	0x12f
 556 0119 0D       		.uleb128 0xd
 557 011a 6D7000   		.ascii	"mp\000"
 558 011d 01       		.byte	0x1
 559 011e 4E       		.byte	0x4e
 560 011f 2F010000 		.4byte	0x12f
 561 0123 0E       		.uleb128 0xe
 562 0124 C7000000 		.4byte	.LASF17
ARM GAS  /tmp/ccbFT5WC.s 			page 11


 563 0128 01       		.byte	0x1
 564 0129 4F       		.byte	0x4f
 565 012a 85000000 		.4byte	0x85
 566 012e 00       		.byte	0x0
 567 012f 06       		.uleb128 0x6
 568 0130 04       		.byte	0x4
 569 0131 FC000000 		.4byte	0xfc
 570 0135 0F       		.uleb128 0xf
 571 0136 01       		.byte	0x1
 572 0137 97000000 		.4byte	.LASF26
 573 013b 01       		.byte	0x1
 574 013c 78       		.byte	0x78
 575 013d 01       		.byte	0x1
 576 013e 01       		.byte	0x1
 577 013f 64010000 		.4byte	0x164
 578 0143 0D       		.uleb128 0xd
 579 0144 6D7000   		.ascii	"mp\000"
 580 0147 01       		.byte	0x1
 581 0148 78       		.byte	0x78
 582 0149 2F010000 		.4byte	0x12f
 583 014d 10       		.uleb128 0x10
 584 014e C7000000 		.4byte	.LASF17
 585 0152 01       		.byte	0x1
 586 0153 78       		.byte	0x78
 587 0154 85000000 		.4byte	0x85
 588 0158 11       		.uleb128 0x11
 589 0159 70687000 		.ascii	"php\000"
 590 015d 01       		.byte	0x1
 591 015e 79       		.byte	0x79
 592 015f C3000000 		.4byte	0xc3
 593 0163 00       		.byte	0x0
 594 0164 12       		.uleb128 0x12
 595 0165 01       		.byte	0x1
 596 0166 8B010000 		.4byte	.LASF27
 597 016a 01       		.byte	0x1
 598 016b 3C       		.byte	0x3c
 599 016c 01       		.byte	0x1
 600 016d 00000000 		.4byte	.LFB7
 601 0171 10000000 		.4byte	.LFE7
 602 0175 02       		.byte	0x2
 603 0176 7D       		.byte	0x7d
 604 0177 00       		.sleb128 0
 605 0178 A5010000 		.4byte	0x1a5
 606 017c 13       		.uleb128 0x13
 607 017d 6D7000   		.ascii	"mp\000"
 608 0180 01       		.byte	0x1
 609 0181 3C       		.byte	0x3c
 610 0182 2F010000 		.4byte	0x12f
 611 0186 01       		.byte	0x1
 612 0187 50       		.byte	0x50
 613 0188 14       		.uleb128 0x14
 614 0189 2E000000 		.4byte	.LASF18
 615 018d 01       		.byte	0x1
 616 018e 3C       		.byte	0x3c
 617 018f 30000000 		.4byte	0x30
 618 0193 00000000 		.4byte	.LLST0
 619 0197 15       		.uleb128 0x15
ARM GAS  /tmp/ccbFT5WC.s 			page 12


 620 0198 58000000 		.4byte	.LASF19
 621 019c 01       		.byte	0x1
 622 019d 3C       		.byte	0x3c
 623 019e 87000000 		.4byte	0x87
 624 01a2 01       		.byte	0x1
 625 01a3 52       		.byte	0x52
 626 01a4 00       		.byte	0x0
 627 01a5 16       		.uleb128 0x16
 628 01a6 07010000 		.4byte	0x107
 629 01aa 00000000 		.4byte	.LFB8
 630 01ae 18000000 		.4byte	.LFE8
 631 01b2 20000000 		.4byte	.LLST1
 632 01b6 CD010000 		.4byte	0x1cd
 633 01ba 17       		.uleb128 0x17
 634 01bb 19010000 		.4byte	0x119
 635 01bf 40000000 		.4byte	.LLST2
 636 01c3 18       		.uleb128 0x18
 637 01c4 23010000 		.4byte	0x123
 638 01c8 5E000000 		.4byte	.LLST3
 639 01cc 00       		.byte	0x0
 640 01cd 19       		.uleb128 0x19
 641 01ce 01       		.byte	0x1
 642 01cf 36010000 		.4byte	.LASF28
 643 01d3 01       		.byte	0x1
 644 01d4 63       		.byte	0x63
 645 01d5 01       		.byte	0x1
 646 01d6 85000000 		.4byte	0x85
 647 01da 00000000 		.4byte	.LFB9
 648 01de 2C000000 		.4byte	.LFE9
 649 01e2 7D000000 		.4byte	.LLST4
 650 01e6 64020000 		.4byte	0x264
 651 01ea 1A       		.uleb128 0x1a
 652 01eb 6D7000   		.ascii	"mp\000"
 653 01ee 01       		.byte	0x1
 654 01ef 63       		.byte	0x63
 655 01f0 2F010000 		.4byte	0x12f
 656 01f4 9D000000 		.4byte	.LLST5
 657 01f8 1B       		.uleb128 0x1b
 658 01f9 C7000000 		.4byte	.LASF17
 659 01fd 01       		.byte	0x1
 660 01fe 64       		.byte	0x64
 661 01ff 85000000 		.4byte	0x85
 662 0203 01       		.byte	0x1
 663 0204 50       		.byte	0x50
 664 0205 1C       		.uleb128 0x1c
 665 0206 04000000 		.4byte	.LBB10
 666 020a 0A000000 		.4byte	.LBE10
 667 020e 22020000 		.4byte	0x222
 668 0212 1D       		.uleb128 0x1d
 669 0213 746D7000 		.ascii	"tmp\000"
 670 0217 01       		.byte	0x1
 671 0218 66       		.byte	0x66
 672 0219 65000000 		.4byte	0x65
 673 021d C6000000 		.4byte	.LLST6
 674 0221 00       		.byte	0x0
 675 0222 1E       		.uleb128 0x1e
 676 0223 07010000 		.4byte	0x107
ARM GAS  /tmp/ccbFT5WC.s 			page 13


 677 0227 0A000000 		.4byte	.LBB11
 678 022b 00000000 		.4byte	.Ldebug_ranges0+0x0
 679 022f 01       		.byte	0x1
 680 0230 67       		.byte	0x67
 681 0231 4E020000 		.4byte	0x24e
 682 0235 17       		.uleb128 0x17
 683 0236 19010000 		.4byte	0x119
 684 023a E4000000 		.4byte	.LLST7
 685 023e 1F       		.uleb128 0x1f
 686 023f 18000000 		.4byte	.Ldebug_ranges0+0x18
 687 0243 18       		.uleb128 0x18
 688 0244 23010000 		.4byte	0x123
 689 0248 02010000 		.4byte	.LLST8
 690 024c 00       		.byte	0x0
 691 024d 00       		.byte	0x0
 692 024e 1F       		.uleb128 0x1f
 693 024f 30000000 		.4byte	.Ldebug_ranges0+0x30
 694 0253 1D       		.uleb128 0x1d
 695 0254 746D7000 		.ascii	"tmp\000"
 696 0258 01       		.byte	0x1
 697 0259 68       		.byte	0x68
 698 025a 65000000 		.4byte	0x65
 699 025e 21010000 		.4byte	.LLST9
 700 0262 00       		.byte	0x0
 701 0263 00       		.byte	0x0
 702 0264 20       		.uleb128 0x20
 703 0265 35010000 		.4byte	0x135
 704 0269 00000000 		.4byte	.LFB10
 705 026d 08000000 		.4byte	.LFE10
 706 0271 02       		.byte	0x2
 707 0272 7D       		.byte	0x7d
 708 0273 00       		.sleb128 0
 709 0274 8E020000 		.4byte	0x28e
 710 0278 21       		.uleb128 0x21
 711 0279 43010000 		.4byte	0x143
 712 027d 01       		.byte	0x1
 713 027e 50       		.byte	0x50
 714 027f 21       		.uleb128 0x21
 715 0280 4D010000 		.4byte	0x14d
 716 0284 01       		.byte	0x1
 717 0285 51       		.byte	0x51
 718 0286 22       		.uleb128 0x22
 719 0287 58010000 		.4byte	0x158
 720 028b 01       		.byte	0x1
 721 028c 51       		.byte	0x51
 722 028d 00       		.byte	0x0
 723 028e 23       		.uleb128 0x23
 724 028f 01       		.byte	0x1
 725 0290 B1000000 		.4byte	.LASF21
 726 0294 01       		.byte	0x1
 727 0295 8E       		.byte	0x8e
 728 0296 01       		.byte	0x1
 729 0297 00000000 		.4byte	.LFB11
 730 029b 14000000 		.4byte	.LFE11
 731 029f 02       		.byte	0x2
 732 02a0 7D       		.byte	0x7d
 733 02a1 00       		.sleb128 0
ARM GAS  /tmp/ccbFT5WC.s 			page 14


 734 02a2 13       		.uleb128 0x13
 735 02a3 6D7000   		.ascii	"mp\000"
 736 02a6 01       		.byte	0x1
 737 02a7 8E       		.byte	0x8e
 738 02a8 2F010000 		.4byte	0x12f
 739 02ac 01       		.byte	0x1
 740 02ad 50       		.byte	0x50
 741 02ae 15       		.uleb128 0x15
 742 02af C7000000 		.4byte	.LASF17
 743 02b3 01       		.byte	0x1
 744 02b4 8E       		.byte	0x8e
 745 02b5 85000000 		.4byte	0x85
 746 02b9 01       		.byte	0x1
 747 02ba 51       		.byte	0x51
 748 02bb 1C       		.uleb128 0x1c
 749 02bc 00000000 		.4byte	.LBB17
 750 02c0 06000000 		.4byte	.LBE17
 751 02c4 D8020000 		.4byte	0x2d8
 752 02c8 1D       		.uleb128 0x1d
 753 02c9 746D7000 		.ascii	"tmp\000"
 754 02cd 01       		.byte	0x1
 755 02ce 90       		.byte	0x90
 756 02cf 65000000 		.4byte	0x65
 757 02d3 3F010000 		.4byte	.LLST10
 758 02d7 00       		.byte	0x0
 759 02d8 1E       		.uleb128 0x1e
 760 02d9 35010000 		.4byte	0x135
 761 02dd 06000000 		.4byte	.LBB18
 762 02e1 48000000 		.4byte	.Ldebug_ranges0+0x48
 763 02e5 01       		.byte	0x1
 764 02e6 91       		.byte	0x91
 765 02e7 07030000 		.4byte	0x307
 766 02eb 21       		.uleb128 0x21
 767 02ec 4D010000 		.4byte	0x14d
 768 02f0 01       		.byte	0x1
 769 02f1 51       		.byte	0x51
 770 02f2 21       		.uleb128 0x21
 771 02f3 43010000 		.4byte	0x143
 772 02f7 01       		.byte	0x1
 773 02f8 50       		.byte	0x50
 774 02f9 1F       		.uleb128 0x1f
 775 02fa 60000000 		.4byte	.Ldebug_ranges0+0x60
 776 02fe 22       		.uleb128 0x22
 777 02ff 58010000 		.4byte	0x158
 778 0303 01       		.byte	0x1
 779 0304 51       		.byte	0x51
 780 0305 00       		.byte	0x0
 781 0306 00       		.byte	0x0
 782 0307 1F       		.uleb128 0x1f
 783 0308 78000000 		.4byte	.Ldebug_ranges0+0x78
 784 030c 1D       		.uleb128 0x1d
 785 030d 746D7000 		.ascii	"tmp\000"
 786 0311 01       		.byte	0x1
 787 0312 92       		.byte	0x92
 788 0313 65000000 		.4byte	0x65
 789 0317 52010000 		.4byte	.LLST11
 790 031b 00       		.byte	0x0
ARM GAS  /tmp/ccbFT5WC.s 			page 15


 791 031c 00       		.byte	0x0
 792 031d 00       		.byte	0x0
 793              		.section	.debug_abbrev
 794 0000 01       		.uleb128 0x1
 795 0001 11       		.uleb128 0x11
 796 0002 01       		.byte	0x1
 797 0003 25       		.uleb128 0x25
 798 0004 0E       		.uleb128 0xe
 799 0005 13       		.uleb128 0x13
 800 0006 0B       		.uleb128 0xb
 801 0007 03       		.uleb128 0x3
 802 0008 0E       		.uleb128 0xe
 803 0009 1B       		.uleb128 0x1b
 804 000a 0E       		.uleb128 0xe
 805 000b 11       		.uleb128 0x11
 806 000c 01       		.uleb128 0x1
 807 000d 52       		.uleb128 0x52
 808 000e 01       		.uleb128 0x1
 809 000f 55       		.uleb128 0x55
 810 0010 06       		.uleb128 0x6
 811 0011 10       		.uleb128 0x10
 812 0012 06       		.uleb128 0x6
 813 0013 00       		.byte	0x0
 814 0014 00       		.byte	0x0
 815 0015 02       		.uleb128 0x2
 816 0016 24       		.uleb128 0x24
 817 0017 00       		.byte	0x0
 818 0018 0B       		.uleb128 0xb
 819 0019 0B       		.uleb128 0xb
 820 001a 3E       		.uleb128 0x3e
 821 001b 0B       		.uleb128 0xb
 822 001c 03       		.uleb128 0x3
 823 001d 08       		.uleb128 0x8
 824 001e 00       		.byte	0x0
 825 001f 00       		.byte	0x0
 826 0020 03       		.uleb128 0x3
 827 0021 16       		.uleb128 0x16
 828 0022 00       		.byte	0x0
 829 0023 03       		.uleb128 0x3
 830 0024 0E       		.uleb128 0xe
 831 0025 3A       		.uleb128 0x3a
 832 0026 0B       		.uleb128 0xb
 833 0027 3B       		.uleb128 0x3b
 834 0028 0B       		.uleb128 0xb
 835 0029 49       		.uleb128 0x49
 836 002a 13       		.uleb128 0x13
 837 002b 00       		.byte	0x0
 838 002c 00       		.byte	0x0
 839 002d 04       		.uleb128 0x4
 840 002e 24       		.uleb128 0x24
 841 002f 00       		.byte	0x0
 842 0030 0B       		.uleb128 0xb
 843 0031 0B       		.uleb128 0xb
 844 0032 3E       		.uleb128 0x3e
 845 0033 0B       		.uleb128 0xb
 846 0034 03       		.uleb128 0x3
 847 0035 0E       		.uleb128 0xe
ARM GAS  /tmp/ccbFT5WC.s 			page 16


 848 0036 00       		.byte	0x0
 849 0037 00       		.byte	0x0
 850 0038 05       		.uleb128 0x5
 851 0039 0F       		.uleb128 0xf
 852 003a 00       		.byte	0x0
 853 003b 0B       		.uleb128 0xb
 854 003c 0B       		.uleb128 0xb
 855 003d 00       		.byte	0x0
 856 003e 00       		.byte	0x0
 857 003f 06       		.uleb128 0x6
 858 0040 0F       		.uleb128 0xf
 859 0041 00       		.byte	0x0
 860 0042 0B       		.uleb128 0xb
 861 0043 0B       		.uleb128 0xb
 862 0044 49       		.uleb128 0x49
 863 0045 13       		.uleb128 0x13
 864 0046 00       		.byte	0x0
 865 0047 00       		.byte	0x0
 866 0048 07       		.uleb128 0x7
 867 0049 15       		.uleb128 0x15
 868 004a 01       		.byte	0x1
 869 004b 27       		.uleb128 0x27
 870 004c 0C       		.uleb128 0xc
 871 004d 49       		.uleb128 0x49
 872 004e 13       		.uleb128 0x13
 873 004f 01       		.uleb128 0x1
 874 0050 13       		.uleb128 0x13
 875 0051 00       		.byte	0x0
 876 0052 00       		.byte	0x0
 877 0053 08       		.uleb128 0x8
 878 0054 05       		.uleb128 0x5
 879 0055 00       		.byte	0x0
 880 0056 49       		.uleb128 0x49
 881 0057 13       		.uleb128 0x13
 882 0058 00       		.byte	0x0
 883 0059 00       		.byte	0x0
 884 005a 09       		.uleb128 0x9
 885 005b 13       		.uleb128 0x13
 886 005c 01       		.byte	0x1
 887 005d 03       		.uleb128 0x3
 888 005e 0E       		.uleb128 0xe
 889 005f 0B       		.uleb128 0xb
 890 0060 0B       		.uleb128 0xb
 891 0061 3A       		.uleb128 0x3a
 892 0062 0B       		.uleb128 0xb
 893 0063 3B       		.uleb128 0x3b
 894 0064 0B       		.uleb128 0xb
 895 0065 01       		.uleb128 0x1
 896 0066 13       		.uleb128 0x13
 897 0067 00       		.byte	0x0
 898 0068 00       		.byte	0x0
 899 0069 0A       		.uleb128 0xa
 900 006a 0D       		.uleb128 0xd
 901 006b 00       		.byte	0x0
 902 006c 03       		.uleb128 0x3
 903 006d 0E       		.uleb128 0xe
 904 006e 3A       		.uleb128 0x3a
ARM GAS  /tmp/ccbFT5WC.s 			page 17


 905 006f 0B       		.uleb128 0xb
 906 0070 3B       		.uleb128 0x3b
 907 0071 0B       		.uleb128 0xb
 908 0072 49       		.uleb128 0x49
 909 0073 13       		.uleb128 0x13
 910 0074 38       		.uleb128 0x38
 911 0075 0A       		.uleb128 0xa
 912 0076 00       		.byte	0x0
 913 0077 00       		.byte	0x0
 914 0078 0B       		.uleb128 0xb
 915 0079 13       		.uleb128 0x13
 916 007a 01       		.byte	0x1
 917 007b 0B       		.uleb128 0xb
 918 007c 0B       		.uleb128 0xb
 919 007d 3A       		.uleb128 0x3a
 920 007e 0B       		.uleb128 0xb
 921 007f 3B       		.uleb128 0x3b
 922 0080 0B       		.uleb128 0xb
 923 0081 01       		.uleb128 0x1
 924 0082 13       		.uleb128 0x13
 925 0083 00       		.byte	0x0
 926 0084 00       		.byte	0x0
 927 0085 0C       		.uleb128 0xc
 928 0086 2E       		.uleb128 0x2e
 929 0087 01       		.byte	0x1
 930 0088 3F       		.uleb128 0x3f
 931 0089 0C       		.uleb128 0xc
 932 008a 03       		.uleb128 0x3
 933 008b 0E       		.uleb128 0xe
 934 008c 3A       		.uleb128 0x3a
 935 008d 0B       		.uleb128 0xb
 936 008e 3B       		.uleb128 0x3b
 937 008f 0B       		.uleb128 0xb
 938 0090 27       		.uleb128 0x27
 939 0091 0C       		.uleb128 0xc
 940 0092 49       		.uleb128 0x49
 941 0093 13       		.uleb128 0x13
 942 0094 20       		.uleb128 0x20
 943 0095 0B       		.uleb128 0xb
 944 0096 01       		.uleb128 0x1
 945 0097 13       		.uleb128 0x13
 946 0098 00       		.byte	0x0
 947 0099 00       		.byte	0x0
 948 009a 0D       		.uleb128 0xd
 949 009b 05       		.uleb128 0x5
 950 009c 00       		.byte	0x0
 951 009d 03       		.uleb128 0x3
 952 009e 08       		.uleb128 0x8
 953 009f 3A       		.uleb128 0x3a
 954 00a0 0B       		.uleb128 0xb
 955 00a1 3B       		.uleb128 0x3b
 956 00a2 0B       		.uleb128 0xb
 957 00a3 49       		.uleb128 0x49
 958 00a4 13       		.uleb128 0x13
 959 00a5 00       		.byte	0x0
 960 00a6 00       		.byte	0x0
 961 00a7 0E       		.uleb128 0xe
ARM GAS  /tmp/ccbFT5WC.s 			page 18


 962 00a8 34       		.uleb128 0x34
 963 00a9 00       		.byte	0x0
 964 00aa 03       		.uleb128 0x3
 965 00ab 0E       		.uleb128 0xe
 966 00ac 3A       		.uleb128 0x3a
 967 00ad 0B       		.uleb128 0xb
 968 00ae 3B       		.uleb128 0x3b
 969 00af 0B       		.uleb128 0xb
 970 00b0 49       		.uleb128 0x49
 971 00b1 13       		.uleb128 0x13
 972 00b2 00       		.byte	0x0
 973 00b3 00       		.byte	0x0
 974 00b4 0F       		.uleb128 0xf
 975 00b5 2E       		.uleb128 0x2e
 976 00b6 01       		.byte	0x1
 977 00b7 3F       		.uleb128 0x3f
 978 00b8 0C       		.uleb128 0xc
 979 00b9 03       		.uleb128 0x3
 980 00ba 0E       		.uleb128 0xe
 981 00bb 3A       		.uleb128 0x3a
 982 00bc 0B       		.uleb128 0xb
 983 00bd 3B       		.uleb128 0x3b
 984 00be 0B       		.uleb128 0xb
 985 00bf 27       		.uleb128 0x27
 986 00c0 0C       		.uleb128 0xc
 987 00c1 20       		.uleb128 0x20
 988 00c2 0B       		.uleb128 0xb
 989 00c3 01       		.uleb128 0x1
 990 00c4 13       		.uleb128 0x13
 991 00c5 00       		.byte	0x0
 992 00c6 00       		.byte	0x0
 993 00c7 10       		.uleb128 0x10
 994 00c8 05       		.uleb128 0x5
 995 00c9 00       		.byte	0x0
 996 00ca 03       		.uleb128 0x3
 997 00cb 0E       		.uleb128 0xe
 998 00cc 3A       		.uleb128 0x3a
 999 00cd 0B       		.uleb128 0xb
 1000 00ce 3B       		.uleb128 0x3b
 1001 00cf 0B       		.uleb128 0xb
 1002 00d0 49       		.uleb128 0x49
 1003 00d1 13       		.uleb128 0x13
 1004 00d2 00       		.byte	0x0
 1005 00d3 00       		.byte	0x0
 1006 00d4 11       		.uleb128 0x11
 1007 00d5 34       		.uleb128 0x34
 1008 00d6 00       		.byte	0x0
 1009 00d7 03       		.uleb128 0x3
 1010 00d8 08       		.uleb128 0x8
 1011 00d9 3A       		.uleb128 0x3a
 1012 00da 0B       		.uleb128 0xb
 1013 00db 3B       		.uleb128 0x3b
 1014 00dc 0B       		.uleb128 0xb
 1015 00dd 49       		.uleb128 0x49
 1016 00de 13       		.uleb128 0x13
 1017 00df 00       		.byte	0x0
 1018 00e0 00       		.byte	0x0
ARM GAS  /tmp/ccbFT5WC.s 			page 19


 1019 00e1 12       		.uleb128 0x12
 1020 00e2 2E       		.uleb128 0x2e
 1021 00e3 01       		.byte	0x1
 1022 00e4 3F       		.uleb128 0x3f
 1023 00e5 0C       		.uleb128 0xc
 1024 00e6 03       		.uleb128 0x3
 1025 00e7 0E       		.uleb128 0xe
 1026 00e8 3A       		.uleb128 0x3a
 1027 00e9 0B       		.uleb128 0xb
 1028 00ea 3B       		.uleb128 0x3b
 1029 00eb 0B       		.uleb128 0xb
 1030 00ec 27       		.uleb128 0x27
 1031 00ed 0C       		.uleb128 0xc
 1032 00ee 11       		.uleb128 0x11
 1033 00ef 01       		.uleb128 0x1
 1034 00f0 12       		.uleb128 0x12
 1035 00f1 01       		.uleb128 0x1
 1036 00f2 40       		.uleb128 0x40
 1037 00f3 0A       		.uleb128 0xa
 1038 00f4 01       		.uleb128 0x1
 1039 00f5 13       		.uleb128 0x13
 1040 00f6 00       		.byte	0x0
 1041 00f7 00       		.byte	0x0
 1042 00f8 13       		.uleb128 0x13
 1043 00f9 05       		.uleb128 0x5
 1044 00fa 00       		.byte	0x0
 1045 00fb 03       		.uleb128 0x3
 1046 00fc 08       		.uleb128 0x8
 1047 00fd 3A       		.uleb128 0x3a
 1048 00fe 0B       		.uleb128 0xb
 1049 00ff 3B       		.uleb128 0x3b
 1050 0100 0B       		.uleb128 0xb
 1051 0101 49       		.uleb128 0x49
 1052 0102 13       		.uleb128 0x13
 1053 0103 02       		.uleb128 0x2
 1054 0104 0A       		.uleb128 0xa
 1055 0105 00       		.byte	0x0
 1056 0106 00       		.byte	0x0
 1057 0107 14       		.uleb128 0x14
 1058 0108 05       		.uleb128 0x5
 1059 0109 00       		.byte	0x0
 1060 010a 03       		.uleb128 0x3
 1061 010b 0E       		.uleb128 0xe
 1062 010c 3A       		.uleb128 0x3a
 1063 010d 0B       		.uleb128 0xb
 1064 010e 3B       		.uleb128 0x3b
 1065 010f 0B       		.uleb128 0xb
 1066 0110 49       		.uleb128 0x49
 1067 0111 13       		.uleb128 0x13
 1068 0112 02       		.uleb128 0x2
 1069 0113 06       		.uleb128 0x6
 1070 0114 00       		.byte	0x0
 1071 0115 00       		.byte	0x0
 1072 0116 15       		.uleb128 0x15
 1073 0117 05       		.uleb128 0x5
 1074 0118 00       		.byte	0x0
 1075 0119 03       		.uleb128 0x3
ARM GAS  /tmp/ccbFT5WC.s 			page 20


 1076 011a 0E       		.uleb128 0xe
 1077 011b 3A       		.uleb128 0x3a
 1078 011c 0B       		.uleb128 0xb
 1079 011d 3B       		.uleb128 0x3b
 1080 011e 0B       		.uleb128 0xb
 1081 011f 49       		.uleb128 0x49
 1082 0120 13       		.uleb128 0x13
 1083 0121 02       		.uleb128 0x2
 1084 0122 0A       		.uleb128 0xa
 1085 0123 00       		.byte	0x0
 1086 0124 00       		.byte	0x0
 1087 0125 16       		.uleb128 0x16
 1088 0126 2E       		.uleb128 0x2e
 1089 0127 01       		.byte	0x1
 1090 0128 31       		.uleb128 0x31
 1091 0129 13       		.uleb128 0x13
 1092 012a 11       		.uleb128 0x11
 1093 012b 01       		.uleb128 0x1
 1094 012c 12       		.uleb128 0x12
 1095 012d 01       		.uleb128 0x1
 1096 012e 40       		.uleb128 0x40
 1097 012f 06       		.uleb128 0x6
 1098 0130 01       		.uleb128 0x1
 1099 0131 13       		.uleb128 0x13
 1100 0132 00       		.byte	0x0
 1101 0133 00       		.byte	0x0
 1102 0134 17       		.uleb128 0x17
 1103 0135 05       		.uleb128 0x5
 1104 0136 00       		.byte	0x0
 1105 0137 31       		.uleb128 0x31
 1106 0138 13       		.uleb128 0x13
 1107 0139 02       		.uleb128 0x2
 1108 013a 06       		.uleb128 0x6
 1109 013b 00       		.byte	0x0
 1110 013c 00       		.byte	0x0
 1111 013d 18       		.uleb128 0x18
 1112 013e 34       		.uleb128 0x34
 1113 013f 00       		.byte	0x0
 1114 0140 31       		.uleb128 0x31
 1115 0141 13       		.uleb128 0x13
 1116 0142 02       		.uleb128 0x2
 1117 0143 06       		.uleb128 0x6
 1118 0144 00       		.byte	0x0
 1119 0145 00       		.byte	0x0
 1120 0146 19       		.uleb128 0x19
 1121 0147 2E       		.uleb128 0x2e
 1122 0148 01       		.byte	0x1
 1123 0149 3F       		.uleb128 0x3f
 1124 014a 0C       		.uleb128 0xc
 1125 014b 03       		.uleb128 0x3
 1126 014c 0E       		.uleb128 0xe
 1127 014d 3A       		.uleb128 0x3a
 1128 014e 0B       		.uleb128 0xb
 1129 014f 3B       		.uleb128 0x3b
 1130 0150 0B       		.uleb128 0xb
 1131 0151 27       		.uleb128 0x27
 1132 0152 0C       		.uleb128 0xc
ARM GAS  /tmp/ccbFT5WC.s 			page 21


 1133 0153 49       		.uleb128 0x49
 1134 0154 13       		.uleb128 0x13
 1135 0155 11       		.uleb128 0x11
 1136 0156 01       		.uleb128 0x1
 1137 0157 12       		.uleb128 0x12
 1138 0158 01       		.uleb128 0x1
 1139 0159 40       		.uleb128 0x40
 1140 015a 06       		.uleb128 0x6
 1141 015b 01       		.uleb128 0x1
 1142 015c 13       		.uleb128 0x13
 1143 015d 00       		.byte	0x0
 1144 015e 00       		.byte	0x0
 1145 015f 1A       		.uleb128 0x1a
 1146 0160 05       		.uleb128 0x5
 1147 0161 00       		.byte	0x0
 1148 0162 03       		.uleb128 0x3
 1149 0163 08       		.uleb128 0x8
 1150 0164 3A       		.uleb128 0x3a
 1151 0165 0B       		.uleb128 0xb
 1152 0166 3B       		.uleb128 0x3b
 1153 0167 0B       		.uleb128 0xb
 1154 0168 49       		.uleb128 0x49
 1155 0169 13       		.uleb128 0x13
 1156 016a 02       		.uleb128 0x2
 1157 016b 06       		.uleb128 0x6
 1158 016c 00       		.byte	0x0
 1159 016d 00       		.byte	0x0
 1160 016e 1B       		.uleb128 0x1b
 1161 016f 34       		.uleb128 0x34
 1162 0170 00       		.byte	0x0
 1163 0171 03       		.uleb128 0x3
 1164 0172 0E       		.uleb128 0xe
 1165 0173 3A       		.uleb128 0x3a
 1166 0174 0B       		.uleb128 0xb
 1167 0175 3B       		.uleb128 0x3b
 1168 0176 0B       		.uleb128 0xb
 1169 0177 49       		.uleb128 0x49
 1170 0178 13       		.uleb128 0x13
 1171 0179 02       		.uleb128 0x2
 1172 017a 0A       		.uleb128 0xa
 1173 017b 00       		.byte	0x0
 1174 017c 00       		.byte	0x0
 1175 017d 1C       		.uleb128 0x1c
 1176 017e 0B       		.uleb128 0xb
 1177 017f 01       		.byte	0x1
 1178 0180 11       		.uleb128 0x11
 1179 0181 01       		.uleb128 0x1
 1180 0182 12       		.uleb128 0x12
 1181 0183 01       		.uleb128 0x1
 1182 0184 01       		.uleb128 0x1
 1183 0185 13       		.uleb128 0x13
 1184 0186 00       		.byte	0x0
 1185 0187 00       		.byte	0x0
 1186 0188 1D       		.uleb128 0x1d
 1187 0189 34       		.uleb128 0x34
 1188 018a 00       		.byte	0x0
 1189 018b 03       		.uleb128 0x3
ARM GAS  /tmp/ccbFT5WC.s 			page 22


 1190 018c 08       		.uleb128 0x8
 1191 018d 3A       		.uleb128 0x3a
 1192 018e 0B       		.uleb128 0xb
 1193 018f 3B       		.uleb128 0x3b
 1194 0190 0B       		.uleb128 0xb
 1195 0191 49       		.uleb128 0x49
 1196 0192 13       		.uleb128 0x13
 1197 0193 02       		.uleb128 0x2
 1198 0194 06       		.uleb128 0x6
 1199 0195 00       		.byte	0x0
 1200 0196 00       		.byte	0x0
 1201 0197 1E       		.uleb128 0x1e
 1202 0198 1D       		.uleb128 0x1d
 1203 0199 01       		.byte	0x1
 1204 019a 31       		.uleb128 0x31
 1205 019b 13       		.uleb128 0x13
 1206 019c 52       		.uleb128 0x52
 1207 019d 01       		.uleb128 0x1
 1208 019e 55       		.uleb128 0x55
 1209 019f 06       		.uleb128 0x6
 1210 01a0 58       		.uleb128 0x58
 1211 01a1 0B       		.uleb128 0xb
 1212 01a2 59       		.uleb128 0x59
 1213 01a3 0B       		.uleb128 0xb
 1214 01a4 01       		.uleb128 0x1
 1215 01a5 13       		.uleb128 0x13
 1216 01a6 00       		.byte	0x0
 1217 01a7 00       		.byte	0x0
 1218 01a8 1F       		.uleb128 0x1f
 1219 01a9 0B       		.uleb128 0xb
 1220 01aa 01       		.byte	0x1
 1221 01ab 55       		.uleb128 0x55
 1222 01ac 06       		.uleb128 0x6
 1223 01ad 00       		.byte	0x0
 1224 01ae 00       		.byte	0x0
 1225 01af 20       		.uleb128 0x20
 1226 01b0 2E       		.uleb128 0x2e
 1227 01b1 01       		.byte	0x1
 1228 01b2 31       		.uleb128 0x31
 1229 01b3 13       		.uleb128 0x13
 1230 01b4 11       		.uleb128 0x11
 1231 01b5 01       		.uleb128 0x1
 1232 01b6 12       		.uleb128 0x12
 1233 01b7 01       		.uleb128 0x1
 1234 01b8 40       		.uleb128 0x40
 1235 01b9 0A       		.uleb128 0xa
 1236 01ba 01       		.uleb128 0x1
 1237 01bb 13       		.uleb128 0x13
 1238 01bc 00       		.byte	0x0
 1239 01bd 00       		.byte	0x0
 1240 01be 21       		.uleb128 0x21
 1241 01bf 05       		.uleb128 0x5
 1242 01c0 00       		.byte	0x0
 1243 01c1 31       		.uleb128 0x31
 1244 01c2 13       		.uleb128 0x13
 1245 01c3 02       		.uleb128 0x2
 1246 01c4 0A       		.uleb128 0xa
ARM GAS  /tmp/ccbFT5WC.s 			page 23


 1247 01c5 00       		.byte	0x0
 1248 01c6 00       		.byte	0x0
 1249 01c7 22       		.uleb128 0x22
 1250 01c8 34       		.uleb128 0x34
 1251 01c9 00       		.byte	0x0
 1252 01ca 31       		.uleb128 0x31
 1253 01cb 13       		.uleb128 0x13
 1254 01cc 02       		.uleb128 0x2
 1255 01cd 0A       		.uleb128 0xa
 1256 01ce 00       		.byte	0x0
 1257 01cf 00       		.byte	0x0
 1258 01d0 23       		.uleb128 0x23
 1259 01d1 2E       		.uleb128 0x2e
 1260 01d2 01       		.byte	0x1
 1261 01d3 3F       		.uleb128 0x3f
 1262 01d4 0C       		.uleb128 0xc
 1263 01d5 03       		.uleb128 0x3
 1264 01d6 0E       		.uleb128 0xe
 1265 01d7 3A       		.uleb128 0x3a
 1266 01d8 0B       		.uleb128 0xb
 1267 01d9 3B       		.uleb128 0x3b
 1268 01da 0B       		.uleb128 0xb
 1269 01db 27       		.uleb128 0x27
 1270 01dc 0C       		.uleb128 0xc
 1271 01dd 11       		.uleb128 0x11
 1272 01de 01       		.uleb128 0x1
 1273 01df 12       		.uleb128 0x12
 1274 01e0 01       		.uleb128 0x1
 1275 01e1 40       		.uleb128 0x40
 1276 01e2 0A       		.uleb128 0xa
 1277 01e3 00       		.byte	0x0
 1278 01e4 00       		.byte	0x0
 1279 01e5 00       		.byte	0x0
 1280              		.section	.debug_pubnames,"",%progbits
 1281 0000 5D000000 		.4byte	0x5d
 1282 0004 0200     		.2byte	0x2
 1283 0006 00000000 		.4byte	.Ldebug_info0
 1284 000a 1E030000 		.4byte	0x31e
 1285 000e 64010000 		.4byte	0x164
 1286 0012 6368506F 		.ascii	"chPoolInit\000"
 1286      6F6C496E 
 1286      697400
 1287 001d A5010000 		.4byte	0x1a5
 1288 0021 6368506F 		.ascii	"chPoolAllocI\000"
 1288      6F6C416C 
 1288      6C6F6349 
 1288      00
 1289 002e CD010000 		.4byte	0x1cd
 1290 0032 6368506F 		.ascii	"chPoolAlloc\000"
 1290      6F6C416C 
 1290      6C6F6300 
 1291 003e 64020000 		.4byte	0x264
 1292 0042 6368506F 		.ascii	"chPoolFreeI\000"
 1292      6F6C4672 
 1292      65654900 
 1293 004e 8E020000 		.4byte	0x28e
 1294 0052 6368506F 		.ascii	"chPoolFree\000"
ARM GAS  /tmp/ccbFT5WC.s 			page 24


 1294      6F6C4672 
 1294      656500
 1295 005d 00000000 		.4byte	0x0
 1296              		.section	.debug_pubtypes,"",%progbits
 1297 0000 56000000 		.4byte	0x56
 1298 0004 0200     		.2byte	0x2
 1299 0006 00000000 		.4byte	.Ldebug_info0
 1300 000a 1E030000 		.4byte	0x31e
 1301 000e 30000000 		.4byte	0x30
 1302 0012 73697A65 		.ascii	"size_t\000"
 1302      5F7400
 1303 0019 65000000 		.4byte	0x65
 1304 001d 75696E74 		.ascii	"uint32_t\000"
 1304      33325F74 
 1304      00
 1305 0026 87000000 		.4byte	0x87
 1306 002a 6D656D67 		.ascii	"memgetfunc_t\000"
 1306      65746675 
 1306      6E635F74 
 1306      00
 1307 0037 A8000000 		.4byte	0xa8
 1308 003b 706F6F6C 		.ascii	"pool_header\000"
 1308      5F686561 
 1308      64657200 
 1309 0047 FC000000 		.4byte	0xfc
 1310 004b 4D656D6F 		.ascii	"MemoryPool\000"
 1310      7279506F 
 1310      6F6C00
 1311 0056 00000000 		.4byte	0x0
 1312              		.section	.debug_aranges,"",%progbits
 1313 0000 3C000000 		.4byte	0x3c
 1314 0004 0200     		.2byte	0x2
 1315 0006 00000000 		.4byte	.Ldebug_info0
 1316 000a 04       		.byte	0x4
 1317 000b 00       		.byte	0x0
 1318 000c 0000     		.2byte	0x0
 1319 000e 0000     		.2byte	0x0
 1320 0010 00000000 		.4byte	.LFB7
 1321 0014 10000000 		.4byte	.LFE7-.LFB7
 1322 0018 00000000 		.4byte	.LFB8
 1323 001c 18000000 		.4byte	.LFE8-.LFB8
 1324 0020 00000000 		.4byte	.LFB9
 1325 0024 2C000000 		.4byte	.LFE9-.LFB9
 1326 0028 00000000 		.4byte	.LFB10
 1327 002c 08000000 		.4byte	.LFE10-.LFB10
 1328 0030 00000000 		.4byte	.LFB11
 1329 0034 14000000 		.4byte	.LFE11-.LFB11
 1330 0038 00000000 		.4byte	0x0
 1331 003c 00000000 		.4byte	0x0
 1332              		.section	.debug_ranges,"",%progbits
 1333              	.Ldebug_ranges0:
 1334 0000 0A000000 		.4byte	.LBB11
 1335 0004 12000000 		.4byte	.LBE11
 1336 0008 1A000000 		.4byte	.LBB15
 1337 000c 24000000 		.4byte	.LBE15
 1338 0010 00000000 		.4byte	0x0
 1339 0014 00000000 		.4byte	0x0
ARM GAS  /tmp/ccbFT5WC.s 			page 25


 1340 0018 0A000000 		.4byte	.LBB12
 1341 001c 12000000 		.4byte	.LBE12
 1342 0020 1A000000 		.4byte	.LBB13
 1343 0024 24000000 		.4byte	.LBE13
 1344 0028 00000000 		.4byte	0x0
 1345 002c 00000000 		.4byte	0x0
 1346 0030 12000000 		.4byte	.LBB14
 1347 0034 18000000 		.4byte	.LBE14
 1348 0038 24000000 		.4byte	.LBB16
 1349 003c 2A000000 		.4byte	.LBE16
 1350 0040 00000000 		.4byte	0x0
 1351 0044 00000000 		.4byte	0x0
 1352 0048 06000000 		.4byte	.LBB18
 1353 004c 08000000 		.4byte	.LBE18
 1354 0050 0A000000 		.4byte	.LBB22
 1355 0054 0E000000 		.4byte	.LBE22
 1356 0058 00000000 		.4byte	0x0
 1357 005c 00000000 		.4byte	0x0
 1358 0060 06000000 		.4byte	.LBB19
 1359 0064 08000000 		.4byte	.LBE19
 1360 0068 0A000000 		.4byte	.LBB20
 1361 006c 0E000000 		.4byte	.LBE20
 1362 0070 00000000 		.4byte	0x0
 1363 0074 00000000 		.4byte	0x0
 1364 0078 08000000 		.4byte	.LBB21
 1365 007c 0A000000 		.4byte	.LBE21
 1366 0080 0E000000 		.4byte	.LBB23
 1367 0084 12000000 		.4byte	.LBE23
 1368 0088 00000000 		.4byte	0x0
 1369 008c 00000000 		.4byte	0x0
 1370 0090 00000000 		.4byte	.LFB7
 1371 0094 10000000 		.4byte	.LFE7
 1372 0098 00000000 		.4byte	.LFB8
 1373 009c 18000000 		.4byte	.LFE8
 1374 00a0 00000000 		.4byte	.LFB9
 1375 00a4 2C000000 		.4byte	.LFE9
 1376 00a8 00000000 		.4byte	.LFB10
 1377 00ac 08000000 		.4byte	.LFE10
 1378 00b0 00000000 		.4byte	.LFB11
 1379 00b4 14000000 		.4byte	.LFE11
 1380 00b8 00000000 		.4byte	0x0
 1381 00bc 00000000 		.4byte	0x0
 1382              		.section	.debug_str,"MS",%progbits,1
 1383              	.LASF6:
 1384 0000 73697A65 		.ascii	"size_t\000"
 1384      5F7400
 1385              	.LASF22:
 1386 0007 474E5520 		.ascii	"GNU C 4.5.1\000"
 1386      4320342E 
 1386      352E3100 
 1387              	.LASF14:
 1388 0013 6D705F6F 		.ascii	"mp_object_size\000"
 1388      626A6563 
 1388      745F7369 
 1388      7A6500
 1389              	.LASF25:
 1390 0022 706F6F6C 		.ascii	"pool_header\000"
ARM GAS  /tmp/ccbFT5WC.s 			page 26


 1390      5F686561 
 1390      64657200 
 1391              	.LASF18:
 1392 002e 73697A65 		.ascii	"size\000"
 1392      00
 1393              	.LASF8:
 1394 0033 6C6F6E67 		.ascii	"long unsigned int\000"
 1394      20756E73 
 1394      69676E65 
 1394      6420696E 
 1394      7400
 1395              	.LASF4:
 1396 0045 73686F72 		.ascii	"short unsigned int\000"
 1396      7420756E 
 1396      7369676E 
 1396      65642069 
 1396      6E7400
 1397              	.LASF19:
 1398 0058 70726F76 		.ascii	"provider\000"
 1398      69646572 
 1398      00
 1399              	.LASF24:
 1400 0061 2F686F6D 		.ascii	"/home/dan/github/github-projects/Quad-Rotor/QuadRot"
 1400      652F6461 
 1400      6E2F6769 
 1400      74687562 
 1400      2F676974 
 1401 0094 6F7200   		.ascii	"or\000"
 1402              	.LASF26:
 1403 0097 6368506F 		.ascii	"chPoolFreeI\000"
 1403      6F6C4672 
 1403      65654900 
 1404              	.LASF2:
 1405 00a3 756E7369 		.ascii	"unsigned char\000"
 1405      676E6564 
 1405      20636861 
 1405      7200
 1406              	.LASF21:
 1407 00b1 6368506F 		.ascii	"chPoolFree\000"
 1407      6F6C4672 
 1407      656500
 1408              	.LASF16:
 1409 00bc 4D656D6F 		.ascii	"MemoryPool\000"
 1409      7279506F 
 1409      6F6C00
 1410              	.LASF17:
 1411 00c7 6F626A70 		.ascii	"objp\000"
 1411      00
 1412              	.LASF20:
 1413 00cc 6368506F 		.ascii	"chPoolAllocI\000"
 1413      6F6C416C 
 1413      6C6F6349 
 1413      00
 1414              	.LASF0:
 1415 00d9 756E7369 		.ascii	"unsigned int\000"
 1415      676E6564 
 1415      20696E74 
ARM GAS  /tmp/ccbFT5WC.s 			page 27


 1415      00
 1416              	.LASF10:
 1417 00e6 6C6F6E67 		.ascii	"long long unsigned int\000"
 1417      206C6F6E 
 1417      6720756E 
 1417      7369676E 
 1417      65642069 
 1418              	.LASF12:
 1419 00fd 70685F6E 		.ascii	"ph_next\000"
 1419      65787400 
 1420              	.LASF9:
 1421 0105 6C6F6E67 		.ascii	"long long int\000"
 1421      206C6F6E 
 1421      6720696E 
 1421      7400
 1422              	.LASF11:
 1423 0113 6D656D67 		.ascii	"memgetfunc_t\000"
 1423      65746675 
 1423      6E635F74 
 1423      00
 1424              	.LASF15:
 1425 0120 6D705F70 		.ascii	"mp_provider\000"
 1425      726F7669 
 1425      64657200 
 1426              	.LASF3:
 1427 012c 73686F72 		.ascii	"short int\000"
 1427      7420696E 
 1427      7400
 1428              	.LASF28:
 1429 0136 6368506F 		.ascii	"chPoolAlloc\000"
 1429      6F6C416C 
 1429      6C6F6300 
 1430              	.LASF23:
 1431 0142 63686962 		.ascii	"chibios/os/kernel/src/chmempools.c\000"
 1431      696F732F 
 1431      6F732F6B 
 1431      65726E65 
 1431      6C2F7372 
 1432              	.LASF7:
 1433 0165 75696E74 		.ascii	"uint32_t\000"
 1433      33325F74 
 1433      00
 1434              	.LASF5:
 1435 016e 6C6F6E67 		.ascii	"long int\000"
 1435      20696E74 
 1435      00
 1436              	.LASF1:
 1437 0177 7369676E 		.ascii	"signed char\000"
 1437      65642063 
 1437      68617200 
 1438              	.LASF13:
 1439 0183 6D705F6E 		.ascii	"mp_next\000"
 1439      65787400 
 1440              	.LASF27:
 1441 018b 6368506F 		.ascii	"chPoolInit\000"
 1441      6F6C496E 
 1441      697400
ARM GAS  /tmp/ccbFT5WC.s 			page 28


 1442              		.ident	"GCC: (GNU) 4.5.1"
ARM GAS  /tmp/ccbFT5WC.s 			page 29


DEFINED SYMBOLS
                            *ABS*:0000000000000000 chmempools.c
     /tmp/ccbFT5WC.s:24     .text.chPoolInit:0000000000000000 $t
     /tmp/ccbFT5WC.s:30     .text.chPoolInit:0000000000000000 chPoolInit
     /tmp/ccbFT5WC.s:57     .text.chPoolAllocI:0000000000000000 $t
     /tmp/ccbFT5WC.s:63     .text.chPoolAllocI:0000000000000000 chPoolAllocI
     /tmp/ccbFT5WC.s:101    .text.chPoolAlloc:0000000000000000 $t
     /tmp/ccbFT5WC.s:107    .text.chPoolAlloc:0000000000000000 chPoolAlloc
     /tmp/ccbFT5WC.s:187    .text.chPoolFreeI:0000000000000000 $t
     /tmp/ccbFT5WC.s:193    .text.chPoolFreeI:0000000000000000 chPoolFreeI
     /tmp/ccbFT5WC.s:213    .text.chPoolFree:0000000000000000 $t
     /tmp/ccbFT5WC.s:219    .text.chPoolFree:0000000000000000 chPoolFree
                     .debug_frame:0000000000000010 $d

NO UNDEFINED SYMBOLS
