ARM GAS  /tmp/ccVCEuZU.s 			page 1


   1              		.syntax unified
   2              		.cpu cortex-m3
   3              		.fpu softvfp
   4              		.eabi_attribute 20, 1
   5              		.eabi_attribute 21, 1
   6              		.eabi_attribute 23, 3
   7              		.eabi_attribute 24, 1
   8              		.eabi_attribute 25, 1
   9              		.eabi_attribute 26, 1
  10              		.eabi_attribute 30, 2
  11              		.eabi_attribute 18, 4
  12              		.thumb
  13              		.file	"chmtx.c"
  14              		.section	.debug_abbrev,"",%progbits
  15              	.Ldebug_abbrev0:
  16              		.section	.debug_info,"",%progbits
  17              	.Ldebug_info0:
  18              		.section	.debug_line,"",%progbits
  19              	.Ldebug_line0:
  20 0000 33030000 		.text
  20      02003501 
  20      00000201 
  20      FB0E0D00 
  20      01010101 
  21              	.Ltext0:
  22              		.cfi_sections	.debug_frame
  23              		.section	.text.chMtxInit,"ax",%progbits
  24              		.align	2
  25              		.p2align 4,,15
  26              		.global	chMtxInit
  27              		.thumb
  28              		.thumb_func
  29              		.type	chMtxInit, %function
  30              	chMtxInit:
  31              	.LFB7:
  32              		.file 1 "chibios/os/kernel/src/chmtx.c"
  33              		.loc 1 85 0
  34              		.cfi_startproc
  35              		@ args = 0, pretend = 0, frame = 0
  36              		@ frame_needed = 0, uses_anonymous_args = 0
  37              		@ link register save eliminated.
  38              	.LVL0:
  39              		.loc 1 90 0
  40 0000 0023     		movs	r3, #0
  41              		.loc 1 89 0
  42 0002 4060     		str	r0, [r0, #4]
  43 0004 0060     		str	r0, [r0, #0]
  44              		.loc 1 90 0
  45 0006 8360     		str	r3, [r0, #8]
  46              		.loc 1 91 0
  47 0008 7047     		bx	lr
  48              		.cfi_endproc
  49              	.LFE7:
  50              		.size	chMtxInit, .-chMtxInit
  51 000a 00BFAFF3 		.section	.text.chMtxLockS,"ax",%progbits
  51      0080
  52              		.align	2
ARM GAS  /tmp/ccVCEuZU.s 			page 2


  53              		.p2align 4,,15
  54              		.global	chMtxLockS
  55              		.thumb
  56              		.thumb_func
  57              		.type	chMtxLockS, %function
  58              	chMtxLockS:
  59              	.LFB9:
  60              		.loc 1 120 0
  61              		.cfi_startproc
  62              		@ args = 0, pretend = 0, frame = 0
  63              		@ frame_needed = 0, uses_anonymous_args = 0
  64              	.LVL1:
  65              		.loc 1 121 0
  66 0000 40F20002 		movw	r2, #:lower16:rlist
  67              		.loc 1 126 0
  68 0004 8368     		ldr	r3, [r0, #8]
  69              		.loc 1 121 0
  70 0006 C0F20002 		movt	r2, #:upper16:rlist
  71              		.loc 1 120 0
  72 000a 2DE9F041 		push	{r4, r5, r6, r7, r8, lr}
  73              	.LCFI0:
  74              		.cfi_def_cfa_offset 24
  75              		.loc 1 120 0
  76 000e 0546     		mov	r5, r0
  77              		.cfi_offset 14, -4
  78              		.cfi_offset 8, -8
  79              		.cfi_offset 7, -12
  80              		.cfi_offset 6, -16
  81              		.cfi_offset 5, -20
  82              		.cfi_offset 4, -24
  83              		.loc 1 121 0
  84 0010 D469     		ldr	r4, [r2, #28]
  85              	.LVL2:
  86              		.loc 1 126 0
  87 0012 002B     		cmp	r3, #0
  88 0014 51D0     		beq	.L3
  89              	.LVL3:
  90              	.LBB33:
  91              		.loc 1 133 0 discriminator 1
  92 0016 A168     		ldr	r1, [r4, #8]
  93 0018 9868     		ldr	r0, [r3, #8]
  94              	.LVL4:
  95 001a 8142     		cmp	r1, r0
  96 001c 06D9     		bls	.L4
  97              	.LVL5:
  98              	.L18:
  99              		.loc 1 137 0
 100 001e 1A7E     		ldrb	r2, [r3, #24]	@ zero_extendqisi2
 101              		.loc 1 135 0
 102 0020 9960     		str	r1, [r3, #8]
 103              		.loc 1 137 0
 104 0022 042A     		cmp	r2, #4
 105 0024 31D0     		beq	.L6
 106 0026 052A     		cmp	r2, #5
 107 0028 1CD0     		beq	.L7
 108 002a 92B1     		cbz	r2, .L5
 109              	.LVL6:
ARM GAS  /tmp/ccVCEuZU.s 			page 3


 110              	.L4:
 111              	.LBB35:
 112              	.LBB36:
 113              		.file 2 "chibios/os/kernel/include/chinline.h"
 114              		.loc 2 42 0
 115 002c 2B46     		mov	r3, r5
 116              	.LVL7:
 117              	.L14:
 118              		.loc 2 44 0
 119 002e 1B68     		ldr	r3, [r3, #0]
 120              	.LVL8:
 121              		.loc 2 45 0
 122 0030 9D42     		cmp	r5, r3
 123 0032 03D0     		beq	.L13
 124 0034 9868     		ldr	r0, [r3, #8]
 125 0036 A268     		ldr	r2, [r4, #8]
 126 0038 9042     		cmp	r0, r2
 127 003a F8D2     		bcs	.L14
 128              	.L13:
 129              		.loc 2 47 0
 130 003c 5968     		ldr	r1, [r3, #4]
 131              	.LBE36:
 132              	.LBE35:
 133              		.loc 1 170 0
 134 003e 0420     		movs	r0, #4
 135              	.LBB34:
 136              	.LBB37:
 137              		.loc 2 46 0
 138 0040 2360     		str	r3, [r4, #0]
 139              		.loc 2 47 0
 140 0042 6160     		str	r1, [r4, #4]
 141              		.loc 2 48 0
 142 0044 0C60     		str	r4, [r1, #0]
 143 0046 5C60     		str	r4, [r3, #4]
 144              	.LBE37:
 145              	.LBE34:
 146              		.loc 1 169 0
 147 0048 2562     		str	r5, [r4, #32]
 148              	.LBE33:
 149              		.loc 1 182 0
 150 004a BDE8F041 		pop	{r4, r5, r6, r7, r8, lr}
 151              	.LBB64:
 152              		.loc 1 170 0
 153 004e FFF7FEBF 		b	chSchGoSleepS
 154              	.LVL9:
 155              	.L5:
 156              	.LBB38:
 157              	.LBB39:
 158              		.loc 2 74 0
 159 0052 5A68     		ldr	r2, [r3, #4]
 160 0054 1968     		ldr	r1, [r3, #0]
 161              	.LBE39:
 162              	.LBE38:
 163              		.loc 1 163 0
 164 0056 1846     		mov	r0, r3
 165              	.LBB41:
 166              	.LBB40:
ARM GAS  /tmp/ccVCEuZU.s 			page 4


 167              		.loc 2 74 0
 168 0058 1160     		str	r1, [r2, #0]
 169              		.loc 2 75 0
 170 005a 1B68     		ldr	r3, [r3, #0]
 171              	.LVL10:
 172 005c 5A60     		str	r2, [r3, #4]
 173              	.LBE40:
 174              	.LBE41:
 175              		.loc 1 163 0
 176 005e FFF7FEFF 		bl	chSchReadyI
 177              	.LVL11:
 178 0062 E3E7     		b	.L4
 179              	.LVL12:
 180              	.L7:
 181              	.LBB42:
 182              	.LBB44:
 183              		.loc 2 74 0
 184 0064 5868     		ldr	r0, [r3, #4]
 185 0066 1F68     		ldr	r7, [r3, #0]
 186              	.LBE44:
 187              	.LBE42:
 188              	.LBB46:
 189              	.LBB48:
 190              		.loc 2 42 0
 191 0068 1E6A     		ldr	r6, [r3, #32]
 192              	.LBE48:
 193              	.LBE46:
 194              	.LBB50:
 195              	.LBB43:
 196              		.loc 2 74 0
 197 006a 0760     		str	r7, [r0, #0]
 198              		.loc 2 75 0
 199 006c 1F68     		ldr	r7, [r3, #0]
 200              	.LBE43:
 201              	.LBE50:
 202              	.LBB51:
 203              	.LBB47:
 204              		.loc 2 42 0
 205 006e 3246     		mov	r2, r6
 206              	.LBE47:
 207              	.LBE51:
 208              	.LBB52:
 209              	.LBB45:
 210              		.loc 2 75 0
 211 0070 7860     		str	r0, [r7, #4]
 212              	.LVL13:
 213              	.L12:
 214              	.LBE45:
 215              	.LBE52:
 216              	.LBB53:
 217              	.LBB49:
 218              		.loc 2 44 0
 219 0072 1268     		ldr	r2, [r2, #0]
 220              	.LVL14:
 221              		.loc 2 45 0
 222 0074 9642     		cmp	r6, r2
 223 0076 02D0     		beq	.L11
ARM GAS  /tmp/ccVCEuZU.s 			page 5


 224 0078 9068     		ldr	r0, [r2, #8]
 225 007a 8842     		cmp	r0, r1
 226 007c F9D2     		bcs	.L12
 227              	.L11:
 228              		.loc 2 47 0
 229 007e 5168     		ldr	r1, [r2, #4]
 230              		.loc 2 46 0
 231 0080 1A60     		str	r2, [r3, #0]
 232              		.loc 2 47 0
 233 0082 5960     		str	r1, [r3, #4]
 234              		.loc 2 48 0
 235 0084 0B60     		str	r3, [r1, #0]
 236 0086 5360     		str	r3, [r2, #4]
 237              	.LBE49:
 238              	.LBE53:
 239              		.loc 1 155 0
 240 0088 D0E7     		b	.L4
 241              	.LVL15:
 242              	.L6:
 243              	.LBB54:
 244              	.LBB56:
 245              		.loc 2 74 0
 246 008a 5868     		ldr	r0, [r3, #4]
 247 008c 1F68     		ldr	r7, [r3, #0]
 248              	.LBE56:
 249              	.LBE54:
 250              		.loc 1 140 0
 251 008e 1E6A     		ldr	r6, [r3, #32]
 252              	.LVL16:
 253              	.LBB58:
 254              	.LBB55:
 255              		.loc 2 74 0
 256 0090 0760     		str	r7, [r0, #0]
 257              		.loc 2 75 0
 258 0092 1F68     		ldr	r7, [r3, #0]
 259              	.LBE55:
 260              	.LBE58:
 261              	.LBB59:
 262              	.LBB60:
 263              		.loc 2 42 0
 264 0094 3246     		mov	r2, r6
 265              	.LBE60:
 266              	.LBE59:
 267              	.LBB62:
 268              	.LBB57:
 269              		.loc 2 75 0
 270 0096 7860     		str	r0, [r7, #4]
 271              	.LVL17:
 272              	.L9:
 273              	.LBE57:
 274              	.LBE62:
 275              	.LBB63:
 276              	.LBB61:
 277              		.loc 2 44 0
 278 0098 1268     		ldr	r2, [r2, #0]
 279              	.LVL18:
 280              		.loc 2 45 0
ARM GAS  /tmp/ccVCEuZU.s 			page 6


 281 009a 9642     		cmp	r6, r2
 282 009c 02D0     		beq	.L8
 283 009e 9068     		ldr	r0, [r2, #8]
 284 00a0 8842     		cmp	r0, r1
 285 00a2 F9D2     		bcs	.L9
 286              	.L8:
 287              		.loc 2 47 0
 288 00a4 5168     		ldr	r1, [r2, #4]
 289              		.loc 2 46 0
 290 00a6 1A60     		str	r2, [r3, #0]
 291              		.loc 2 47 0
 292 00a8 5960     		str	r1, [r3, #4]
 293              		.loc 2 48 0
 294 00aa 0B60     		str	r3, [r1, #0]
 295 00ac 5360     		str	r3, [r2, #4]
 296              	.LBE61:
 297              	.LBE63:
 298              		.loc 1 141 0
 299 00ae B368     		ldr	r3, [r6, #8]
 300              	.LVL19:
 301              		.loc 1 133 0
 302 00b0 A168     		ldr	r1, [r4, #8]
 303 00b2 9A68     		ldr	r2, [r3, #8]
 304              	.LVL20:
 305 00b4 8A42     		cmp	r2, r1
 306 00b6 B2D3     		bcc	.L18
 307 00b8 B8E7     		b	.L4
 308              	.LVL21:
 309              	.L3:
 310              	.LBE64:
 311              		.loc 1 179 0
 312 00ba A36B     		ldr	r3, [r4, #56]
 313              		.loc 1 178 0
 314 00bc 8460     		str	r4, [r0, #8]
 315              		.loc 1 179 0
 316 00be C360     		str	r3, [r0, #12]
 317              		.loc 1 180 0
 318 00c0 A063     		str	r0, [r4, #56]
 319              		.loc 1 182 0
 320 00c2 BDE8F081 		pop	{r4, r5, r6, r7, r8, pc}
 321              		.cfi_endproc
 322              	.LFE9:
 323              		.size	chMtxLockS, .-chMtxLockS
 324 00c6 00BFAFF3 		.section	.text.chMtxLock,"ax",%progbits
 324      0080AFF3 
 324      0080
 325              		.align	2
 326              		.p2align 4,,15
 327              		.global	chMtxLock
 328              		.thumb
 329              		.thumb_func
 330              		.type	chMtxLock, %function
 331              	chMtxLock:
 332              	.LFB8:
 333              		.loc 1 102 0
 334              		.cfi_startproc
 335              		@ args = 0, pretend = 0, frame = 0
ARM GAS  /tmp/ccVCEuZU.s 			page 7


 336              		@ frame_needed = 0, uses_anonymous_args = 0
 337              	.LVL22:
 338 0000 08B5     		push	{r3, lr}
 339              	.LCFI1:
 340              		.cfi_def_cfa_offset 8
 341              	.LBB65:
 342              		.loc 1 104 0
 343 0002 2023     		movs	r3, #32
 344              		.cfi_offset 14, -4
 345              		.cfi_offset 3, -8
 346              	.LVL23:
 347              	@ 104 "chibios/os/kernel/src/chmtx.c" 1
 348 0004 83F31188 		msr     BASEPRI, r3
 349              	@ 0 "" 2
 350              	.LVL24:
 351              		.thumb
 352              	.LBE65:
 353              		.loc 1 106 0
 354 0008 FFF7FEFF 		bl	chMtxLockS
 355              	.LVL25:
 356              	.LBB66:
 357              		.loc 1 108 0
 358 000c 0023     		movs	r3, #0
 359              	.LVL26:
 360              	@ 108 "chibios/os/kernel/src/chmtx.c" 1
 361 000e 83F31188 		msr     BASEPRI, r3
 362              	@ 0 "" 2
 363              	.LVL27:
 364              		.thumb
 365              	.LBE66:
 366              		.loc 1 109 0
 367 0012 08BD     		pop	{r3, pc}
 368              		.cfi_endproc
 369              	.LFE8:
 370              		.size	chMtxLock, .-chMtxLock
 371 0014 AFF30080 		.section	.text.chMtxTryLock,"ax",%progbits
 371      AFF30080 
 371      AFF30080 
 372              		.align	2
 373              		.p2align 4,,15
 374              		.global	chMtxTryLock
 375              		.thumb
 376              		.thumb_func
 377              		.type	chMtxTryLock, %function
 378              	chMtxTryLock:
 379              	.LFB10:
 380              		.loc 1 201 0
 381              		.cfi_startproc
 382              		@ args = 0, pretend = 0, frame = 0
 383              		@ frame_needed = 0, uses_anonymous_args = 0
 384              		@ link register save eliminated.
 385              	.LVL28:
 386              		.loc 1 201 0
 387 0000 0246     		mov	r2, r0
 388              	.LBB67:
 389              		.loc 1 204 0
 390 0002 2023     		movs	r3, #32
ARM GAS  /tmp/ccVCEuZU.s 			page 8


 391              	.LVL29:
 392              	@ 204 "chibios/os/kernel/src/chmtx.c" 1
 393 0004 83F31188 		msr     BASEPRI, r3
 394              	@ 0 "" 2
 395              	.LVL30:
 396              		.thumb
 397              	.LBE67:
 398              	.LBB68:
 399              	.LBB69:
 400              		.loc 1 233 0
 401 0008 8368     		ldr	r3, [r0, #8]
 402              	.LVL31:
 403 000a 23B1     		cbz	r3, .L28
 404              		.loc 1 234 0
 405 000c 0020     		movs	r0, #0
 406              	.LVL32:
 407              	.LBE69:
 408              	.LBE68:
 409              	.LBB71:
 410              		.loc 1 208 0
 411 000e 0023     		movs	r3, #0
 412              	.LVL33:
 413              	@ 208 "chibios/os/kernel/src/chmtx.c" 1
 414 0010 83F31188 		msr     BASEPRI, r3
 415              	@ 0 "" 2
 416              	.LVL34:
 417              		.thumb
 418              	.LBE71:
 419              		.loc 1 210 0
 420 0014 7047     		bx	lr
 421              	.LVL35:
 422              	.L28:
 423              	.LBB72:
 424              	.LBB70:
 425              		.loc 1 235 0
 426 0016 40F20000 		movw	r0, #:lower16:rlist
 427 001a C0F20000 		movt	r0, #:upper16:rlist
 428 001e C369     		ldr	r3, [r0, #28]
 429              		.loc 1 238 0
 430 0020 0120     		movs	r0, #1
 431              		.loc 1 236 0
 432 0022 996B     		ldr	r1, [r3, #56]
 433              		.loc 1 235 0
 434 0024 9360     		str	r3, [r2, #8]
 435              		.loc 1 236 0
 436 0026 D160     		str	r1, [r2, #12]
 437              		.loc 1 237 0
 438 0028 9A63     		str	r2, [r3, #56]
 439              	.LBE70:
 440              	.LBE72:
 441              	.LBB73:
 442              		.loc 1 208 0
 443 002a 0023     		movs	r3, #0
 444              	@ 208 "chibios/os/kernel/src/chmtx.c" 1
 445 002c 83F31188 		msr     BASEPRI, r3
 446              	@ 0 "" 2
 447              	.LVL36:
ARM GAS  /tmp/ccVCEuZU.s 			page 9


 448              		.thumb
 449              	.LBE73:
 450              		.loc 1 210 0
 451 0030 7047     		bx	lr
 452              		.cfi_endproc
 453              	.LFE10:
 454              		.size	chMtxTryLock, .-chMtxTryLock
 455 0032 00BFAFF3 		.section	.text.chMtxTryLockS,"ax",%progbits
 455      0080AFF3 
 455      0080AFF3 
 455      0080
 456              		.align	2
 457              		.p2align 4,,15
 458              		.global	chMtxTryLockS
 459              		.thumb
 460              		.thumb_func
 461              		.type	chMtxTryLockS, %function
 462              	chMtxTryLockS:
 463              	.LFB11:
 464              		.loc 1 229 0
 465              		.cfi_startproc
 466              		@ args = 0, pretend = 0, frame = 0
 467              		@ frame_needed = 0, uses_anonymous_args = 0
 468              		@ link register save eliminated.
 469              	.LVL37:
 470              		.loc 1 233 0
 471 0000 8268     		ldr	r2, [r0, #8]
 472              		.loc 1 229 0
 473 0002 0346     		mov	r3, r0
 474              		.loc 1 233 0
 475 0004 0AB1     		cbz	r2, .L32
 476              		.loc 1 234 0
 477 0006 0020     		movs	r0, #0
 478              	.LVL38:
 479              		.loc 1 239 0
 480 0008 7047     		bx	lr
 481              	.L32:
 482              		.loc 1 235 0
 483 000a 40F20000 		movw	r0, #:lower16:rlist
 484 000e C0F20000 		movt	r0, #:upper16:rlist
 485 0012 C269     		ldr	r2, [r0, #28]
 486              		.loc 1 238 0
 487 0014 0120     		movs	r0, #1
 488              		.loc 1 236 0
 489 0016 916B     		ldr	r1, [r2, #56]
 490              		.loc 1 235 0
 491 0018 9A60     		str	r2, [r3, #8]
 492              		.loc 1 236 0
 493 001a D960     		str	r1, [r3, #12]
 494              		.loc 1 237 0
 495 001c 9363     		str	r3, [r2, #56]
 496              		.loc 1 238 0
 497 001e 7047     		bx	lr
 498              		.cfi_endproc
 499              	.LFE11:
 500              		.size	chMtxTryLockS, .-chMtxTryLockS
 501              		.section	.text.chMtxUnlock,"ax",%progbits
ARM GAS  /tmp/ccVCEuZU.s 			page 10


 502              		.align	2
 503              		.p2align 4,,15
 504              		.global	chMtxUnlock
 505              		.thumb
 506              		.thumb_func
 507              		.type	chMtxUnlock, %function
 508              	chMtxUnlock:
 509              	.LFB12:
 510              		.loc 1 251 0
 511              		.cfi_startproc
 512              		@ args = 0, pretend = 0, frame = 0
 513              		@ frame_needed = 0, uses_anonymous_args = 0
 514 0000 F8B5     		push	{r3, r4, r5, r6, r7, lr}
 515              	.LCFI2:
 516              		.cfi_def_cfa_offset 24
 517              		.loc 1 252 0
 518 0002 40F20003 		movw	r3, #:lower16:rlist
 519              		.cfi_offset 14, -4
 520              		.cfi_offset 7, -8
 521              		.cfi_offset 6, -12
 522              		.cfi_offset 5, -16
 523              		.cfi_offset 4, -20
 524              		.cfi_offset 3, -24
 525 0006 C0F20003 		movt	r3, #:upper16:rlist
 526 000a DA69     		ldr	r2, [r3, #28]
 527              	.LVL39:
 528              	.LBB74:
 529              		.loc 1 255 0
 530 000c 2023     		movs	r3, #32
 531              	.LVL40:
 532              	@ 255 "chibios/os/kernel/src/chmtx.c" 1
 533 000e 83F31188 		msr     BASEPRI, r3
 534              	@ 0 "" 2
 535              	.LVL41:
 536              		.thumb
 537              	.LBE74:
 538              		.loc 1 264 0
 539 0012 946B     		ldr	r4, [r2, #56]
 540              	.LVL42:
 541              		.loc 1 267 0
 542 0014 2368     		ldr	r3, [r4, #0]
 543              	.LVL43:
 544              		.loc 1 265 0
 545 0016 E168     		ldr	r1, [r4, #12]
 546              		.loc 1 267 0
 547 0018 A342     		cmp	r3, r4
 548              		.loc 1 265 0
 549 001a 9163     		str	r1, [r2, #56]
 550              		.loc 1 267 0
 551 001c 1CD0     		beq	.L34
 552              	.LBB75:
 553              		.loc 1 272 0
 554 001e D76B     		ldr	r7, [r2, #60]
 555              	.LVL44:
 556              		.loc 1 274 0
 557 0020 49B1     		cbz	r1, .L35
 558              	.LVL45:
ARM GAS  /tmp/ccVCEuZU.s 			page 11


 559              	.L39:
 560              		.loc 1 278 0
 561 0022 0868     		ldr	r0, [r1, #0]
 562 0024 8842     		cmp	r0, r1
 563 0026 03D0     		beq	.L36
 564              		.loc 1 278 0 is_stmt 0 discriminator 1
 565 0028 8068     		ldr	r0, [r0, #8]
 566 002a 8742     		cmp	r7, r0
 567 002c 38BF     		it	cc
 568 002e 0746     		movcc	r7, r0
 569              	.LVL46:
 570              	.L36:
 571              		.loc 1 280 0 is_stmt 1
 572 0030 C968     		ldr	r1, [r1, #12]
 573              	.LVL47:
 574              		.loc 1 274 0
 575 0032 0029     		cmp	r1, #0
 576 0034 F5D1     		bne	.L39
 577              	.L35:
 578              	.LBB76:
 579              	.LBB78:
 580              		.loc 2 61 0
 581 0036 1D68     		ldr	r5, [r3, #0]
 582              	.LBE78:
 583              	.LBE76:
 584              		.loc 1 289 0
 585 0038 9E6B     		ldr	r6, [r3, #56]
 586              		.loc 1 284 0
 587 003a 9760     		str	r7, [r2, #8]
 588              	.LVL48:
 589              		.loc 1 291 0
 590 003c 1846     		mov	r0, r3
 591              	.LBB80:
 592              	.LBB77:
 593              		.loc 2 61 0
 594 003e 2560     		str	r5, [r4, #0]
 595              	.LBE77:
 596              	.LBE80:
 597              		.loc 1 291 0
 598 0040 0021     		movs	r1, #0
 599              	.LVL49:
 600              	.LBB81:
 601              	.LBB79:
 602              		.loc 2 61 0
 603 0042 6C60     		str	r4, [r5, #4]
 604              	.LBE79:
 605              	.LBE81:
 606              		.loc 1 288 0
 607 0044 A360     		str	r3, [r4, #8]
 608              		.loc 1 289 0
 609 0046 E660     		str	r6, [r4, #12]
 610              		.loc 1 290 0
 611 0048 9C63     		str	r4, [r3, #56]
 612              		.loc 1 291 0
 613 004a FFF7FEFF 		bl	chSchWakeupS
 614              	.LVL50:
 615              	.LBE75:
ARM GAS  /tmp/ccVCEuZU.s 			page 12


 616              	.LBB82:
 617              		.loc 1 295 0
 618 004e 0023     		movs	r3, #0
 619              	.LVL51:
 620              	@ 295 "chibios/os/kernel/src/chmtx.c" 1
 621 0050 83F31188 		msr     BASEPRI, r3
 622              	@ 0 "" 2
 623              	.LVL52:
 624              		.thumb
 625              	.LBE82:
 626              		.loc 1 297 0
 627 0054 2046     		mov	r0, r4
 628 0056 F8BD     		pop	{r3, r4, r5, r6, r7, pc}
 629              	.LVL53:
 630              	.L34:
 631              		.loc 1 294 0
 632 0058 0021     		movs	r1, #0
 633 005a A160     		str	r1, [r4, #8]
 634              	.LBB83:
 635              		.loc 1 295 0
 636 005c 0023     		movs	r3, #0
 637              	@ 295 "chibios/os/kernel/src/chmtx.c" 1
 638 005e 83F31188 		msr     BASEPRI, r3
 639              	@ 0 "" 2
 640              	.LVL54:
 641              		.thumb
 642              	.LBE83:
 643              		.loc 1 297 0
 644 0062 2046     		mov	r0, r4
 645 0064 F8BD     		pop	{r3, r4, r5, r6, r7, pc}
 646              		.cfi_endproc
 647              	.LFE12:
 648              		.size	chMtxUnlock, .-chMtxUnlock
 649 0066 00BFAFF3 		.section	.text.chMtxUnlockS,"ax",%progbits
 649      0080AFF3 
 649      0080
 650              		.align	2
 651              		.p2align 4,,15
 652              		.global	chMtxUnlockS
 653              		.thumb
 654              		.thumb_func
 655              		.type	chMtxUnlockS, %function
 656              	chMtxUnlockS:
 657              	.LFB13:
 658              		.loc 1 311 0
 659              		.cfi_startproc
 660              		@ args = 0, pretend = 0, frame = 0
 661              		@ frame_needed = 0, uses_anonymous_args = 0
 662              		.loc 1 312 0
 663 0000 40F20003 		movw	r3, #:lower16:rlist
 664 0004 C0F20003 		movt	r3, #:upper16:rlist
 665 0008 D969     		ldr	r1, [r3, #28]
 666              	.LVL55:
 667              		.loc 1 311 0
 668 000a 70B5     		push	{r4, r5, r6, lr}
 669              	.LCFI3:
 670              		.cfi_def_cfa_offset 16
ARM GAS  /tmp/ccVCEuZU.s 			page 13


 671              		.loc 1 324 0
 672 000c 8C6B     		ldr	r4, [r1, #56]
 673              		.cfi_offset 14, -4
 674              		.cfi_offset 6, -8
 675              		.cfi_offset 5, -12
 676              		.cfi_offset 4, -16
 677              	.LVL56:
 678              		.loc 1 327 0
 679 000e 2368     		ldr	r3, [r4, #0]
 680              	.LVL57:
 681              		.loc 1 325 0
 682 0010 E268     		ldr	r2, [r4, #12]
 683              		.loc 1 327 0
 684 0012 A342     		cmp	r3, r4
 685              		.loc 1 325 0
 686 0014 8A63     		str	r2, [r1, #56]
 687              		.loc 1 327 0
 688 0016 18D0     		beq	.L42
 689              	.LBB84:
 690              		.loc 1 332 0
 691 0018 CE6B     		ldr	r6, [r1, #60]
 692              	.LVL58:
 693              		.loc 1 334 0
 694 001a 4AB1     		cbz	r2, .L43
 695              	.LVL59:
 696              	.L47:
 697              		.loc 1 338 0
 698 001c 1068     		ldr	r0, [r2, #0]
 699 001e 9042     		cmp	r0, r2
 700 0020 03D0     		beq	.L44
 701              		.loc 1 338 0 is_stmt 0 discriminator 1
 702 0022 8068     		ldr	r0, [r0, #8]
 703 0024 8642     		cmp	r6, r0
 704 0026 38BF     		it	cc
 705 0028 0646     		movcc	r6, r0
 706              	.LVL60:
 707              	.L44:
 708              		.loc 1 340 0 is_stmt 1
 709 002a D268     		ldr	r2, [r2, #12]
 710              	.LVL61:
 711              		.loc 1 334 0
 712 002c 002A     		cmp	r2, #0
 713 002e F5D1     		bne	.L47
 714              	.L43:
 715              	.LBB85:
 716              	.LBB86:
 717              		.loc 2 61 0
 718 0030 1A68     		ldr	r2, [r3, #0]
 719              	.LVL62:
 720              	.LBE86:
 721              	.LBE85:
 722              		.loc 1 347 0
 723 0032 9D6B     		ldr	r5, [r3, #56]
 724              		.loc 1 342 0
 725 0034 8E60     		str	r6, [r1, #8]
 726              	.LVL63:
 727              		.loc 1 349 0
ARM GAS  /tmp/ccVCEuZU.s 			page 14


 728 0036 1846     		mov	r0, r3
 729              	.LBB88:
 730              	.LBB87:
 731              		.loc 2 61 0
 732 0038 2260     		str	r2, [r4, #0]
 733 003a 5460     		str	r4, [r2, #4]
 734              	.LBE87:
 735              	.LBE88:
 736              		.loc 1 346 0
 737 003c A360     		str	r3, [r4, #8]
 738              		.loc 1 347 0
 739 003e E560     		str	r5, [r4, #12]
 740              		.loc 1 348 0
 741 0040 9C63     		str	r4, [r3, #56]
 742              		.loc 1 349 0
 743 0042 FFF7FEFF 		bl	chSchReadyI
 744              	.LVL64:
 745              	.LBE84:
 746              		.loc 1 354 0
 747 0046 2046     		mov	r0, r4
 748 0048 70BD     		pop	{r4, r5, r6, pc}
 749              	.LVL65:
 750              	.L42:
 751              		.loc 1 352 0
 752 004a 0021     		movs	r1, #0
 753              	.LVL66:
 754 004c A160     		str	r1, [r4, #8]
 755              		.loc 1 354 0
 756 004e 2046     		mov	r0, r4
 757 0050 70BD     		pop	{r4, r5, r6, pc}
 758              		.cfi_endproc
 759              	.LFE13:
 760              		.size	chMtxUnlockS, .-chMtxUnlockS
 761 0052 00BFAFF3 		.section	.text.chMtxUnlockAll,"ax",%progbits
 761      0080AFF3 
 761      0080AFF3 
 761      0080
 762              		.align	2
 763              		.p2align 4,,15
 764              		.global	chMtxUnlockAll
 765              		.thumb
 766              		.thumb_func
 767              		.type	chMtxUnlockAll, %function
 768              	chMtxUnlockAll:
 769              	.LFB14:
 770              		.loc 1 367 0
 771              		.cfi_startproc
 772              		@ args = 0, pretend = 0, frame = 0
 773              		@ frame_needed = 0, uses_anonymous_args = 0
 774              		.loc 1 368 0
 775 0000 40F20003 		movw	r3, #:lower16:rlist
 776 0004 C0F20003 		movt	r3, #:upper16:rlist
 777              		.loc 1 367 0
 778 0008 70B5     		push	{r4, r5, r6, lr}
 779              	.LCFI4:
 780              		.cfi_def_cfa_offset 16
 781              		.loc 1 368 0
ARM GAS  /tmp/ccVCEuZU.s 			page 15


 782 000a DC69     		ldr	r4, [r3, #28]
 783              		.cfi_offset 14, -4
 784              		.cfi_offset 6, -8
 785              		.cfi_offset 5, -12
 786              		.cfi_offset 4, -16
 787              	.LVL67:
 788              	.LBB89:
 789              		.loc 1 370 0
 790 000c 2023     		movs	r3, #32
 791              	.LVL68:
 792              	@ 370 "chibios/os/kernel/src/chmtx.c" 1
 793 000e 83F31188 		msr     BASEPRI, r3
 794              	@ 0 "" 2
 795              	.LVL69:
 796              		.thumb
 797              	.LBE89:
 798              		.loc 1 371 0
 799 0012 A36B     		ldr	r3, [r4, #56]
 800              	.LVL70:
 801 0014 CBB1     		cbz	r3, .L50
 802              	.LBB90:
 803              		.loc 1 383 0
 804 0016 0025     		movs	r5, #0
 805              	.LVL71:
 806              	.L54:
 807              		.loc 1 375 0
 808 0018 1A68     		ldr	r2, [r3, #0]
 809              		.loc 1 374 0
 810 001a D968     		ldr	r1, [r3, #12]
 811              		.loc 1 375 0
 812 001c 9A42     		cmp	r2, r3
 813              		.loc 1 374 0
 814 001e A163     		str	r1, [r4, #56]
 815              	.LBB91:
 816              		.loc 1 380 0
 817 0020 1046     		mov	r0, r2
 818              	.LBE91:
 819              		.loc 1 383 0
 820 0022 04BF     		itt	eq
 821 0024 9D60     		streq	r5, [r3, #8]
 822 0026 0B46     		moveq	r3, r1
 823              	.LVL72:
 824              		.loc 1 375 0
 825 0028 09D0     		beq	.L52
 826              	.LVL73:
 827              	.LBB96:
 828              	.LBB92:
 829              	.LBB93:
 830              		.loc 2 61 0
 831 002a 1168     		ldr	r1, [r2, #0]
 832              	.LBE93:
 833              	.LBE92:
 834              		.loc 1 378 0
 835 002c 966B     		ldr	r6, [r2, #56]
 836              	.LBB95:
 837              	.LBB94:
 838              		.loc 2 61 0
ARM GAS  /tmp/ccVCEuZU.s 			page 16


 839 002e 1960     		str	r1, [r3, #0]
 840 0030 4B60     		str	r3, [r1, #4]
 841              	.LBE94:
 842              	.LBE95:
 843              		.loc 1 377 0
 844 0032 9A60     		str	r2, [r3, #8]
 845              		.loc 1 378 0
 846 0034 DE60     		str	r6, [r3, #12]
 847              		.loc 1 379 0
 848 0036 9363     		str	r3, [r2, #56]
 849              		.loc 1 380 0
 850 0038 FFF7FEFF 		bl	chSchReadyI
 851              	.LVL74:
 852 003c A36B     		ldr	r3, [r4, #56]
 853              	.LVL75:
 854              	.L52:
 855              	.LBE96:
 856              	.LBE90:
 857              		.loc 1 384 0
 858 003e 002B     		cmp	r3, #0
 859 0040 EAD1     		bne	.L54
 860              		.loc 1 385 0
 861 0042 E06B     		ldr	r0, [r4, #60]
 862 0044 A060     		str	r0, [r4, #8]
 863              		.loc 1 386 0
 864 0046 FFF7FEFF 		bl	chSchRescheduleS
 865              	.L50:
 866              	.LBB97:
 867              		.loc 1 388 0
 868 004a 0023     		movs	r3, #0
 869              	.LVL76:
 870              	@ 388 "chibios/os/kernel/src/chmtx.c" 1
 871 004c 83F31188 		msr     BASEPRI, r3
 872              	@ 0 "" 2
 873              	.LVL77:
 874              		.thumb
 875              	.LBE97:
 876              		.loc 1 389 0
 877 0050 70BD     		pop	{r4, r5, r6, pc}
 878              		.cfi_endproc
 879              	.LFE14:
 880              		.size	chMtxUnlockAll, .-chMtxUnlockAll
 881 0052 00BFAFF3 		.text
 881      0080AFF3 
 881      0080AFF3 
 881      0080
 882              	.Letext0:
 883              		.section	.debug_loc,"",%progbits
 884              	.Ldebug_loc0:
 885              	.LLST0:
 886 0000 00000000 		.4byte	.LFB9
 887 0004 0E000000 		.4byte	.LCFI0
 888 0008 0200     		.2byte	0x2
 889 000a 7D       		.byte	0x7d
 890 000b 00       		.sleb128 0
 891 000c 0E000000 		.4byte	.LCFI0
 892 0010 C6000000 		.4byte	.LFE9
ARM GAS  /tmp/ccVCEuZU.s 			page 17


 893 0014 0200     		.2byte	0x2
 894 0016 7D       		.byte	0x7d
 895 0017 18       		.sleb128 24
 896 0018 00000000 		.4byte	0x0
 897 001c 00000000 		.4byte	0x0
 898              	.LLST1:
 899 0020 00000000 		.4byte	.LVL1
 900 0024 1A000000 		.4byte	.LVL4
 901 0028 0100     		.2byte	0x1
 902 002a 50       		.byte	0x50
 903 002b 1A000000 		.4byte	.LVL4
 904 002f C6000000 		.4byte	.LFE9
 905 0033 0100     		.2byte	0x1
 906 0035 55       		.byte	0x55
 907 0036 00000000 		.4byte	0x0
 908 003a 00000000 		.4byte	0x0
 909              	.LLST2:
 910 003e 12000000 		.4byte	.LVL2
 911 0042 1E000000 		.4byte	.LVL5
 912 0046 0200     		.2byte	0x2
 913 0048 72       		.byte	0x72
 914 0049 1C       		.sleb128 28
 915 004a 2C000000 		.4byte	.LVL6
 916 004e C6000000 		.4byte	.LFE9
 917 0052 0100     		.2byte	0x1
 918 0054 54       		.byte	0x54
 919 0055 00000000 		.4byte	0x0
 920 0059 00000000 		.4byte	0x0
 921              	.LLST3:
 922 005d 16000000 		.4byte	.LVL3
 923 0061 1A000000 		.4byte	.LVL4
 924 0065 0200     		.2byte	0x2
 925 0067 70       		.byte	0x70
 926 0068 08       		.sleb128 8
 927 0069 1A000000 		.4byte	.LVL4
 928 006d 1E000000 		.4byte	.LVL5
 929 0071 0200     		.2byte	0x2
 930 0073 75       		.byte	0x75
 931 0074 08       		.sleb128 8
 932 0075 1E000000 		.4byte	.LVL5
 933 0079 2C000000 		.4byte	.LVL6
 934 007d 0100     		.2byte	0x1
 935 007f 53       		.byte	0x53
 936 0080 52000000 		.4byte	.LVL9
 937 0084 5C000000 		.4byte	.LVL10
 938 0088 0100     		.2byte	0x1
 939 008a 53       		.byte	0x53
 940 008b 64000000 		.4byte	.LVL12
 941 008f B0000000 		.4byte	.LVL19
 942 0093 0100     		.2byte	0x1
 943 0095 53       		.byte	0x53
 944 0096 B0000000 		.4byte	.LVL19
 945 009a BA000000 		.4byte	.LVL21
 946 009e 0200     		.2byte	0x2
 947 00a0 76       		.byte	0x76
 948 00a1 08       		.sleb128 8
 949 00a2 00000000 		.4byte	0x0
ARM GAS  /tmp/ccVCEuZU.s 			page 18


 950 00a6 00000000 		.4byte	0x0
 951              	.LLST4:
 952 00aa 2C000000 		.4byte	.LVL6
 953 00ae 52000000 		.4byte	.LVL9
 954 00b2 0100     		.2byte	0x1
 955 00b4 55       		.byte	0x55
 956 00b5 00000000 		.4byte	0x0
 957 00b9 00000000 		.4byte	0x0
 958              	.LLST5:
 959 00bd 2C000000 		.4byte	.LVL6
 960 00c1 52000000 		.4byte	.LVL9
 961 00c5 0100     		.2byte	0x1
 962 00c7 54       		.byte	0x54
 963 00c8 00000000 		.4byte	0x0
 964 00cc 00000000 		.4byte	0x0
 965              	.LLST6:
 966 00d0 2C000000 		.4byte	.LVL6
 967 00d4 2E000000 		.4byte	.LVL7
 968 00d8 0100     		.2byte	0x1
 969 00da 55       		.byte	0x55
 970 00db 2E000000 		.4byte	.LVL7
 971 00df 30000000 		.4byte	.LVL8
 972 00e3 0100     		.2byte	0x1
 973 00e5 53       		.byte	0x53
 974 00e6 30000000 		.4byte	.LVL8
 975 00ea 51000000 		.4byte	.LVL9-1
 976 00ee 0100     		.2byte	0x1
 977 00f0 53       		.byte	0x53
 978 00f1 00000000 		.4byte	0x0
 979 00f5 00000000 		.4byte	0x0
 980              	.LLST7:
 981 00f9 52000000 		.4byte	.LVL9
 982 00fd 5C000000 		.4byte	.LVL10
 983 0101 0100     		.2byte	0x1
 984 0103 53       		.byte	0x53
 985 0104 5C000000 		.4byte	.LVL10
 986 0108 61000000 		.4byte	.LVL11-1
 987 010c 0100     		.2byte	0x1
 988 010e 50       		.byte	0x50
 989 010f 00000000 		.4byte	0x0
 990 0113 00000000 		.4byte	0x0
 991              	.LLST8:
 992 0117 64000000 		.4byte	.LVL12
 993 011b 8A000000 		.4byte	.LVL15
 994 011f 0100     		.2byte	0x1
 995 0121 53       		.byte	0x53
 996 0122 00000000 		.4byte	0x0
 997 0126 00000000 		.4byte	0x0
 998              	.LLST9:
 999 012a 72000000 		.4byte	.LVL13
 1000 012e 8A000000 		.4byte	.LVL15
 1001 0132 0200     		.2byte	0x2
 1002 0134 73       		.byte	0x73
 1003 0135 20       		.sleb128 32
 1004 0136 00000000 		.4byte	0x0
 1005 013a 00000000 		.4byte	0x0
 1006              	.LLST10:
ARM GAS  /tmp/ccVCEuZU.s 			page 19


 1007 013e 72000000 		.4byte	.LVL13
 1008 0142 8A000000 		.4byte	.LVL15
 1009 0146 0100     		.2byte	0x1
 1010 0148 53       		.byte	0x53
 1011 0149 00000000 		.4byte	0x0
 1012 014d 00000000 		.4byte	0x0
 1013              	.LLST11:
 1014 0151 72000000 		.4byte	.LVL13
 1015 0155 74000000 		.4byte	.LVL14
 1016 0159 0100     		.2byte	0x1
 1017 015b 52       		.byte	0x52
 1018 015c 74000000 		.4byte	.LVL14
 1019 0160 8A000000 		.4byte	.LVL15
 1020 0164 0100     		.2byte	0x1
 1021 0166 52       		.byte	0x52
 1022 0167 00000000 		.4byte	0x0
 1023 016b 00000000 		.4byte	0x0
 1024              	.LLST12:
 1025 016f 8A000000 		.4byte	.LVL15
 1026 0173 B0000000 		.4byte	.LVL19
 1027 0177 0100     		.2byte	0x1
 1028 0179 53       		.byte	0x53
 1029 017a B0000000 		.4byte	.LVL19
 1030 017e B4000000 		.4byte	.LVL20
 1031 0182 0200     		.2byte	0x2
 1032 0184 72       		.byte	0x72
 1033 0185 04       		.sleb128 4
 1034 0186 00000000 		.4byte	0x0
 1035 018a 00000000 		.4byte	0x0
 1036              	.LLST13:
 1037 018e 90000000 		.4byte	.LVL16
 1038 0192 B0000000 		.4byte	.LVL19
 1039 0196 0200     		.2byte	0x2
 1040 0198 73       		.byte	0x73
 1041 0199 20       		.sleb128 32
 1042 019a B0000000 		.4byte	.LVL19
 1043 019e BA000000 		.4byte	.LVL21
 1044 01a2 0100     		.2byte	0x1
 1045 01a4 56       		.byte	0x56
 1046 01a5 00000000 		.4byte	0x0
 1047 01a9 00000000 		.4byte	0x0
 1048              	.LLST14:
 1049 01ad 90000000 		.4byte	.LVL16
 1050 01b1 B0000000 		.4byte	.LVL19
 1051 01b5 0100     		.2byte	0x1
 1052 01b7 53       		.byte	0x53
 1053 01b8 B0000000 		.4byte	.LVL19
 1054 01bc B4000000 		.4byte	.LVL20
 1055 01c0 0200     		.2byte	0x2
 1056 01c2 72       		.byte	0x72
 1057 01c3 04       		.sleb128 4
 1058 01c4 00000000 		.4byte	0x0
 1059 01c8 00000000 		.4byte	0x0
 1060              	.LLST15:
 1061 01cc 90000000 		.4byte	.LVL16
 1062 01d0 98000000 		.4byte	.LVL17
 1063 01d4 0200     		.2byte	0x2
ARM GAS  /tmp/ccVCEuZU.s 			page 20


 1064 01d6 73       		.byte	0x73
 1065 01d7 20       		.sleb128 32
 1066 01d8 98000000 		.4byte	.LVL17
 1067 01dc 9A000000 		.4byte	.LVL18
 1068 01e0 0100     		.2byte	0x1
 1069 01e2 52       		.byte	0x52
 1070 01e3 9A000000 		.4byte	.LVL18
 1071 01e7 B4000000 		.4byte	.LVL20
 1072 01eb 0100     		.2byte	0x1
 1073 01ed 52       		.byte	0x52
 1074 01ee 00000000 		.4byte	0x0
 1075 01f2 00000000 		.4byte	0x0
 1076              	.LLST16:
 1077 01f6 00000000 		.4byte	.LFB8
 1078 01fa 02000000 		.4byte	.LCFI1
 1079 01fe 0200     		.2byte	0x2
 1080 0200 7D       		.byte	0x7d
 1081 0201 00       		.sleb128 0
 1082 0202 02000000 		.4byte	.LCFI1
 1083 0206 14000000 		.4byte	.LFE8
 1084 020a 0200     		.2byte	0x2
 1085 020c 7D       		.byte	0x7d
 1086 020d 08       		.sleb128 8
 1087 020e 00000000 		.4byte	0x0
 1088 0212 00000000 		.4byte	0x0
 1089              	.LLST17:
 1090 0216 00000000 		.4byte	.LVL22
 1091 021a 0B000000 		.4byte	.LVL25-1
 1092 021e 0100     		.2byte	0x1
 1093 0220 50       		.byte	0x50
 1094 0221 00000000 		.4byte	0x0
 1095 0225 00000000 		.4byte	0x0
 1096              	.LLST18:
 1097 0229 08000000 		.4byte	.LVL24
 1098 022d 0B000000 		.4byte	.LVL25-1
 1099 0231 0100     		.2byte	0x1
 1100 0233 53       		.byte	0x53
 1101 0234 00000000 		.4byte	0x0
 1102 0238 00000000 		.4byte	0x0
 1103              	.LLST19:
 1104 023c 12000000 		.4byte	.LVL27
 1105 0240 14000000 		.4byte	.LFE8
 1106 0244 0100     		.2byte	0x1
 1107 0246 53       		.byte	0x53
 1108 0247 00000000 		.4byte	0x0
 1109 024b 00000000 		.4byte	0x0
 1110              	.LLST20:
 1111 024f 00000000 		.4byte	.LVL28
 1112 0253 0E000000 		.4byte	.LVL32
 1113 0257 0100     		.2byte	0x1
 1114 0259 50       		.byte	0x50
 1115 025a 0E000000 		.4byte	.LVL32
 1116 025e 32000000 		.4byte	.LFE10
 1117 0262 0100     		.2byte	0x1
 1118 0264 52       		.byte	0x52
 1119 0265 00000000 		.4byte	0x0
 1120 0269 00000000 		.4byte	0x0
ARM GAS  /tmp/ccVCEuZU.s 			page 21


 1121              	.LLST21:
 1122 026d 08000000 		.4byte	.LVL30
 1123 0271 0A000000 		.4byte	.LVL31
 1124 0275 0100     		.2byte	0x1
 1125 0277 53       		.byte	0x53
 1126 0278 00000000 		.4byte	0x0
 1127 027c 00000000 		.4byte	0x0
 1128              	.LLST22:
 1129 0280 08000000 		.4byte	.LVL30
 1130 0284 0E000000 		.4byte	.LVL32
 1131 0288 0100     		.2byte	0x1
 1132 028a 50       		.byte	0x50
 1133 028b 0E000000 		.4byte	.LVL32
 1134 028f 32000000 		.4byte	.LFE10
 1135 0293 0100     		.2byte	0x1
 1136 0295 52       		.byte	0x52
 1137 0296 00000000 		.4byte	0x0
 1138 029a 00000000 		.4byte	0x0
 1139              	.LLST23:
 1140 029e 14000000 		.4byte	.LVL34
 1141 02a2 16000000 		.4byte	.LVL35
 1142 02a6 0100     		.2byte	0x1
 1143 02a8 53       		.byte	0x53
 1144 02a9 30000000 		.4byte	.LVL36
 1145 02ad 32000000 		.4byte	.LFE10
 1146 02b1 0100     		.2byte	0x1
 1147 02b3 53       		.byte	0x53
 1148 02b4 00000000 		.4byte	0x0
 1149 02b8 00000000 		.4byte	0x0
 1150              	.LLST24:
 1151 02bc 00000000 		.4byte	.LVL37
 1152 02c0 08000000 		.4byte	.LVL38
 1153 02c4 0100     		.2byte	0x1
 1154 02c6 50       		.byte	0x50
 1155 02c7 08000000 		.4byte	.LVL38
 1156 02cb 20000000 		.4byte	.LFE11
 1157 02cf 0100     		.2byte	0x1
 1158 02d1 53       		.byte	0x53
 1159 02d2 00000000 		.4byte	0x0
 1160 02d6 00000000 		.4byte	0x0
 1161              	.LLST25:
 1162 02da 00000000 		.4byte	.LFB12
 1163 02de 02000000 		.4byte	.LCFI2
 1164 02e2 0200     		.2byte	0x2
 1165 02e4 7D       		.byte	0x7d
 1166 02e5 00       		.sleb128 0
 1167 02e6 02000000 		.4byte	.LCFI2
 1168 02ea 66000000 		.4byte	.LFE12
 1169 02ee 0200     		.2byte	0x2
 1170 02f0 7D       		.byte	0x7d
 1171 02f1 18       		.sleb128 24
 1172 02f2 00000000 		.4byte	0x0
 1173 02f6 00000000 		.4byte	0x0
 1174              	.LLST26:
 1175 02fa 0C000000 		.4byte	.LVL39
 1176 02fe 0E000000 		.4byte	.LVL40
 1177 0302 0200     		.2byte	0x2
ARM GAS  /tmp/ccVCEuZU.s 			page 22


 1178 0304 73       		.byte	0x73
 1179 0305 1C       		.sleb128 28
 1180 0306 58000000 		.4byte	.LVL53
 1181 030a 66000000 		.4byte	.LFE12
 1182 030e 0100     		.2byte	0x1
 1183 0310 52       		.byte	0x52
 1184 0311 00000000 		.4byte	0x0
 1185 0315 00000000 		.4byte	0x0
 1186              	.LLST27:
 1187 0319 4D000000 		.4byte	.LVL50-1
 1188 031d 66000000 		.4byte	.LFE12
 1189 0321 0100     		.2byte	0x1
 1190 0323 54       		.byte	0x54
 1191 0324 00000000 		.4byte	0x0
 1192 0328 00000000 		.4byte	0x0
 1193              	.LLST28:
 1194 032c 20000000 		.4byte	.LVL44
 1195 0330 32000000 		.4byte	.LVL47
 1196 0334 0100     		.2byte	0x1
 1197 0336 51       		.byte	0x51
 1198 0337 32000000 		.4byte	.LVL47
 1199 033b 42000000 		.4byte	.LVL49
 1200 033f 0100     		.2byte	0x1
 1201 0341 51       		.byte	0x51
 1202 0342 00000000 		.4byte	0x0
 1203 0346 00000000 		.4byte	0x0
 1204              	.LLST29:
 1205 034a 12000000 		.4byte	.LVL41
 1206 034e 16000000 		.4byte	.LVL43
 1207 0352 0100     		.2byte	0x1
 1208 0354 53       		.byte	0x53
 1209 0355 00000000 		.4byte	0x0
 1210 0359 00000000 		.4byte	0x0
 1211              	.LLST30:
 1212 035d 22000000 		.4byte	.LVL45
 1213 0361 30000000 		.4byte	.LVL46
 1214 0365 0100     		.2byte	0x1
 1215 0367 57       		.byte	0x57
 1216 0368 30000000 		.4byte	.LVL46
 1217 036c 58000000 		.4byte	.LVL53
 1218 0370 0100     		.2byte	0x1
 1219 0372 57       		.byte	0x57
 1220 0373 00000000 		.4byte	0x0
 1221 0377 00000000 		.4byte	0x0
 1222              	.LLST31:
 1223 037b 4D000000 		.4byte	.LVL50-1
 1224 037f 58000000 		.4byte	.LVL53
 1225 0383 0100     		.2byte	0x1
 1226 0385 54       		.byte	0x54
 1227 0386 00000000 		.4byte	0x0
 1228 038a 00000000 		.4byte	0x0
 1229              	.LLST32:
 1230 038e 3C000000 		.4byte	.LVL48
 1231 0392 4D000000 		.4byte	.LVL50-1
 1232 0396 0100     		.2byte	0x1
 1233 0398 53       		.byte	0x53
 1234 0399 00000000 		.4byte	0x0
ARM GAS  /tmp/ccVCEuZU.s 			page 23


 1235 039d 00000000 		.4byte	0x0
 1236              	.LLST33:
 1237 03a1 54000000 		.4byte	.LVL52
 1238 03a5 58000000 		.4byte	.LVL53
 1239 03a9 0100     		.2byte	0x1
 1240 03ab 53       		.byte	0x53
 1241 03ac 62000000 		.4byte	.LVL54
 1242 03b0 66000000 		.4byte	.LFE12
 1243 03b4 0100     		.2byte	0x1
 1244 03b6 53       		.byte	0x53
 1245 03b7 00000000 		.4byte	0x0
 1246 03bb 00000000 		.4byte	0x0
 1247              	.LLST34:
 1248 03bf 00000000 		.4byte	.LFB13
 1249 03c3 0C000000 		.4byte	.LCFI3
 1250 03c7 0200     		.2byte	0x2
 1251 03c9 7D       		.byte	0x7d
 1252 03ca 00       		.sleb128 0
 1253 03cb 0C000000 		.4byte	.LCFI3
 1254 03cf 52000000 		.4byte	.LFE13
 1255 03d3 0200     		.2byte	0x2
 1256 03d5 7D       		.byte	0x7d
 1257 03d6 10       		.sleb128 16
 1258 03d7 00000000 		.4byte	0x0
 1259 03db 00000000 		.4byte	0x0
 1260              	.LLST35:
 1261 03df 0A000000 		.4byte	.LVL55
 1262 03e3 10000000 		.4byte	.LVL57
 1263 03e7 0200     		.2byte	0x2
 1264 03e9 73       		.byte	0x73
 1265 03ea 1C       		.sleb128 28
 1266 03eb 4A000000 		.4byte	.LVL65
 1267 03ef 4C000000 		.4byte	.LVL66
 1268 03f3 0100     		.2byte	0x1
 1269 03f5 51       		.byte	0x51
 1270 03f6 00000000 		.4byte	0x0
 1271 03fa 00000000 		.4byte	0x0
 1272              	.LLST36:
 1273 03fe 0E000000 		.4byte	.LVL56
 1274 0402 10000000 		.4byte	.LVL57
 1275 0406 0500     		.2byte	0x5
 1276 0408 73       		.byte	0x73
 1277 0409 1C       		.sleb128 28
 1278 040a 06       		.byte	0x6
 1279 040b 23       		.byte	0x23
 1280 040c 38       		.uleb128 0x38
 1281 040d 45000000 		.4byte	.LVL64-1
 1282 0411 52000000 		.4byte	.LFE13
 1283 0415 0100     		.2byte	0x1
 1284 0417 54       		.byte	0x54
 1285 0418 00000000 		.4byte	0x0
 1286 041c 00000000 		.4byte	0x0
 1287              	.LLST37:
 1288 0420 1A000000 		.4byte	.LVL58
 1289 0424 2C000000 		.4byte	.LVL61
 1290 0428 0100     		.2byte	0x1
 1291 042a 52       		.byte	0x52
ARM GAS  /tmp/ccVCEuZU.s 			page 24


 1292 042b 2C000000 		.4byte	.LVL61
 1293 042f 32000000 		.4byte	.LVL62
 1294 0433 0100     		.2byte	0x1
 1295 0435 52       		.byte	0x52
 1296 0436 00000000 		.4byte	0x0
 1297 043a 00000000 		.4byte	0x0
 1298              	.LLST38:
 1299 043e 1C000000 		.4byte	.LVL59
 1300 0442 2A000000 		.4byte	.LVL60
 1301 0446 0100     		.2byte	0x1
 1302 0448 56       		.byte	0x56
 1303 0449 2A000000 		.4byte	.LVL60
 1304 044d 4A000000 		.4byte	.LVL65
 1305 0451 0100     		.2byte	0x1
 1306 0453 56       		.byte	0x56
 1307 0454 00000000 		.4byte	0x0
 1308 0458 00000000 		.4byte	0x0
 1309              	.LLST39:
 1310 045c 45000000 		.4byte	.LVL64-1
 1311 0460 4A000000 		.4byte	.LVL65
 1312 0464 0100     		.2byte	0x1
 1313 0466 54       		.byte	0x54
 1314 0467 00000000 		.4byte	0x0
 1315 046b 00000000 		.4byte	0x0
 1316              	.LLST40:
 1317 046f 36000000 		.4byte	.LVL63
 1318 0473 45000000 		.4byte	.LVL64-1
 1319 0477 0100     		.2byte	0x1
 1320 0479 53       		.byte	0x53
 1321 047a 00000000 		.4byte	0x0
 1322 047e 00000000 		.4byte	0x0
 1323              	.LLST41:
 1324 0482 00000000 		.4byte	.LFB14
 1325 0486 0A000000 		.4byte	.LCFI4
 1326 048a 0200     		.2byte	0x2
 1327 048c 7D       		.byte	0x7d
 1328 048d 00       		.sleb128 0
 1329 048e 0A000000 		.4byte	.LCFI4
 1330 0492 52000000 		.4byte	.LFE14
 1331 0496 0200     		.2byte	0x2
 1332 0498 7D       		.byte	0x7d
 1333 0499 10       		.sleb128 16
 1334 049a 00000000 		.4byte	0x0
 1335 049e 00000000 		.4byte	0x0
 1336              	.LLST42:
 1337 04a2 0C000000 		.4byte	.LVL67
 1338 04a6 0E000000 		.4byte	.LVL68
 1339 04aa 0200     		.2byte	0x2
 1340 04ac 73       		.byte	0x73
 1341 04ad 1C       		.sleb128 28
 1342 04ae 18000000 		.4byte	.LVL71
 1343 04b2 52000000 		.4byte	.LFE14
 1344 04b6 0100     		.2byte	0x1
 1345 04b8 54       		.byte	0x54
 1346 04b9 00000000 		.4byte	0x0
 1347 04bd 00000000 		.4byte	0x0
 1348              	.LLST43:
ARM GAS  /tmp/ccVCEuZU.s 			page 25


 1349 04c1 12000000 		.4byte	.LVL69
 1350 04c5 14000000 		.4byte	.LVL70
 1351 04c9 0100     		.2byte	0x1
 1352 04cb 53       		.byte	0x53
 1353 04cc 00000000 		.4byte	0x0
 1354 04d0 00000000 		.4byte	0x0
 1355              	.LLST44:
 1356 04d4 18000000 		.4byte	.LVL71
 1357 04d8 28000000 		.4byte	.LVL72
 1358 04dc 0100     		.2byte	0x1
 1359 04de 53       		.byte	0x53
 1360 04df 00000000 		.4byte	0x0
 1361 04e3 00000000 		.4byte	0x0
 1362              	.LLST45:
 1363 04e7 2A000000 		.4byte	.LVL73
 1364 04eb 3B000000 		.4byte	.LVL74-1
 1365 04ef 0100     		.2byte	0x1
 1366 04f1 50       		.byte	0x50
 1367 04f2 00000000 		.4byte	0x0
 1368 04f6 00000000 		.4byte	0x0
 1369              	.LLST46:
 1370 04fa 50000000 		.4byte	.LVL77
 1371 04fe 52000000 		.4byte	.LFE14
 1372 0502 0100     		.2byte	0x1
 1373 0504 53       		.byte	0x53
 1374 0505 00000000 		.4byte	0x0
 1375 0509 00000000 		.4byte	0x0
 1376              		.file 3 "/home/dan/arm-cs-tools/lib/gcc/arm-none-eabi/4.5.1/../../../../arm-none-eabi/include/stdi
 1377              		.file 4 "chibios/os/ports/GCC/ARMCMx/chtypes.h"
 1378              		.file 5 "chibios/os/kernel/include/chlists.h"
 1379              		.file 6 "chibios/os/kernel/include/chthreads.h"
 1380              		.file 7 "chibios/os/ports/GCC/ARMCMx/chcore.h"
 1381              		.file 8 "chibios/os/ports/GCC/ARMCMx/chcore_v7m.h"
 1382              		.file 9 "chibios/os/kernel/include/chschd.h"
 1383              		.file 10 "chibios/os/kernel/include/chmtx.h"
 1384              		.section	.debug_info
 1385 0000 41090000 		.4byte	0x941
 1386 0004 0200     		.2byte	0x2
 1387 0006 00000000 		.4byte	.Ldebug_abbrev0
 1388 000a 04       		.byte	0x4
 1389 000b 01       		.uleb128 0x1
 1390 000c EB020000 		.4byte	.LASF71
 1391 0010 01       		.byte	0x1
 1392 0011 AE020000 		.4byte	.LASF72
 1393 0015 65010000 		.4byte	.LASF73
 1394 0019 00000000 		.4byte	0x0
 1395 001d 00000000 		.4byte	0x0
 1396 0021 10020000 		.4byte	.Ldebug_ranges0+0x210
 1397 0025 00000000 		.4byte	.Ldebug_line0
 1398 0029 02       		.uleb128 0x2
 1399 002a 04       		.byte	0x4
 1400 002b 05       		.byte	0x5
 1401 002c 696E7400 		.ascii	"int\000"
 1402 0030 03       		.uleb128 0x3
 1403 0031 04       		.byte	0x4
 1404 0032 07       		.byte	0x7
 1405 0033 CF000000 		.4byte	.LASF0
ARM GAS  /tmp/ccVCEuZU.s 			page 26


 1406 0037 03       		.uleb128 0x3
 1407 0038 01       		.byte	0x1
 1408 0039 06       		.byte	0x6
 1409 003a 4E000000 		.4byte	.LASF1
 1410 003e 04       		.uleb128 0x4
 1411 003f E3020000 		.4byte	.LASF5
 1412 0043 03       		.byte	0x3
 1413 0044 2A       		.byte	0x2a
 1414 0045 49000000 		.4byte	0x49
 1415 0049 03       		.uleb128 0x3
 1416 004a 01       		.byte	0x1
 1417 004b 08       		.byte	0x8
 1418 004c F9010000 		.4byte	.LASF2
 1419 0050 03       		.uleb128 0x3
 1420 0051 02       		.byte	0x2
 1421 0052 05       		.byte	0x5
 1422 0053 11020000 		.4byte	.LASF3
 1423 0057 03       		.uleb128 0x3
 1424 0058 02       		.byte	0x2
 1425 0059 07       		.byte	0x7
 1426 005a F6000000 		.4byte	.LASF4
 1427 005e 04       		.uleb128 0x4
 1428 005f F1010000 		.4byte	.LASF6
 1429 0063 03       		.byte	0x3
 1430 0064 4F       		.byte	0x4f
 1431 0065 69000000 		.4byte	0x69
 1432 0069 03       		.uleb128 0x3
 1433 006a 04       		.byte	0x4
 1434 006b 05       		.byte	0x5
 1435 006c 78000000 		.4byte	.LASF7
 1436 0070 04       		.uleb128 0x4
 1437 0071 52020000 		.4byte	.LASF8
 1438 0075 03       		.byte	0x3
 1439 0076 50       		.byte	0x50
 1440 0077 7B000000 		.4byte	0x7b
 1441 007b 03       		.uleb128 0x3
 1442 007c 04       		.byte	0x4
 1443 007d 07       		.byte	0x7
 1444 007e DC000000 		.4byte	.LASF9
 1445 0082 03       		.uleb128 0x3
 1446 0083 08       		.byte	0x8
 1447 0084 05       		.byte	0x5
 1448 0085 40000000 		.4byte	.LASF10
 1449 0089 03       		.uleb128 0x3
 1450 008a 08       		.byte	0x8
 1451 008b 07       		.byte	0x7
 1452 008c 0D000000 		.4byte	.LASF11
 1453 0090 04       		.uleb128 0x4
 1454 0091 62000000 		.4byte	.LASF12
 1455 0095 04       		.byte	0x4
 1456 0096 2D       		.byte	0x2d
 1457 0097 5E000000 		.4byte	0x5e
 1458 009b 04       		.uleb128 0x4
 1459 009c 32010000 		.4byte	.LASF13
 1460 00a0 04       		.byte	0x4
 1461 00a1 2E       		.byte	0x2e
 1462 00a2 3E000000 		.4byte	0x3e
ARM GAS  /tmp/ccVCEuZU.s 			page 27


 1463 00a6 04       		.uleb128 0x4
 1464 00a7 81000000 		.4byte	.LASF14
 1465 00ab 04       		.byte	0x4
 1466 00ac 2F       		.byte	0x2f
 1467 00ad 3E000000 		.4byte	0x3e
 1468 00b1 04       		.uleb128 0x4
 1469 00b2 DA010000 		.4byte	.LASF15
 1470 00b6 04       		.byte	0x4
 1471 00b7 30       		.byte	0x30
 1472 00b8 3E000000 		.4byte	0x3e
 1473 00bc 04       		.uleb128 0x4
 1474 00bd E9010000 		.4byte	.LASF16
 1475 00c1 04       		.byte	0x4
 1476 00c2 31       		.byte	0x31
 1477 00c3 70000000 		.4byte	0x70
 1478 00c7 04       		.uleb128 0x4
 1479 00c8 09010000 		.4byte	.LASF17
 1480 00cc 04       		.byte	0x4
 1481 00cd 32       		.byte	0x32
 1482 00ce 5E000000 		.4byte	0x5e
 1483 00d2 04       		.uleb128 0x4
 1484 00d3 46010000 		.4byte	.LASF18
 1485 00d7 04       		.byte	0x4
 1486 00d8 34       		.byte	0x34
 1487 00d9 70000000 		.4byte	0x70
 1488 00dd 04       		.uleb128 0x4
 1489 00de 76020000 		.4byte	.LASF19
 1490 00e2 04       		.byte	0x4
 1491 00e3 35       		.byte	0x35
 1492 00e4 70000000 		.4byte	0x70
 1493 00e8 04       		.uleb128 0x4
 1494 00e9 BC000000 		.4byte	.LASF20
 1495 00ed 04       		.byte	0x4
 1496 00ee 36       		.byte	0x36
 1497 00ef 5E000000 		.4byte	0x5e
 1498 00f3 04       		.uleb128 0x4
 1499 00f4 40020000 		.4byte	.LASF21
 1500 00f8 05       		.byte	0x5
 1501 00f9 29       		.byte	0x29
 1502 00fa FE000000 		.4byte	0xfe
 1503 00fe 05       		.uleb128 0x5
 1504 00ff 40020000 		.4byte	.LASF21
 1505 0103 44       		.byte	0x44
 1506 0104 06       		.byte	0x6
 1507 0105 2E       		.byte	0x2e
 1508 0106 07020000 		.4byte	0x207
 1509 010a 06       		.uleb128 0x6
 1510 010b 31020000 		.4byte	.LASF22
 1511 010f 06       		.byte	0x6
 1512 0110 2F       		.byte	0x2f
 1513 0111 2C020000 		.4byte	0x22c
 1514 0115 02       		.byte	0x2
 1515 0116 23       		.byte	0x23
 1516 0117 00       		.uleb128 0x0
 1517 0118 06       		.uleb128 0x6
 1518 0119 E2010000 		.4byte	.LASF23
 1519 011d 06       		.byte	0x6
ARM GAS  /tmp/ccVCEuZU.s 			page 28


 1520 011e 31       		.byte	0x31
 1521 011f 2C020000 		.4byte	0x22c
 1522 0123 02       		.byte	0x2
 1523 0124 23       		.byte	0x23
 1524 0125 04       		.uleb128 0x4
 1525 0126 06       		.uleb128 0x6
 1526 0127 39000000 		.4byte	.LASF24
 1527 012b 06       		.byte	0x6
 1528 012c 33       		.byte	0x33
 1529 012d BC000000 		.4byte	0xbc
 1530 0131 02       		.byte	0x2
 1531 0132 23       		.byte	0x23
 1532 0133 08       		.uleb128 0x8
 1533 0134 06       		.uleb128 0x6
 1534 0135 09030000 		.4byte	.LASF25
 1535 0139 06       		.byte	0x6
 1536 013a 34       		.byte	0x34
 1537 013b 6D020000 		.4byte	0x26d
 1538 013f 02       		.byte	0x2
 1539 0140 23       		.byte	0x23
 1540 0141 0C       		.uleb128 0xc
 1541 0142 06       		.uleb128 0x6
 1542 0143 A3000000 		.4byte	.LASF26
 1543 0147 06       		.byte	0x6
 1544 0148 36       		.byte	0x36
 1545 0149 2C020000 		.4byte	0x22c
 1546 014d 02       		.byte	0x2
 1547 014e 23       		.byte	0x23
 1548 014f 10       		.uleb128 0x10
 1549 0150 06       		.uleb128 0x6
 1550 0151 A5010000 		.4byte	.LASF27
 1551 0155 06       		.byte	0x6
 1552 0156 37       		.byte	0x37
 1553 0157 2C020000 		.4byte	0x22c
 1554 015b 02       		.byte	0x2
 1555 015c 23       		.byte	0x23
 1556 015d 14       		.uleb128 0x14
 1557 015e 06       		.uleb128 0x6
 1558 015f 1B020000 		.4byte	.LASF28
 1559 0163 06       		.byte	0x6
 1560 0164 3D       		.byte	0x3d
 1561 0165 A6000000 		.4byte	0xa6
 1562 0169 02       		.byte	0x2
 1563 016a 23       		.byte	0x23
 1564 016b 18       		.uleb128 0x18
 1565 016c 06       		.uleb128 0x6
 1566 016d 38020000 		.4byte	.LASF29
 1567 0171 06       		.byte	0x6
 1568 0172 41       		.byte	0x41
 1569 0173 9B000000 		.4byte	0x9b
 1570 0177 02       		.byte	0x2
 1571 0178 23       		.byte	0x23
 1572 0179 19       		.uleb128 0x19
 1573 017a 06       		.uleb128 0x6
 1574 017b CC020000 		.4byte	.LASF30
 1575 017f 06       		.byte	0x6
 1576 0180 46       		.byte	0x46
ARM GAS  /tmp/ccVCEuZU.s 			page 29


 1577 0181 B1000000 		.4byte	0xb1
 1578 0185 02       		.byte	0x2
 1579 0186 23       		.byte	0x23
 1580 0187 1A       		.uleb128 0x1a
 1581 0188 06       		.uleb128 0x6
 1582 0189 8B020000 		.4byte	.LASF31
 1583 018d 06       		.byte	0x6
 1584 018e 53       		.byte	0x53
 1585 018f 14030000 		.4byte	0x314
 1586 0193 02       		.byte	0x2
 1587 0194 23       		.byte	0x23
 1588 0195 1C       		.uleb128 0x1c
 1589 0196 07       		.uleb128 0x7
 1590 0197 705F7500 		.ascii	"p_u\000"
 1591 019b 06       		.byte	0x6
 1592 019c 78       		.byte	0x78
 1593 019d D7030000 		.4byte	0x3d7
 1594 01a1 02       		.byte	0x2
 1595 01a2 23       		.byte	0x23
 1596 01a3 20       		.uleb128 0x20
 1597 01a4 06       		.uleb128 0x6
 1598 01a5 0F030000 		.4byte	.LASF32
 1599 01a9 06       		.byte	0x6
 1600 01aa 7D       		.byte	0x7d
 1601 01ab 54020000 		.4byte	0x254
 1602 01af 02       		.byte	0x2
 1603 01b0 23       		.byte	0x23
 1604 01b1 24       		.uleb128 0x24
 1605 01b2 06       		.uleb128 0x6
 1606 01b3 99020000 		.4byte	.LASF33
 1607 01b7 06       		.byte	0x6
 1608 01b8 83       		.byte	0x83
 1609 01b9 32020000 		.4byte	0x232
 1610 01bd 02       		.byte	0x2
 1611 01be 23       		.byte	0x23
 1612 01bf 28       		.uleb128 0x28
 1613 01c0 06       		.uleb128 0x6
 1614 01c1 00000000 		.4byte	.LASF34
 1615 01c5 06       		.byte	0x6
 1616 01c6 87       		.byte	0x87
 1617 01c7 C7000000 		.4byte	0xc7
 1618 01cb 02       		.byte	0x2
 1619 01cc 23       		.byte	0x23
 1620 01cd 30       		.uleb128 0x30
 1621 01ce 06       		.uleb128 0x6
 1622 01cf 47020000 		.4byte	.LASF35
 1623 01d3 06       		.byte	0x6
 1624 01d4 8D       		.byte	0x8d
 1625 01d5 D2000000 		.4byte	0xd2
 1626 01d9 02       		.byte	0x2
 1627 01da 23       		.byte	0x23
 1628 01db 34       		.uleb128 0x34
 1629 01dc 06       		.uleb128 0x6
 1630 01dd 07020000 		.4byte	.LASF36
 1631 01e1 06       		.byte	0x6
 1632 01e2 94       		.byte	0x94
 1633 01e3 0C040000 		.4byte	0x40c
ARM GAS  /tmp/ccVCEuZU.s 			page 30


 1634 01e7 02       		.byte	0x2
 1635 01e8 23       		.byte	0x23
 1636 01e9 38       		.uleb128 0x38
 1637 01ea 06       		.uleb128 0x6
 1638 01eb 80020000 		.4byte	.LASF37
 1639 01ef 06       		.byte	0x6
 1640 01f0 98       		.byte	0x98
 1641 01f1 BC000000 		.4byte	0xbc
 1642 01f5 02       		.byte	0x2
 1643 01f6 23       		.byte	0x23
 1644 01f7 3C       		.uleb128 0x3c
 1645 01f8 06       		.uleb128 0x6
 1646 01f9 5A000000 		.4byte	.LASF38
 1647 01fd 06       		.byte	0x6
 1648 01fe 9E       		.byte	0x9e
 1649 01ff 6B020000 		.4byte	0x26b
 1650 0203 02       		.byte	0x2
 1651 0204 23       		.byte	0x23
 1652 0205 40       		.uleb128 0x40
 1653 0206 00       		.byte	0x0
 1654 0207 08       		.uleb128 0x8
 1655 0208 08       		.byte	0x8
 1656 0209 05       		.byte	0x5
 1657 020a 60       		.byte	0x60
 1658 020b 2C020000 		.4byte	0x22c
 1659 020f 06       		.uleb128 0x6
 1660 0210 31020000 		.4byte	.LASF22
 1661 0214 05       		.byte	0x5
 1662 0215 61       		.byte	0x61
 1663 0216 2C020000 		.4byte	0x22c
 1664 021a 02       		.byte	0x2
 1665 021b 23       		.byte	0x23
 1666 021c 00       		.uleb128 0x0
 1667 021d 06       		.uleb128 0x6
 1668 021e E2010000 		.4byte	.LASF23
 1669 0222 05       		.byte	0x5
 1670 0223 63       		.byte	0x63
 1671 0224 2C020000 		.4byte	0x22c
 1672 0228 02       		.byte	0x2
 1673 0229 23       		.byte	0x23
 1674 022a 04       		.uleb128 0x4
 1675 022b 00       		.byte	0x0
 1676 022c 09       		.uleb128 0x9
 1677 022d 04       		.byte	0x4
 1678 022e F3000000 		.4byte	0xf3
 1679 0232 04       		.uleb128 0x4
 1680 0233 B3010000 		.4byte	.LASF39
 1681 0237 05       		.byte	0x5
 1682 0238 65       		.byte	0x65
 1683 0239 07020000 		.4byte	0x207
 1684 023d 08       		.uleb128 0x8
 1685 023e 04       		.byte	0x4
 1686 023f 05       		.byte	0x5
 1687 0240 6A       		.byte	0x6a
 1688 0241 54020000 		.4byte	0x254
 1689 0245 06       		.uleb128 0x6
 1690 0246 31020000 		.4byte	.LASF22
ARM GAS  /tmp/ccVCEuZU.s 			page 31


 1691 024a 05       		.byte	0x5
 1692 024b 6C       		.byte	0x6c
 1693 024c 2C020000 		.4byte	0x22c
 1694 0250 02       		.byte	0x2
 1695 0251 23       		.byte	0x23
 1696 0252 00       		.uleb128 0x0
 1697 0253 00       		.byte	0x0
 1698 0254 04       		.uleb128 0x4
 1699 0255 3A010000 		.4byte	.LASF40
 1700 0259 05       		.byte	0x5
 1701 025a 6F       		.byte	0x6f
 1702 025b 3D020000 		.4byte	0x23d
 1703 025f 0A       		.uleb128 0xa
 1704 0260 B3000000 		.4byte	.LASF41
 1705 0264 07       		.byte	0x7
 1706 0265 0F01     		.2byte	0x10f
 1707 0267 6B020000 		.4byte	0x26b
 1708 026b 0B       		.uleb128 0xb
 1709 026c 04       		.byte	0x4
 1710 026d 0C       		.uleb128 0xc
 1711 026e EE000000 		.4byte	.LASF42
 1712 0272 04       		.byte	0x4
 1713 0273 07       		.byte	0x7
 1714 0274 2B01     		.2byte	0x12b
 1715 0276 8A020000 		.4byte	0x28a
 1716 027a 0D       		.uleb128 0xd
 1717 027b 72313300 		.ascii	"r13\000"
 1718 027f 07       		.byte	0x7
 1719 0280 2C01     		.2byte	0x12c
 1720 0282 0E030000 		.4byte	0x30e
 1721 0286 02       		.byte	0x2
 1722 0287 23       		.byte	0x23
 1723 0288 00       		.uleb128 0x0
 1724 0289 00       		.byte	0x0
 1725 028a 05       		.uleb128 0x5
 1726 028b 92020000 		.4byte	.LASF43
 1727 028f 24       		.byte	0x24
 1728 0290 08       		.byte	0x8
 1729 0291 36       		.byte	0x36
 1730 0292 0E030000 		.4byte	0x30e
 1731 0296 07       		.uleb128 0x7
 1732 0297 723400   		.ascii	"r4\000"
 1733 029a 08       		.byte	0x8
 1734 029b 37       		.byte	0x37
 1735 029c 5F020000 		.4byte	0x25f
 1736 02a0 02       		.byte	0x2
 1737 02a1 23       		.byte	0x23
 1738 02a2 00       		.uleb128 0x0
 1739 02a3 07       		.uleb128 0x7
 1740 02a4 723500   		.ascii	"r5\000"
 1741 02a7 08       		.byte	0x8
 1742 02a8 38       		.byte	0x38
 1743 02a9 5F020000 		.4byte	0x25f
 1744 02ad 02       		.byte	0x2
 1745 02ae 23       		.byte	0x23
 1746 02af 04       		.uleb128 0x4
 1747 02b0 07       		.uleb128 0x7
ARM GAS  /tmp/ccVCEuZU.s 			page 32


 1748 02b1 723600   		.ascii	"r6\000"
 1749 02b4 08       		.byte	0x8
 1750 02b5 39       		.byte	0x39
 1751 02b6 5F020000 		.4byte	0x25f
 1752 02ba 02       		.byte	0x2
 1753 02bb 23       		.byte	0x23
 1754 02bc 08       		.uleb128 0x8
 1755 02bd 07       		.uleb128 0x7
 1756 02be 723700   		.ascii	"r7\000"
 1757 02c1 08       		.byte	0x8
 1758 02c2 3B       		.byte	0x3b
 1759 02c3 5F020000 		.4byte	0x25f
 1760 02c7 02       		.byte	0x2
 1761 02c8 23       		.byte	0x23
 1762 02c9 0C       		.uleb128 0xc
 1763 02ca 07       		.uleb128 0x7
 1764 02cb 723800   		.ascii	"r8\000"
 1765 02ce 08       		.byte	0x8
 1766 02cf 3D       		.byte	0x3d
 1767 02d0 5F020000 		.4byte	0x25f
 1768 02d4 02       		.byte	0x2
 1769 02d5 23       		.byte	0x23
 1770 02d6 10       		.uleb128 0x10
 1771 02d7 07       		.uleb128 0x7
 1772 02d8 723900   		.ascii	"r9\000"
 1773 02db 08       		.byte	0x8
 1774 02dc 3E       		.byte	0x3e
 1775 02dd 5F020000 		.4byte	0x25f
 1776 02e1 02       		.byte	0x2
 1777 02e2 23       		.byte	0x23
 1778 02e3 14       		.uleb128 0x14
 1779 02e4 07       		.uleb128 0x7
 1780 02e5 72313000 		.ascii	"r10\000"
 1781 02e9 08       		.byte	0x8
 1782 02ea 3F       		.byte	0x3f
 1783 02eb 5F020000 		.4byte	0x25f
 1784 02ef 02       		.byte	0x2
 1785 02f0 23       		.byte	0x23
 1786 02f1 18       		.uleb128 0x18
 1787 02f2 07       		.uleb128 0x7
 1788 02f3 72313100 		.ascii	"r11\000"
 1789 02f7 08       		.byte	0x8
 1790 02f8 40       		.byte	0x40
 1791 02f9 5F020000 		.4byte	0x25f
 1792 02fd 02       		.byte	0x2
 1793 02fe 23       		.byte	0x23
 1794 02ff 1C       		.uleb128 0x1c
 1795 0300 07       		.uleb128 0x7
 1796 0301 6C7200   		.ascii	"lr\000"
 1797 0304 08       		.byte	0x8
 1798 0305 41       		.byte	0x41
 1799 0306 5F020000 		.4byte	0x25f
 1800 030a 02       		.byte	0x2
 1801 030b 23       		.byte	0x23
 1802 030c 20       		.uleb128 0x20
 1803 030d 00       		.byte	0x0
 1804 030e 09       		.uleb128 0x9
ARM GAS  /tmp/ccVCEuZU.s 			page 33


 1805 030f 04       		.byte	0x4
 1806 0310 8A020000 		.4byte	0x28a
 1807 0314 0E       		.uleb128 0xe
 1808 0315 DD000000 		.4byte	0xdd
 1809 0319 08       		.uleb128 0x8
 1810 031a 20       		.byte	0x20
 1811 031b 09       		.byte	0x9
 1812 031c 4F       		.byte	0x4f
 1813 031d 84030000 		.4byte	0x384
 1814 0321 06       		.uleb128 0x6
 1815 0322 5B020000 		.4byte	.LASF44
 1816 0326 09       		.byte	0x9
 1817 0327 50       		.byte	0x50
 1818 0328 32020000 		.4byte	0x232
 1819 032c 02       		.byte	0x2
 1820 032d 23       		.byte	0x23
 1821 032e 00       		.uleb128 0x0
 1822 032f 06       		.uleb128 0x6
 1823 0330 23020000 		.4byte	.LASF45
 1824 0334 09       		.byte	0x9
 1825 0335 51       		.byte	0x51
 1826 0336 BC000000 		.4byte	0xbc
 1827 033a 02       		.byte	0x2
 1828 033b 23       		.byte	0x23
 1829 033c 08       		.uleb128 0x8
 1830 033d 06       		.uleb128 0x6
 1831 033e AD010000 		.4byte	.LASF46
 1832 0342 09       		.byte	0x9
 1833 0343 53       		.byte	0x53
 1834 0344 6D020000 		.4byte	0x26d
 1835 0348 02       		.byte	0x2
 1836 0349 23       		.byte	0x23
 1837 034a 0C       		.uleb128 0xc
 1838 034b 06       		.uleb128 0x6
 1839 034c AB000000 		.4byte	.LASF47
 1840 0350 09       		.byte	0x9
 1841 0351 56       		.byte	0x56
 1842 0352 2C020000 		.4byte	0x22c
 1843 0356 02       		.byte	0x2
 1844 0357 23       		.byte	0x23
 1845 0358 10       		.uleb128 0x10
 1846 0359 06       		.uleb128 0x6
 1847 035a D2010000 		.4byte	.LASF48
 1848 035e 09       		.byte	0x9
 1849 035f 57       		.byte	0x57
 1850 0360 2C020000 		.4byte	0x22c
 1851 0364 02       		.byte	0x2
 1852 0365 23       		.byte	0x23
 1853 0366 14       		.uleb128 0x14
 1854 0367 06       		.uleb128 0x6
 1855 0368 F7020000 		.4byte	.LASF49
 1856 036c 09       		.byte	0x9
 1857 036d 5B       		.byte	0x5b
 1858 036e E8000000 		.4byte	0xe8
 1859 0372 02       		.byte	0x2
 1860 0373 23       		.byte	0x23
 1861 0374 18       		.uleb128 0x18
ARM GAS  /tmp/ccVCEuZU.s 			page 34


 1862 0375 06       		.uleb128 0x6
 1863 0376 C8010000 		.4byte	.LASF50
 1864 037a 09       		.byte	0x9
 1865 037b 5E       		.byte	0x5e
 1866 037c 2C020000 		.4byte	0x22c
 1867 0380 02       		.byte	0x2
 1868 0381 23       		.byte	0x23
 1869 0382 1C       		.uleb128 0x1c
 1870 0383 00       		.byte	0x0
 1871 0384 04       		.uleb128 0x4
 1872 0385 D3020000 		.4byte	.LASF51
 1873 0389 09       		.byte	0x9
 1874 038a 61       		.byte	0x61
 1875 038b 19030000 		.4byte	0x319
 1876 038f 05       		.uleb128 0x5
 1877 0390 5F010000 		.4byte	.LASF52
 1878 0394 10       		.byte	0x10
 1879 0395 0A       		.byte	0xa
 1880 0396 2B       		.byte	0x2b
 1881 0397 C6030000 		.4byte	0x3c6
 1882 039b 06       		.uleb128 0x6
 1883 039c 69000000 		.4byte	.LASF53
 1884 03a0 0A       		.byte	0xa
 1885 03a1 2C       		.byte	0x2c
 1886 03a2 32020000 		.4byte	0x232
 1887 03a6 02       		.byte	0x2
 1888 03a7 23       		.byte	0x23
 1889 03a8 00       		.uleb128 0x0
 1890 03a9 06       		.uleb128 0x6
 1891 03aa 01030000 		.4byte	.LASF54
 1892 03ae 0A       		.byte	0xa
 1893 03af 2E       		.byte	0x2e
 1894 03b0 2C020000 		.4byte	0x22c
 1895 03b4 02       		.byte	0x2
 1896 03b5 23       		.byte	0x23
 1897 03b6 08       		.uleb128 0x8
 1898 03b7 06       		.uleb128 0x6
 1899 03b8 6F020000 		.4byte	.LASF55
 1900 03bc 0A       		.byte	0xa
 1901 03bd 30       		.byte	0x30
 1902 03be C6030000 		.4byte	0x3c6
 1903 03c2 02       		.byte	0x2
 1904 03c3 23       		.byte	0x23
 1905 03c4 0C       		.uleb128 0xc
 1906 03c5 00       		.byte	0x0
 1907 03c6 09       		.uleb128 0x9
 1908 03c7 04       		.byte	0x4
 1909 03c8 8F030000 		.4byte	0x38f
 1910 03cc 04       		.uleb128 0x4
 1911 03cd 5F010000 		.4byte	.LASF52
 1912 03d1 0A       		.byte	0xa
 1913 03d2 32       		.byte	0x32
 1914 03d3 8F030000 		.4byte	0x38f
 1915 03d7 0F       		.uleb128 0xf
 1916 03d8 04       		.byte	0x4
 1917 03d9 06       		.byte	0x6
 1918 03da 5A       		.byte	0x5a
ARM GAS  /tmp/ccVCEuZU.s 			page 35


 1919 03db 0C040000 		.4byte	0x40c
 1920 03df 10       		.uleb128 0x10
 1921 03e0 06000000 		.4byte	.LASF56
 1922 03e4 06       		.byte	0x6
 1923 03e5 61       		.byte	0x61
 1924 03e6 C7000000 		.4byte	0xc7
 1925 03ea 10       		.uleb128 0x10
 1926 03eb 24000000 		.4byte	.LASF57
 1927 03ef 06       		.byte	0x6
 1928 03f0 68       		.byte	0x68
 1929 03f1 C7000000 		.4byte	0xc7
 1930 03f5 10       		.uleb128 0x10
 1931 03f6 71000000 		.4byte	.LASF58
 1932 03fa 06       		.byte	0x6
 1933 03fb 6F       		.byte	0x6f
 1934 03fc 6B020000 		.4byte	0x26b
 1935 0400 10       		.uleb128 0x10
 1936 0401 2A020000 		.4byte	.LASF59
 1937 0405 06       		.byte	0x6
 1938 0406 76       		.byte	0x76
 1939 0407 D2000000 		.4byte	0xd2
 1940 040b 00       		.byte	0x0
 1941 040c 09       		.uleb128 0x9
 1942 040d 04       		.byte	0x4
 1943 040e CC030000 		.4byte	0x3cc
 1944 0412 11       		.uleb128 0x11
 1945 0413 C0010000 		.4byte	.LASF60
 1946 0417 02       		.byte	0x2
 1947 0418 48       		.byte	0x48
 1948 0419 01       		.byte	0x1
 1949 041a 2C020000 		.4byte	0x22c
 1950 041e 03       		.byte	0x3
 1951 041f 2E040000 		.4byte	0x42e
 1952 0423 12       		.uleb128 0x12
 1953 0424 747000   		.ascii	"tp\000"
 1954 0427 02       		.byte	0x2
 1955 0428 48       		.byte	0x48
 1956 0429 2C020000 		.4byte	0x22c
 1957 042d 00       		.byte	0x0
 1958 042e 13       		.uleb128 0x13
 1959 042f 0F010000 		.4byte	.LASF74
 1960 0433 02       		.byte	0x2
 1961 0434 28       		.byte	0x28
 1962 0435 01       		.byte	0x1
 1963 0436 03       		.byte	0x3
 1964 0437 5B040000 		.4byte	0x45b
 1965 043b 12       		.uleb128 0x12
 1966 043c 747000   		.ascii	"tp\000"
 1967 043f 02       		.byte	0x2
 1968 0440 28       		.byte	0x28
 1969 0441 2C020000 		.4byte	0x22c
 1970 0445 12       		.uleb128 0x12
 1971 0446 74717000 		.ascii	"tqp\000"
 1972 044a 02       		.byte	0x2
 1973 044b 28       		.byte	0x28
 1974 044c 5B040000 		.4byte	0x45b
 1975 0450 14       		.uleb128 0x14
ARM GAS  /tmp/ccVCEuZU.s 			page 36


 1976 0451 637000   		.ascii	"cp\000"
 1977 0454 02       		.byte	0x2
 1978 0455 2A       		.byte	0x2a
 1979 0456 2C020000 		.4byte	0x22c
 1980 045a 00       		.byte	0x0
 1981 045b 09       		.uleb128 0x9
 1982 045c 04       		.byte	0x4
 1983 045d 32020000 		.4byte	0x232
 1984 0461 15       		.uleb128 0x15
 1985 0462 01       		.byte	0x1
 1986 0463 95000000 		.4byte	.LASF75
 1987 0467 01       		.byte	0x1
 1988 0468 E5       		.byte	0xe5
 1989 0469 01       		.byte	0x1
 1990 046a 90000000 		.4byte	0x90
 1991 046e 01       		.byte	0x1
 1992 046f 7E040000 		.4byte	0x47e
 1993 0473 12       		.uleb128 0x12
 1994 0474 6D7000   		.ascii	"mp\000"
 1995 0477 01       		.byte	0x1
 1996 0478 E5       		.byte	0xe5
 1997 0479 0C040000 		.4byte	0x40c
 1998 047d 00       		.byte	0x0
 1999 047e 11       		.uleb128 0x11
 2000 047f 63020000 		.4byte	.LASF61
 2001 0483 02       		.byte	0x2
 2002 0484 3A       		.byte	0x3a
 2003 0485 01       		.byte	0x1
 2004 0486 2C020000 		.4byte	0x22c
 2005 048a 03       		.byte	0x3
 2006 048b A5040000 		.4byte	0x4a5
 2007 048f 12       		.uleb128 0x12
 2008 0490 74717000 		.ascii	"tqp\000"
 2009 0494 02       		.byte	0x2
 2010 0495 3A       		.byte	0x3a
 2011 0496 5B040000 		.4byte	0x45b
 2012 049a 14       		.uleb128 0x14
 2013 049b 747000   		.ascii	"tp\000"
 2014 049e 02       		.byte	0x2
 2015 049f 3B       		.byte	0x3b
 2016 04a0 2C020000 		.4byte	0x22c
 2017 04a4 00       		.byte	0x0
 2018 04a5 16       		.uleb128 0x16
 2019 04a6 01       		.byte	0x1
 2020 04a7 A4020000 		.4byte	.LASF62
 2021 04ab 01       		.byte	0x1
 2022 04ac 55       		.byte	0x55
 2023 04ad 01       		.byte	0x1
 2024 04ae 00000000 		.4byte	.LFB7
 2025 04b2 0A000000 		.4byte	.LFE7
 2026 04b6 02       		.byte	0x2
 2027 04b7 7D       		.byte	0x7d
 2028 04b8 00       		.sleb128 0
 2029 04b9 CA040000 		.4byte	0x4ca
 2030 04bd 17       		.uleb128 0x17
 2031 04be 6D7000   		.ascii	"mp\000"
 2032 04c1 01       		.byte	0x1
ARM GAS  /tmp/ccVCEuZU.s 			page 37


 2033 04c2 55       		.byte	0x55
 2034 04c3 0C040000 		.4byte	0x40c
 2035 04c7 01       		.byte	0x1
 2036 04c8 50       		.byte	0x50
 2037 04c9 00       		.byte	0x0
 2038 04ca 18       		.uleb128 0x18
 2039 04cb 01       		.byte	0x1
 2040 04cc 8A000000 		.4byte	.LASF63
 2041 04d0 01       		.byte	0x1
 2042 04d1 78       		.byte	0x78
 2043 04d2 01       		.byte	0x1
 2044 04d3 00000000 		.4byte	.LFB9
 2045 04d7 C6000000 		.4byte	.LFE9
 2046 04db 00000000 		.4byte	.LLST0
 2047 04df 07060000 		.4byte	0x607
 2048 04e3 19       		.uleb128 0x19
 2049 04e4 6D7000   		.ascii	"mp\000"
 2050 04e7 01       		.byte	0x1
 2051 04e8 78       		.byte	0x78
 2052 04e9 0C040000 		.4byte	0x40c
 2053 04ed 20000000 		.4byte	.LLST1
 2054 04f1 1A       		.uleb128 0x1a
 2055 04f2 63747000 		.ascii	"ctp\000"
 2056 04f6 01       		.byte	0x1
 2057 04f7 79       		.byte	0x79
 2058 04f8 2C020000 		.4byte	0x22c
 2059 04fc 3E000000 		.4byte	.LLST2
 2060 0500 1B       		.uleb128 0x1b
 2061 0501 00000000 		.4byte	.Ldebug_ranges0+0x0
 2062 0505 1A       		.uleb128 0x1a
 2063 0506 747000   		.ascii	"tp\000"
 2064 0509 01       		.byte	0x1
 2065 050a 82       		.byte	0x82
 2066 050b 2C020000 		.4byte	0x22c
 2067 050f 5D000000 		.4byte	.LLST3
 2068 0513 1C       		.uleb128 0x1c
 2069 0514 2E040000 		.4byte	0x42e
 2070 0518 2C000000 		.4byte	.LBB35
 2071 051c 18000000 		.4byte	.Ldebug_ranges0+0x18
 2072 0520 01       		.byte	0x1
 2073 0521 A8       		.byte	0xa8
 2074 0522 48050000 		.4byte	0x548
 2075 0526 1D       		.uleb128 0x1d
 2076 0527 45040000 		.4byte	0x445
 2077 052b AA000000 		.4byte	.LLST4
 2078 052f 1D       		.uleb128 0x1d
 2079 0530 3B040000 		.4byte	0x43b
 2080 0534 BD000000 		.4byte	.LLST5
 2081 0538 1B       		.uleb128 0x1b
 2082 0539 30000000 		.4byte	.Ldebug_ranges0+0x30
 2083 053d 1E       		.uleb128 0x1e
 2084 053e 50040000 		.4byte	0x450
 2085 0542 D0000000 		.4byte	.LLST6
 2086 0546 00       		.byte	0x0
 2087 0547 00       		.byte	0x0
 2088 0548 1C       		.uleb128 0x1c
 2089 0549 12040000 		.4byte	0x412
ARM GAS  /tmp/ccVCEuZU.s 			page 38


 2090 054d 52000000 		.4byte	.LBB38
 2091 0551 48000000 		.4byte	.Ldebug_ranges0+0x48
 2092 0555 01       		.byte	0x1
 2093 0556 A3       		.byte	0xa3
 2094 0557 65050000 		.4byte	0x565
 2095 055b 1D       		.uleb128 0x1d
 2096 055c 23040000 		.4byte	0x423
 2097 0560 F9000000 		.4byte	.LLST7
 2098 0564 00       		.byte	0x0
 2099 0565 1C       		.uleb128 0x1c
 2100 0566 12040000 		.4byte	0x412
 2101 056a 64000000 		.4byte	.LBB42
 2102 056e 60000000 		.4byte	.Ldebug_ranges0+0x60
 2103 0572 01       		.byte	0x1
 2104 0573 9A       		.byte	0x9a
 2105 0574 82050000 		.4byte	0x582
 2106 0578 1D       		.uleb128 0x1d
 2107 0579 23040000 		.4byte	0x423
 2108 057d 17010000 		.4byte	.LLST8
 2109 0581 00       		.byte	0x0
 2110 0582 1C       		.uleb128 0x1c
 2111 0583 2E040000 		.4byte	0x42e
 2112 0587 68000000 		.4byte	.LBB46
 2113 058b 80000000 		.4byte	.Ldebug_ranges0+0x80
 2114 058f 01       		.byte	0x1
 2115 0590 9A       		.byte	0x9a
 2116 0591 B7050000 		.4byte	0x5b7
 2117 0595 1D       		.uleb128 0x1d
 2118 0596 45040000 		.4byte	0x445
 2119 059a 2A010000 		.4byte	.LLST9
 2120 059e 1D       		.uleb128 0x1d
 2121 059f 3B040000 		.4byte	0x43b
 2122 05a3 3E010000 		.4byte	.LLST10
 2123 05a7 1B       		.uleb128 0x1b
 2124 05a8 A0000000 		.4byte	.Ldebug_ranges0+0xa0
 2125 05ac 1E       		.uleb128 0x1e
 2126 05ad 50040000 		.4byte	0x450
 2127 05b1 51010000 		.4byte	.LLST11
 2128 05b5 00       		.byte	0x0
 2129 05b6 00       		.byte	0x0
 2130 05b7 1C       		.uleb128 0x1c
 2131 05b8 12040000 		.4byte	0x412
 2132 05bc 8A000000 		.4byte	.LBB54
 2133 05c0 C0000000 		.4byte	.Ldebug_ranges0+0xc0
 2134 05c4 01       		.byte	0x1
 2135 05c5 8C       		.byte	0x8c
 2136 05c6 D4050000 		.4byte	0x5d4
 2137 05ca 1D       		.uleb128 0x1d
 2138 05cb 23040000 		.4byte	0x423
 2139 05cf 6F010000 		.4byte	.LLST12
 2140 05d3 00       		.byte	0x0
 2141 05d4 1F       		.uleb128 0x1f
 2142 05d5 2E040000 		.4byte	0x42e
 2143 05d9 94000000 		.4byte	.LBB59
 2144 05dd E0000000 		.4byte	.Ldebug_ranges0+0xe0
 2145 05e1 01       		.byte	0x1
 2146 05e2 8C       		.byte	0x8c
ARM GAS  /tmp/ccVCEuZU.s 			page 39


 2147 05e3 1D       		.uleb128 0x1d
 2148 05e4 45040000 		.4byte	0x445
 2149 05e8 8E010000 		.4byte	.LLST13
 2150 05ec 1D       		.uleb128 0x1d
 2151 05ed 3B040000 		.4byte	0x43b
 2152 05f1 AD010000 		.4byte	.LLST14
 2153 05f5 1B       		.uleb128 0x1b
 2154 05f6 F8000000 		.4byte	.Ldebug_ranges0+0xf8
 2155 05fa 1E       		.uleb128 0x1e
 2156 05fb 50040000 		.4byte	0x450
 2157 05ff CC010000 		.4byte	.LLST15
 2158 0603 00       		.byte	0x0
 2159 0604 00       		.byte	0x0
 2160 0605 00       		.byte	0x0
 2161 0606 00       		.byte	0x0
 2162 0607 18       		.uleb128 0x18
 2163 0608 01       		.byte	0x1
 2164 0609 9B010000 		.4byte	.LASF64
 2165 060d 01       		.byte	0x1
 2166 060e 66       		.byte	0x66
 2167 060f 01       		.byte	0x1
 2168 0610 00000000 		.4byte	.LFB8
 2169 0614 14000000 		.4byte	.LFE8
 2170 0618 F6010000 		.4byte	.LLST16
 2171 061c 65060000 		.4byte	0x665
 2172 0620 19       		.uleb128 0x19
 2173 0621 6D7000   		.ascii	"mp\000"
 2174 0624 01       		.byte	0x1
 2175 0625 66       		.byte	0x66
 2176 0626 0C040000 		.4byte	0x40c
 2177 062a 16020000 		.4byte	.LLST17
 2178 062e 20       		.uleb128 0x20
 2179 062f 02000000 		.4byte	.LBB65
 2180 0633 08000000 		.4byte	.LBE65
 2181 0637 4B060000 		.4byte	0x64b
 2182 063b 1A       		.uleb128 0x1a
 2183 063c 746D7000 		.ascii	"tmp\000"
 2184 0640 01       		.byte	0x1
 2185 0641 68       		.byte	0x68
 2186 0642 70000000 		.4byte	0x70
 2187 0646 29020000 		.4byte	.LLST18
 2188 064a 00       		.byte	0x0
 2189 064b 21       		.uleb128 0x21
 2190 064c 0C000000 		.4byte	.LBB66
 2191 0650 12000000 		.4byte	.LBE66
 2192 0654 1A       		.uleb128 0x1a
 2193 0655 746D7000 		.ascii	"tmp\000"
 2194 0659 01       		.byte	0x1
 2195 065a 6C       		.byte	0x6c
 2196 065b 70000000 		.4byte	0x70
 2197 065f 3C020000 		.4byte	.LLST19
 2198 0663 00       		.byte	0x0
 2199 0664 00       		.byte	0x0
 2200 0665 22       		.uleb128 0x22
 2201 0666 01       		.byte	0x1
 2202 0667 52010000 		.4byte	.LASF65
 2203 066b 01       		.byte	0x1
ARM GAS  /tmp/ccVCEuZU.s 			page 40


 2204 066c C9       		.byte	0xc9
 2205 066d 01       		.byte	0x1
 2206 066e 90000000 		.4byte	0x90
 2207 0672 00000000 		.4byte	.LFB10
 2208 0676 32000000 		.4byte	.LFE10
 2209 067a 02       		.byte	0x2
 2210 067b 7D       		.byte	0x7d
 2211 067c 00       		.sleb128 0
 2212 067d EA060000 		.4byte	0x6ea
 2213 0681 19       		.uleb128 0x19
 2214 0682 6D7000   		.ascii	"mp\000"
 2215 0685 01       		.byte	0x1
 2216 0686 C9       		.byte	0xc9
 2217 0687 0C040000 		.4byte	0x40c
 2218 068b 4F020000 		.4byte	.LLST20
 2219 068f 23       		.uleb128 0x23
 2220 0690 6200     		.ascii	"b\000"
 2221 0692 01       		.byte	0x1
 2222 0693 CA       		.byte	0xca
 2223 0694 90000000 		.4byte	0x90
 2224 0698 01       		.byte	0x1
 2225 0699 50       		.byte	0x50
 2226 069a 20       		.uleb128 0x20
 2227 069b 02000000 		.4byte	.LBB67
 2228 069f 08000000 		.4byte	.LBE67
 2229 06a3 B7060000 		.4byte	0x6b7
 2230 06a7 1A       		.uleb128 0x1a
 2231 06a8 746D7000 		.ascii	"tmp\000"
 2232 06ac 01       		.byte	0x1
 2233 06ad CC       		.byte	0xcc
 2234 06ae 70000000 		.4byte	0x70
 2235 06b2 6D020000 		.4byte	.LLST21
 2236 06b6 00       		.byte	0x0
 2237 06b7 1C       		.uleb128 0x1c
 2238 06b8 61040000 		.4byte	0x461
 2239 06bc 08000000 		.4byte	.LBB68
 2240 06c0 10010000 		.4byte	.Ldebug_ranges0+0x110
 2241 06c4 01       		.byte	0x1
 2242 06c5 CE       		.byte	0xce
 2243 06c6 D4060000 		.4byte	0x6d4
 2244 06ca 1D       		.uleb128 0x1d
 2245 06cb 73040000 		.4byte	0x473
 2246 06cf 80020000 		.4byte	.LLST22
 2247 06d3 00       		.byte	0x0
 2248 06d4 1B       		.uleb128 0x1b
 2249 06d5 28010000 		.4byte	.Ldebug_ranges0+0x128
 2250 06d9 1A       		.uleb128 0x1a
 2251 06da 746D7000 		.ascii	"tmp\000"
 2252 06de 01       		.byte	0x1
 2253 06df D0       		.byte	0xd0
 2254 06e0 70000000 		.4byte	0x70
 2255 06e4 9E020000 		.4byte	.LLST23
 2256 06e8 00       		.byte	0x0
 2257 06e9 00       		.byte	0x0
 2258 06ea 24       		.uleb128 0x24
 2259 06eb 61040000 		.4byte	0x461
 2260 06ef 00000000 		.4byte	.LFB11
ARM GAS  /tmp/ccVCEuZU.s 			page 41


 2261 06f3 20000000 		.4byte	.LFE11
 2262 06f7 02       		.byte	0x2
 2263 06f8 7D       		.byte	0x7d
 2264 06f9 00       		.sleb128 0
 2265 06fa 08070000 		.4byte	0x708
 2266 06fe 1D       		.uleb128 0x1d
 2267 06ff 73040000 		.4byte	0x473
 2268 0703 BC020000 		.4byte	.LLST24
 2269 0707 00       		.byte	0x0
 2270 0708 25       		.uleb128 0x25
 2271 0709 01       		.byte	0x1
 2272 070a 2D000000 		.4byte	.LASF66
 2273 070e 01       		.byte	0x1
 2274 070f FB       		.byte	0xfb
 2275 0710 01       		.byte	0x1
 2276 0711 0C040000 		.4byte	0x40c
 2277 0715 00000000 		.4byte	.LFB12
 2278 0719 66000000 		.4byte	.LFE12
 2279 071d DA020000 		.4byte	.LLST25
 2280 0721 D7070000 		.4byte	0x7d7
 2281 0725 1A       		.uleb128 0x1a
 2282 0726 63747000 		.ascii	"ctp\000"
 2283 072a 01       		.byte	0x1
 2284 072b FC       		.byte	0xfc
 2285 072c 2C020000 		.4byte	0x22c
 2286 0730 FA020000 		.4byte	.LLST26
 2287 0734 1A       		.uleb128 0x1a
 2288 0735 756D7000 		.ascii	"ump\000"
 2289 0739 01       		.byte	0x1
 2290 073a FD       		.byte	0xfd
 2291 073b 0C040000 		.4byte	0x40c
 2292 073f 19030000 		.4byte	.LLST27
 2293 0743 1A       		.uleb128 0x1a
 2294 0744 6D7000   		.ascii	"mp\000"
 2295 0747 01       		.byte	0x1
 2296 0748 FD       		.byte	0xfd
 2297 0749 0C040000 		.4byte	0x40c
 2298 074d 2C030000 		.4byte	.LLST28
 2299 0751 20       		.uleb128 0x20
 2300 0752 0C000000 		.4byte	.LBB74
 2301 0756 12000000 		.4byte	.LBE74
 2302 075a 6E070000 		.4byte	0x76e
 2303 075e 1A       		.uleb128 0x1a
 2304 075f 746D7000 		.ascii	"tmp\000"
 2305 0763 01       		.byte	0x1
 2306 0764 FF       		.byte	0xff
 2307 0765 70000000 		.4byte	0x70
 2308 0769 4A030000 		.4byte	.LLST29
 2309 076d 00       		.byte	0x0
 2310 076e 20       		.uleb128 0x20
 2311 076f 1E000000 		.4byte	.LBB75
 2312 0773 4E000000 		.4byte	.LBE75
 2313 0777 C0070000 		.4byte	0x7c0
 2314 077b 26       		.uleb128 0x26
 2315 077c 747000   		.ascii	"tp\000"
 2316 077f 01       		.byte	0x1
 2317 0780 0C01     		.2byte	0x10c
ARM GAS  /tmp/ccVCEuZU.s 			page 42


 2318 0782 2C020000 		.4byte	0x22c
 2319 0786 27       		.uleb128 0x27
 2320 0787 2A010000 		.4byte	.LASF67
 2321 078b 01       		.byte	0x1
 2322 078c 1001     		.2byte	0x110
 2323 078e BC000000 		.4byte	0xbc
 2324 0792 5D030000 		.4byte	.LLST30
 2325 0796 28       		.uleb128 0x28
 2326 0797 7E040000 		.4byte	0x47e
 2327 079b 36000000 		.4byte	.LBB76
 2328 079f 40010000 		.4byte	.Ldebug_ranges0+0x140
 2329 07a3 01       		.byte	0x1
 2330 07a4 1F01     		.2byte	0x11f
 2331 07a6 1D       		.uleb128 0x1d
 2332 07a7 8F040000 		.4byte	0x48f
 2333 07ab 7B030000 		.4byte	.LLST31
 2334 07af 1B       		.uleb128 0x1b
 2335 07b0 60010000 		.4byte	.Ldebug_ranges0+0x160
 2336 07b4 1E       		.uleb128 0x1e
 2337 07b5 9A040000 		.4byte	0x49a
 2338 07b9 8E030000 		.4byte	.LLST32
 2339 07bd 00       		.byte	0x0
 2340 07be 00       		.byte	0x0
 2341 07bf 00       		.byte	0x0
 2342 07c0 1B       		.uleb128 0x1b
 2343 07c1 80010000 		.4byte	.Ldebug_ranges0+0x180
 2344 07c5 29       		.uleb128 0x29
 2345 07c6 746D7000 		.ascii	"tmp\000"
 2346 07ca 01       		.byte	0x1
 2347 07cb 2701     		.2byte	0x127
 2348 07cd 70000000 		.4byte	0x70
 2349 07d1 A1030000 		.4byte	.LLST33
 2350 07d5 00       		.byte	0x0
 2351 07d6 00       		.byte	0x0
 2352 07d7 2A       		.uleb128 0x2a
 2353 07d8 01       		.byte	0x1
 2354 07d9 C2000000 		.4byte	.LASF68
 2355 07dd 01       		.byte	0x1
 2356 07de 3701     		.2byte	0x137
 2357 07e0 01       		.byte	0x1
 2358 07e1 0C040000 		.4byte	0x40c
 2359 07e5 00000000 		.4byte	.LFB13
 2360 07e9 52000000 		.4byte	.LFE13
 2361 07ed BF030000 		.4byte	.LLST34
 2362 07f1 73080000 		.4byte	0x873
 2363 07f5 29       		.uleb128 0x29
 2364 07f6 63747000 		.ascii	"ctp\000"
 2365 07fa 01       		.byte	0x1
 2366 07fb 3801     		.2byte	0x138
 2367 07fd 2C020000 		.4byte	0x22c
 2368 0801 DF030000 		.4byte	.LLST35
 2369 0805 29       		.uleb128 0x29
 2370 0806 756D7000 		.ascii	"ump\000"
 2371 080a 01       		.byte	0x1
 2372 080b 3901     		.2byte	0x139
 2373 080d 0C040000 		.4byte	0x40c
 2374 0811 FE030000 		.4byte	.LLST36
ARM GAS  /tmp/ccVCEuZU.s 			page 43


 2375 0815 29       		.uleb128 0x29
 2376 0816 6D7000   		.ascii	"mp\000"
 2377 0819 01       		.byte	0x1
 2378 081a 3901     		.2byte	0x139
 2379 081c 0C040000 		.4byte	0x40c
 2380 0820 20040000 		.4byte	.LLST37
 2381 0824 21       		.uleb128 0x21
 2382 0825 18000000 		.4byte	.LBB84
 2383 0829 46000000 		.4byte	.LBE84
 2384 082d 26       		.uleb128 0x26
 2385 082e 747000   		.ascii	"tp\000"
 2386 0831 01       		.byte	0x1
 2387 0832 4801     		.2byte	0x148
 2388 0834 2C020000 		.4byte	0x22c
 2389 0838 27       		.uleb128 0x27
 2390 0839 2A010000 		.4byte	.LASF67
 2391 083d 01       		.byte	0x1
 2392 083e 4C01     		.2byte	0x14c
 2393 0840 BC000000 		.4byte	0xbc
 2394 0844 3E040000 		.4byte	.LLST38
 2395 0848 28       		.uleb128 0x28
 2396 0849 7E040000 		.4byte	0x47e
 2397 084d 30000000 		.4byte	.LBB85
 2398 0851 98010000 		.4byte	.Ldebug_ranges0+0x198
 2399 0855 01       		.byte	0x1
 2400 0856 5901     		.2byte	0x159
 2401 0858 1D       		.uleb128 0x1d
 2402 0859 8F040000 		.4byte	0x48f
 2403 085d 5C040000 		.4byte	.LLST39
 2404 0861 1B       		.uleb128 0x1b
 2405 0862 B0010000 		.4byte	.Ldebug_ranges0+0x1b0
 2406 0866 1E       		.uleb128 0x1e
 2407 0867 9A040000 		.4byte	0x49a
 2408 086b 6F040000 		.4byte	.LLST40
 2409 086f 00       		.byte	0x0
 2410 0870 00       		.byte	0x0
 2411 0871 00       		.byte	0x0
 2412 0872 00       		.byte	0x0
 2413 0873 2B       		.uleb128 0x2b
 2414 0874 01       		.byte	0x1
 2415 0875 1B010000 		.4byte	.LASF69
 2416 0879 01       		.byte	0x1
 2417 087a 6F01     		.2byte	0x16f
 2418 087c 01       		.byte	0x1
 2419 087d 00000000 		.4byte	.LFB14
 2420 0881 52000000 		.4byte	.LFE14
 2421 0885 82040000 		.4byte	.LLST41
 2422 0889 2A090000 		.4byte	0x92a
 2423 088d 29       		.uleb128 0x29
 2424 088e 63747000 		.ascii	"ctp\000"
 2425 0892 01       		.byte	0x1
 2426 0893 7001     		.2byte	0x170
 2427 0895 2C020000 		.4byte	0x22c
 2428 0899 A2040000 		.4byte	.LLST42
 2429 089d 20       		.uleb128 0x20
 2430 089e 0C000000 		.4byte	.LBB89
 2431 08a2 12000000 		.4byte	.LBE89
ARM GAS  /tmp/ccVCEuZU.s 			page 44


 2432 08a6 BB080000 		.4byte	0x8bb
 2433 08aa 29       		.uleb128 0x29
 2434 08ab 746D7000 		.ascii	"tmp\000"
 2435 08af 01       		.byte	0x1
 2436 08b0 7201     		.2byte	0x172
 2437 08b2 70000000 		.4byte	0x70
 2438 08b6 C1040000 		.4byte	.LLST43
 2439 08ba 00       		.byte	0x0
 2440 08bb 20       		.uleb128 0x20
 2441 08bc 16000000 		.4byte	.LBB90
 2442 08c0 3E000000 		.4byte	.LBE90
 2443 08c4 0F090000 		.4byte	0x90f
 2444 08c8 29       		.uleb128 0x29
 2445 08c9 756D7000 		.ascii	"ump\000"
 2446 08cd 01       		.byte	0x1
 2447 08ce 7501     		.2byte	0x175
 2448 08d0 0C040000 		.4byte	0x40c
 2449 08d4 D4040000 		.4byte	.LLST44
 2450 08d8 1B       		.uleb128 0x1b
 2451 08d9 C8010000 		.4byte	.Ldebug_ranges0+0x1c8
 2452 08dd 26       		.uleb128 0x26
 2453 08de 747000   		.ascii	"tp\000"
 2454 08e1 01       		.byte	0x1
 2455 08e2 7801     		.2byte	0x178
 2456 08e4 2C020000 		.4byte	0x22c
 2457 08e8 28       		.uleb128 0x28
 2458 08e9 7E040000 		.4byte	0x47e
 2459 08ed 2A000000 		.4byte	.LBB92
 2460 08f1 E0010000 		.4byte	.Ldebug_ranges0+0x1e0
 2461 08f5 01       		.byte	0x1
 2462 08f6 7801     		.2byte	0x178
 2463 08f8 2C       		.uleb128 0x2c
 2464 08f9 8F040000 		.4byte	0x48f
 2465 08fd 1B       		.uleb128 0x1b
 2466 08fe F8010000 		.4byte	.Ldebug_ranges0+0x1f8
 2467 0902 1E       		.uleb128 0x1e
 2468 0903 9A040000 		.4byte	0x49a
 2469 0907 E7040000 		.4byte	.LLST45
 2470 090b 00       		.byte	0x0
 2471 090c 00       		.byte	0x0
 2472 090d 00       		.byte	0x0
 2473 090e 00       		.byte	0x0
 2474 090f 21       		.uleb128 0x21
 2475 0910 4A000000 		.4byte	.LBB97
 2476 0914 50000000 		.4byte	.LBE97
 2477 0918 29       		.uleb128 0x29
 2478 0919 746D7000 		.ascii	"tmp\000"
 2479 091d 01       		.byte	0x1
 2480 091e 8401     		.2byte	0x184
 2481 0920 70000000 		.4byte	0x70
 2482 0924 FA040000 		.4byte	.LLST46
 2483 0928 00       		.byte	0x0
 2484 0929 00       		.byte	0x0
 2485 092a 2D       		.uleb128 0x2d
 2486 092b DD020000 		.4byte	.LASF70
 2487 092f 09       		.byte	0x9
 2488 0930 65       		.byte	0x65
ARM GAS  /tmp/ccVCEuZU.s 			page 45


 2489 0931 84030000 		.4byte	0x384
 2490 0935 01       		.byte	0x1
 2491 0936 01       		.byte	0x1
 2492 0937 2D       		.uleb128 0x2d
 2493 0938 DD020000 		.4byte	.LASF70
 2494 093c 09       		.byte	0x9
 2495 093d 65       		.byte	0x65
 2496 093e 84030000 		.4byte	0x384
 2497 0942 01       		.byte	0x1
 2498 0943 01       		.byte	0x1
 2499 0944 00       		.byte	0x0
 2500              		.section	.debug_abbrev
 2501 0000 01       		.uleb128 0x1
 2502 0001 11       		.uleb128 0x11
 2503 0002 01       		.byte	0x1
 2504 0003 25       		.uleb128 0x25
 2505 0004 0E       		.uleb128 0xe
 2506 0005 13       		.uleb128 0x13
 2507 0006 0B       		.uleb128 0xb
 2508 0007 03       		.uleb128 0x3
 2509 0008 0E       		.uleb128 0xe
 2510 0009 1B       		.uleb128 0x1b
 2511 000a 0E       		.uleb128 0xe
 2512 000b 11       		.uleb128 0x11
 2513 000c 01       		.uleb128 0x1
 2514 000d 52       		.uleb128 0x52
 2515 000e 01       		.uleb128 0x1
 2516 000f 55       		.uleb128 0x55
 2517 0010 06       		.uleb128 0x6
 2518 0011 10       		.uleb128 0x10
 2519 0012 06       		.uleb128 0x6
 2520 0013 00       		.byte	0x0
 2521 0014 00       		.byte	0x0
 2522 0015 02       		.uleb128 0x2
 2523 0016 24       		.uleb128 0x24
 2524 0017 00       		.byte	0x0
 2525 0018 0B       		.uleb128 0xb
 2526 0019 0B       		.uleb128 0xb
 2527 001a 3E       		.uleb128 0x3e
 2528 001b 0B       		.uleb128 0xb
 2529 001c 03       		.uleb128 0x3
 2530 001d 08       		.uleb128 0x8
 2531 001e 00       		.byte	0x0
 2532 001f 00       		.byte	0x0
 2533 0020 03       		.uleb128 0x3
 2534 0021 24       		.uleb128 0x24
 2535 0022 00       		.byte	0x0
 2536 0023 0B       		.uleb128 0xb
 2537 0024 0B       		.uleb128 0xb
 2538 0025 3E       		.uleb128 0x3e
 2539 0026 0B       		.uleb128 0xb
 2540 0027 03       		.uleb128 0x3
 2541 0028 0E       		.uleb128 0xe
 2542 0029 00       		.byte	0x0
 2543 002a 00       		.byte	0x0
 2544 002b 04       		.uleb128 0x4
 2545 002c 16       		.uleb128 0x16
ARM GAS  /tmp/ccVCEuZU.s 			page 46


 2546 002d 00       		.byte	0x0
 2547 002e 03       		.uleb128 0x3
 2548 002f 0E       		.uleb128 0xe
 2549 0030 3A       		.uleb128 0x3a
 2550 0031 0B       		.uleb128 0xb
 2551 0032 3B       		.uleb128 0x3b
 2552 0033 0B       		.uleb128 0xb
 2553 0034 49       		.uleb128 0x49
 2554 0035 13       		.uleb128 0x13
 2555 0036 00       		.byte	0x0
 2556 0037 00       		.byte	0x0
 2557 0038 05       		.uleb128 0x5
 2558 0039 13       		.uleb128 0x13
 2559 003a 01       		.byte	0x1
 2560 003b 03       		.uleb128 0x3
 2561 003c 0E       		.uleb128 0xe
 2562 003d 0B       		.uleb128 0xb
 2563 003e 0B       		.uleb128 0xb
 2564 003f 3A       		.uleb128 0x3a
 2565 0040 0B       		.uleb128 0xb
 2566 0041 3B       		.uleb128 0x3b
 2567 0042 0B       		.uleb128 0xb
 2568 0043 01       		.uleb128 0x1
 2569 0044 13       		.uleb128 0x13
 2570 0045 00       		.byte	0x0
 2571 0046 00       		.byte	0x0
 2572 0047 06       		.uleb128 0x6
 2573 0048 0D       		.uleb128 0xd
 2574 0049 00       		.byte	0x0
 2575 004a 03       		.uleb128 0x3
 2576 004b 0E       		.uleb128 0xe
 2577 004c 3A       		.uleb128 0x3a
 2578 004d 0B       		.uleb128 0xb
 2579 004e 3B       		.uleb128 0x3b
 2580 004f 0B       		.uleb128 0xb
 2581 0050 49       		.uleb128 0x49
 2582 0051 13       		.uleb128 0x13
 2583 0052 38       		.uleb128 0x38
 2584 0053 0A       		.uleb128 0xa
 2585 0054 00       		.byte	0x0
 2586 0055 00       		.byte	0x0
 2587 0056 07       		.uleb128 0x7
 2588 0057 0D       		.uleb128 0xd
 2589 0058 00       		.byte	0x0
 2590 0059 03       		.uleb128 0x3
 2591 005a 08       		.uleb128 0x8
 2592 005b 3A       		.uleb128 0x3a
 2593 005c 0B       		.uleb128 0xb
 2594 005d 3B       		.uleb128 0x3b
 2595 005e 0B       		.uleb128 0xb
 2596 005f 49       		.uleb128 0x49
 2597 0060 13       		.uleb128 0x13
 2598 0061 38       		.uleb128 0x38
 2599 0062 0A       		.uleb128 0xa
 2600 0063 00       		.byte	0x0
 2601 0064 00       		.byte	0x0
 2602 0065 08       		.uleb128 0x8
ARM GAS  /tmp/ccVCEuZU.s 			page 47


 2603 0066 13       		.uleb128 0x13
 2604 0067 01       		.byte	0x1
 2605 0068 0B       		.uleb128 0xb
 2606 0069 0B       		.uleb128 0xb
 2607 006a 3A       		.uleb128 0x3a
 2608 006b 0B       		.uleb128 0xb
 2609 006c 3B       		.uleb128 0x3b
 2610 006d 0B       		.uleb128 0xb
 2611 006e 01       		.uleb128 0x1
 2612 006f 13       		.uleb128 0x13
 2613 0070 00       		.byte	0x0
 2614 0071 00       		.byte	0x0
 2615 0072 09       		.uleb128 0x9
 2616 0073 0F       		.uleb128 0xf
 2617 0074 00       		.byte	0x0
 2618 0075 0B       		.uleb128 0xb
 2619 0076 0B       		.uleb128 0xb
 2620 0077 49       		.uleb128 0x49
 2621 0078 13       		.uleb128 0x13
 2622 0079 00       		.byte	0x0
 2623 007a 00       		.byte	0x0
 2624 007b 0A       		.uleb128 0xa
 2625 007c 16       		.uleb128 0x16
 2626 007d 00       		.byte	0x0
 2627 007e 03       		.uleb128 0x3
 2628 007f 0E       		.uleb128 0xe
 2629 0080 3A       		.uleb128 0x3a
 2630 0081 0B       		.uleb128 0xb
 2631 0082 3B       		.uleb128 0x3b
 2632 0083 05       		.uleb128 0x5
 2633 0084 49       		.uleb128 0x49
 2634 0085 13       		.uleb128 0x13
 2635 0086 00       		.byte	0x0
 2636 0087 00       		.byte	0x0
 2637 0088 0B       		.uleb128 0xb
 2638 0089 0F       		.uleb128 0xf
 2639 008a 00       		.byte	0x0
 2640 008b 0B       		.uleb128 0xb
 2641 008c 0B       		.uleb128 0xb
 2642 008d 00       		.byte	0x0
 2643 008e 00       		.byte	0x0
 2644 008f 0C       		.uleb128 0xc
 2645 0090 13       		.uleb128 0x13
 2646 0091 01       		.byte	0x1
 2647 0092 03       		.uleb128 0x3
 2648 0093 0E       		.uleb128 0xe
 2649 0094 0B       		.uleb128 0xb
 2650 0095 0B       		.uleb128 0xb
 2651 0096 3A       		.uleb128 0x3a
 2652 0097 0B       		.uleb128 0xb
 2653 0098 3B       		.uleb128 0x3b
 2654 0099 05       		.uleb128 0x5
 2655 009a 01       		.uleb128 0x1
 2656 009b 13       		.uleb128 0x13
 2657 009c 00       		.byte	0x0
 2658 009d 00       		.byte	0x0
 2659 009e 0D       		.uleb128 0xd
ARM GAS  /tmp/ccVCEuZU.s 			page 48


 2660 009f 0D       		.uleb128 0xd
 2661 00a0 00       		.byte	0x0
 2662 00a1 03       		.uleb128 0x3
 2663 00a2 08       		.uleb128 0x8
 2664 00a3 3A       		.uleb128 0x3a
 2665 00a4 0B       		.uleb128 0xb
 2666 00a5 3B       		.uleb128 0x3b
 2667 00a6 05       		.uleb128 0x5
 2668 00a7 49       		.uleb128 0x49
 2669 00a8 13       		.uleb128 0x13
 2670 00a9 38       		.uleb128 0x38
 2671 00aa 0A       		.uleb128 0xa
 2672 00ab 00       		.byte	0x0
 2673 00ac 00       		.byte	0x0
 2674 00ad 0E       		.uleb128 0xe
 2675 00ae 35       		.uleb128 0x35
 2676 00af 00       		.byte	0x0
 2677 00b0 49       		.uleb128 0x49
 2678 00b1 13       		.uleb128 0x13
 2679 00b2 00       		.byte	0x0
 2680 00b3 00       		.byte	0x0
 2681 00b4 0F       		.uleb128 0xf
 2682 00b5 17       		.uleb128 0x17
 2683 00b6 01       		.byte	0x1
 2684 00b7 0B       		.uleb128 0xb
 2685 00b8 0B       		.uleb128 0xb
 2686 00b9 3A       		.uleb128 0x3a
 2687 00ba 0B       		.uleb128 0xb
 2688 00bb 3B       		.uleb128 0x3b
 2689 00bc 0B       		.uleb128 0xb
 2690 00bd 01       		.uleb128 0x1
 2691 00be 13       		.uleb128 0x13
 2692 00bf 00       		.byte	0x0
 2693 00c0 00       		.byte	0x0
 2694 00c1 10       		.uleb128 0x10
 2695 00c2 0D       		.uleb128 0xd
 2696 00c3 00       		.byte	0x0
 2697 00c4 03       		.uleb128 0x3
 2698 00c5 0E       		.uleb128 0xe
 2699 00c6 3A       		.uleb128 0x3a
 2700 00c7 0B       		.uleb128 0xb
 2701 00c8 3B       		.uleb128 0x3b
 2702 00c9 0B       		.uleb128 0xb
 2703 00ca 49       		.uleb128 0x49
 2704 00cb 13       		.uleb128 0x13
 2705 00cc 00       		.byte	0x0
 2706 00cd 00       		.byte	0x0
 2707 00ce 11       		.uleb128 0x11
 2708 00cf 2E       		.uleb128 0x2e
 2709 00d0 01       		.byte	0x1
 2710 00d1 03       		.uleb128 0x3
 2711 00d2 0E       		.uleb128 0xe
 2712 00d3 3A       		.uleb128 0x3a
 2713 00d4 0B       		.uleb128 0xb
 2714 00d5 3B       		.uleb128 0x3b
 2715 00d6 0B       		.uleb128 0xb
 2716 00d7 27       		.uleb128 0x27
ARM GAS  /tmp/ccVCEuZU.s 			page 49


 2717 00d8 0C       		.uleb128 0xc
 2718 00d9 49       		.uleb128 0x49
 2719 00da 13       		.uleb128 0x13
 2720 00db 20       		.uleb128 0x20
 2721 00dc 0B       		.uleb128 0xb
 2722 00dd 01       		.uleb128 0x1
 2723 00de 13       		.uleb128 0x13
 2724 00df 00       		.byte	0x0
 2725 00e0 00       		.byte	0x0
 2726 00e1 12       		.uleb128 0x12
 2727 00e2 05       		.uleb128 0x5
 2728 00e3 00       		.byte	0x0
 2729 00e4 03       		.uleb128 0x3
 2730 00e5 08       		.uleb128 0x8
 2731 00e6 3A       		.uleb128 0x3a
 2732 00e7 0B       		.uleb128 0xb
 2733 00e8 3B       		.uleb128 0x3b
 2734 00e9 0B       		.uleb128 0xb
 2735 00ea 49       		.uleb128 0x49
 2736 00eb 13       		.uleb128 0x13
 2737 00ec 00       		.byte	0x0
 2738 00ed 00       		.byte	0x0
 2739 00ee 13       		.uleb128 0x13
 2740 00ef 2E       		.uleb128 0x2e
 2741 00f0 01       		.byte	0x1
 2742 00f1 03       		.uleb128 0x3
 2743 00f2 0E       		.uleb128 0xe
 2744 00f3 3A       		.uleb128 0x3a
 2745 00f4 0B       		.uleb128 0xb
 2746 00f5 3B       		.uleb128 0x3b
 2747 00f6 0B       		.uleb128 0xb
 2748 00f7 27       		.uleb128 0x27
 2749 00f8 0C       		.uleb128 0xc
 2750 00f9 20       		.uleb128 0x20
 2751 00fa 0B       		.uleb128 0xb
 2752 00fb 01       		.uleb128 0x1
 2753 00fc 13       		.uleb128 0x13
 2754 00fd 00       		.byte	0x0
 2755 00fe 00       		.byte	0x0
 2756 00ff 14       		.uleb128 0x14
 2757 0100 34       		.uleb128 0x34
 2758 0101 00       		.byte	0x0
 2759 0102 03       		.uleb128 0x3
 2760 0103 08       		.uleb128 0x8
 2761 0104 3A       		.uleb128 0x3a
 2762 0105 0B       		.uleb128 0xb
 2763 0106 3B       		.uleb128 0x3b
 2764 0107 0B       		.uleb128 0xb
 2765 0108 49       		.uleb128 0x49
 2766 0109 13       		.uleb128 0x13
 2767 010a 00       		.byte	0x0
 2768 010b 00       		.byte	0x0
 2769 010c 15       		.uleb128 0x15
 2770 010d 2E       		.uleb128 0x2e
 2771 010e 01       		.byte	0x1
 2772 010f 3F       		.uleb128 0x3f
 2773 0110 0C       		.uleb128 0xc
ARM GAS  /tmp/ccVCEuZU.s 			page 50


 2774 0111 03       		.uleb128 0x3
 2775 0112 0E       		.uleb128 0xe
 2776 0113 3A       		.uleb128 0x3a
 2777 0114 0B       		.uleb128 0xb
 2778 0115 3B       		.uleb128 0x3b
 2779 0116 0B       		.uleb128 0xb
 2780 0117 27       		.uleb128 0x27
 2781 0118 0C       		.uleb128 0xc
 2782 0119 49       		.uleb128 0x49
 2783 011a 13       		.uleb128 0x13
 2784 011b 20       		.uleb128 0x20
 2785 011c 0B       		.uleb128 0xb
 2786 011d 01       		.uleb128 0x1
 2787 011e 13       		.uleb128 0x13
 2788 011f 00       		.byte	0x0
 2789 0120 00       		.byte	0x0
 2790 0121 16       		.uleb128 0x16
 2791 0122 2E       		.uleb128 0x2e
 2792 0123 01       		.byte	0x1
 2793 0124 3F       		.uleb128 0x3f
 2794 0125 0C       		.uleb128 0xc
 2795 0126 03       		.uleb128 0x3
 2796 0127 0E       		.uleb128 0xe
 2797 0128 3A       		.uleb128 0x3a
 2798 0129 0B       		.uleb128 0xb
 2799 012a 3B       		.uleb128 0x3b
 2800 012b 0B       		.uleb128 0xb
 2801 012c 27       		.uleb128 0x27
 2802 012d 0C       		.uleb128 0xc
 2803 012e 11       		.uleb128 0x11
 2804 012f 01       		.uleb128 0x1
 2805 0130 12       		.uleb128 0x12
 2806 0131 01       		.uleb128 0x1
 2807 0132 40       		.uleb128 0x40
 2808 0133 0A       		.uleb128 0xa
 2809 0134 01       		.uleb128 0x1
 2810 0135 13       		.uleb128 0x13
 2811 0136 00       		.byte	0x0
 2812 0137 00       		.byte	0x0
 2813 0138 17       		.uleb128 0x17
 2814 0139 05       		.uleb128 0x5
 2815 013a 00       		.byte	0x0
 2816 013b 03       		.uleb128 0x3
 2817 013c 08       		.uleb128 0x8
 2818 013d 3A       		.uleb128 0x3a
 2819 013e 0B       		.uleb128 0xb
 2820 013f 3B       		.uleb128 0x3b
 2821 0140 0B       		.uleb128 0xb
 2822 0141 49       		.uleb128 0x49
 2823 0142 13       		.uleb128 0x13
 2824 0143 02       		.uleb128 0x2
 2825 0144 0A       		.uleb128 0xa
 2826 0145 00       		.byte	0x0
 2827 0146 00       		.byte	0x0
 2828 0147 18       		.uleb128 0x18
 2829 0148 2E       		.uleb128 0x2e
 2830 0149 01       		.byte	0x1
ARM GAS  /tmp/ccVCEuZU.s 			page 51


 2831 014a 3F       		.uleb128 0x3f
 2832 014b 0C       		.uleb128 0xc
 2833 014c 03       		.uleb128 0x3
 2834 014d 0E       		.uleb128 0xe
 2835 014e 3A       		.uleb128 0x3a
 2836 014f 0B       		.uleb128 0xb
 2837 0150 3B       		.uleb128 0x3b
 2838 0151 0B       		.uleb128 0xb
 2839 0152 27       		.uleb128 0x27
 2840 0153 0C       		.uleb128 0xc
 2841 0154 11       		.uleb128 0x11
 2842 0155 01       		.uleb128 0x1
 2843 0156 12       		.uleb128 0x12
 2844 0157 01       		.uleb128 0x1
 2845 0158 40       		.uleb128 0x40
 2846 0159 06       		.uleb128 0x6
 2847 015a 01       		.uleb128 0x1
 2848 015b 13       		.uleb128 0x13
 2849 015c 00       		.byte	0x0
 2850 015d 00       		.byte	0x0
 2851 015e 19       		.uleb128 0x19
 2852 015f 05       		.uleb128 0x5
 2853 0160 00       		.byte	0x0
 2854 0161 03       		.uleb128 0x3
 2855 0162 08       		.uleb128 0x8
 2856 0163 3A       		.uleb128 0x3a
 2857 0164 0B       		.uleb128 0xb
 2858 0165 3B       		.uleb128 0x3b
 2859 0166 0B       		.uleb128 0xb
 2860 0167 49       		.uleb128 0x49
 2861 0168 13       		.uleb128 0x13
 2862 0169 02       		.uleb128 0x2
 2863 016a 06       		.uleb128 0x6
 2864 016b 00       		.byte	0x0
 2865 016c 00       		.byte	0x0
 2866 016d 1A       		.uleb128 0x1a
 2867 016e 34       		.uleb128 0x34
 2868 016f 00       		.byte	0x0
 2869 0170 03       		.uleb128 0x3
 2870 0171 08       		.uleb128 0x8
 2871 0172 3A       		.uleb128 0x3a
 2872 0173 0B       		.uleb128 0xb
 2873 0174 3B       		.uleb128 0x3b
 2874 0175 0B       		.uleb128 0xb
 2875 0176 49       		.uleb128 0x49
 2876 0177 13       		.uleb128 0x13
 2877 0178 02       		.uleb128 0x2
 2878 0179 06       		.uleb128 0x6
 2879 017a 00       		.byte	0x0
 2880 017b 00       		.byte	0x0
 2881 017c 1B       		.uleb128 0x1b
 2882 017d 0B       		.uleb128 0xb
 2883 017e 01       		.byte	0x1
 2884 017f 55       		.uleb128 0x55
 2885 0180 06       		.uleb128 0x6
 2886 0181 00       		.byte	0x0
 2887 0182 00       		.byte	0x0
ARM GAS  /tmp/ccVCEuZU.s 			page 52


 2888 0183 1C       		.uleb128 0x1c
 2889 0184 1D       		.uleb128 0x1d
 2890 0185 01       		.byte	0x1
 2891 0186 31       		.uleb128 0x31
 2892 0187 13       		.uleb128 0x13
 2893 0188 52       		.uleb128 0x52
 2894 0189 01       		.uleb128 0x1
 2895 018a 55       		.uleb128 0x55
 2896 018b 06       		.uleb128 0x6
 2897 018c 58       		.uleb128 0x58
 2898 018d 0B       		.uleb128 0xb
 2899 018e 59       		.uleb128 0x59
 2900 018f 0B       		.uleb128 0xb
 2901 0190 01       		.uleb128 0x1
 2902 0191 13       		.uleb128 0x13
 2903 0192 00       		.byte	0x0
 2904 0193 00       		.byte	0x0
 2905 0194 1D       		.uleb128 0x1d
 2906 0195 05       		.uleb128 0x5
 2907 0196 00       		.byte	0x0
 2908 0197 31       		.uleb128 0x31
 2909 0198 13       		.uleb128 0x13
 2910 0199 02       		.uleb128 0x2
 2911 019a 06       		.uleb128 0x6
 2912 019b 00       		.byte	0x0
 2913 019c 00       		.byte	0x0
 2914 019d 1E       		.uleb128 0x1e
 2915 019e 34       		.uleb128 0x34
 2916 019f 00       		.byte	0x0
 2917 01a0 31       		.uleb128 0x31
 2918 01a1 13       		.uleb128 0x13
 2919 01a2 02       		.uleb128 0x2
 2920 01a3 06       		.uleb128 0x6
 2921 01a4 00       		.byte	0x0
 2922 01a5 00       		.byte	0x0
 2923 01a6 1F       		.uleb128 0x1f
 2924 01a7 1D       		.uleb128 0x1d
 2925 01a8 01       		.byte	0x1
 2926 01a9 31       		.uleb128 0x31
 2927 01aa 13       		.uleb128 0x13
 2928 01ab 52       		.uleb128 0x52
 2929 01ac 01       		.uleb128 0x1
 2930 01ad 55       		.uleb128 0x55
 2931 01ae 06       		.uleb128 0x6
 2932 01af 58       		.uleb128 0x58
 2933 01b0 0B       		.uleb128 0xb
 2934 01b1 59       		.uleb128 0x59
 2935 01b2 0B       		.uleb128 0xb
 2936 01b3 00       		.byte	0x0
 2937 01b4 00       		.byte	0x0
 2938 01b5 20       		.uleb128 0x20
 2939 01b6 0B       		.uleb128 0xb
 2940 01b7 01       		.byte	0x1
 2941 01b8 11       		.uleb128 0x11
 2942 01b9 01       		.uleb128 0x1
 2943 01ba 12       		.uleb128 0x12
 2944 01bb 01       		.uleb128 0x1
ARM GAS  /tmp/ccVCEuZU.s 			page 53


 2945 01bc 01       		.uleb128 0x1
 2946 01bd 13       		.uleb128 0x13
 2947 01be 00       		.byte	0x0
 2948 01bf 00       		.byte	0x0
 2949 01c0 21       		.uleb128 0x21
 2950 01c1 0B       		.uleb128 0xb
 2951 01c2 01       		.byte	0x1
 2952 01c3 11       		.uleb128 0x11
 2953 01c4 01       		.uleb128 0x1
 2954 01c5 12       		.uleb128 0x12
 2955 01c6 01       		.uleb128 0x1
 2956 01c7 00       		.byte	0x0
 2957 01c8 00       		.byte	0x0
 2958 01c9 22       		.uleb128 0x22
 2959 01ca 2E       		.uleb128 0x2e
 2960 01cb 01       		.byte	0x1
 2961 01cc 3F       		.uleb128 0x3f
 2962 01cd 0C       		.uleb128 0xc
 2963 01ce 03       		.uleb128 0x3
 2964 01cf 0E       		.uleb128 0xe
 2965 01d0 3A       		.uleb128 0x3a
 2966 01d1 0B       		.uleb128 0xb
 2967 01d2 3B       		.uleb128 0x3b
 2968 01d3 0B       		.uleb128 0xb
 2969 01d4 27       		.uleb128 0x27
 2970 01d5 0C       		.uleb128 0xc
 2971 01d6 49       		.uleb128 0x49
 2972 01d7 13       		.uleb128 0x13
 2973 01d8 11       		.uleb128 0x11
 2974 01d9 01       		.uleb128 0x1
 2975 01da 12       		.uleb128 0x12
 2976 01db 01       		.uleb128 0x1
 2977 01dc 40       		.uleb128 0x40
 2978 01dd 0A       		.uleb128 0xa
 2979 01de 01       		.uleb128 0x1
 2980 01df 13       		.uleb128 0x13
 2981 01e0 00       		.byte	0x0
 2982 01e1 00       		.byte	0x0
 2983 01e2 23       		.uleb128 0x23
 2984 01e3 34       		.uleb128 0x34
 2985 01e4 00       		.byte	0x0
 2986 01e5 03       		.uleb128 0x3
 2987 01e6 08       		.uleb128 0x8
 2988 01e7 3A       		.uleb128 0x3a
 2989 01e8 0B       		.uleb128 0xb
 2990 01e9 3B       		.uleb128 0x3b
 2991 01ea 0B       		.uleb128 0xb
 2992 01eb 49       		.uleb128 0x49
 2993 01ec 13       		.uleb128 0x13
 2994 01ed 02       		.uleb128 0x2
 2995 01ee 0A       		.uleb128 0xa
 2996 01ef 00       		.byte	0x0
 2997 01f0 00       		.byte	0x0
 2998 01f1 24       		.uleb128 0x24
 2999 01f2 2E       		.uleb128 0x2e
 3000 01f3 01       		.byte	0x1
 3001 01f4 31       		.uleb128 0x31
ARM GAS  /tmp/ccVCEuZU.s 			page 54


 3002 01f5 13       		.uleb128 0x13
 3003 01f6 11       		.uleb128 0x11
 3004 01f7 01       		.uleb128 0x1
 3005 01f8 12       		.uleb128 0x12
 3006 01f9 01       		.uleb128 0x1
 3007 01fa 40       		.uleb128 0x40
 3008 01fb 0A       		.uleb128 0xa
 3009 01fc 01       		.uleb128 0x1
 3010 01fd 13       		.uleb128 0x13
 3011 01fe 00       		.byte	0x0
 3012 01ff 00       		.byte	0x0
 3013 0200 25       		.uleb128 0x25
 3014 0201 2E       		.uleb128 0x2e
 3015 0202 01       		.byte	0x1
 3016 0203 3F       		.uleb128 0x3f
 3017 0204 0C       		.uleb128 0xc
 3018 0205 03       		.uleb128 0x3
 3019 0206 0E       		.uleb128 0xe
 3020 0207 3A       		.uleb128 0x3a
 3021 0208 0B       		.uleb128 0xb
 3022 0209 3B       		.uleb128 0x3b
 3023 020a 0B       		.uleb128 0xb
 3024 020b 27       		.uleb128 0x27
 3025 020c 0C       		.uleb128 0xc
 3026 020d 49       		.uleb128 0x49
 3027 020e 13       		.uleb128 0x13
 3028 020f 11       		.uleb128 0x11
 3029 0210 01       		.uleb128 0x1
 3030 0211 12       		.uleb128 0x12
 3031 0212 01       		.uleb128 0x1
 3032 0213 40       		.uleb128 0x40
 3033 0214 06       		.uleb128 0x6
 3034 0215 01       		.uleb128 0x1
 3035 0216 13       		.uleb128 0x13
 3036 0217 00       		.byte	0x0
 3037 0218 00       		.byte	0x0
 3038 0219 26       		.uleb128 0x26
 3039 021a 34       		.uleb128 0x34
 3040 021b 00       		.byte	0x0
 3041 021c 03       		.uleb128 0x3
 3042 021d 08       		.uleb128 0x8
 3043 021e 3A       		.uleb128 0x3a
 3044 021f 0B       		.uleb128 0xb
 3045 0220 3B       		.uleb128 0x3b
 3046 0221 05       		.uleb128 0x5
 3047 0222 49       		.uleb128 0x49
 3048 0223 13       		.uleb128 0x13
 3049 0224 00       		.byte	0x0
 3050 0225 00       		.byte	0x0
 3051 0226 27       		.uleb128 0x27
 3052 0227 34       		.uleb128 0x34
 3053 0228 00       		.byte	0x0
 3054 0229 03       		.uleb128 0x3
 3055 022a 0E       		.uleb128 0xe
 3056 022b 3A       		.uleb128 0x3a
 3057 022c 0B       		.uleb128 0xb
 3058 022d 3B       		.uleb128 0x3b
ARM GAS  /tmp/ccVCEuZU.s 			page 55


 3059 022e 05       		.uleb128 0x5
 3060 022f 49       		.uleb128 0x49
 3061 0230 13       		.uleb128 0x13
 3062 0231 02       		.uleb128 0x2
 3063 0232 06       		.uleb128 0x6
 3064 0233 00       		.byte	0x0
 3065 0234 00       		.byte	0x0
 3066 0235 28       		.uleb128 0x28
 3067 0236 1D       		.uleb128 0x1d
 3068 0237 01       		.byte	0x1
 3069 0238 31       		.uleb128 0x31
 3070 0239 13       		.uleb128 0x13
 3071 023a 52       		.uleb128 0x52
 3072 023b 01       		.uleb128 0x1
 3073 023c 55       		.uleb128 0x55
 3074 023d 06       		.uleb128 0x6
 3075 023e 58       		.uleb128 0x58
 3076 023f 0B       		.uleb128 0xb
 3077 0240 59       		.uleb128 0x59
 3078 0241 05       		.uleb128 0x5
 3079 0242 00       		.byte	0x0
 3080 0243 00       		.byte	0x0
 3081 0244 29       		.uleb128 0x29
 3082 0245 34       		.uleb128 0x34
 3083 0246 00       		.byte	0x0
 3084 0247 03       		.uleb128 0x3
 3085 0248 08       		.uleb128 0x8
 3086 0249 3A       		.uleb128 0x3a
 3087 024a 0B       		.uleb128 0xb
 3088 024b 3B       		.uleb128 0x3b
 3089 024c 05       		.uleb128 0x5
 3090 024d 49       		.uleb128 0x49
 3091 024e 13       		.uleb128 0x13
 3092 024f 02       		.uleb128 0x2
 3093 0250 06       		.uleb128 0x6
 3094 0251 00       		.byte	0x0
 3095 0252 00       		.byte	0x0
 3096 0253 2A       		.uleb128 0x2a
 3097 0254 2E       		.uleb128 0x2e
 3098 0255 01       		.byte	0x1
 3099 0256 3F       		.uleb128 0x3f
 3100 0257 0C       		.uleb128 0xc
 3101 0258 03       		.uleb128 0x3
 3102 0259 0E       		.uleb128 0xe
 3103 025a 3A       		.uleb128 0x3a
 3104 025b 0B       		.uleb128 0xb
 3105 025c 3B       		.uleb128 0x3b
 3106 025d 05       		.uleb128 0x5
 3107 025e 27       		.uleb128 0x27
 3108 025f 0C       		.uleb128 0xc
 3109 0260 49       		.uleb128 0x49
 3110 0261 13       		.uleb128 0x13
 3111 0262 11       		.uleb128 0x11
 3112 0263 01       		.uleb128 0x1
 3113 0264 12       		.uleb128 0x12
 3114 0265 01       		.uleb128 0x1
 3115 0266 40       		.uleb128 0x40
ARM GAS  /tmp/ccVCEuZU.s 			page 56


 3116 0267 06       		.uleb128 0x6
 3117 0268 01       		.uleb128 0x1
 3118 0269 13       		.uleb128 0x13
 3119 026a 00       		.byte	0x0
 3120 026b 00       		.byte	0x0
 3121 026c 2B       		.uleb128 0x2b
 3122 026d 2E       		.uleb128 0x2e
 3123 026e 01       		.byte	0x1
 3124 026f 3F       		.uleb128 0x3f
 3125 0270 0C       		.uleb128 0xc
 3126 0271 03       		.uleb128 0x3
 3127 0272 0E       		.uleb128 0xe
 3128 0273 3A       		.uleb128 0x3a
 3129 0274 0B       		.uleb128 0xb
 3130 0275 3B       		.uleb128 0x3b
 3131 0276 05       		.uleb128 0x5
 3132 0277 27       		.uleb128 0x27
 3133 0278 0C       		.uleb128 0xc
 3134 0279 11       		.uleb128 0x11
 3135 027a 01       		.uleb128 0x1
 3136 027b 12       		.uleb128 0x12
 3137 027c 01       		.uleb128 0x1
 3138 027d 40       		.uleb128 0x40
 3139 027e 06       		.uleb128 0x6
 3140 027f 01       		.uleb128 0x1
 3141 0280 13       		.uleb128 0x13
 3142 0281 00       		.byte	0x0
 3143 0282 00       		.byte	0x0
 3144 0283 2C       		.uleb128 0x2c
 3145 0284 05       		.uleb128 0x5
 3146 0285 00       		.byte	0x0
 3147 0286 31       		.uleb128 0x31
 3148 0287 13       		.uleb128 0x13
 3149 0288 00       		.byte	0x0
 3150 0289 00       		.byte	0x0
 3151 028a 2D       		.uleb128 0x2d
 3152 028b 34       		.uleb128 0x34
 3153 028c 00       		.byte	0x0
 3154 028d 03       		.uleb128 0x3
 3155 028e 0E       		.uleb128 0xe
 3156 028f 3A       		.uleb128 0x3a
 3157 0290 0B       		.uleb128 0xb
 3158 0291 3B       		.uleb128 0x3b
 3159 0292 0B       		.uleb128 0xb
 3160 0293 49       		.uleb128 0x49
 3161 0294 13       		.uleb128 0x13
 3162 0295 3F       		.uleb128 0x3f
 3163 0296 0C       		.uleb128 0xc
 3164 0297 3C       		.uleb128 0x3c
 3165 0298 0C       		.uleb128 0xc
 3166 0299 00       		.byte	0x0
 3167 029a 00       		.byte	0x0
 3168 029b 00       		.byte	0x0
 3169              		.section	.debug_pubnames,"",%progbits
 3170 0000 90000000 		.4byte	0x90
 3171 0004 0200     		.2byte	0x2
 3172 0006 00000000 		.4byte	.Ldebug_info0
ARM GAS  /tmp/ccVCEuZU.s 			page 57


 3173 000a 45090000 		.4byte	0x945
 3174 000e A5040000 		.4byte	0x4a5
 3175 0012 63684D74 		.ascii	"chMtxInit\000"
 3175      78496E69 
 3175      7400
 3176 001c CA040000 		.4byte	0x4ca
 3177 0020 63684D74 		.ascii	"chMtxLockS\000"
 3177      784C6F63 
 3177      6B5300
 3178 002b 07060000 		.4byte	0x607
 3179 002f 63684D74 		.ascii	"chMtxLock\000"
 3179      784C6F63 
 3179      6B00
 3180 0039 65060000 		.4byte	0x665
 3181 003d 63684D74 		.ascii	"chMtxTryLock\000"
 3181      78547279 
 3181      4C6F636B 
 3181      00
 3182 004a EA060000 		.4byte	0x6ea
 3183 004e 63684D74 		.ascii	"chMtxTryLockS\000"
 3183      78547279 
 3183      4C6F636B 
 3183      5300
 3184 005c 08070000 		.4byte	0x708
 3185 0060 63684D74 		.ascii	"chMtxUnlock\000"
 3185      78556E6C 
 3185      6F636B00 
 3186 006c D7070000 		.4byte	0x7d7
 3187 0070 63684D74 		.ascii	"chMtxUnlockS\000"
 3187      78556E6C 
 3187      6F636B53 
 3187      00
 3188 007d 73080000 		.4byte	0x873
 3189 0081 63684D74 		.ascii	"chMtxUnlockAll\000"
 3189      78556E6C 
 3189      6F636B41 
 3189      6C6C00
 3190 0090 00000000 		.4byte	0x0
 3191              		.section	.debug_pubtypes,"",%progbits
 3192 0000 1E010000 		.4byte	0x11e
 3193 0004 0200     		.2byte	0x2
 3194 0006 00000000 		.4byte	.Ldebug_info0
 3195 000a 45090000 		.4byte	0x945
 3196 000e 3E000000 		.4byte	0x3e
 3197 0012 75696E74 		.ascii	"uint8_t\000"
 3197      385F7400 
 3198 001a 5E000000 		.4byte	0x5e
 3199 001e 696E7433 		.ascii	"int32_t\000"
 3199      325F7400 
 3200 0026 70000000 		.4byte	0x70
 3201 002a 75696E74 		.ascii	"uint32_t\000"
 3201      33325F74 
 3201      00
 3202 0033 90000000 		.4byte	0x90
 3203 0037 626F6F6C 		.ascii	"bool_t\000"
 3203      5F7400
 3204 003e 9B000000 		.4byte	0x9b
ARM GAS  /tmp/ccVCEuZU.s 			page 58


 3205 0042 746D6F64 		.ascii	"tmode_t\000"
 3205      655F7400 
 3206 004a A6000000 		.4byte	0xa6
 3207 004e 74737461 		.ascii	"tstate_t\000"
 3207      74655F74 
 3207      00
 3208 0057 B1000000 		.4byte	0xb1
 3209 005b 74726566 		.ascii	"trefs_t\000"
 3209      735F7400 
 3210 0063 BC000000 		.4byte	0xbc
 3211 0067 74707269 		.ascii	"tprio_t\000"
 3211      6F5F7400 
 3212 006f C7000000 		.4byte	0xc7
 3213 0073 6D73675F 		.ascii	"msg_t\000"
 3213      7400
 3214 0079 D2000000 		.4byte	0xd2
 3215 007d 6576656E 		.ascii	"eventmask_t\000"
 3215      746D6173 
 3215      6B5F7400 
 3216 0089 DD000000 		.4byte	0xdd
 3217 008d 73797374 		.ascii	"systime_t\000"
 3217      696D655F 
 3217      7400
 3218 0097 E8000000 		.4byte	0xe8
 3219 009b 636E745F 		.ascii	"cnt_t\000"
 3219      7400
 3220 00a1 F3000000 		.4byte	0xf3
 3221 00a5 54687265 		.ascii	"Thread\000"
 3221      616400
 3222 00ac 32020000 		.4byte	0x232
 3223 00b0 54687265 		.ascii	"ThreadsQueue\000"
 3223      61647351 
 3223      75657565 
 3223      00
 3224 00bd 54020000 		.4byte	0x254
 3225 00c1 54687265 		.ascii	"ThreadsList\000"
 3225      6164734C 
 3225      69737400 
 3226 00cd 5F020000 		.4byte	0x25f
 3227 00d1 72656761 		.ascii	"regarm_t\000"
 3227      726D5F74 
 3227      00
 3228 00da 6D020000 		.4byte	0x26d
 3229 00de 636F6E74 		.ascii	"context\000"
 3229      65787400 
 3230 00e6 8A020000 		.4byte	0x28a
 3231 00ea 696E7463 		.ascii	"intctx\000"
 3231      747800
 3232 00f1 84030000 		.4byte	0x384
 3233 00f5 52656164 		.ascii	"ReadyList\000"
 3233      794C6973 
 3233      7400
 3234 00ff 8F030000 		.4byte	0x38f
 3235 0103 4D757465 		.ascii	"Mutex\000"
 3235      7800
 3236 0109 CC030000 		.4byte	0x3cc
 3237 010d 4D757465 		.ascii	"Mutex\000"
ARM GAS  /tmp/ccVCEuZU.s 			page 59


 3237      7800
 3238 0113 FE000000 		.4byte	0xfe
 3239 0117 54687265 		.ascii	"Thread\000"
 3239      616400
 3240 011e 00000000 		.4byte	0x0
 3241              		.section	.debug_aranges,"",%progbits
 3242 0000 54000000 		.4byte	0x54
 3243 0004 0200     		.2byte	0x2
 3244 0006 00000000 		.4byte	.Ldebug_info0
 3245 000a 04       		.byte	0x4
 3246 000b 00       		.byte	0x0
 3247 000c 0000     		.2byte	0x0
 3248 000e 0000     		.2byte	0x0
 3249 0010 00000000 		.4byte	.LFB7
 3250 0014 0A000000 		.4byte	.LFE7-.LFB7
 3251 0018 00000000 		.4byte	.LFB9
 3252 001c C6000000 		.4byte	.LFE9-.LFB9
 3253 0020 00000000 		.4byte	.LFB8
 3254 0024 14000000 		.4byte	.LFE8-.LFB8
 3255 0028 00000000 		.4byte	.LFB10
 3256 002c 32000000 		.4byte	.LFE10-.LFB10
 3257 0030 00000000 		.4byte	.LFB11
 3258 0034 20000000 		.4byte	.LFE11-.LFB11
 3259 0038 00000000 		.4byte	.LFB12
 3260 003c 66000000 		.4byte	.LFE12-.LFB12
 3261 0040 00000000 		.4byte	.LFB13
 3262 0044 52000000 		.4byte	.LFE13-.LFB13
 3263 0048 00000000 		.4byte	.LFB14
 3264 004c 52000000 		.4byte	.LFE14-.LFB14
 3265 0050 00000000 		.4byte	0x0
 3266 0054 00000000 		.4byte	0x0
 3267              		.section	.debug_ranges,"",%progbits
 3268              	.Ldebug_ranges0:
 3269 0000 16000000 		.4byte	.LBB33
 3270 0004 4A000000 		.4byte	.LBE33
 3271 0008 4E000000 		.4byte	.LBB64
 3272 000c BA000000 		.4byte	.LBE64
 3273 0010 00000000 		.4byte	0x0
 3274 0014 00000000 		.4byte	0x0
 3275 0018 2C000000 		.4byte	.LBB35
 3276 001c 3E000000 		.4byte	.LBE35
 3277 0020 40000000 		.4byte	.LBB34
 3278 0024 48000000 		.4byte	.LBE34
 3279 0028 00000000 		.4byte	0x0
 3280 002c 00000000 		.4byte	0x0
 3281 0030 2C000000 		.4byte	.LBB36
 3282 0034 3E000000 		.4byte	.LBE36
 3283 0038 40000000 		.4byte	.LBB37
 3284 003c 48000000 		.4byte	.LBE37
 3285 0040 00000000 		.4byte	0x0
 3286 0044 00000000 		.4byte	0x0
 3287 0048 52000000 		.4byte	.LBB38
 3288 004c 56000000 		.4byte	.LBE38
 3289 0050 58000000 		.4byte	.LBB41
 3290 0054 5E000000 		.4byte	.LBE41
 3291 0058 00000000 		.4byte	0x0
 3292 005c 00000000 		.4byte	0x0
ARM GAS  /tmp/ccVCEuZU.s 			page 60


 3293 0060 64000000 		.4byte	.LBB42
 3294 0064 68000000 		.4byte	.LBE42
 3295 0068 70000000 		.4byte	.LBB52
 3296 006c 72000000 		.4byte	.LBE52
 3297 0070 6A000000 		.4byte	.LBB50
 3298 0074 6E000000 		.4byte	.LBE50
 3299 0078 00000000 		.4byte	0x0
 3300 007c 00000000 		.4byte	0x0
 3301 0080 68000000 		.4byte	.LBB46
 3302 0084 6A000000 		.4byte	.LBE46
 3303 0088 72000000 		.4byte	.LBB53
 3304 008c 88000000 		.4byte	.LBE53
 3305 0090 6E000000 		.4byte	.LBB51
 3306 0094 70000000 		.4byte	.LBE51
 3307 0098 00000000 		.4byte	0x0
 3308 009c 00000000 		.4byte	0x0
 3309 00a0 68000000 		.4byte	.LBB48
 3310 00a4 6A000000 		.4byte	.LBE48
 3311 00a8 72000000 		.4byte	.LBB49
 3312 00ac 88000000 		.4byte	.LBE49
 3313 00b0 6E000000 		.4byte	.LBB47
 3314 00b4 70000000 		.4byte	.LBE47
 3315 00b8 00000000 		.4byte	0x0
 3316 00bc 00000000 		.4byte	0x0
 3317 00c0 8A000000 		.4byte	.LBB54
 3318 00c4 8E000000 		.4byte	.LBE54
 3319 00c8 96000000 		.4byte	.LBB62
 3320 00cc 98000000 		.4byte	.LBE62
 3321 00d0 90000000 		.4byte	.LBB58
 3322 00d4 94000000 		.4byte	.LBE58
 3323 00d8 00000000 		.4byte	0x0
 3324 00dc 00000000 		.4byte	0x0
 3325 00e0 94000000 		.4byte	.LBB59
 3326 00e4 96000000 		.4byte	.LBE59
 3327 00e8 98000000 		.4byte	.LBB63
 3328 00ec AE000000 		.4byte	.LBE63
 3329 00f0 00000000 		.4byte	0x0
 3330 00f4 00000000 		.4byte	0x0
 3331 00f8 94000000 		.4byte	.LBB60
 3332 00fc 96000000 		.4byte	.LBE60
 3333 0100 98000000 		.4byte	.LBB61
 3334 0104 AE000000 		.4byte	.LBE61
 3335 0108 00000000 		.4byte	0x0
 3336 010c 00000000 		.4byte	0x0
 3337 0110 08000000 		.4byte	.LBB68
 3338 0114 0E000000 		.4byte	.LBE68
 3339 0118 16000000 		.4byte	.LBB72
 3340 011c 2A000000 		.4byte	.LBE72
 3341 0120 00000000 		.4byte	0x0
 3342 0124 00000000 		.4byte	0x0
 3343 0128 0E000000 		.4byte	.LBB71
 3344 012c 14000000 		.4byte	.LBE71
 3345 0130 2A000000 		.4byte	.LBB73
 3346 0134 30000000 		.4byte	.LBE73
 3347 0138 00000000 		.4byte	0x0
 3348 013c 00000000 		.4byte	0x0
 3349 0140 36000000 		.4byte	.LBB76
ARM GAS  /tmp/ccVCEuZU.s 			page 61


 3350 0144 38000000 		.4byte	.LBE76
 3351 0148 42000000 		.4byte	.LBB81
 3352 014c 44000000 		.4byte	.LBE81
 3353 0150 3E000000 		.4byte	.LBB80
 3354 0154 40000000 		.4byte	.LBE80
 3355 0158 00000000 		.4byte	0x0
 3356 015c 00000000 		.4byte	0x0
 3357 0160 36000000 		.4byte	.LBB78
 3358 0164 38000000 		.4byte	.LBE78
 3359 0168 42000000 		.4byte	.LBB79
 3360 016c 44000000 		.4byte	.LBE79
 3361 0170 3E000000 		.4byte	.LBB77
 3362 0174 40000000 		.4byte	.LBE77
 3363 0178 00000000 		.4byte	0x0
 3364 017c 00000000 		.4byte	0x0
 3365 0180 4E000000 		.4byte	.LBB82
 3366 0184 54000000 		.4byte	.LBE82
 3367 0188 5C000000 		.4byte	.LBB83
 3368 018c 62000000 		.4byte	.LBE83
 3369 0190 00000000 		.4byte	0x0
 3370 0194 00000000 		.4byte	0x0
 3371 0198 30000000 		.4byte	.LBB85
 3372 019c 32000000 		.4byte	.LBE85
 3373 01a0 38000000 		.4byte	.LBB88
 3374 01a4 3C000000 		.4byte	.LBE88
 3375 01a8 00000000 		.4byte	0x0
 3376 01ac 00000000 		.4byte	0x0
 3377 01b0 30000000 		.4byte	.LBB86
 3378 01b4 32000000 		.4byte	.LBE86
 3379 01b8 38000000 		.4byte	.LBB87
 3380 01bc 3C000000 		.4byte	.LBE87
 3381 01c0 00000000 		.4byte	0x0
 3382 01c4 00000000 		.4byte	0x0
 3383 01c8 20000000 		.4byte	.LBB91
 3384 01cc 22000000 		.4byte	.LBE91
 3385 01d0 2A000000 		.4byte	.LBB96
 3386 01d4 3E000000 		.4byte	.LBE96
 3387 01d8 00000000 		.4byte	0x0
 3388 01dc 00000000 		.4byte	0x0
 3389 01e0 2A000000 		.4byte	.LBB92
 3390 01e4 2C000000 		.4byte	.LBE92
 3391 01e8 2E000000 		.4byte	.LBB95
 3392 01ec 32000000 		.4byte	.LBE95
 3393 01f0 00000000 		.4byte	0x0
 3394 01f4 00000000 		.4byte	0x0
 3395 01f8 2A000000 		.4byte	.LBB93
 3396 01fc 2C000000 		.4byte	.LBE93
 3397 0200 2E000000 		.4byte	.LBB94
 3398 0204 32000000 		.4byte	.LBE94
 3399 0208 00000000 		.4byte	0x0
 3400 020c 00000000 		.4byte	0x0
 3401 0210 00000000 		.4byte	.LFB7
 3402 0214 0A000000 		.4byte	.LFE7
 3403 0218 00000000 		.4byte	.LFB9
 3404 021c C6000000 		.4byte	.LFE9
 3405 0220 00000000 		.4byte	.LFB8
 3406 0224 14000000 		.4byte	.LFE8
ARM GAS  /tmp/ccVCEuZU.s 			page 62


 3407 0228 00000000 		.4byte	.LFB10
 3408 022c 32000000 		.4byte	.LFE10
 3409 0230 00000000 		.4byte	.LFB11
 3410 0234 20000000 		.4byte	.LFE11
 3411 0238 00000000 		.4byte	.LFB12
 3412 023c 66000000 		.4byte	.LFE12
 3413 0240 00000000 		.4byte	.LFB13
 3414 0244 52000000 		.4byte	.LFE13
 3415 0248 00000000 		.4byte	.LFB14
 3416 024c 52000000 		.4byte	.LFE14
 3417 0250 00000000 		.4byte	0x0
 3418 0254 00000000 		.4byte	0x0
 3419              		.section	.debug_str,"MS",%progbits,1
 3420              	.LASF34:
 3421 0000 705F6D73 		.ascii	"p_msg\000"
 3421      6700
 3422              	.LASF56:
 3423 0006 7264796D 		.ascii	"rdymsg\000"
 3423      736700
 3424              	.LASF11:
 3425 000d 6C6F6E67 		.ascii	"long long unsigned int\000"
 3425      206C6F6E 
 3425      6720756E 
 3425      7369676E 
 3425      65642069 
 3426              	.LASF57:
 3427 0024 65786974 		.ascii	"exitcode\000"
 3427      636F6465 
 3427      00
 3428              	.LASF66:
 3429 002d 63684D74 		.ascii	"chMtxUnlock\000"
 3429      78556E6C 
 3429      6F636B00 
 3430              	.LASF24:
 3431 0039 705F7072 		.ascii	"p_prio\000"
 3431      696F00
 3432              	.LASF10:
 3433 0040 6C6F6E67 		.ascii	"long long int\000"
 3433      206C6F6E 
 3433      6720696E 
 3433      7400
 3434              	.LASF1:
 3435 004e 7369676E 		.ascii	"signed char\000"
 3435      65642063 
 3435      68617200 
 3436              	.LASF38:
 3437 005a 705F6D70 		.ascii	"p_mpool\000"
 3437      6F6F6C00 
 3438              	.LASF12:
 3439 0062 626F6F6C 		.ascii	"bool_t\000"
 3439      5F7400
 3440              	.LASF53:
 3441 0069 6D5F7175 		.ascii	"m_queue\000"
 3441      65756500 
 3442              	.LASF58:
 3443 0071 77746F62 		.ascii	"wtobjp\000"
 3443      6A7000
ARM GAS  /tmp/ccVCEuZU.s 			page 63


 3444              	.LASF7:
 3445 0078 6C6F6E67 		.ascii	"long int\000"
 3445      20696E74 
 3445      00
 3446              	.LASF14:
 3447 0081 74737461 		.ascii	"tstate_t\000"
 3447      74655F74 
 3447      00
 3448              	.LASF63:
 3449 008a 63684D74 		.ascii	"chMtxLockS\000"
 3449      784C6F63 
 3449      6B5300
 3450              	.LASF75:
 3451 0095 63684D74 		.ascii	"chMtxTryLockS\000"
 3451      78547279 
 3451      4C6F636B 
 3451      5300
 3452              	.LASF26:
 3453 00a3 705F6E65 		.ascii	"p_newer\000"
 3453      77657200 
 3454              	.LASF47:
 3455 00ab 725F6E65 		.ascii	"r_newer\000"
 3455      77657200 
 3456              	.LASF41:
 3457 00b3 72656761 		.ascii	"regarm_t\000"
 3457      726D5F74 
 3457      00
 3458              	.LASF20:
 3459 00bc 636E745F 		.ascii	"cnt_t\000"
 3459      7400
 3460              	.LASF68:
 3461 00c2 63684D74 		.ascii	"chMtxUnlockS\000"
 3461      78556E6C 
 3461      6F636B53 
 3461      00
 3462              	.LASF0:
 3463 00cf 756E7369 		.ascii	"unsigned int\000"
 3463      676E6564 
 3463      20696E74 
 3463      00
 3464              	.LASF9:
 3465 00dc 6C6F6E67 		.ascii	"long unsigned int\000"
 3465      20756E73 
 3465      69676E65 
 3465      6420696E 
 3465      7400
 3466              	.LASF42:
 3467 00ee 636F6E74 		.ascii	"context\000"
 3467      65787400 
 3468              	.LASF4:
 3469 00f6 73686F72 		.ascii	"short unsigned int\000"
 3469      7420756E 
 3469      7369676E 
 3469      65642069 
 3469      6E7400
 3470              	.LASF17:
 3471 0109 6D73675F 		.ascii	"msg_t\000"
ARM GAS  /tmp/ccVCEuZU.s 			page 64


 3471      7400
 3472              	.LASF74:
 3473 010f 7072696F 		.ascii	"prio_insert\000"
 3473      5F696E73 
 3473      65727400 
 3474              	.LASF69:
 3475 011b 63684D74 		.ascii	"chMtxUnlockAll\000"
 3475      78556E6C 
 3475      6F636B41 
 3475      6C6C00
 3476              	.LASF67:
 3477 012a 6E657770 		.ascii	"newprio\000"
 3477      72696F00 
 3478              	.LASF13:
 3479 0132 746D6F64 		.ascii	"tmode_t\000"
 3479      655F7400 
 3480              	.LASF40:
 3481 013a 54687265 		.ascii	"ThreadsList\000"
 3481      6164734C 
 3481      69737400 
 3482              	.LASF18:
 3483 0146 6576656E 		.ascii	"eventmask_t\000"
 3483      746D6173 
 3483      6B5F7400 
 3484              	.LASF65:
 3485 0152 63684D74 		.ascii	"chMtxTryLock\000"
 3485      78547279 
 3485      4C6F636B 
 3485      00
 3486              	.LASF52:
 3487 015f 4D757465 		.ascii	"Mutex\000"
 3487      7800
 3488              	.LASF73:
 3489 0165 2F686F6D 		.ascii	"/home/dan/github/github-projects/Quad-Rotor/QuadRot"
 3489      652F6461 
 3489      6E2F6769 
 3489      74687562 
 3489      2F676974 
 3490 0198 6F7200   		.ascii	"or\000"
 3491              	.LASF64:
 3492 019b 63684D74 		.ascii	"chMtxLock\000"
 3492      784C6F63 
 3492      6B00
 3493              	.LASF27:
 3494 01a5 705F6F6C 		.ascii	"p_older\000"
 3494      64657200 
 3495              	.LASF46:
 3496 01ad 725F6374 		.ascii	"r_ctx\000"
 3496      7800
 3497              	.LASF39:
 3498 01b3 54687265 		.ascii	"ThreadsQueue\000"
 3498      61647351 
 3498      75657565 
 3498      00
 3499              	.LASF60:
 3500 01c0 64657175 		.ascii	"dequeue\000"
 3500      65756500 
ARM GAS  /tmp/ccVCEuZU.s 			page 65


 3501              	.LASF50:
 3502 01c8 725F6375 		.ascii	"r_current\000"
 3502      7272656E 
 3502      7400
 3503              	.LASF48:
 3504 01d2 725F6F6C 		.ascii	"r_older\000"
 3504      64657200 
 3505              	.LASF15:
 3506 01da 74726566 		.ascii	"trefs_t\000"
 3506      735F7400 
 3507              	.LASF23:
 3508 01e2 705F7072 		.ascii	"p_prev\000"
 3508      657600
 3509              	.LASF16:
 3510 01e9 74707269 		.ascii	"tprio_t\000"
 3510      6F5F7400 
 3511              	.LASF6:
 3512 01f1 696E7433 		.ascii	"int32_t\000"
 3512      325F7400 
 3513              	.LASF2:
 3514 01f9 756E7369 		.ascii	"unsigned char\000"
 3514      676E6564 
 3514      20636861 
 3514      7200
 3515              	.LASF36:
 3516 0207 705F6D74 		.ascii	"p_mtxlist\000"
 3516      786C6973 
 3516      7400
 3517              	.LASF3:
 3518 0211 73686F72 		.ascii	"short int\000"
 3518      7420696E 
 3518      7400
 3519              	.LASF28:
 3520 021b 705F7374 		.ascii	"p_state\000"
 3520      61746500 
 3521              	.LASF45:
 3522 0223 725F7072 		.ascii	"r_prio\000"
 3522      696F00
 3523              	.LASF59:
 3524 022a 65776D61 		.ascii	"ewmask\000"
 3524      736B00
 3525              	.LASF22:
 3526 0231 705F6E65 		.ascii	"p_next\000"
 3526      787400
 3527              	.LASF29:
 3528 0238 705F666C 		.ascii	"p_flags\000"
 3528      61677300 
 3529              	.LASF21:
 3530 0240 54687265 		.ascii	"Thread\000"
 3530      616400
 3531              	.LASF35:
 3532 0247 705F6570 		.ascii	"p_epending\000"
 3532      656E6469 
 3532      6E6700
 3533              	.LASF8:
 3534 0252 75696E74 		.ascii	"uint32_t\000"
 3534      33325F74 
ARM GAS  /tmp/ccVCEuZU.s 			page 66


 3534      00
 3535              	.LASF44:
 3536 025b 725F7175 		.ascii	"r_queue\000"
 3536      65756500 
 3537              	.LASF61:
 3538 0263 6669666F 		.ascii	"fifo_remove\000"
 3538      5F72656D 
 3538      6F766500 
 3539              	.LASF55:
 3540 026f 6D5F6E65 		.ascii	"m_next\000"
 3540      787400
 3541              	.LASF19:
 3542 0276 73797374 		.ascii	"systime_t\000"
 3542      696D655F 
 3542      7400
 3543              	.LASF37:
 3544 0280 705F7265 		.ascii	"p_realprio\000"
 3544      616C7072 
 3544      696F00
 3545              	.LASF31:
 3546 028b 705F7469 		.ascii	"p_time\000"
 3546      6D6500
 3547              	.LASF43:
 3548 0292 696E7463 		.ascii	"intctx\000"
 3548      747800
 3549              	.LASF33:
 3550 0299 705F6D73 		.ascii	"p_msgqueue\000"
 3550      67717565 
 3550      756500
 3551              	.LASF62:
 3552 02a4 63684D74 		.ascii	"chMtxInit\000"
 3552      78496E69 
 3552      7400
 3553              	.LASF72:
 3554 02ae 63686962 		.ascii	"chibios/os/kernel/src/chmtx.c\000"
 3554      696F732F 
 3554      6F732F6B 
 3554      65726E65 
 3554      6C2F7372 
 3555              	.LASF30:
 3556 02cc 705F7265 		.ascii	"p_refs\000"
 3556      667300
 3557              	.LASF51:
 3558 02d3 52656164 		.ascii	"ReadyList\000"
 3558      794C6973 
 3558      7400
 3559              	.LASF70:
 3560 02dd 726C6973 		.ascii	"rlist\000"
 3560      7400
 3561              	.LASF5:
 3562 02e3 75696E74 		.ascii	"uint8_t\000"
 3562      385F7400 
 3563              	.LASF71:
 3564 02eb 474E5520 		.ascii	"GNU C 4.5.1\000"
 3564      4320342E 
 3564      352E3100 
 3565              	.LASF49:
ARM GAS  /tmp/ccVCEuZU.s 			page 67


 3566 02f7 725F7072 		.ascii	"r_preempt\000"
 3566      65656D70 
 3566      7400
 3567              	.LASF54:
 3568 0301 6D5F6F77 		.ascii	"m_owner\000"
 3568      6E657200 
 3569              	.LASF25:
 3570 0309 705F6374 		.ascii	"p_ctx\000"
 3570      7800
 3571              	.LASF32:
 3572 030f 705F7761 		.ascii	"p_waiting\000"
 3572      6974696E 
 3572      6700
 3573              		.ident	"GCC: (GNU) 4.5.1"
ARM GAS  /tmp/ccVCEuZU.s 			page 68


DEFINED SYMBOLS
                            *ABS*:0000000000000000 chmtx.c
     /tmp/ccVCEuZU.s:24     .text.chMtxInit:0000000000000000 $t
     /tmp/ccVCEuZU.s:30     .text.chMtxInit:0000000000000000 chMtxInit
     /tmp/ccVCEuZU.s:52     .text.chMtxLockS:0000000000000000 $t
     /tmp/ccVCEuZU.s:58     .text.chMtxLockS:0000000000000000 chMtxLockS
     /tmp/ccVCEuZU.s:325    .text.chMtxLock:0000000000000000 $t
     /tmp/ccVCEuZU.s:331    .text.chMtxLock:0000000000000000 chMtxLock
     /tmp/ccVCEuZU.s:372    .text.chMtxTryLock:0000000000000000 $t
     /tmp/ccVCEuZU.s:378    .text.chMtxTryLock:0000000000000000 chMtxTryLock
     /tmp/ccVCEuZU.s:456    .text.chMtxTryLockS:0000000000000000 $t
     /tmp/ccVCEuZU.s:462    .text.chMtxTryLockS:0000000000000000 chMtxTryLockS
     /tmp/ccVCEuZU.s:502    .text.chMtxUnlock:0000000000000000 $t
     /tmp/ccVCEuZU.s:508    .text.chMtxUnlock:0000000000000000 chMtxUnlock
     /tmp/ccVCEuZU.s:650    .text.chMtxUnlockS:0000000000000000 $t
     /tmp/ccVCEuZU.s:656    .text.chMtxUnlockS:0000000000000000 chMtxUnlockS
     /tmp/ccVCEuZU.s:762    .text.chMtxUnlockAll:0000000000000000 $t
     /tmp/ccVCEuZU.s:768    .text.chMtxUnlockAll:0000000000000000 chMtxUnlockAll
                     .debug_frame:0000000000000010 $d

UNDEFINED SYMBOLS
rlist
chSchGoSleepS
chSchReadyI
chSchWakeupS
chSchRescheduleS
