ARM GAS  /tmp/ccVCEuZU.s 			page 1


   1              		.syntax unified
   2              		.cpu cortex-m3
   3              		.fpu softvfp
   4              		.eabi_attribute 20, 1
   5              		.eabi_attribute 21, 1
   6              		.eabi_attribute 23, 3
   7              		.eabi_attribute 24, 1
   8              		.eabi_attribute 25, 1
   9              		.eabi_attribute 26, 1
  10              		.eabi_attribute 30, 2
  11              		.eabi_attribute 18, 4
  12              		.thumb
  13              		.file	"chmtx.c"
  20 0000 33030000 		.text
  20      02003501 
  20      00000201 
  20      FB0E0D00 
  20      01010101 
  21              	.Ltext0:
  22              		.cfi_sections	.debug_frame
  23              		.section	.text.chMtxInit,"ax",%progbits
  24              		.align	2
  25              		.p2align 4,,15
  26              		.global	chMtxInit
  27              		.thumb
  28              		.thumb_func
  29              		.type	chMtxInit, %function
  30              	chMtxInit:
  31              	.LFB7:
  32              		.file 1 "chibios/os/kernel/src/chmtx.c"
  33              		.loc 1 85 0
  34              		.cfi_startproc
  35              		@ args = 0, pretend = 0, frame = 0
  36              		@ frame_needed = 0, uses_anonymous_args = 0
  37              		@ link register save eliminated.
  38              	.LVL0:
  39              		.loc 1 90 0
  40 0000 0023     		movs	r3, #0
  41              		.loc 1 89 0
  42 0002 4060     		str	r0, [r0, #4]
  43 0004 0060     		str	r0, [r0, #0]
  44              		.loc 1 90 0
  45 0006 8360     		str	r3, [r0, #8]
  46              		.loc 1 91 0
  47 0008 7047     		bx	lr
  48              		.cfi_endproc
  49              	.LFE7:
  50              		.size	chMtxInit, .-chMtxInit
  51 000a 00BFAFF3 		.section	.text.chMtxLockS,"ax",%progbits
  51      0080
  52              		.align	2
ARM GAS  /tmp/ccVCEuZU.s 			page 2


  53              		.p2align 4,,15
  54              		.global	chMtxLockS
  55              		.thumb
  56              		.thumb_func
  57              		.type	chMtxLockS, %function
  58              	chMtxLockS:
  59              	.LFB9:
  60              		.loc 1 120 0
  61              		.cfi_startproc
  62              		@ args = 0, pretend = 0, frame = 0
  63              		@ frame_needed = 0, uses_anonymous_args = 0
  64              	.LVL1:
  65              		.loc 1 121 0
  66 0000 40F20002 		movw	r2, #:lower16:rlist
  67              		.loc 1 126 0
  68 0004 8368     		ldr	r3, [r0, #8]
  69              		.loc 1 121 0
  70 0006 C0F20002 		movt	r2, #:upper16:rlist
  71              		.loc 1 120 0
  72 000a 2DE9F041 		push	{r4, r5, r6, r7, r8, lr}
  73              	.LCFI0:
  74              		.cfi_def_cfa_offset 24
  75              		.loc 1 120 0
  76 000e 0546     		mov	r5, r0
  77              		.cfi_offset 14, -4
  78              		.cfi_offset 8, -8
  79              		.cfi_offset 7, -12
  80              		.cfi_offset 6, -16
  81              		.cfi_offset 5, -20
  82              		.cfi_offset 4, -24
  83              		.loc 1 121 0
  84 0010 D469     		ldr	r4, [r2, #28]
  85              	.LVL2:
  86              		.loc 1 126 0
  87 0012 002B     		cmp	r3, #0
  88 0014 51D0     		beq	.L3
  89              	.LVL3:
  90              	.LBB33:
  91              		.loc 1 133 0 discriminator 1
  92 0016 A168     		ldr	r1, [r4, #8]
  93 0018 9868     		ldr	r0, [r3, #8]
  94              	.LVL4:
  95 001a 8142     		cmp	r1, r0
  96 001c 06D9     		bls	.L4
  97              	.LVL5:
  98              	.L18:
  99              		.loc 1 137 0
 100 001e 1A7E     		ldrb	r2, [r3, #24]	@ zero_extendqisi2
 101              		.loc 1 135 0
 102 0020 9960     		str	r1, [r3, #8]
 103              		.loc 1 137 0
 104 0022 042A     		cmp	r2, #4
 105 0024 31D0     		beq	.L6
 106 0026 052A     		cmp	r2, #5
 107 0028 1CD0     		beq	.L7
 108 002a 92B1     		cbz	r2, .L5
 109              	.LVL6:
ARM GAS  /tmp/ccVCEuZU.s 			page 3


 110              	.L4:
 111              	.LBB35:
 112              	.LBB36:
 113              		.file 2 "chibios/os/kernel/include/chinline.h"
 114              		.loc 2 42 0
 115 002c 2B46     		mov	r3, r5
 116              	.LVL7:
 117              	.L14:
 118              		.loc 2 44 0
 119 002e 1B68     		ldr	r3, [r3, #0]
 120              	.LVL8:
 121              		.loc 2 45 0
 122 0030 9D42     		cmp	r5, r3
 123 0032 03D0     		beq	.L13
 124 0034 9868     		ldr	r0, [r3, #8]
 125 0036 A268     		ldr	r2, [r4, #8]
 126 0038 9042     		cmp	r0, r2
 127 003a F8D2     		bcs	.L14
 128              	.L13:
 129              		.loc 2 47 0
 130 003c 5968     		ldr	r1, [r3, #4]
 131              	.LBE36:
 132              	.LBE35:
 133              		.loc 1 170 0
 134 003e 0420     		movs	r0, #4
 135              	.LBB34:
 136              	.LBB37:
 137              		.loc 2 46 0
 138 0040 2360     		str	r3, [r4, #0]
 139              		.loc 2 47 0
 140 0042 6160     		str	r1, [r4, #4]
 141              		.loc 2 48 0
 142 0044 0C60     		str	r4, [r1, #0]
 143 0046 5C60     		str	r4, [r3, #4]
 144              	.LBE37:
 145              	.LBE34:
 146              		.loc 1 169 0
 147 0048 2562     		str	r5, [r4, #32]
 148              	.LBE33:
 149              		.loc 1 182 0
 150 004a BDE8F041 		pop	{r4, r5, r6, r7, r8, lr}
 151              	.LBB64:
 152              		.loc 1 170 0
 153 004e FFF7FEBF 		b	chSchGoSleepS
 154              	.LVL9:
 155              	.L5:
 156              	.LBB38:
 157              	.LBB39:
 158              		.loc 2 74 0
 159 0052 5A68     		ldr	r2, [r3, #4]
 160 0054 1968     		ldr	r1, [r3, #0]
 161              	.LBE39:
 162              	.LBE38:
 163              		.loc 1 163 0
 164 0056 1846     		mov	r0, r3
 165              	.LBB41:
 166              	.LBB40:
ARM GAS  /tmp/ccVCEuZU.s 			page 4


 167              		.loc 2 74 0
 168 0058 1160     		str	r1, [r2, #0]
 169              		.loc 2 75 0
 170 005a 1B68     		ldr	r3, [r3, #0]
 171              	.LVL10:
 172 005c 5A60     		str	r2, [r3, #4]
 173              	.LBE40:
 174              	.LBE41:
 175              		.loc 1 163 0
 176 005e FFF7FEFF 		bl	chSchReadyI
 177              	.LVL11:
 178 0062 E3E7     		b	.L4
 179              	.LVL12:
 180              	.L7:
 181              	.LBB42:
 182              	.LBB44:
 183              		.loc 2 74 0
 184 0064 5868     		ldr	r0, [r3, #4]
 185 0066 1F68     		ldr	r7, [r3, #0]
 186              	.LBE44:
 187              	.LBE42:
 188              	.LBB46:
 189              	.LBB48:
 190              		.loc 2 42 0
 191 0068 1E6A     		ldr	r6, [r3, #32]
 192              	.LBE48:
 193              	.LBE46:
 194              	.LBB50:
 195              	.LBB43:
 196              		.loc 2 74 0
 197 006a 0760     		str	r7, [r0, #0]
 198              		.loc 2 75 0
 199 006c 1F68     		ldr	r7, [r3, #0]
 200              	.LBE43:
 201              	.LBE50:
 202              	.LBB51:
 203              	.LBB47:
 204              		.loc 2 42 0
 205 006e 3246     		mov	r2, r6
 206              	.LBE47:
 207              	.LBE51:
 208              	.LBB52:
 209              	.LBB45:
 210              		.loc 2 75 0
 211 0070 7860     		str	r0, [r7, #4]
 212              	.LVL13:
 213              	.L12:
 214              	.LBE45:
 215              	.LBE52:
 216              	.LBB53:
 217              	.LBB49:
 218              		.loc 2 44 0
 219 0072 1268     		ldr	r2, [r2, #0]
 220              	.LVL14:
 221              		.loc 2 45 0
 222 0074 9642     		cmp	r6, r2
 223 0076 02D0     		beq	.L11
ARM GAS  /tmp/ccVCEuZU.s 			page 5


 224 0078 9068     		ldr	r0, [r2, #8]
 225 007a 8842     		cmp	r0, r1
 226 007c F9D2     		bcs	.L12
 227              	.L11:
 228              		.loc 2 47 0
 229 007e 5168     		ldr	r1, [r2, #4]
 230              		.loc 2 46 0
 231 0080 1A60     		str	r2, [r3, #0]
 232              		.loc 2 47 0
 233 0082 5960     		str	r1, [r3, #4]
 234              		.loc 2 48 0
 235 0084 0B60     		str	r3, [r1, #0]
 236 0086 5360     		str	r3, [r2, #4]
 237              	.LBE49:
 238              	.LBE53:
 239              		.loc 1 155 0
 240 0088 D0E7     		b	.L4
 241              	.LVL15:
 242              	.L6:
 243              	.LBB54:
 244              	.LBB56:
 245              		.loc 2 74 0
 246 008a 5868     		ldr	r0, [r3, #4]
 247 008c 1F68     		ldr	r7, [r3, #0]
 248              	.LBE56:
 249              	.LBE54:
 250              		.loc 1 140 0
 251 008e 1E6A     		ldr	r6, [r3, #32]
 252              	.LVL16:
 253              	.LBB58:
 254              	.LBB55:
 255              		.loc 2 74 0
 256 0090 0760     		str	r7, [r0, #0]
 257              		.loc 2 75 0
 258 0092 1F68     		ldr	r7, [r3, #0]
 259              	.LBE55:
 260              	.LBE58:
 261              	.LBB59:
 262              	.LBB60:
 263              		.loc 2 42 0
 264 0094 3246     		mov	r2, r6
 265              	.LBE60:
 266              	.LBE59:
 267              	.LBB62:
 268              	.LBB57:
 269              		.loc 2 75 0
 270 0096 7860     		str	r0, [r7, #4]
 271              	.LVL17:
 272              	.L9:
 273              	.LBE57:
 274              	.LBE62:
 275              	.LBB63:
 276              	.LBB61:
 277              		.loc 2 44 0
 278 0098 1268     		ldr	r2, [r2, #0]
 279              	.LVL18:
 280              		.loc 2 45 0
ARM GAS  /tmp/ccVCEuZU.s 			page 6


 281 009a 9642     		cmp	r6, r2
 282 009c 02D0     		beq	.L8
 283 009e 9068     		ldr	r0, [r2, #8]
 284 00a0 8842     		cmp	r0, r1
 285 00a2 F9D2     		bcs	.L9
 286              	.L8:
 287              		.loc 2 47 0
 288 00a4 5168     		ldr	r1, [r2, #4]
 289              		.loc 2 46 0
 290 00a6 1A60     		str	r2, [r3, #0]
 291              		.loc 2 47 0
 292 00a8 5960     		str	r1, [r3, #4]
 293              		.loc 2 48 0
 294 00aa 0B60     		str	r3, [r1, #0]
 295 00ac 5360     		str	r3, [r2, #4]
 296              	.LBE61:
 297              	.LBE63:
 298              		.loc 1 141 0
 299 00ae B368     		ldr	r3, [r6, #8]
 300              	.LVL19:
 301              		.loc 1 133 0
 302 00b0 A168     		ldr	r1, [r4, #8]
 303 00b2 9A68     		ldr	r2, [r3, #8]
 304              	.LVL20:
 305 00b4 8A42     		cmp	r2, r1
 306 00b6 B2D3     		bcc	.L18
 307 00b8 B8E7     		b	.L4
 308              	.LVL21:
 309              	.L3:
 310              	.LBE64:
 311              		.loc 1 179 0
 312 00ba A36B     		ldr	r3, [r4, #56]
 313              		.loc 1 178 0
 314 00bc 8460     		str	r4, [r0, #8]
 315              		.loc 1 179 0
 316 00be C360     		str	r3, [r0, #12]
 317              		.loc 1 180 0
 318 00c0 A063     		str	r0, [r4, #56]
 319              		.loc 1 182 0
 320 00c2 BDE8F081 		pop	{r4, r5, r6, r7, r8, pc}
 321              		.cfi_endproc
 322              	.LFE9:
 323              		.size	chMtxLockS, .-chMtxLockS
 324 00c6 00BFAFF3 		.section	.text.chMtxLock,"ax",%progbits
 324      0080AFF3 
 324      0080
 325              		.align	2
 326              		.p2align 4,,15
 327              		.global	chMtxLock
 328              		.thumb
 329              		.thumb_func
 330              		.type	chMtxLock, %function
 331              	chMtxLock:
 332              	.LFB8:
 333              		.loc 1 102 0
 334              		.cfi_startproc
 335              		@ args = 0, pretend = 0, frame = 0
ARM GAS  /tmp/ccVCEuZU.s 			page 7


 336              		@ frame_needed = 0, uses_anonymous_args = 0
 337              	.LVL22:
 338 0000 08B5     		push	{r3, lr}
 339              	.LCFI1:
 340              		.cfi_def_cfa_offset 8
 341              	.LBB65:
 342              		.loc 1 104 0
 343 0002 2023     		movs	r3, #32
 344              		.cfi_offset 14, -4
 345              		.cfi_offset 3, -8
 346              	.LVL23:
 347              	@ 104 "chibios/os/kernel/src/chmtx.c" 1
 348 0004 83F31188 		msr     BASEPRI, r3
 349              	@ 0 "" 2
 350              	.LVL24:
 351              		.thumb
 352              	.LBE65:
 353              		.loc 1 106 0
 354 0008 FFF7FEFF 		bl	chMtxLockS
 355              	.LVL25:
 356              	.LBB66:
 357              		.loc 1 108 0
 358 000c 0023     		movs	r3, #0
 359              	.LVL26:
 360              	@ 108 "chibios/os/kernel/src/chmtx.c" 1
 361 000e 83F31188 		msr     BASEPRI, r3
 362              	@ 0 "" 2
 363              	.LVL27:
 364              		.thumb
 365              	.LBE66:
 366              		.loc 1 109 0
 367 0012 08BD     		pop	{r3, pc}
 368              		.cfi_endproc
 369              	.LFE8:
 370              		.size	chMtxLock, .-chMtxLock
 371 0014 AFF30080 		.section	.text.chMtxTryLock,"ax",%progbits
 371      AFF30080 
 371      AFF30080 
 372              		.align	2
 373              		.p2align 4,,15
 374              		.global	chMtxTryLock
 375              		.thumb
 376              		.thumb_func
 377              		.type	chMtxTryLock, %function
 378              	chMtxTryLock:
 379              	.LFB10:
 380              		.loc 1 201 0
 381              		.cfi_startproc
 382              		@ args = 0, pretend = 0, frame = 0
 383              		@ frame_needed = 0, uses_anonymous_args = 0
 384              		@ link register save eliminated.
 385              	.LVL28:
 386              		.loc 1 201 0
 387 0000 0246     		mov	r2, r0
 388              	.LBB67:
 389              		.loc 1 204 0
 390 0002 2023     		movs	r3, #32
ARM GAS  /tmp/ccVCEuZU.s 			page 8


 391              	.LVL29:
 392              	@ 204 "chibios/os/kernel/src/chmtx.c" 1
 393 0004 83F31188 		msr     BASEPRI, r3
 394              	@ 0 "" 2
 395              	.LVL30:
 396              		.thumb
 397              	.LBE67:
 398              	.LBB68:
 399              	.LBB69:
 400              		.loc 1 233 0
 401 0008 8368     		ldr	r3, [r0, #8]
 402              	.LVL31:
 403 000a 23B1     		cbz	r3, .L28
 404              		.loc 1 234 0
 405 000c 0020     		movs	r0, #0
 406              	.LVL32:
 407              	.LBE69:
 408              	.LBE68:
 409              	.LBB71:
 410              		.loc 1 208 0
 411 000e 0023     		movs	r3, #0
 412              	.LVL33:
 413              	@ 208 "chibios/os/kernel/src/chmtx.c" 1
 414 0010 83F31188 		msr     BASEPRI, r3
 415              	@ 0 "" 2
 416              	.LVL34:
 417              		.thumb
 418              	.LBE71:
 419              		.loc 1 210 0
 420 0014 7047     		bx	lr
 421              	.LVL35:
 422              	.L28:
 423              	.LBB72:
 424              	.LBB70:
 425              		.loc 1 235 0
 426 0016 40F20000 		movw	r0, #:lower16:rlist
 427 001a C0F20000 		movt	r0, #:upper16:rlist
 428 001e C369     		ldr	r3, [r0, #28]
 429              		.loc 1 238 0
 430 0020 0120     		movs	r0, #1
 431              		.loc 1 236 0
 432 0022 996B     		ldr	r1, [r3, #56]
 433              		.loc 1 235 0
 434 0024 9360     		str	r3, [r2, #8]
 435              		.loc 1 236 0
 436 0026 D160     		str	r1, [r2, #12]
 437              		.loc 1 237 0
 438 0028 9A63     		str	r2, [r3, #56]
 439              	.LBE70:
 440              	.LBE72:
 441              	.LBB73:
 442              		.loc 1 208 0
 443 002a 0023     		movs	r3, #0
 444              	@ 208 "chibios/os/kernel/src/chmtx.c" 1
 445 002c 83F31188 		msr     BASEPRI, r3
 446              	@ 0 "" 2
 447              	.LVL36:
ARM GAS  /tmp/ccVCEuZU.s 			page 9


 448              		.thumb
 449              	.LBE73:
 450              		.loc 1 210 0
 451 0030 7047     		bx	lr
 452              		.cfi_endproc
 453              	.LFE10:
 454              		.size	chMtxTryLock, .-chMtxTryLock
 455 0032 00BFAFF3 		.section	.text.chMtxTryLockS,"ax",%progbits
 455      0080AFF3 
 455      0080AFF3 
 455      0080
 456              		.align	2
 457              		.p2align 4,,15
 458              		.global	chMtxTryLockS
 459              		.thumb
 460              		.thumb_func
 461              		.type	chMtxTryLockS, %function
 462              	chMtxTryLockS:
 463              	.LFB11:
 464              		.loc 1 229 0
 465              		.cfi_startproc
 466              		@ args = 0, pretend = 0, frame = 0
 467              		@ frame_needed = 0, uses_anonymous_args = 0
 468              		@ link register save eliminated.
 469              	.LVL37:
 470              		.loc 1 233 0
 471 0000 8268     		ldr	r2, [r0, #8]
 472              		.loc 1 229 0
 473 0002 0346     		mov	r3, r0
 474              		.loc 1 233 0
 475 0004 0AB1     		cbz	r2, .L32
 476              		.loc 1 234 0
 477 0006 0020     		movs	r0, #0
 478              	.LVL38:
 479              		.loc 1 239 0
 480 0008 7047     		bx	lr
 481              	.L32:
 482              		.loc 1 235 0
 483 000a 40F20000 		movw	r0, #:lower16:rlist
 484 000e C0F20000 		movt	r0, #:upper16:rlist
 485 0012 C269     		ldr	r2, [r0, #28]
 486              		.loc 1 238 0
 487 0014 0120     		movs	r0, #1
 488              		.loc 1 236 0
 489 0016 916B     		ldr	r1, [r2, #56]
 490              		.loc 1 235 0
 491 0018 9A60     		str	r2, [r3, #8]
 492              		.loc 1 236 0
 493 001a D960     		str	r1, [r3, #12]
 494              		.loc 1 237 0
 495 001c 9363     		str	r3, [r2, #56]
 496              		.loc 1 238 0
 497 001e 7047     		bx	lr
 498              		.cfi_endproc
 499              	.LFE11:
 500              		.size	chMtxTryLockS, .-chMtxTryLockS
 501              		.section	.text.chMtxUnlock,"ax",%progbits
ARM GAS  /tmp/ccVCEuZU.s 			page 10


 502              		.align	2
 503              		.p2align 4,,15
 504              		.global	chMtxUnlock
 505              		.thumb
 506              		.thumb_func
 507              		.type	chMtxUnlock, %function
 508              	chMtxUnlock:
 509              	.LFB12:
 510              		.loc 1 251 0
 511              		.cfi_startproc
 512              		@ args = 0, pretend = 0, frame = 0
 513              		@ frame_needed = 0, uses_anonymous_args = 0
 514 0000 F8B5     		push	{r3, r4, r5, r6, r7, lr}
 515              	.LCFI2:
 516              		.cfi_def_cfa_offset 24
 517              		.loc 1 252 0
 518 0002 40F20003 		movw	r3, #:lower16:rlist
 519              		.cfi_offset 14, -4
 520              		.cfi_offset 7, -8
 521              		.cfi_offset 6, -12
 522              		.cfi_offset 5, -16
 523              		.cfi_offset 4, -20
 524              		.cfi_offset 3, -24
 525 0006 C0F20003 		movt	r3, #:upper16:rlist
 526 000a DA69     		ldr	r2, [r3, #28]
 527              	.LVL39:
 528              	.LBB74:
 529              		.loc 1 255 0
 530 000c 2023     		movs	r3, #32
 531              	.LVL40:
 532              	@ 255 "chibios/os/kernel/src/chmtx.c" 1
 533 000e 83F31188 		msr     BASEPRI, r3
 534              	@ 0 "" 2
 535              	.LVL41:
 536              		.thumb
 537              	.LBE74:
 538              		.loc 1 264 0
 539 0012 946B     		ldr	r4, [r2, #56]
 540              	.LVL42:
 541              		.loc 1 267 0
 542 0014 2368     		ldr	r3, [r4, #0]
 543              	.LVL43:
 544              		.loc 1 265 0
 545 0016 E168     		ldr	r1, [r4, #12]
 546              		.loc 1 267 0
 547 0018 A342     		cmp	r3, r4
 548              		.loc 1 265 0
 549 001a 9163     		str	r1, [r2, #56]
 550              		.loc 1 267 0
 551 001c 1CD0     		beq	.L34
 552              	.LBB75:
 553              		.loc 1 272 0
 554 001e D76B     		ldr	r7, [r2, #60]
 555              	.LVL44:
 556              		.loc 1 274 0
 557 0020 49B1     		cbz	r1, .L35
 558              	.LVL45:
ARM GAS  /tmp/ccVCEuZU.s 			page 11


 559              	.L39:
 560              		.loc 1 278 0
 561 0022 0868     		ldr	r0, [r1, #0]
 562 0024 8842     		cmp	r0, r1
 563 0026 03D0     		beq	.L36
 564              		.loc 1 278 0 is_stmt 0 discriminator 1
 565 0028 8068     		ldr	r0, [r0, #8]
 566 002a 8742     		cmp	r7, r0
 567 002c 38BF     		it	cc
 568 002e 0746     		movcc	r7, r0
 569              	.LVL46:
 570              	.L36:
 571              		.loc 1 280 0 is_stmt 1
 572 0030 C968     		ldr	r1, [r1, #12]
 573              	.LVL47:
 574              		.loc 1 274 0
 575 0032 0029     		cmp	r1, #0
 576 0034 F5D1     		bne	.L39
 577              	.L35:
 578              	.LBB76:
 579              	.LBB78:
 580              		.loc 2 61 0
 581 0036 1D68     		ldr	r5, [r3, #0]
 582              	.LBE78:
 583              	.LBE76:
 584              		.loc 1 289 0
 585 0038 9E6B     		ldr	r6, [r3, #56]
 586              		.loc 1 284 0
 587 003a 9760     		str	r7, [r2, #8]
 588              	.LVL48:
 589              		.loc 1 291 0
 590 003c 1846     		mov	r0, r3
 591              	.LBB80:
 592              	.LBB77:
 593              		.loc 2 61 0
 594 003e 2560     		str	r5, [r4, #0]
 595              	.LBE77:
 596              	.LBE80:
 597              		.loc 1 291 0
 598 0040 0021     		movs	r1, #0
 599              	.LVL49:
 600              	.LBB81:
 601              	.LBB79:
 602              		.loc 2 61 0
 603 0042 6C60     		str	r4, [r5, #4]
 604              	.LBE79:
 605              	.LBE81:
 606              		.loc 1 288 0
 607 0044 A360     		str	r3, [r4, #8]
 608              		.loc 1 289 0
 609 0046 E660     		str	r6, [r4, #12]
 610              		.loc 1 290 0
 611 0048 9C63     		str	r4, [r3, #56]
 612              		.loc 1 291 0
 613 004a FFF7FEFF 		bl	chSchWakeupS
 614              	.LVL50:
 615              	.LBE75:
ARM GAS  /tmp/ccVCEuZU.s 			page 12


 616              	.LBB82:
 617              		.loc 1 295 0
 618 004e 0023     		movs	r3, #0
 619              	.LVL51:
 620              	@ 295 "chibios/os/kernel/src/chmtx.c" 1
 621 0050 83F31188 		msr     BASEPRI, r3
 622              	@ 0 "" 2
 623              	.LVL52:
 624              		.thumb
 625              	.LBE82:
 626              		.loc 1 297 0
 627 0054 2046     		mov	r0, r4
 628 0056 F8BD     		pop	{r3, r4, r5, r6, r7, pc}
 629              	.LVL53:
 630              	.L34:
 631              		.loc 1 294 0
 632 0058 0021     		movs	r1, #0
 633 005a A160     		str	r1, [r4, #8]
 634              	.LBB83:
 635              		.loc 1 295 0
 636 005c 0023     		movs	r3, #0
 637              	@ 295 "chibios/os/kernel/src/chmtx.c" 1
 638 005e 83F31188 		msr     BASEPRI, r3
 639              	@ 0 "" 2
 640              	.LVL54:
 641              		.thumb
 642              	.LBE83:
 643              		.loc 1 297 0
 644 0062 2046     		mov	r0, r4
 645 0064 F8BD     		pop	{r3, r4, r5, r6, r7, pc}
 646              		.cfi_endproc
 647              	.LFE12:
 648              		.size	chMtxUnlock, .-chMtxUnlock
 649 0066 00BFAFF3 		.section	.text.chMtxUnlockS,"ax",%progbits
 649      0080AFF3 
 649      0080
 650              		.align	2
 651              		.p2align 4,,15
 652              		.global	chMtxUnlockS
 653              		.thumb
 654              		.thumb_func
 655              		.type	chMtxUnlockS, %function
 656              	chMtxUnlockS:
 657              	.LFB13:
 658              		.loc 1 311 0
 659              		.cfi_startproc
 660              		@ args = 0, pretend = 0, frame = 0
 661              		@ frame_needed = 0, uses_anonymous_args = 0
 662              		.loc 1 312 0
 663 0000 40F20003 		movw	r3, #:lower16:rlist
 664 0004 C0F20003 		movt	r3, #:upper16:rlist
 665 0008 D969     		ldr	r1, [r3, #28]
 666              	.LVL55:
 667              		.loc 1 311 0
 668 000a 70B5     		push	{r4, r5, r6, lr}
 669              	.LCFI3:
 670              		.cfi_def_cfa_offset 16
ARM GAS  /tmp/ccVCEuZU.s 			page 13


 671              		.loc 1 324 0
 672 000c 8C6B     		ldr	r4, [r1, #56]
 673              		.cfi_offset 14, -4
 674              		.cfi_offset 6, -8
 675              		.cfi_offset 5, -12
 676              		.cfi_offset 4, -16
 677              	.LVL56:
 678              		.loc 1 327 0
 679 000e 2368     		ldr	r3, [r4, #0]
 680              	.LVL57:
 681              		.loc 1 325 0
 682 0010 E268     		ldr	r2, [r4, #12]
 683              		.loc 1 327 0
 684 0012 A342     		cmp	r3, r4
 685              		.loc 1 325 0
 686 0014 8A63     		str	r2, [r1, #56]
 687              		.loc 1 327 0
 688 0016 18D0     		beq	.L42
 689              	.LBB84:
 690              		.loc 1 332 0
 691 0018 CE6B     		ldr	r6, [r1, #60]
 692              	.LVL58:
 693              		.loc 1 334 0
 694 001a 4AB1     		cbz	r2, .L43
 695              	.LVL59:
 696              	.L47:
 697              		.loc 1 338 0
 698 001c 1068     		ldr	r0, [r2, #0]
 699 001e 9042     		cmp	r0, r2
 700 0020 03D0     		beq	.L44
 701              		.loc 1 338 0 is_stmt 0 discriminator 1
 702 0022 8068     		ldr	r0, [r0, #8]
 703 0024 8642     		cmp	r6, r0
 704 0026 38BF     		it	cc
 705 0028 0646     		movcc	r6, r0
 706              	.LVL60:
 707              	.L44:
 708              		.loc 1 340 0 is_stmt 1
 709 002a D268     		ldr	r2, [r2, #12]
 710              	.LVL61:
 711              		.loc 1 334 0
 712 002c 002A     		cmp	r2, #0
 713 002e F5D1     		bne	.L47
 714              	.L43:
 715              	.LBB85:
 716              	.LBB86:
 717              		.loc 2 61 0
 718 0030 1A68     		ldr	r2, [r3, #0]
 719              	.LVL62:
 720              	.LBE86:
 721              	.LBE85:
 722              		.loc 1 347 0
 723 0032 9D6B     		ldr	r5, [r3, #56]
 724              		.loc 1 342 0
 725 0034 8E60     		str	r6, [r1, #8]
 726              	.LVL63:
 727              		.loc 1 349 0
ARM GAS  /tmp/ccVCEuZU.s 			page 14


 728 0036 1846     		mov	r0, r3
 729              	.LBB88:
 730              	.LBB87:
 731              		.loc 2 61 0
 732 0038 2260     		str	r2, [r4, #0]
 733 003a 5460     		str	r4, [r2, #4]
 734              	.LBE87:
 735              	.LBE88:
 736              		.loc 1 346 0
 737 003c A360     		str	r3, [r4, #8]
 738              		.loc 1 347 0
 739 003e E560     		str	r5, [r4, #12]
 740              		.loc 1 348 0
 741 0040 9C63     		str	r4, [r3, #56]
 742              		.loc 1 349 0
 743 0042 FFF7FEFF 		bl	chSchReadyI
 744              	.LVL64:
 745              	.LBE84:
 746              		.loc 1 354 0
 747 0046 2046     		mov	r0, r4
 748 0048 70BD     		pop	{r4, r5, r6, pc}
 749              	.LVL65:
 750              	.L42:
 751              		.loc 1 352 0
 752 004a 0021     		movs	r1, #0
 753              	.LVL66:
 754 004c A160     		str	r1, [r4, #8]
 755              		.loc 1 354 0
 756 004e 2046     		mov	r0, r4
 757 0050 70BD     		pop	{r4, r5, r6, pc}
 758              		.cfi_endproc
 759              	.LFE13:
 760              		.size	chMtxUnlockS, .-chMtxUnlockS
 761 0052 00BFAFF3 		.section	.text.chMtxUnlockAll,"ax",%progbits
 761      0080AFF3 
 761      0080AFF3 
 761      0080
 762              		.align	2
 763              		.p2align 4,,15
 764              		.global	chMtxUnlockAll
 765              		.thumb
 766              		.thumb_func
 767              		.type	chMtxUnlockAll, %function
 768              	chMtxUnlockAll:
 769              	.LFB14:
 770              		.loc 1 367 0
 771              		.cfi_startproc
 772              		@ args = 0, pretend = 0, frame = 0
 773              		@ frame_needed = 0, uses_anonymous_args = 0
 774              		.loc 1 368 0
 775 0000 40F20003 		movw	r3, #:lower16:rlist
 776 0004 C0F20003 		movt	r3, #:upper16:rlist
 777              		.loc 1 367 0
 778 0008 70B5     		push	{r4, r5, r6, lr}
 779              	.LCFI4:
 780              		.cfi_def_cfa_offset 16
 781              		.loc 1 368 0
ARM GAS  /tmp/ccVCEuZU.s 			page 15


 782 000a DC69     		ldr	r4, [r3, #28]
 783              		.cfi_offset 14, -4
 784              		.cfi_offset 6, -8
 785              		.cfi_offset 5, -12
 786              		.cfi_offset 4, -16
 787              	.LVL67:
 788              	.LBB89:
 789              		.loc 1 370 0
 790 000c 2023     		movs	r3, #32
 791              	.LVL68:
 792              	@ 370 "chibios/os/kernel/src/chmtx.c" 1
 793 000e 83F31188 		msr     BASEPRI, r3
 794              	@ 0 "" 2
 795              	.LVL69:
 796              		.thumb
 797              	.LBE89:
 798              		.loc 1 371 0
 799 0012 A36B     		ldr	r3, [r4, #56]
 800              	.LVL70:
 801 0014 CBB1     		cbz	r3, .L50
 802              	.LBB90:
 803              		.loc 1 383 0
 804 0016 0025     		movs	r5, #0
 805              	.LVL71:
 806              	.L54:
 807              		.loc 1 375 0
 808 0018 1A68     		ldr	r2, [r3, #0]
 809              		.loc 1 374 0
 810 001a D968     		ldr	r1, [r3, #12]
 811              		.loc 1 375 0
 812 001c 9A42     		cmp	r2, r3
 813              		.loc 1 374 0
 814 001e A163     		str	r1, [r4, #56]
 815              	.LBB91:
 816              		.loc 1 380 0
 817 0020 1046     		mov	r0, r2
 818              	.LBE91:
 819              		.loc 1 383 0
 820 0022 04BF     		itt	eq
 821 0024 9D60     		streq	r5, [r3, #8]
 822 0026 0B46     		moveq	r3, r1
 823              	.LVL72:
 824              		.loc 1 375 0
 825 0028 09D0     		beq	.L52
 826              	.LVL73:
 827              	.LBB96:
 828              	.LBB92:
 829              	.LBB93:
 830              		.loc 2 61 0
 831 002a 1168     		ldr	r1, [r2, #0]
 832              	.LBE93:
 833              	.LBE92:
 834              		.loc 1 378 0
 835 002c 966B     		ldr	r6, [r2, #56]
 836              	.LBB95:
 837              	.LBB94:
 838              		.loc 2 61 0
ARM GAS  /tmp/ccVCEuZU.s 			page 16


 839 002e 1960     		str	r1, [r3, #0]
 840 0030 4B60     		str	r3, [r1, #4]
 841              	.LBE94:
 842              	.LBE95:
 843              		.loc 1 377 0
 844 0032 9A60     		str	r2, [r3, #8]
 845              		.loc 1 378 0
 846 0034 DE60     		str	r6, [r3, #12]
 847              		.loc 1 379 0
 848 0036 9363     		str	r3, [r2, #56]
 849              		.loc 1 380 0
 850 0038 FFF7FEFF 		bl	chSchReadyI
 851              	.LVL74:
 852 003c A36B     		ldr	r3, [r4, #56]
 853              	.LVL75:
 854              	.L52:
 855              	.LBE96:
 856              	.LBE90:
 857              		.loc 1 384 0
 858 003e 002B     		cmp	r3, #0
 859 0040 EAD1     		bne	.L54
 860              		.loc 1 385 0
 861 0042 E06B     		ldr	r0, [r4, #60]
 862 0044 A060     		str	r0, [r4, #8]
 863              		.loc 1 386 0
 864 0046 FFF7FEFF 		bl	chSchRescheduleS
 865              	.L50:
 866              	.LBB97:
 867              		.loc 1 388 0
 868 004a 0023     		movs	r3, #0
 869              	.LVL76:
 870              	@ 388 "chibios/os/kernel/src/chmtx.c" 1
 871 004c 83F31188 		msr     BASEPRI, r3
 872              	@ 0 "" 2
 873              	.LVL77:
 874              		.thumb
 875              	.LBE97:
 876              		.loc 1 389 0
 877 0050 70BD     		pop	{r4, r5, r6, pc}
 878              		.cfi_endproc
 879              	.LFE14:
 880              		.size	chMtxUnlockAll, .-chMtxUnlockAll
 881 0052 00BFAFF3 		.text
 881      0080AFF3 
 881      0080AFF3 
 881      0080
 882              	.Letext0: