ARM GAS  /tmp/ccm5nllD.s 			page 1


   1              		.syntax unified
   2              		.cpu cortex-m3
   3              		.fpu softvfp
   4              		.eabi_attribute 20, 1
   5              		.eabi_attribute 21, 1
   6              		.eabi_attribute 23, 3
   7              		.eabi_attribute 24, 1
   8              		.eabi_attribute 25, 1
   9              		.eabi_attribute 26, 1
  10              		.eabi_attribute 30, 2
  11              		.eabi_attribute 18, 4
  12              		.thumb
  13              		.file	"chqueues.c"
  20 0000 59030000 		.text
  20      02009E01 
  20      00000201 
  20      FB0E0D00 
  20      01010101 
  21              	.Ltext0:
  22              		.cfi_sections	.debug_frame
  23              		.section	.text.chIQGetFullI,"ax",%progbits
  24              		.align	2
  25              		.p2align 4,,15
  26              		.global	chIQGetFullI
  27              		.thumb
  28              		.thumb_func
  29              		.type	chIQGetFullI, %function
  30              	chIQGetFullI:
  31              	.LFB8:
  32              		.file 1 "../../os/kernel/src/chqueues.c"
  33              		.loc 1 88 0
  34              		.cfi_startproc
  35              		@ args = 0, pretend = 0, frame = 0
  36              		@ frame_needed = 0, uses_anonymous_args = 0
  37              		@ link register save eliminated.
  38              	.LVL0:
  39              		.loc 1 91 0
  40 0000 8069     		ldr	r0, [r0, #24]
  41              	.LVL1:
  42              		.loc 1 95 0
  43 0002 20EAE070 		bic	r0, r0, r0, asr #31
  44              	.LVL2:
  45 0006 7047     		bx	lr
  46              		.cfi_endproc
  47              	.LFE8:
  48              		.size	chIQGetFullI, .-chIQGetFullI
  49 0008 AFF30080 		.section	.text.chOQGetFullI,"ax",%progbits
  49      AFF30080 
  50              		.align	2
  51              		.p2align 4,,15
  52              		.global	chOQGetFullI
ARM GAS  /tmp/ccm5nllD.s 			page 2


  53              		.thumb
  54              		.thumb_func
  55              		.type	chOQGetFullI, %function
  56              	chOQGetFullI:
  57              	.LFB14:
  58              		.loc 1 269 0
  59              		.cfi_startproc
  60              		@ args = 0, pretend = 0, frame = 0
  61              		@ frame_needed = 0, uses_anonymous_args = 0
  62              		@ link register save eliminated.
  63              	.LVL3:
  64              		.loc 1 272 0
  65 0000 8369     		ldr	r3, [r0, #24]
  66              	.LVL4:
  67              		.loc 1 273 0
  68 0002 002B     		cmp	r3, #0
  69 0004 04DB     		blt	.L10
  70              		.loc 1 275 0
  71 0006 0268     		ldr	r2, [r0, #0]
  72 0008 4068     		ldr	r0, [r0, #4]
  73              	.LVL5:
  74 000a 811A     		subs	r1, r0, r2
  75 000c C81A     		subs	r0, r1, r3
  76              		.loc 1 276 0
  77 000e 7047     		bx	lr
  78              	.LVL6:
  79              	.L10:
  80              		.loc 1 274 0
  81 0010 0368     		ldr	r3, [r0, #0]
  82              	.LVL7:
  83 0012 4068     		ldr	r0, [r0, #4]
  84              	.LVL8:
  85 0014 C01A     		subs	r0, r0, r3
  86 0016 7047     		bx	lr
  87              		.cfi_endproc
  88              	.LFE14:
  89              		.size	chOQGetFullI, .-chOQGetFullI
  90 0018 AFF30080 		.section	.text.chOQWriteTimeout,"ax",%progbits
  90      AFF30080 
  91              		.align	2
  92              		.p2align 4,,15
  93              		.global	chOQWriteTimeout
  94              		.thumb
  95              		.thumb_func
  96              		.type	chOQWriteTimeout, %function
  97              	chOQWriteTimeout:
  98              	.LFB18:
  99              		.loc 1 382 0
 100              		.cfi_startproc
 101              		@ args = 0, pretend = 0, frame = 0
 102              		@ frame_needed = 0, uses_anonymous_args = 0
 103              	.LVL9:
 104 0000 2DE9F84F 		push	{r3, r4, r5, r6, r7, r8, r9, sl, fp, lr}
 105              	.LCFI0:
 106              		.cfi_def_cfa_offset 40
 107              	.LVL10:
 108              		.loc 1 382 0
ARM GAS  /tmp/ccm5nllD.s 			page 3


 109 0004 9B46     		mov	fp, r3
 110              		.cfi_offset 14, -4
 111              		.cfi_offset 11, -8
 112              		.cfi_offset 10, -12
 113              		.cfi_offset 9, -16
 114              		.cfi_offset 8, -20
 115              		.cfi_offset 7, -24
 116              		.cfi_offset 6, -28
 117              		.cfi_offset 5, -32
 118              		.cfi_offset 4, -36
 119              		.cfi_offset 3, -40
 120              	.LVL11:
 121 0006 0446     		mov	r4, r0
 122 0008 0D46     		mov	r5, r1
 123 000a 9046     		mov	r8, r2
 124              		.loc 1 383 0
 125 000c D0F81CA0 		ldr	sl, [r0, #28]
 126              	.LVL12:
 127              	.LBB2:
 128              		.loc 1 388 0
 129 0010 2023     		movs	r3, #32
 130              	.LVL13:
 131              	@ 388 "../../os/kernel/src/chqueues.c" 1
 132 0012 83F31188 		msr     BASEPRI, r3
 133              	@ 0 "" 2
 134              		.thumb
 135              	.LBE2:
 136              		.loc 1 393 0
 137 0016 0026     		movs	r6, #0
 138              	.LVL14:
 139 0018 12F0010F 		tst	r2, #1
 140 001c 00F11009 		add	r9, r0, #16
 141 0020 43D1     		bne	.L19
 142              	.LVL15:
 143              		.loc 1 390 0
 144 0022 8369     		ldr	r3, [r0, #24]
 145              	.LVL16:
 146 0024 002B     		cmp	r3, #0
 147 0026 71DD     		ble	.L34
 148              		.loc 1 399 0
 149 0028 5E1E     		subs	r6, r3, #1
 150              	.LVL17:
 151 002a 8661     		str	r6, [r0, #24]
 152              	.LVL18:
 153              	.L23:
 154              		.loc 1 400 0
 155 002c A368     		ldr	r3, [r4, #8]
 156 002e 95F800C0 		ldrb	ip, [r5, #0]	@ zero_extendqisi2
 157 0032 03F801CB 		strb	ip, [r3], #1
 158              		.loc 1 401 0
 159 0036 6068     		ldr	r0, [r4, #4]
 160              		.loc 1 400 0
 161 0038 A360     		str	r3, [r4, #8]
 162              		.loc 1 401 0
 163 003a 8342     		cmp	r3, r0
 164              		.loc 1 402 0
 165 003c 24BF     		itt	cs
ARM GAS  /tmp/ccm5nllD.s 			page 4


 166 003e 2368     		ldrcs	r3, [r4, #0]
 167 0040 A360     		strcs	r3, [r4, #8]
 168              	.LBB3:
 169              		.loc 1 403 0
 170 0042 0023     		movs	r3, #0
 171              	.LVL19:
 172              	@ 403 "../../os/kernel/src/chqueues.c" 1
 173 0044 83F31188 		msr     BASEPRI, r3
 174              	@ 0 "" 2
 175              		.thumb
 176              	.LBE3:
 177              		.loc 1 404 0
 178 0048 0126     		movs	r6, #1
 179              	.LBB4:
 180              		.loc 1 412 0
 181 004a 2023     		movs	r3, #32
 182              	.LVL20:
 183              	@ 412 "../../os/kernel/src/chqueues.c" 1
 184 004c 83F31188 		msr     BASEPRI, r3
 185              	@ 0 "" 2
 186              		.thumb
 187 0050 2BE0     		b	.L19
 188              	.LVL21:
 189              	.L12:
 190              	.LBE4:
 191              		.loc 1 399 0
 192 0052 013B     		subs	r3, r3, #1
 193 0054 A361     		str	r3, [r4, #24]
 194              	.LVL22:
 195              	.L14:
 196              		.loc 1 400 0
 197 0056 A068     		ldr	r0, [r4, #8]
 198 0058 A95D     		ldrb	r1, [r5, r6]	@ zero_extendqisi2
 199 005a 00F8011B 		strb	r1, [r0], #1
 200              		.loc 1 401 0
 201 005e 6268     		ldr	r2, [r4, #4]
 202              		.loc 1 400 0
 203 0060 A060     		str	r0, [r4, #8]
 204              		.loc 1 401 0
 205 0062 9042     		cmp	r0, r2
 206              		.loc 1 402 0
 207 0064 24BF     		itt	cs
 208 0066 2068     		ldrcs	r0, [r4, #0]
 209 0068 A060     		strcs	r0, [r4, #8]
 210              	.LBB5:
 211              		.loc 1 403 0
 212 006a 0023     		movs	r3, #0
 213              	.LVL23:
 214              	@ 403 "../../os/kernel/src/chqueues.c" 1
 215 006c 83F31188 		msr     BASEPRI, r3
 216              	@ 0 "" 2
 217              		.thumb
 218              	.LBE5:
 219              		.loc 1 404 0
 220 0070 0136     		adds	r6, r6, #1
 221              		.loc 1 405 0
 222 0072 B045     		cmp	r8, r6
ARM GAS  /tmp/ccm5nllD.s 			page 5


 223              		.loc 1 404 0
 224 0074 3746     		mov	r7, r6
 225              		.loc 1 405 0
 226 0076 3BD0     		beq	.L38
 227              	.LBB6:
 228              		.loc 1 412 0
 229 0078 2023     		movs	r3, #32
 230              	.LVL24:
 231              	@ 412 "../../os/kernel/src/chqueues.c" 1
 232 007a 83F31188 		msr     BASEPRI, r3
 233              	@ 0 "" 2
 234              		.thumb
 235              	.LBE6:
 236              		.loc 1 390 0
 237 007e A369     		ldr	r3, [r4, #24]
 238              	.LVL25:
 239 0080 002B     		cmp	r3, #0
 240 0082 26DD     		ble	.L39
 241              		.loc 1 399 0
 242 0084 5A1E     		subs	r2, r3, #1
 243 0086 A261     		str	r2, [r4, #24]
 244              	.L29:
 245              		.loc 1 400 0
 246 0088 A168     		ldr	r1, [r4, #8]
 247 008a EB5D     		ldrb	r3, [r5, r7]	@ zero_extendqisi2
 248 008c 01F8013B 		strb	r3, [r1], #1
 249              		.loc 1 401 0
 250 0090 6668     		ldr	r6, [r4, #4]
 251              	.LVL26:
 252              		.loc 1 400 0
 253 0092 A160     		str	r1, [r4, #8]
 254              		.loc 1 401 0
 255 0094 B142     		cmp	r1, r6
 256              		.loc 1 402 0
 257 0096 24BF     		itt	cs
 258 0098 2168     		ldrcs	r1, [r4, #0]
 259 009a A160     		strcs	r1, [r4, #8]
 260              	.LBB7:
 261              		.loc 1 403 0
 262 009c 0023     		movs	r3, #0
 263              	.LVL27:
 264              	@ 403 "../../os/kernel/src/chqueues.c" 1
 265 009e 83F31188 		msr     BASEPRI, r3
 266              	@ 0 "" 2
 267              		.thumb
 268              	.LBE7:
 269              	.LBB8:
 270              		.loc 1 412 0
 271 00a2 2023     		movs	r3, #32
 272              	.LVL28:
 273              	.LBE8:
 274              		.loc 1 404 0
 275 00a4 7E1C     		adds	r6, r7, #1
 276              	.LVL29:
 277              	.LBB9:
 278              		.loc 1 412 0
 279              	@ 412 "../../os/kernel/src/chqueues.c" 1
ARM GAS  /tmp/ccm5nllD.s 			page 6


 280 00a6 83F31188 		msr     BASEPRI, r3
 281              	@ 0 "" 2
 282              	.LVL30:
 283              		.thumb
 284              	.L19:
 285              	.LBE9:
 286              		.loc 1 390 0
 287 00aa A369     		ldr	r3, [r4, #24]
 288              	.LVL31:
 289 00ac 002B     		cmp	r3, #0
 290 00ae D0DC     		bgt	.L12
 291              	.LVL32:
 292              		.loc 1 391 0
 293 00b0 BAF1000F 		cmp	sl, #0
 294 00b4 01D0     		beq	.L13
 295              		.loc 1 392 0
 296 00b6 2046     		mov	r0, r4
 297 00b8 D047     		blx	sl
 298              	.LVL33:
 299              	.L13:
 300              		.loc 1 393 0
 301 00ba 4846     		mov	r0, r9
 302 00bc 5946     		mov	r1, fp
 303 00be FFF7FEFF 		bl	chSemWaitTimeoutS
 304 00c2 0028     		cmp	r0, #0
 305 00c4 C7D0     		beq	.L14
 306              	.L36:
 307              	.LBB10:
 308              		.loc 1 394 0
 309 00c6 0023     		movs	r3, #0
 310              	.LVL34:
 311              	@ 394 "../../os/kernel/src/chqueues.c" 1
 312 00c8 83F31188 		msr     BASEPRI, r3
 313              	@ 0 "" 2
 314              		.thumb
 315              	.L40:
 316              	.LBE10:
 317              		.loc 1 414 0
 318 00cc 3046     		mov	r0, r6
 319 00ce BDE8F88F 		pop	{r3, r4, r5, r6, r7, r8, r9, sl, fp, pc}
 320              	.LVL35:
 321              	.L39:
 322              		.loc 1 391 0
 323 00d2 BAF1000F 		cmp	sl, #0
 324 00d6 01D0     		beq	.L28
 325              		.loc 1 392 0
 326 00d8 2046     		mov	r0, r4
 327 00da D047     		blx	sl
 328              	.L28:
 329              		.loc 1 393 0
 330 00dc 4846     		mov	r0, r9
 331 00de 5946     		mov	r1, fp
 332 00e0 FFF7FEFF 		bl	chSemWaitTimeoutS
 333 00e4 0028     		cmp	r0, #0
 334 00e6 CFD0     		beq	.L29
 335              	.LBB11:
 336              		.loc 1 394 0
ARM GAS  /tmp/ccm5nllD.s 			page 7


 337 00e8 0023     		movs	r3, #0
 338              	.LVL36:
 339              	@ 394 "../../os/kernel/src/chqueues.c" 1
 340 00ea 83F31188 		msr     BASEPRI, r3
 341              	@ 0 "" 2
 342              		.thumb
 343 00ee EDE7     		b	.L40
 344              	.LVL37:
 345              	.L38:
 346              	.LBE11:
 347              	.LBB12:
 348              		.loc 1 406 0
 349 00f0 2023     		movs	r3, #32
 350              	.LVL38:
 351              	@ 406 "../../os/kernel/src/chqueues.c" 1
 352 00f2 83F31188 		msr     BASEPRI, r3
 353              	@ 0 "" 2
 354              		.thumb
 355              	.LBE12:
 356              		.loc 1 407 0
 357 00f6 BAF1000F 		cmp	sl, #0
 358 00fa 01D0     		beq	.L18
 359              		.loc 1 408 0
 360 00fc 2046     		mov	r0, r4
 361 00fe D047     		blx	sl
 362              	.LVL39:
 363              	.L18:
 364              	.LBB13:
 365              		.loc 1 409 0
 366 0100 0023     		movs	r3, #0
 367              	.LVL40:
 368              	@ 409 "../../os/kernel/src/chqueues.c" 1
 369 0102 83F31188 		msr     BASEPRI, r3
 370              	@ 0 "" 2
 371              		.thumb
 372              	.LBE13:
 373              		.loc 1 414 0
 374 0106 3046     		mov	r0, r6
 375 0108 BDE8F88F 		pop	{r3, r4, r5, r6, r7, r8, r9, sl, fp, pc}
 376              	.LVL41:
 377              	.L34:
 378              		.loc 1 391 0
 379 010c BAF1000F 		cmp	sl, #0
 380 0110 00D0     		beq	.L22
 381              		.loc 1 392 0
 382 0112 D047     		blx	sl
 383              	.LVL42:
 384              	.L22:
 385              		.loc 1 393 0
 386 0114 4846     		mov	r0, r9
 387 0116 5946     		mov	r1, fp
 388 0118 FFF7FEFF 		bl	chSemWaitTimeoutS
 389 011c 0028     		cmp	r0, #0
 390 011e 85D0     		beq	.L23
 391 0120 D1E7     		b	.L36
 392              		.cfi_endproc
 393              	.LFE18:
ARM GAS  /tmp/ccm5nllD.s 			page 8


 394              		.size	chOQWriteTimeout, .-chOQWriteTimeout
 395 0122 00BFAFF3 		.section	.text.chOQPutTimeout,"ax",%progbits
 395      0080AFF3 
 395      0080AFF3 
 395      0080
 396              		.align	2
 397              		.p2align 4,,15
 398              		.global	chOQPutTimeout
 399              		.thumb
 400              		.thumb_func
 401              		.type	chOQPutTimeout, %function
 402              	chOQPutTimeout:
 403              	.LFB16:
 404              		.loc 1 315 0
 405              		.cfi_startproc
 406              		@ args = 0, pretend = 0, frame = 0
 407              		@ frame_needed = 0, uses_anonymous_args = 0
 408              	.LVL43:
 409 0000 38B5     		push	{r3, r4, r5, lr}
 410              	.LCFI1:
 411              		.cfi_def_cfa_offset 16
 412              		.loc 1 315 0
 413 0002 0446     		mov	r4, r0
 414              		.cfi_offset 14, -4
 415              		.cfi_offset 5, -8
 416              		.cfi_offset 4, -12
 417              		.cfi_offset 3, -16
 418 0004 0D46     		mov	r5, r1
 419              	.LBB14:
 420              		.loc 1 318 0
 421 0006 2023     		movs	r3, #32
 422              	.LVL44:
 423              	@ 318 "../../os/kernel/src/chqueues.c" 1
 424 0008 83F31188 		msr     BASEPRI, r3
 425              	@ 0 "" 2
 426              		.thumb
 427              	.LBE14:
 428              		.loc 1 319 0
 429 000c 1146     		mov	r1, r2
 430              	.LVL45:
 431 000e 1030     		adds	r0, r0, #16
 432              	.LVL46:
 433 0010 FFF7FEFF 		bl	chSemWaitTimeoutS
 434              	.LVL47:
 435 0014 0028     		cmp	r0, #0
 436              	.LVL48:
 437 0016 11DB     		blt	.L47
 438              		.loc 1 323 0
 439 0018 A368     		ldr	r3, [r4, #8]
 440 001a 03F8015B 		strb	r5, [r3], #1
 441              		.loc 1 324 0
 442 001e 6268     		ldr	r2, [r4, #4]
 443              		.loc 1 323 0
 444 0020 A360     		str	r3, [r4, #8]
 445              		.loc 1 324 0
 446 0022 9342     		cmp	r3, r2
 447              		.loc 1 325 0
ARM GAS  /tmp/ccm5nllD.s 			page 9


 448 0024 24BF     		itt	cs
 449 0026 2368     		ldrcs	r3, [r4, #0]
 450 0028 A360     		strcs	r3, [r4, #8]
 451              		.loc 1 327 0
 452 002a E369     		ldr	r3, [r4, #28]
 453 002c 0BB1     		cbz	r3, .L45
 454              		.loc 1 328 0
 455 002e 2046     		mov	r0, r4
 456              	.LVL49:
 457 0030 9847     		blx	r3
 458              	.LVL50:
 459              	.L45:
 460              	.LBB15:
 461              		.loc 1 330 0
 462 0032 0023     		movs	r3, #0
 463              	.LVL51:
 464              	@ 330 "../../os/kernel/src/chqueues.c" 1
 465 0034 83F31188 		msr     BASEPRI, r3
 466              	@ 0 "" 2
 467              		.thumb
 468 0038 1846     		mov	r0, r3
 469              	.LVL52:
 470              	.LBE15:
 471              		.loc 1 332 0
 472 003a 38BD     		pop	{r3, r4, r5, pc}
 473              	.LVL53:
 474              	.L47:
 475              	.LBB16:
 476              		.loc 1 320 0
 477 003c 0023     		movs	r3, #0
 478              	.LVL54:
 479              	@ 320 "../../os/kernel/src/chqueues.c" 1
 480 003e 83F31188 		msr     BASEPRI, r3
 481              	@ 0 "" 2
 482              		.thumb
 483              	.LBE16:
 484              		.loc 1 321 0
 485 0042 38BD     		pop	{r3, r4, r5, pc}
 486              		.cfi_endproc
 487              	.LFE16:
 488              		.size	chOQPutTimeout, .-chOQPutTimeout
 489 0044 AFF30080 		.section	.text.chIQReadTimeout,"ax",%progbits
 489      AFF30080 
 489      AFF30080 
 490              		.align	2
 491              		.p2align 4,,15
 492              		.global	chIQReadTimeout
 493              		.thumb
 494              		.thumb_func
 495              		.type	chIQReadTimeout, %function
 496              	chIQReadTimeout:
 497              	.LFB12:
 498              		.loc 1 203 0
 499              		.cfi_startproc
 500              		@ args = 0, pretend = 0, frame = 0
 501              		@ frame_needed = 0, uses_anonymous_args = 0
 502              	.LVL55:
ARM GAS  /tmp/ccm5nllD.s 			page 10


 503 0000 2DE9F84F 		push	{r3, r4, r5, r6, r7, r8, r9, sl, fp, lr}
 504              	.LCFI2:
 505              		.cfi_def_cfa_offset 40
 506              	.LVL56:
 507              		.loc 1 203 0
 508 0004 9B46     		mov	fp, r3
 509              		.cfi_offset 14, -4
 510              		.cfi_offset 11, -8
 511              		.cfi_offset 10, -12
 512              		.cfi_offset 9, -16
 513              		.cfi_offset 8, -20
 514              		.cfi_offset 7, -24
 515              		.cfi_offset 6, -28
 516              		.cfi_offset 5, -32
 517              		.cfi_offset 4, -36
 518              		.cfi_offset 3, -40
 519              	.LVL57:
 520 0006 0446     		mov	r4, r0
 521 0008 0D46     		mov	r5, r1
 522 000a 9046     		mov	r8, r2
 523              		.loc 1 204 0
 524 000c D0F81CA0 		ldr	sl, [r0, #28]
 525              	.LVL58:
 526              	.LBB17:
 527              		.loc 1 209 0
 528 0010 2023     		movs	r3, #32
 529              	.LVL59:
 530              	@ 209 "../../os/kernel/src/chqueues.c" 1
 531 0012 83F31188 		msr     BASEPRI, r3
 532              	@ 0 "" 2
 533              		.thumb
 534              	.LBE17:
 535              		.loc 1 214 0
 536 0016 0026     		movs	r6, #0
 537              	.LVL60:
 538 0018 12F0010F 		tst	r2, #1
 539 001c 00F11009 		add	r9, r0, #16
 540 0020 43D1     		bne	.L56
 541              	.LVL61:
 542              		.loc 1 211 0
 543 0022 8369     		ldr	r3, [r0, #24]
 544              	.LVL62:
 545 0024 002B     		cmp	r3, #0
 546 0026 71DD     		ble	.L71
 547              		.loc 1 220 0
 548 0028 5E1E     		subs	r6, r3, #1
 549              	.LVL63:
 550 002a 8661     		str	r6, [r0, #24]
 551              	.LVL64:
 552              	.L60:
 553              		.loc 1 221 0
 554 002c E368     		ldr	r3, [r4, #12]
 555 002e 13F801CB 		ldrb	ip, [r3], #1	@ zero_extendqisi2
 556 0032 85F800C0 		strb	ip, [r5, #0]
 557              		.loc 1 222 0
 558 0036 6068     		ldr	r0, [r4, #4]
 559              		.loc 1 221 0
ARM GAS  /tmp/ccm5nllD.s 			page 11


 560 0038 E360     		str	r3, [r4, #12]
 561              		.loc 1 222 0
 562 003a 8342     		cmp	r3, r0
 563              		.loc 1 223 0
 564 003c 24BF     		itt	cs
 565 003e 2368     		ldrcs	r3, [r4, #0]
 566 0040 E360     		strcs	r3, [r4, #12]
 567              	.LBB18:
 568              		.loc 1 224 0
 569 0042 0023     		movs	r3, #0
 570              	.LVL65:
 571              	@ 224 "../../os/kernel/src/chqueues.c" 1
 572 0044 83F31188 		msr     BASEPRI, r3
 573              	@ 0 "" 2
 574              		.thumb
 575              	.LBE18:
 576              		.loc 1 225 0
 577 0048 0126     		movs	r6, #1
 578              	.LBB19:
 579              		.loc 1 233 0
 580 004a 2023     		movs	r3, #32
 581              	.LVL66:
 582              	@ 233 "../../os/kernel/src/chqueues.c" 1
 583 004c 83F31188 		msr     BASEPRI, r3
 584              	@ 0 "" 2
 585              		.thumb
 586 0050 2BE0     		b	.L56
 587              	.LVL67:
 588              	.L49:
 589              	.LBE19:
 590              		.loc 1 220 0
 591 0052 013B     		subs	r3, r3, #1
 592 0054 A361     		str	r3, [r4, #24]
 593              	.LVL68:
 594              	.L51:
 595              		.loc 1 221 0
 596 0056 E068     		ldr	r0, [r4, #12]
 597 0058 10F8011B 		ldrb	r1, [r0], #1	@ zero_extendqisi2
 598 005c A955     		strb	r1, [r5, r6]
 599              		.loc 1 222 0
 600 005e 6268     		ldr	r2, [r4, #4]
 601              		.loc 1 221 0
 602 0060 E060     		str	r0, [r4, #12]
 603              		.loc 1 222 0
 604 0062 9042     		cmp	r0, r2
 605              		.loc 1 223 0
 606 0064 24BF     		itt	cs
 607 0066 2068     		ldrcs	r0, [r4, #0]
 608 0068 E060     		strcs	r0, [r4, #12]
 609              	.LBB20:
 610              		.loc 1 224 0
 611 006a 0023     		movs	r3, #0
 612              	.LVL69:
 613              	@ 224 "../../os/kernel/src/chqueues.c" 1
 614 006c 83F31188 		msr     BASEPRI, r3
 615              	@ 0 "" 2
 616              		.thumb
ARM GAS  /tmp/ccm5nllD.s 			page 12


 617              	.LBE20:
 618              		.loc 1 225 0
 619 0070 0136     		adds	r6, r6, #1
 620              		.loc 1 226 0
 621 0072 B045     		cmp	r8, r6
 622              		.loc 1 225 0
 623 0074 3746     		mov	r7, r6
 624              		.loc 1 226 0
 625 0076 3BD0     		beq	.L75
 626              	.LBB21:
 627              		.loc 1 233 0
 628 0078 2023     		movs	r3, #32
 629              	.LVL70:
 630              	@ 233 "../../os/kernel/src/chqueues.c" 1
 631 007a 83F31188 		msr     BASEPRI, r3
 632              	@ 0 "" 2
 633              		.thumb
 634              	.LBE21:
 635              		.loc 1 211 0
 636 007e A369     		ldr	r3, [r4, #24]
 637              	.LVL71:
 638 0080 002B     		cmp	r3, #0
 639 0082 26DD     		ble	.L76
 640              		.loc 1 220 0
 641 0084 5A1E     		subs	r2, r3, #1
 642 0086 A261     		str	r2, [r4, #24]
 643              	.L66:
 644              		.loc 1 221 0
 645 0088 E168     		ldr	r1, [r4, #12]
 646 008a 11F8013B 		ldrb	r3, [r1], #1	@ zero_extendqisi2
 647 008e EB55     		strb	r3, [r5, r7]
 648              		.loc 1 222 0
 649 0090 6668     		ldr	r6, [r4, #4]
 650              	.LVL72:
 651              		.loc 1 221 0
 652 0092 E160     		str	r1, [r4, #12]
 653              		.loc 1 222 0
 654 0094 B142     		cmp	r1, r6
 655              		.loc 1 223 0
 656 0096 24BF     		itt	cs
 657 0098 2168     		ldrcs	r1, [r4, #0]
 658 009a E160     		strcs	r1, [r4, #12]
 659              	.LBB22:
 660              		.loc 1 224 0
 661 009c 0023     		movs	r3, #0
 662              	.LVL73:
 663              	@ 224 "../../os/kernel/src/chqueues.c" 1
 664 009e 83F31188 		msr     BASEPRI, r3
 665              	@ 0 "" 2
 666              		.thumb
 667              	.LBE22:
 668              	.LBB23:
 669              		.loc 1 233 0
 670 00a2 2023     		movs	r3, #32
 671              	.LVL74:
 672              	.LBE23:
 673              		.loc 1 225 0
ARM GAS  /tmp/ccm5nllD.s 			page 13


 674 00a4 7E1C     		adds	r6, r7, #1
 675              	.LVL75:
 676              	.LBB24:
 677              		.loc 1 233 0
 678              	@ 233 "../../os/kernel/src/chqueues.c" 1
 679 00a6 83F31188 		msr     BASEPRI, r3
 680              	@ 0 "" 2
 681              	.LVL76:
 682              		.thumb
 683              	.L56:
 684              	.LBE24:
 685              		.loc 1 211 0
 686 00aa A369     		ldr	r3, [r4, #24]
 687              	.LVL77:
 688 00ac 002B     		cmp	r3, #0
 689 00ae D0DC     		bgt	.L49
 690              	.LVL78:
 691              		.loc 1 212 0
 692 00b0 BAF1000F 		cmp	sl, #0
 693 00b4 01D0     		beq	.L50
 694              		.loc 1 213 0
 695 00b6 2046     		mov	r0, r4
 696 00b8 D047     		blx	sl
 697              	.LVL79:
 698              	.L50:
 699              		.loc 1 214 0
 700 00ba 4846     		mov	r0, r9
 701 00bc 5946     		mov	r1, fp
 702 00be FFF7FEFF 		bl	chSemWaitTimeoutS
 703 00c2 0028     		cmp	r0, #0
 704 00c4 C7D0     		beq	.L51
 705              	.L73:
 706              	.LBB25:
 707              		.loc 1 215 0
 708 00c6 0023     		movs	r3, #0
 709              	.LVL80:
 710              	@ 215 "../../os/kernel/src/chqueues.c" 1
 711 00c8 83F31188 		msr     BASEPRI, r3
 712              	@ 0 "" 2
 713              		.thumb
 714              	.L77:
 715              	.LBE25:
 716              		.loc 1 235 0
 717 00cc 3046     		mov	r0, r6
 718 00ce BDE8F88F 		pop	{r3, r4, r5, r6, r7, r8, r9, sl, fp, pc}
 719              	.LVL81:
 720              	.L76:
 721              		.loc 1 212 0
 722 00d2 BAF1000F 		cmp	sl, #0
 723 00d6 01D0     		beq	.L65
 724              		.loc 1 213 0
 725 00d8 2046     		mov	r0, r4
 726 00da D047     		blx	sl
 727              	.L65:
 728              		.loc 1 214 0
 729 00dc 4846     		mov	r0, r9
 730 00de 5946     		mov	r1, fp
ARM GAS  /tmp/ccm5nllD.s 			page 14


 731 00e0 FFF7FEFF 		bl	chSemWaitTimeoutS
 732 00e4 0028     		cmp	r0, #0
 733 00e6 CFD0     		beq	.L66
 734              	.LBB26:
 735              		.loc 1 215 0
 736 00e8 0023     		movs	r3, #0
 737              	.LVL82:
 738              	@ 215 "../../os/kernel/src/chqueues.c" 1
 739 00ea 83F31188 		msr     BASEPRI, r3
 740              	@ 0 "" 2
 741              		.thumb
 742 00ee EDE7     		b	.L77
 743              	.LVL83:
 744              	.L75:
 745              	.LBE26:
 746              	.LBB27:
 747              		.loc 1 227 0
 748 00f0 2023     		movs	r3, #32
 749              	.LVL84:
 750              	@ 227 "../../os/kernel/src/chqueues.c" 1
 751 00f2 83F31188 		msr     BASEPRI, r3
 752              	@ 0 "" 2
 753              		.thumb
 754              	.LBE27:
 755              		.loc 1 228 0
 756 00f6 BAF1000F 		cmp	sl, #0
 757 00fa 01D0     		beq	.L55
 758              		.loc 1 229 0
 759 00fc 2046     		mov	r0, r4
 760 00fe D047     		blx	sl
 761              	.LVL85:
 762              	.L55:
 763              	.LBB28:
 764              		.loc 1 230 0
 765 0100 0023     		movs	r3, #0
 766              	.LVL86:
 767              	@ 230 "../../os/kernel/src/chqueues.c" 1
 768 0102 83F31188 		msr     BASEPRI, r3
 769              	@ 0 "" 2
 770              		.thumb
 771              	.LBE28:
 772              		.loc 1 235 0
 773 0106 3046     		mov	r0, r6
 774 0108 BDE8F88F 		pop	{r3, r4, r5, r6, r7, r8, r9, sl, fp, pc}
 775              	.LVL87:
 776              	.L71:
 777              		.loc 1 212 0
 778 010c BAF1000F 		cmp	sl, #0
 779 0110 00D0     		beq	.L59
 780              		.loc 1 213 0
 781 0112 D047     		blx	sl
 782              	.LVL88:
 783              	.L59:
 784              		.loc 1 214 0
 785 0114 4846     		mov	r0, r9
 786 0116 5946     		mov	r1, fp
 787 0118 FFF7FEFF 		bl	chSemWaitTimeoutS
ARM GAS  /tmp/ccm5nllD.s 			page 15


 788 011c 0028     		cmp	r0, #0
 789 011e 85D0     		beq	.L60
 790 0120 D1E7     		b	.L73
 791              		.cfi_endproc
 792              	.LFE12:
 793              		.size	chIQReadTimeout, .-chIQReadTimeout
 794 0122 00BFAFF3 		.section	.text.chIQGetTimeout,"ax",%progbits
 794      0080AFF3 
 794      0080AFF3 
 794      0080
 795              		.align	2
 796              		.p2align 4,,15
 797              		.global	chIQGetTimeout
 798              		.thumb
 799              		.thumb_func
 800              		.type	chIQGetTimeout, %function
 801              	chIQGetTimeout:
 802              	.LFB11:
 803              		.loc 1 157 0
 804              		.cfi_startproc
 805              		@ args = 0, pretend = 0, frame = 0
 806              		@ frame_needed = 0, uses_anonymous_args = 0
 807              	.LVL89:
 808 0000 38B5     		push	{r3, r4, r5, lr}
 809              	.LCFI3:
 810              		.cfi_def_cfa_offset 16
 811              		.loc 1 157 0
 812 0002 0D46     		mov	r5, r1
 813              		.cfi_offset 14, -4
 814              		.cfi_offset 5, -8
 815              		.cfi_offset 4, -12
 816              		.cfi_offset 3, -16
 817 0004 0446     		mov	r4, r0
 818              	.LBB29:
 819              		.loc 1 161 0
 820 0006 2023     		movs	r3, #32
 821              	.LVL90:
 822              	@ 161 "../../os/kernel/src/chqueues.c" 1
 823 0008 83F31188 		msr     BASEPRI, r3
 824              	@ 0 "" 2
 825              		.thumb
 826              	.LBE29:
 827              		.loc 1 163 0
 828 000c C369     		ldr	r3, [r0, #28]
 829              	.LVL91:
 830 000e 03B1     		cbz	r3, .L79
 831              	.LVL92:
 832              		.loc 1 164 0
 833 0010 9847     		blx	r3
 834              	.LVL93:
 835              	.L79:
 836              		.loc 1 166 0
 837 0012 2946     		mov	r1, r5
 838 0014 04F11000 		add	r0, r4, #16
 839 0018 FFF7FEFF 		bl	chSemWaitTimeoutS
 840 001c 0028     		cmp	r0, #0
 841              	.LVL94:
ARM GAS  /tmp/ccm5nllD.s 			page 16


 842 001e 0CDB     		blt	.L84
 843              		.loc 1 170 0
 844 0020 E368     		ldr	r3, [r4, #12]
 845              		.loc 1 171 0
 846 0022 6268     		ldr	r2, [r4, #4]
 847              		.loc 1 170 0
 848 0024 13F8010B 		ldrb	r0, [r3], #1	@ zero_extendqisi2
 849              	.LVL95:
 850              		.loc 1 171 0
 851 0028 9342     		cmp	r3, r2
 852              		.loc 1 170 0
 853 002a E360     		str	r3, [r4, #12]
 854              		.loc 1 172 0
 855 002c 24BF     		itt	cs
 856 002e 2368     		ldrcs	r3, [r4, #0]
 857 0030 E360     		strcs	r3, [r4, #12]
 858              	.LBB30:
 859              		.loc 1 174 0
 860 0032 0023     		movs	r3, #0
 861              	.LVL96:
 862              	@ 174 "../../os/kernel/src/chqueues.c" 1
 863 0034 83F31188 		msr     BASEPRI, r3
 864              	@ 0 "" 2
 865              	.LVL97:
 866              		.thumb
 867              	.LBE30:
 868              		.loc 1 176 0
 869 0038 38BD     		pop	{r3, r4, r5, pc}
 870              	.LVL98:
 871              	.L84:
 872              	.LBB31:
 873              		.loc 1 167 0
 874 003a 0023     		movs	r3, #0
 875              	.LVL99:
 876              	@ 167 "../../os/kernel/src/chqueues.c" 1
 877 003c 83F31188 		msr     BASEPRI, r3
 878              	@ 0 "" 2
 879              		.thumb
 880              	.LBE31:
 881              		.loc 1 168 0
 882 0040 38BD     		pop	{r3, r4, r5, pc}
 883              		.cfi_endproc
 884              	.LFE11:
 885              		.size	chIQGetTimeout, .-chIQGetTimeout
 886 0042 00BFAFF3 		.section	.text.chOQGetI,"ax",%progbits
 886      0080AFF3 
 886      0080AFF3 
 886      0080
 887              		.align	2
 888              		.p2align 4,,15
 889              		.global	chOQGetI
 890              		.thumb
 891              		.thumb_func
 892              		.type	chOQGetI, %function
 893              	chOQGetI:
 894              	.LFB17:
 895              		.loc 1 344 0
ARM GAS  /tmp/ccm5nllD.s 			page 17


 896              		.cfi_startproc
 897              		@ args = 0, pretend = 0, frame = 0
 898              		@ frame_needed = 0, uses_anonymous_args = 0
 899              	.LVL100:
 900              		.loc 1 347 0
 901 0000 C368     		ldr	r3, [r0, #12]
 902 0002 8268     		ldr	r2, [r0, #8]
 903              		.loc 1 344 0
 904 0004 10B5     		push	{r4, lr}
 905              	.LCFI4:
 906              		.cfi_def_cfa_offset 8
 907              		.loc 1 347 0
 908 0006 9A42     		cmp	r2, r3
 909 0008 0CD0     		beq	.L90
 910              		.cfi_offset 14, -4
 911              		.cfi_offset 4, -8
 912              	.L86:
 913              		.loc 1 350 0
 914 000a 13F8014B 		ldrb	r4, [r3], #1	@ zero_extendqisi2
 915              	.LVL101:
 916              		.loc 1 351 0
 917 000e 4268     		ldr	r2, [r0, #4]
 918              		.loc 1 350 0
 919 0010 C360     		str	r3, [r0, #12]
 920              		.loc 1 351 0
 921 0012 9342     		cmp	r3, r2
 922              		.loc 1 352 0
 923 0014 24BF     		itt	cs
 924 0016 0368     		ldrcs	r3, [r0, #0]
 925 0018 C360     		strcs	r3, [r0, #12]
 926              		.loc 1 353 0
 927 001a 1030     		adds	r0, r0, #16
 928              	.LVL102:
 929 001c FFF7FEFF 		bl	chSemSignalI
 930              		.loc 1 354 0
 931 0020 2046     		mov	r0, r4
 932              		.loc 1 355 0
 933 0022 10BD     		pop	{r4, pc}
 934              	.LVL103:
 935              	.L90:
 936              		.loc 1 347 0
 937 0024 8169     		ldr	r1, [r0, #24]
 938 0026 0029     		cmp	r1, #0
 939 0028 EFDD     		ble	.L86
 940 002a 6FF00200 		mvn	r0, #2
 941              	.LVL104:
 942 002e 10BD     		pop	{r4, pc}
 943              		.cfi_endproc
 944              	.LFE17:
 945              		.size	chOQGetI, .-chOQGetI
 946              		.section	.text.chIQPutI,"ax",%progbits
 947              		.align	2
 948              		.p2align 4,,15
 949              		.global	chIQPutI
 950              		.thumb
 951              		.thumb_func
 952              		.type	chIQPutI, %function
ARM GAS  /tmp/ccm5nllD.s 			page 18


 953              	chIQPutI:
 954              	.LFB10:
 955              		.loc 1 127 0
 956              		.cfi_startproc
 957              		@ args = 0, pretend = 0, frame = 0
 958              		@ frame_needed = 0, uses_anonymous_args = 0
 959              	.LVL105:
 960 0000 08B5     		push	{r3, lr}
 961              	.LCFI5:
 962              		.cfi_def_cfa_offset 8
 963              		.loc 1 129 0
 964 0002 C268     		ldr	r2, [r0, #12]
 965 0004 8368     		ldr	r3, [r0, #8]
 966              		.cfi_offset 14, -4
 967              		.cfi_offset 3, -8
 968 0006 9342     		cmp	r3, r2
 969 0008 0CD0     		beq	.L96
 970              	.L92:
 971              		.loc 1 132 0
 972 000a 03F8011B 		strb	r1, [r3], #1
 973              		.loc 1 133 0
 974 000e 4168     		ldr	r1, [r0, #4]
 975              	.LVL106:
 976              		.loc 1 132 0
 977 0010 8360     		str	r3, [r0, #8]
 978              		.loc 1 133 0
 979 0012 8B42     		cmp	r3, r1
 980              		.loc 1 134 0
 981 0014 24BF     		itt	cs
 982 0016 0368     		ldrcs	r3, [r0, #0]
 983 0018 8360     		strcs	r3, [r0, #8]
 984              		.loc 1 135 0
 985 001a 1030     		adds	r0, r0, #16
 986              	.LVL107:
 987 001c FFF7FEFF 		bl	chSemSignalI
 988 0020 0020     		movs	r0, #0
 989              		.loc 1 137 0
 990 0022 08BD     		pop	{r3, pc}
 991              	.LVL108:
 992              	.L96:
 993              		.loc 1 129 0
 994 0024 8269     		ldr	r2, [r0, #24]
 995 0026 002A     		cmp	r2, #0
 996 0028 EFDD     		ble	.L92
 997 002a 6FF00300 		mvn	r0, #3
 998              	.LVL109:
 999 002e 08BD     		pop	{r3, pc}
 1000              		.cfi_endproc
 1001              	.LFE10:
 1002              		.size	chIQPutI, .-chIQPutI
 1003              		.section	.text.chOQResetI,"ax",%progbits
 1004              		.align	2
 1005              		.p2align 4,,15
 1006              		.global	chOQResetI
 1007              		.thumb
 1008              		.thumb_func
 1009              		.type	chOQResetI, %function
ARM GAS  /tmp/ccm5nllD.s 			page 19


 1010              	chOQResetI:
 1011              	.LFB15:
 1012              		.loc 1 289 0
 1013              		.cfi_startproc
 1014              		@ args = 0, pretend = 0, frame = 0
 1015              		@ frame_needed = 0, uses_anonymous_args = 0
 1016              		@ link register save eliminated.
 1017              	.LVL110:
 1018              		.loc 1 291 0
 1019 0000 0368     		ldr	r3, [r0, #0]
 1020              		.loc 1 292 0
 1021 0002 4168     		ldr	r1, [r0, #4]
 1022              		.loc 1 291 0
 1023 0004 8360     		str	r3, [r0, #8]
 1024 0006 C360     		str	r3, [r0, #12]
 1025              		.loc 1 292 0
 1026 0008 C91A     		subs	r1, r1, r3
 1027 000a 1030     		adds	r0, r0, #16
 1028              	.LVL111:
 1029              		.loc 1 293 0
 1030              		.loc 1 292 0
 1031 000c FFF7FEBF 		b	chSemResetI
 1032              		.cfi_endproc
 1033              	.LFE15:
 1034              		.size	chOQResetI, .-chOQResetI
 1035              		.section	.text.chIQResetI,"ax",%progbits
 1036              		.align	2
 1037              		.p2align 4,,15
 1038              		.global	chIQResetI
 1039              		.thumb
 1040              		.thumb_func
 1041              		.type	chIQResetI, %function
 1042              	chIQResetI:
 1043              	.LFB9:
 1044              		.loc 1 108 0
 1045              		.cfi_startproc
 1046              		@ args = 0, pretend = 0, frame = 0
 1047              		@ frame_needed = 0, uses_anonymous_args = 0
 1048              		@ link register save eliminated.
 1049              	.LVL112:
 1050              		.loc 1 110 0
 1051 0000 0268     		ldr	r2, [r0, #0]
 1052              		.loc 1 108 0
 1053 0002 0346     		mov	r3, r0
 1054              		.loc 1 111 0
 1055 0004 0021     		movs	r1, #0
 1056 0006 1030     		adds	r0, r0, #16
 1057              	.LVL113:
 1058              		.loc 1 110 0
 1059 0008 DA60     		str	r2, [r3, #12]
 1060 000a 9A60     		str	r2, [r3, #8]
 1061              		.loc 1 112 0
 1062              		.loc 1 111 0
 1063 000c FFF7FEBF 		b	chSemResetI
 1064              	.LVL114:
 1065              		.cfi_endproc
 1066              	.LFE9:
ARM GAS  /tmp/ccm5nllD.s 			page 20


 1067              		.size	chIQResetI, .-chIQResetI
 1068              		.section	.text.chOQInit,"ax",%progbits
 1069              		.align	2
 1070              		.p2align 4,,15
 1071              		.global	chOQInit
 1072              		.thumb
 1073              		.thumb_func
 1074              		.type	chOQInit, %function
 1075              	chOQInit:
 1076              	.LFB13:
 1077              		.loc 1 252 0
 1078              		.cfi_startproc
 1079              		@ args = 0, pretend = 0, frame = 0
 1080              		@ frame_needed = 0, uses_anonymous_args = 0
 1081              		@ link register save eliminated.
 1082              	.LVL115:
 1083 0000 10B4     		push	{r4}
 1084              	.LCFI6:
 1085              		.cfi_def_cfa_offset 4
 1086              		.loc 1 255 0
 1087 0002 8C18     		adds	r4, r1, r2
 1088              		.cfi_offset 4, -4
 1089              		.loc 1 254 0
 1090 0004 8160     		str	r1, [r0, #8]
 1091 0006 C160     		str	r1, [r0, #12]
 1092 0008 0160     		str	r1, [r0, #0]
 1093              		.loc 1 255 0
 1094 000a 4460     		str	r4, [r0, #4]
 1095              		.loc 1 256 0
 1096 000c C361     		str	r3, [r0, #28]
 1097              		.loc 1 257 0
 1098 000e 1146     		mov	r1, r2
 1099              	.LVL116:
 1100 0010 1030     		adds	r0, r0, #16
 1101              	.LVL117:
 1102              		.loc 1 258 0
 1103 0012 10BC     		pop	{r4}
 1104              		.loc 1 257 0
 1105 0014 FFF7FEBF 		b	chSemInit
 1106              	.LVL118:
 1107              		.cfi_endproc
 1108              	.LFE13:
 1109              		.size	chOQInit, .-chOQInit
 1110 0018 AFF30080 		.section	.text.chIQInit,"ax",%progbits
 1110      AFF30080 
 1111              		.align	2
 1112              		.p2align 4,,15
 1113              		.global	chIQInit
 1114              		.thumb
 1115              		.thumb_func
 1116              		.type	chIQInit, %function
 1117              	chIQInit:
 1118              	.LFB7:
 1119              		.loc 1 71 0
 1120              		.cfi_startproc
 1121              		@ args = 0, pretend = 0, frame = 0
 1122              		@ frame_needed = 0, uses_anonymous_args = 0
ARM GAS  /tmp/ccm5nllD.s 			page 21


 1123              		@ link register save eliminated.
 1124              	.LVL119:
 1125              		.loc 1 74 0
 1126 0000 8A18     		adds	r2, r1, r2
 1127              	.LVL120:
 1128              		.loc 1 73 0
 1129 0002 8160     		str	r1, [r0, #8]
 1130 0004 C160     		str	r1, [r0, #12]
 1131 0006 0160     		str	r1, [r0, #0]
 1132              		.loc 1 74 0
 1133 0008 4260     		str	r2, [r0, #4]
 1134              		.loc 1 75 0
 1135 000a C361     		str	r3, [r0, #28]
 1136              		.loc 1 76 0
 1137 000c 0021     		movs	r1, #0
 1138              	.LVL121:
 1139 000e 1030     		adds	r0, r0, #16
 1140              	.LVL122:
 1141              		.loc 1 77 0
 1142              		.loc 1 76 0
 1143 0010 FFF7FEBF 		b	chSemInit
 1144              	.LVL123:
 1145              		.cfi_endproc
 1146              	.LFE7:
 1147              		.size	chIQInit, .-chIQInit
 1148 0014 AFF30080 		.text
 1148      AFF30080 
 1148      AFF30080 
 1149              	.Letext0: