ARM GAS  /tmp/ccm5nllD.s 			page 1


   1              		.syntax unified
   2              		.cpu cortex-m3
   3              		.fpu softvfp
   4              		.eabi_attribute 20, 1
   5              		.eabi_attribute 21, 1
   6              		.eabi_attribute 23, 3
   7              		.eabi_attribute 24, 1
   8              		.eabi_attribute 25, 1
   9              		.eabi_attribute 26, 1
  10              		.eabi_attribute 30, 2
  11              		.eabi_attribute 18, 4
  12              		.thumb
  13              		.file	"chqueues.c"
  14              		.section	.debug_abbrev,"",%progbits
  15              	.Ldebug_abbrev0:
  16              		.section	.debug_info,"",%progbits
  17              	.Ldebug_info0:
  18              		.section	.debug_line,"",%progbits
  19              	.Ldebug_line0:
  20 0000 59030000 		.text
  20      02009E01 
  20      00000201 
  20      FB0E0D00 
  20      01010101 
  21              	.Ltext0:
  22              		.cfi_sections	.debug_frame
  23              		.section	.text.chIQGetFullI,"ax",%progbits
  24              		.align	2
  25              		.p2align 4,,15
  26              		.global	chIQGetFullI
  27              		.thumb
  28              		.thumb_func
  29              		.type	chIQGetFullI, %function
  30              	chIQGetFullI:
  31              	.LFB8:
  32              		.file 1 "../../os/kernel/src/chqueues.c"
  33              		.loc 1 88 0
  34              		.cfi_startproc
  35              		@ args = 0, pretend = 0, frame = 0
  36              		@ frame_needed = 0, uses_anonymous_args = 0
  37              		@ link register save eliminated.
  38              	.LVL0:
  39              		.loc 1 91 0
  40 0000 8069     		ldr	r0, [r0, #24]
  41              	.LVL1:
  42              		.loc 1 95 0
  43 0002 20EAE070 		bic	r0, r0, r0, asr #31
  44              	.LVL2:
  45 0006 7047     		bx	lr
  46              		.cfi_endproc
  47              	.LFE8:
  48              		.size	chIQGetFullI, .-chIQGetFullI
  49 0008 AFF30080 		.section	.text.chOQGetFullI,"ax",%progbits
  49      AFF30080 
  50              		.align	2
  51              		.p2align 4,,15
  52              		.global	chOQGetFullI
ARM GAS  /tmp/ccm5nllD.s 			page 2


  53              		.thumb
  54              		.thumb_func
  55              		.type	chOQGetFullI, %function
  56              	chOQGetFullI:
  57              	.LFB14:
  58              		.loc 1 269 0
  59              		.cfi_startproc
  60              		@ args = 0, pretend = 0, frame = 0
  61              		@ frame_needed = 0, uses_anonymous_args = 0
  62              		@ link register save eliminated.
  63              	.LVL3:
  64              		.loc 1 272 0
  65 0000 8369     		ldr	r3, [r0, #24]
  66              	.LVL4:
  67              		.loc 1 273 0
  68 0002 002B     		cmp	r3, #0
  69 0004 04DB     		blt	.L10
  70              		.loc 1 275 0
  71 0006 0268     		ldr	r2, [r0, #0]
  72 0008 4068     		ldr	r0, [r0, #4]
  73              	.LVL5:
  74 000a 811A     		subs	r1, r0, r2
  75 000c C81A     		subs	r0, r1, r3
  76              		.loc 1 276 0
  77 000e 7047     		bx	lr
  78              	.LVL6:
  79              	.L10:
  80              		.loc 1 274 0
  81 0010 0368     		ldr	r3, [r0, #0]
  82              	.LVL7:
  83 0012 4068     		ldr	r0, [r0, #4]
  84              	.LVL8:
  85 0014 C01A     		subs	r0, r0, r3
  86 0016 7047     		bx	lr
  87              		.cfi_endproc
  88              	.LFE14:
  89              		.size	chOQGetFullI, .-chOQGetFullI
  90 0018 AFF30080 		.section	.text.chOQWriteTimeout,"ax",%progbits
  90      AFF30080 
  91              		.align	2
  92              		.p2align 4,,15
  93              		.global	chOQWriteTimeout
  94              		.thumb
  95              		.thumb_func
  96              		.type	chOQWriteTimeout, %function
  97              	chOQWriteTimeout:
  98              	.LFB18:
  99              		.loc 1 382 0
 100              		.cfi_startproc
 101              		@ args = 0, pretend = 0, frame = 0
 102              		@ frame_needed = 0, uses_anonymous_args = 0
 103              	.LVL9:
 104 0000 2DE9F84F 		push	{r3, r4, r5, r6, r7, r8, r9, sl, fp, lr}
 105              	.LCFI0:
 106              		.cfi_def_cfa_offset 40
 107              	.LVL10:
 108              		.loc 1 382 0
ARM GAS  /tmp/ccm5nllD.s 			page 3


 109 0004 9B46     		mov	fp, r3
 110              		.cfi_offset 14, -4
 111              		.cfi_offset 11, -8
 112              		.cfi_offset 10, -12
 113              		.cfi_offset 9, -16
 114              		.cfi_offset 8, -20
 115              		.cfi_offset 7, -24
 116              		.cfi_offset 6, -28
 117              		.cfi_offset 5, -32
 118              		.cfi_offset 4, -36
 119              		.cfi_offset 3, -40
 120              	.LVL11:
 121 0006 0446     		mov	r4, r0
 122 0008 0D46     		mov	r5, r1
 123 000a 9046     		mov	r8, r2
 124              		.loc 1 383 0
 125 000c D0F81CA0 		ldr	sl, [r0, #28]
 126              	.LVL12:
 127              	.LBB2:
 128              		.loc 1 388 0
 129 0010 2023     		movs	r3, #32
 130              	.LVL13:
 131              	@ 388 "../../os/kernel/src/chqueues.c" 1
 132 0012 83F31188 		msr     BASEPRI, r3
 133              	@ 0 "" 2
 134              		.thumb
 135              	.LBE2:
 136              		.loc 1 393 0
 137 0016 0026     		movs	r6, #0
 138              	.LVL14:
 139 0018 12F0010F 		tst	r2, #1
 140 001c 00F11009 		add	r9, r0, #16
 141 0020 43D1     		bne	.L19
 142              	.LVL15:
 143              		.loc 1 390 0
 144 0022 8369     		ldr	r3, [r0, #24]
 145              	.LVL16:
 146 0024 002B     		cmp	r3, #0
 147 0026 71DD     		ble	.L34
 148              		.loc 1 399 0
 149 0028 5E1E     		subs	r6, r3, #1
 150              	.LVL17:
 151 002a 8661     		str	r6, [r0, #24]
 152              	.LVL18:
 153              	.L23:
 154              		.loc 1 400 0
 155 002c A368     		ldr	r3, [r4, #8]
 156 002e 95F800C0 		ldrb	ip, [r5, #0]	@ zero_extendqisi2
 157 0032 03F801CB 		strb	ip, [r3], #1
 158              		.loc 1 401 0
 159 0036 6068     		ldr	r0, [r4, #4]
 160              		.loc 1 400 0
 161 0038 A360     		str	r3, [r4, #8]
 162              		.loc 1 401 0
 163 003a 8342     		cmp	r3, r0
 164              		.loc 1 402 0
 165 003c 24BF     		itt	cs
ARM GAS  /tmp/ccm5nllD.s 			page 4


 166 003e 2368     		ldrcs	r3, [r4, #0]
 167 0040 A360     		strcs	r3, [r4, #8]
 168              	.LBB3:
 169              		.loc 1 403 0
 170 0042 0023     		movs	r3, #0
 171              	.LVL19:
 172              	@ 403 "../../os/kernel/src/chqueues.c" 1
 173 0044 83F31188 		msr     BASEPRI, r3
 174              	@ 0 "" 2
 175              		.thumb
 176              	.LBE3:
 177              		.loc 1 404 0
 178 0048 0126     		movs	r6, #1
 179              	.LBB4:
 180              		.loc 1 412 0
 181 004a 2023     		movs	r3, #32
 182              	.LVL20:
 183              	@ 412 "../../os/kernel/src/chqueues.c" 1
 184 004c 83F31188 		msr     BASEPRI, r3
 185              	@ 0 "" 2
 186              		.thumb
 187 0050 2BE0     		b	.L19
 188              	.LVL21:
 189              	.L12:
 190              	.LBE4:
 191              		.loc 1 399 0
 192 0052 013B     		subs	r3, r3, #1
 193 0054 A361     		str	r3, [r4, #24]
 194              	.LVL22:
 195              	.L14:
 196              		.loc 1 400 0
 197 0056 A068     		ldr	r0, [r4, #8]
 198 0058 A95D     		ldrb	r1, [r5, r6]	@ zero_extendqisi2
 199 005a 00F8011B 		strb	r1, [r0], #1
 200              		.loc 1 401 0
 201 005e 6268     		ldr	r2, [r4, #4]
 202              		.loc 1 400 0
 203 0060 A060     		str	r0, [r4, #8]
 204              		.loc 1 401 0
 205 0062 9042     		cmp	r0, r2
 206              		.loc 1 402 0
 207 0064 24BF     		itt	cs
 208 0066 2068     		ldrcs	r0, [r4, #0]
 209 0068 A060     		strcs	r0, [r4, #8]
 210              	.LBB5:
 211              		.loc 1 403 0
 212 006a 0023     		movs	r3, #0
 213              	.LVL23:
 214              	@ 403 "../../os/kernel/src/chqueues.c" 1
 215 006c 83F31188 		msr     BASEPRI, r3
 216              	@ 0 "" 2
 217              		.thumb
 218              	.LBE5:
 219              		.loc 1 404 0
 220 0070 0136     		adds	r6, r6, #1
 221              		.loc 1 405 0
 222 0072 B045     		cmp	r8, r6
ARM GAS  /tmp/ccm5nllD.s 			page 5


 223              		.loc 1 404 0
 224 0074 3746     		mov	r7, r6
 225              		.loc 1 405 0
 226 0076 3BD0     		beq	.L38
 227              	.LBB6:
 228              		.loc 1 412 0
 229 0078 2023     		movs	r3, #32
 230              	.LVL24:
 231              	@ 412 "../../os/kernel/src/chqueues.c" 1
 232 007a 83F31188 		msr     BASEPRI, r3
 233              	@ 0 "" 2
 234              		.thumb
 235              	.LBE6:
 236              		.loc 1 390 0
 237 007e A369     		ldr	r3, [r4, #24]
 238              	.LVL25:
 239 0080 002B     		cmp	r3, #0
 240 0082 26DD     		ble	.L39
 241              		.loc 1 399 0
 242 0084 5A1E     		subs	r2, r3, #1
 243 0086 A261     		str	r2, [r4, #24]
 244              	.L29:
 245              		.loc 1 400 0
 246 0088 A168     		ldr	r1, [r4, #8]
 247 008a EB5D     		ldrb	r3, [r5, r7]	@ zero_extendqisi2
 248 008c 01F8013B 		strb	r3, [r1], #1
 249              		.loc 1 401 0
 250 0090 6668     		ldr	r6, [r4, #4]
 251              	.LVL26:
 252              		.loc 1 400 0
 253 0092 A160     		str	r1, [r4, #8]
 254              		.loc 1 401 0
 255 0094 B142     		cmp	r1, r6
 256              		.loc 1 402 0
 257 0096 24BF     		itt	cs
 258 0098 2168     		ldrcs	r1, [r4, #0]
 259 009a A160     		strcs	r1, [r4, #8]
 260              	.LBB7:
 261              		.loc 1 403 0
 262 009c 0023     		movs	r3, #0
 263              	.LVL27:
 264              	@ 403 "../../os/kernel/src/chqueues.c" 1
 265 009e 83F31188 		msr     BASEPRI, r3
 266              	@ 0 "" 2
 267              		.thumb
 268              	.LBE7:
 269              	.LBB8:
 270              		.loc 1 412 0
 271 00a2 2023     		movs	r3, #32
 272              	.LVL28:
 273              	.LBE8:
 274              		.loc 1 404 0
 275 00a4 7E1C     		adds	r6, r7, #1
 276              	.LVL29:
 277              	.LBB9:
 278              		.loc 1 412 0
 279              	@ 412 "../../os/kernel/src/chqueues.c" 1
ARM GAS  /tmp/ccm5nllD.s 			page 6


 280 00a6 83F31188 		msr     BASEPRI, r3
 281              	@ 0 "" 2
 282              	.LVL30:
 283              		.thumb
 284              	.L19:
 285              	.LBE9:
 286              		.loc 1 390 0
 287 00aa A369     		ldr	r3, [r4, #24]
 288              	.LVL31:
 289 00ac 002B     		cmp	r3, #0
 290 00ae D0DC     		bgt	.L12
 291              	.LVL32:
 292              		.loc 1 391 0
 293 00b0 BAF1000F 		cmp	sl, #0
 294 00b4 01D0     		beq	.L13
 295              		.loc 1 392 0
 296 00b6 2046     		mov	r0, r4
 297 00b8 D047     		blx	sl
 298              	.LVL33:
 299              	.L13:
 300              		.loc 1 393 0
 301 00ba 4846     		mov	r0, r9
 302 00bc 5946     		mov	r1, fp
 303 00be FFF7FEFF 		bl	chSemWaitTimeoutS
 304 00c2 0028     		cmp	r0, #0
 305 00c4 C7D0     		beq	.L14
 306              	.L36:
 307              	.LBB10:
 308              		.loc 1 394 0
 309 00c6 0023     		movs	r3, #0
 310              	.LVL34:
 311              	@ 394 "../../os/kernel/src/chqueues.c" 1
 312 00c8 83F31188 		msr     BASEPRI, r3
 313              	@ 0 "" 2
 314              		.thumb
 315              	.L40:
 316              	.LBE10:
 317              		.loc 1 414 0
 318 00cc 3046     		mov	r0, r6
 319 00ce BDE8F88F 		pop	{r3, r4, r5, r6, r7, r8, r9, sl, fp, pc}
 320              	.LVL35:
 321              	.L39:
 322              		.loc 1 391 0
 323 00d2 BAF1000F 		cmp	sl, #0
 324 00d6 01D0     		beq	.L28
 325              		.loc 1 392 0
 326 00d8 2046     		mov	r0, r4
 327 00da D047     		blx	sl
 328              	.L28:
 329              		.loc 1 393 0
 330 00dc 4846     		mov	r0, r9
 331 00de 5946     		mov	r1, fp
 332 00e0 FFF7FEFF 		bl	chSemWaitTimeoutS
 333 00e4 0028     		cmp	r0, #0
 334 00e6 CFD0     		beq	.L29
 335              	.LBB11:
 336              		.loc 1 394 0
ARM GAS  /tmp/ccm5nllD.s 			page 7


 337 00e8 0023     		movs	r3, #0
 338              	.LVL36:
 339              	@ 394 "../../os/kernel/src/chqueues.c" 1
 340 00ea 83F31188 		msr     BASEPRI, r3
 341              	@ 0 "" 2
 342              		.thumb
 343 00ee EDE7     		b	.L40
 344              	.LVL37:
 345              	.L38:
 346              	.LBE11:
 347              	.LBB12:
 348              		.loc 1 406 0
 349 00f0 2023     		movs	r3, #32
 350              	.LVL38:
 351              	@ 406 "../../os/kernel/src/chqueues.c" 1
 352 00f2 83F31188 		msr     BASEPRI, r3
 353              	@ 0 "" 2
 354              		.thumb
 355              	.LBE12:
 356              		.loc 1 407 0
 357 00f6 BAF1000F 		cmp	sl, #0
 358 00fa 01D0     		beq	.L18
 359              		.loc 1 408 0
 360 00fc 2046     		mov	r0, r4
 361 00fe D047     		blx	sl
 362              	.LVL39:
 363              	.L18:
 364              	.LBB13:
 365              		.loc 1 409 0
 366 0100 0023     		movs	r3, #0
 367              	.LVL40:
 368              	@ 409 "../../os/kernel/src/chqueues.c" 1
 369 0102 83F31188 		msr     BASEPRI, r3
 370              	@ 0 "" 2
 371              		.thumb
 372              	.LBE13:
 373              		.loc 1 414 0
 374 0106 3046     		mov	r0, r6
 375 0108 BDE8F88F 		pop	{r3, r4, r5, r6, r7, r8, r9, sl, fp, pc}
 376              	.LVL41:
 377              	.L34:
 378              		.loc 1 391 0
 379 010c BAF1000F 		cmp	sl, #0
 380 0110 00D0     		beq	.L22
 381              		.loc 1 392 0
 382 0112 D047     		blx	sl
 383              	.LVL42:
 384              	.L22:
 385              		.loc 1 393 0
 386 0114 4846     		mov	r0, r9
 387 0116 5946     		mov	r1, fp
 388 0118 FFF7FEFF 		bl	chSemWaitTimeoutS
 389 011c 0028     		cmp	r0, #0
 390 011e 85D0     		beq	.L23
 391 0120 D1E7     		b	.L36
 392              		.cfi_endproc
 393              	.LFE18:
ARM GAS  /tmp/ccm5nllD.s 			page 8


 394              		.size	chOQWriteTimeout, .-chOQWriteTimeout
 395 0122 00BFAFF3 		.section	.text.chOQPutTimeout,"ax",%progbits
 395      0080AFF3 
 395      0080AFF3 
 395      0080
 396              		.align	2
 397              		.p2align 4,,15
 398              		.global	chOQPutTimeout
 399              		.thumb
 400              		.thumb_func
 401              		.type	chOQPutTimeout, %function
 402              	chOQPutTimeout:
 403              	.LFB16:
 404              		.loc 1 315 0
 405              		.cfi_startproc
 406              		@ args = 0, pretend = 0, frame = 0
 407              		@ frame_needed = 0, uses_anonymous_args = 0
 408              	.LVL43:
 409 0000 38B5     		push	{r3, r4, r5, lr}
 410              	.LCFI1:
 411              		.cfi_def_cfa_offset 16
 412              		.loc 1 315 0
 413 0002 0446     		mov	r4, r0
 414              		.cfi_offset 14, -4
 415              		.cfi_offset 5, -8
 416              		.cfi_offset 4, -12
 417              		.cfi_offset 3, -16
 418 0004 0D46     		mov	r5, r1
 419              	.LBB14:
 420              		.loc 1 318 0
 421 0006 2023     		movs	r3, #32
 422              	.LVL44:
 423              	@ 318 "../../os/kernel/src/chqueues.c" 1
 424 0008 83F31188 		msr     BASEPRI, r3
 425              	@ 0 "" 2
 426              		.thumb
 427              	.LBE14:
 428              		.loc 1 319 0
 429 000c 1146     		mov	r1, r2
 430              	.LVL45:
 431 000e 1030     		adds	r0, r0, #16
 432              	.LVL46:
 433 0010 FFF7FEFF 		bl	chSemWaitTimeoutS
 434              	.LVL47:
 435 0014 0028     		cmp	r0, #0
 436              	.LVL48:
 437 0016 11DB     		blt	.L47
 438              		.loc 1 323 0
 439 0018 A368     		ldr	r3, [r4, #8]
 440 001a 03F8015B 		strb	r5, [r3], #1
 441              		.loc 1 324 0
 442 001e 6268     		ldr	r2, [r4, #4]
 443              		.loc 1 323 0
 444 0020 A360     		str	r3, [r4, #8]
 445              		.loc 1 324 0
 446 0022 9342     		cmp	r3, r2
 447              		.loc 1 325 0
ARM GAS  /tmp/ccm5nllD.s 			page 9


 448 0024 24BF     		itt	cs
 449 0026 2368     		ldrcs	r3, [r4, #0]
 450 0028 A360     		strcs	r3, [r4, #8]
 451              		.loc 1 327 0
 452 002a E369     		ldr	r3, [r4, #28]
 453 002c 0BB1     		cbz	r3, .L45
 454              		.loc 1 328 0
 455 002e 2046     		mov	r0, r4
 456              	.LVL49:
 457 0030 9847     		blx	r3
 458              	.LVL50:
 459              	.L45:
 460              	.LBB15:
 461              		.loc 1 330 0
 462 0032 0023     		movs	r3, #0
 463              	.LVL51:
 464              	@ 330 "../../os/kernel/src/chqueues.c" 1
 465 0034 83F31188 		msr     BASEPRI, r3
 466              	@ 0 "" 2
 467              		.thumb
 468 0038 1846     		mov	r0, r3
 469              	.LVL52:
 470              	.LBE15:
 471              		.loc 1 332 0
 472 003a 38BD     		pop	{r3, r4, r5, pc}
 473              	.LVL53:
 474              	.L47:
 475              	.LBB16:
 476              		.loc 1 320 0
 477 003c 0023     		movs	r3, #0
 478              	.LVL54:
 479              	@ 320 "../../os/kernel/src/chqueues.c" 1
 480 003e 83F31188 		msr     BASEPRI, r3
 481              	@ 0 "" 2
 482              		.thumb
 483              	.LBE16:
 484              		.loc 1 321 0
 485 0042 38BD     		pop	{r3, r4, r5, pc}
 486              		.cfi_endproc
 487              	.LFE16:
 488              		.size	chOQPutTimeout, .-chOQPutTimeout
 489 0044 AFF30080 		.section	.text.chIQReadTimeout,"ax",%progbits
 489      AFF30080 
 489      AFF30080 
 490              		.align	2
 491              		.p2align 4,,15
 492              		.global	chIQReadTimeout
 493              		.thumb
 494              		.thumb_func
 495              		.type	chIQReadTimeout, %function
 496              	chIQReadTimeout:
 497              	.LFB12:
 498              		.loc 1 203 0
 499              		.cfi_startproc
 500              		@ args = 0, pretend = 0, frame = 0
 501              		@ frame_needed = 0, uses_anonymous_args = 0
 502              	.LVL55:
ARM GAS  /tmp/ccm5nllD.s 			page 10


 503 0000 2DE9F84F 		push	{r3, r4, r5, r6, r7, r8, r9, sl, fp, lr}
 504              	.LCFI2:
 505              		.cfi_def_cfa_offset 40
 506              	.LVL56:
 507              		.loc 1 203 0
 508 0004 9B46     		mov	fp, r3
 509              		.cfi_offset 14, -4
 510              		.cfi_offset 11, -8
 511              		.cfi_offset 10, -12
 512              		.cfi_offset 9, -16
 513              		.cfi_offset 8, -20
 514              		.cfi_offset 7, -24
 515              		.cfi_offset 6, -28
 516              		.cfi_offset 5, -32
 517              		.cfi_offset 4, -36
 518              		.cfi_offset 3, -40
 519              	.LVL57:
 520 0006 0446     		mov	r4, r0
 521 0008 0D46     		mov	r5, r1
 522 000a 9046     		mov	r8, r2
 523              		.loc 1 204 0
 524 000c D0F81CA0 		ldr	sl, [r0, #28]
 525              	.LVL58:
 526              	.LBB17:
 527              		.loc 1 209 0
 528 0010 2023     		movs	r3, #32
 529              	.LVL59:
 530              	@ 209 "../../os/kernel/src/chqueues.c" 1
 531 0012 83F31188 		msr     BASEPRI, r3
 532              	@ 0 "" 2
 533              		.thumb
 534              	.LBE17:
 535              		.loc 1 214 0
 536 0016 0026     		movs	r6, #0
 537              	.LVL60:
 538 0018 12F0010F 		tst	r2, #1
 539 001c 00F11009 		add	r9, r0, #16
 540 0020 43D1     		bne	.L56
 541              	.LVL61:
 542              		.loc 1 211 0
 543 0022 8369     		ldr	r3, [r0, #24]
 544              	.LVL62:
 545 0024 002B     		cmp	r3, #0
 546 0026 71DD     		ble	.L71
 547              		.loc 1 220 0
 548 0028 5E1E     		subs	r6, r3, #1
 549              	.LVL63:
 550 002a 8661     		str	r6, [r0, #24]
 551              	.LVL64:
 552              	.L60:
 553              		.loc 1 221 0
 554 002c E368     		ldr	r3, [r4, #12]
 555 002e 13F801CB 		ldrb	ip, [r3], #1	@ zero_extendqisi2
 556 0032 85F800C0 		strb	ip, [r5, #0]
 557              		.loc 1 222 0
 558 0036 6068     		ldr	r0, [r4, #4]
 559              		.loc 1 221 0
ARM GAS  /tmp/ccm5nllD.s 			page 11


 560 0038 E360     		str	r3, [r4, #12]
 561              		.loc 1 222 0
 562 003a 8342     		cmp	r3, r0
 563              		.loc 1 223 0
 564 003c 24BF     		itt	cs
 565 003e 2368     		ldrcs	r3, [r4, #0]
 566 0040 E360     		strcs	r3, [r4, #12]
 567              	.LBB18:
 568              		.loc 1 224 0
 569 0042 0023     		movs	r3, #0
 570              	.LVL65:
 571              	@ 224 "../../os/kernel/src/chqueues.c" 1
 572 0044 83F31188 		msr     BASEPRI, r3
 573              	@ 0 "" 2
 574              		.thumb
 575              	.LBE18:
 576              		.loc 1 225 0
 577 0048 0126     		movs	r6, #1
 578              	.LBB19:
 579              		.loc 1 233 0
 580 004a 2023     		movs	r3, #32
 581              	.LVL66:
 582              	@ 233 "../../os/kernel/src/chqueues.c" 1
 583 004c 83F31188 		msr     BASEPRI, r3
 584              	@ 0 "" 2
 585              		.thumb
 586 0050 2BE0     		b	.L56
 587              	.LVL67:
 588              	.L49:
 589              	.LBE19:
 590              		.loc 1 220 0
 591 0052 013B     		subs	r3, r3, #1
 592 0054 A361     		str	r3, [r4, #24]
 593              	.LVL68:
 594              	.L51:
 595              		.loc 1 221 0
 596 0056 E068     		ldr	r0, [r4, #12]
 597 0058 10F8011B 		ldrb	r1, [r0], #1	@ zero_extendqisi2
 598 005c A955     		strb	r1, [r5, r6]
 599              		.loc 1 222 0
 600 005e 6268     		ldr	r2, [r4, #4]
 601              		.loc 1 221 0
 602 0060 E060     		str	r0, [r4, #12]
 603              		.loc 1 222 0
 604 0062 9042     		cmp	r0, r2
 605              		.loc 1 223 0
 606 0064 24BF     		itt	cs
 607 0066 2068     		ldrcs	r0, [r4, #0]
 608 0068 E060     		strcs	r0, [r4, #12]
 609              	.LBB20:
 610              		.loc 1 224 0
 611 006a 0023     		movs	r3, #0
 612              	.LVL69:
 613              	@ 224 "../../os/kernel/src/chqueues.c" 1
 614 006c 83F31188 		msr     BASEPRI, r3
 615              	@ 0 "" 2
 616              		.thumb
ARM GAS  /tmp/ccm5nllD.s 			page 12


 617              	.LBE20:
 618              		.loc 1 225 0
 619 0070 0136     		adds	r6, r6, #1
 620              		.loc 1 226 0
 621 0072 B045     		cmp	r8, r6
 622              		.loc 1 225 0
 623 0074 3746     		mov	r7, r6
 624              		.loc 1 226 0
 625 0076 3BD0     		beq	.L75
 626              	.LBB21:
 627              		.loc 1 233 0
 628 0078 2023     		movs	r3, #32
 629              	.LVL70:
 630              	@ 233 "../../os/kernel/src/chqueues.c" 1
 631 007a 83F31188 		msr     BASEPRI, r3
 632              	@ 0 "" 2
 633              		.thumb
 634              	.LBE21:
 635              		.loc 1 211 0
 636 007e A369     		ldr	r3, [r4, #24]
 637              	.LVL71:
 638 0080 002B     		cmp	r3, #0
 639 0082 26DD     		ble	.L76
 640              		.loc 1 220 0
 641 0084 5A1E     		subs	r2, r3, #1
 642 0086 A261     		str	r2, [r4, #24]
 643              	.L66:
 644              		.loc 1 221 0
 645 0088 E168     		ldr	r1, [r4, #12]
 646 008a 11F8013B 		ldrb	r3, [r1], #1	@ zero_extendqisi2
 647 008e EB55     		strb	r3, [r5, r7]
 648              		.loc 1 222 0
 649 0090 6668     		ldr	r6, [r4, #4]
 650              	.LVL72:
 651              		.loc 1 221 0
 652 0092 E160     		str	r1, [r4, #12]
 653              		.loc 1 222 0
 654 0094 B142     		cmp	r1, r6
 655              		.loc 1 223 0
 656 0096 24BF     		itt	cs
 657 0098 2168     		ldrcs	r1, [r4, #0]
 658 009a E160     		strcs	r1, [r4, #12]
 659              	.LBB22:
 660              		.loc 1 224 0
 661 009c 0023     		movs	r3, #0
 662              	.LVL73:
 663              	@ 224 "../../os/kernel/src/chqueues.c" 1
 664 009e 83F31188 		msr     BASEPRI, r3
 665              	@ 0 "" 2
 666              		.thumb
 667              	.LBE22:
 668              	.LBB23:
 669              		.loc 1 233 0
 670 00a2 2023     		movs	r3, #32
 671              	.LVL74:
 672              	.LBE23:
 673              		.loc 1 225 0
ARM GAS  /tmp/ccm5nllD.s 			page 13


 674 00a4 7E1C     		adds	r6, r7, #1
 675              	.LVL75:
 676              	.LBB24:
 677              		.loc 1 233 0
 678              	@ 233 "../../os/kernel/src/chqueues.c" 1
 679 00a6 83F31188 		msr     BASEPRI, r3
 680              	@ 0 "" 2
 681              	.LVL76:
 682              		.thumb
 683              	.L56:
 684              	.LBE24:
 685              		.loc 1 211 0
 686 00aa A369     		ldr	r3, [r4, #24]
 687              	.LVL77:
 688 00ac 002B     		cmp	r3, #0
 689 00ae D0DC     		bgt	.L49
 690              	.LVL78:
 691              		.loc 1 212 0
 692 00b0 BAF1000F 		cmp	sl, #0
 693 00b4 01D0     		beq	.L50
 694              		.loc 1 213 0
 695 00b6 2046     		mov	r0, r4
 696 00b8 D047     		blx	sl
 697              	.LVL79:
 698              	.L50:
 699              		.loc 1 214 0
 700 00ba 4846     		mov	r0, r9
 701 00bc 5946     		mov	r1, fp
 702 00be FFF7FEFF 		bl	chSemWaitTimeoutS
 703 00c2 0028     		cmp	r0, #0
 704 00c4 C7D0     		beq	.L51
 705              	.L73:
 706              	.LBB25:
 707              		.loc 1 215 0
 708 00c6 0023     		movs	r3, #0
 709              	.LVL80:
 710              	@ 215 "../../os/kernel/src/chqueues.c" 1
 711 00c8 83F31188 		msr     BASEPRI, r3
 712              	@ 0 "" 2
 713              		.thumb
 714              	.L77:
 715              	.LBE25:
 716              		.loc 1 235 0
 717 00cc 3046     		mov	r0, r6
 718 00ce BDE8F88F 		pop	{r3, r4, r5, r6, r7, r8, r9, sl, fp, pc}
 719              	.LVL81:
 720              	.L76:
 721              		.loc 1 212 0
 722 00d2 BAF1000F 		cmp	sl, #0
 723 00d6 01D0     		beq	.L65
 724              		.loc 1 213 0
 725 00d8 2046     		mov	r0, r4
 726 00da D047     		blx	sl
 727              	.L65:
 728              		.loc 1 214 0
 729 00dc 4846     		mov	r0, r9
 730 00de 5946     		mov	r1, fp
ARM GAS  /tmp/ccm5nllD.s 			page 14


 731 00e0 FFF7FEFF 		bl	chSemWaitTimeoutS
 732 00e4 0028     		cmp	r0, #0
 733 00e6 CFD0     		beq	.L66
 734              	.LBB26:
 735              		.loc 1 215 0
 736 00e8 0023     		movs	r3, #0
 737              	.LVL82:
 738              	@ 215 "../../os/kernel/src/chqueues.c" 1
 739 00ea 83F31188 		msr     BASEPRI, r3
 740              	@ 0 "" 2
 741              		.thumb
 742 00ee EDE7     		b	.L77
 743              	.LVL83:
 744              	.L75:
 745              	.LBE26:
 746              	.LBB27:
 747              		.loc 1 227 0
 748 00f0 2023     		movs	r3, #32
 749              	.LVL84:
 750              	@ 227 "../../os/kernel/src/chqueues.c" 1
 751 00f2 83F31188 		msr     BASEPRI, r3
 752              	@ 0 "" 2
 753              		.thumb
 754              	.LBE27:
 755              		.loc 1 228 0
 756 00f6 BAF1000F 		cmp	sl, #0
 757 00fa 01D0     		beq	.L55
 758              		.loc 1 229 0
 759 00fc 2046     		mov	r0, r4
 760 00fe D047     		blx	sl
 761              	.LVL85:
 762              	.L55:
 763              	.LBB28:
 764              		.loc 1 230 0
 765 0100 0023     		movs	r3, #0
 766              	.LVL86:
 767              	@ 230 "../../os/kernel/src/chqueues.c" 1
 768 0102 83F31188 		msr     BASEPRI, r3
 769              	@ 0 "" 2
 770              		.thumb
 771              	.LBE28:
 772              		.loc 1 235 0
 773 0106 3046     		mov	r0, r6
 774 0108 BDE8F88F 		pop	{r3, r4, r5, r6, r7, r8, r9, sl, fp, pc}
 775              	.LVL87:
 776              	.L71:
 777              		.loc 1 212 0
 778 010c BAF1000F 		cmp	sl, #0
 779 0110 00D0     		beq	.L59
 780              		.loc 1 213 0
 781 0112 D047     		blx	sl
 782              	.LVL88:
 783              	.L59:
 784              		.loc 1 214 0
 785 0114 4846     		mov	r0, r9
 786 0116 5946     		mov	r1, fp
 787 0118 FFF7FEFF 		bl	chSemWaitTimeoutS
ARM GAS  /tmp/ccm5nllD.s 			page 15


 788 011c 0028     		cmp	r0, #0
 789 011e 85D0     		beq	.L60
 790 0120 D1E7     		b	.L73
 791              		.cfi_endproc
 792              	.LFE12:
 793              		.size	chIQReadTimeout, .-chIQReadTimeout
 794 0122 00BFAFF3 		.section	.text.chIQGetTimeout,"ax",%progbits
 794      0080AFF3 
 794      0080AFF3 
 794      0080
 795              		.align	2
 796              		.p2align 4,,15
 797              		.global	chIQGetTimeout
 798              		.thumb
 799              		.thumb_func
 800              		.type	chIQGetTimeout, %function
 801              	chIQGetTimeout:
 802              	.LFB11:
 803              		.loc 1 157 0
 804              		.cfi_startproc
 805              		@ args = 0, pretend = 0, frame = 0
 806              		@ frame_needed = 0, uses_anonymous_args = 0
 807              	.LVL89:
 808 0000 38B5     		push	{r3, r4, r5, lr}
 809              	.LCFI3:
 810              		.cfi_def_cfa_offset 16
 811              		.loc 1 157 0
 812 0002 0D46     		mov	r5, r1
 813              		.cfi_offset 14, -4
 814              		.cfi_offset 5, -8
 815              		.cfi_offset 4, -12
 816              		.cfi_offset 3, -16
 817 0004 0446     		mov	r4, r0
 818              	.LBB29:
 819              		.loc 1 161 0
 820 0006 2023     		movs	r3, #32
 821              	.LVL90:
 822              	@ 161 "../../os/kernel/src/chqueues.c" 1
 823 0008 83F31188 		msr     BASEPRI, r3
 824              	@ 0 "" 2
 825              		.thumb
 826              	.LBE29:
 827              		.loc 1 163 0
 828 000c C369     		ldr	r3, [r0, #28]
 829              	.LVL91:
 830 000e 03B1     		cbz	r3, .L79
 831              	.LVL92:
 832              		.loc 1 164 0
 833 0010 9847     		blx	r3
 834              	.LVL93:
 835              	.L79:
 836              		.loc 1 166 0
 837 0012 2946     		mov	r1, r5
 838 0014 04F11000 		add	r0, r4, #16
 839 0018 FFF7FEFF 		bl	chSemWaitTimeoutS
 840 001c 0028     		cmp	r0, #0
 841              	.LVL94:
ARM GAS  /tmp/ccm5nllD.s 			page 16


 842 001e 0CDB     		blt	.L84
 843              		.loc 1 170 0
 844 0020 E368     		ldr	r3, [r4, #12]
 845              		.loc 1 171 0
 846 0022 6268     		ldr	r2, [r4, #4]
 847              		.loc 1 170 0
 848 0024 13F8010B 		ldrb	r0, [r3], #1	@ zero_extendqisi2
 849              	.LVL95:
 850              		.loc 1 171 0
 851 0028 9342     		cmp	r3, r2
 852              		.loc 1 170 0
 853 002a E360     		str	r3, [r4, #12]
 854              		.loc 1 172 0
 855 002c 24BF     		itt	cs
 856 002e 2368     		ldrcs	r3, [r4, #0]
 857 0030 E360     		strcs	r3, [r4, #12]
 858              	.LBB30:
 859              		.loc 1 174 0
 860 0032 0023     		movs	r3, #0
 861              	.LVL96:
 862              	@ 174 "../../os/kernel/src/chqueues.c" 1
 863 0034 83F31188 		msr     BASEPRI, r3
 864              	@ 0 "" 2
 865              	.LVL97:
 866              		.thumb
 867              	.LBE30:
 868              		.loc 1 176 0
 869 0038 38BD     		pop	{r3, r4, r5, pc}
 870              	.LVL98:
 871              	.L84:
 872              	.LBB31:
 873              		.loc 1 167 0
 874 003a 0023     		movs	r3, #0
 875              	.LVL99:
 876              	@ 167 "../../os/kernel/src/chqueues.c" 1
 877 003c 83F31188 		msr     BASEPRI, r3
 878              	@ 0 "" 2
 879              		.thumb
 880              	.LBE31:
 881              		.loc 1 168 0
 882 0040 38BD     		pop	{r3, r4, r5, pc}
 883              		.cfi_endproc
 884              	.LFE11:
 885              		.size	chIQGetTimeout, .-chIQGetTimeout
 886 0042 00BFAFF3 		.section	.text.chOQGetI,"ax",%progbits
 886      0080AFF3 
 886      0080AFF3 
 886      0080
 887              		.align	2
 888              		.p2align 4,,15
 889              		.global	chOQGetI
 890              		.thumb
 891              		.thumb_func
 892              		.type	chOQGetI, %function
 893              	chOQGetI:
 894              	.LFB17:
 895              		.loc 1 344 0
ARM GAS  /tmp/ccm5nllD.s 			page 17


 896              		.cfi_startproc
 897              		@ args = 0, pretend = 0, frame = 0
 898              		@ frame_needed = 0, uses_anonymous_args = 0
 899              	.LVL100:
 900              		.loc 1 347 0
 901 0000 C368     		ldr	r3, [r0, #12]
 902 0002 8268     		ldr	r2, [r0, #8]
 903              		.loc 1 344 0
 904 0004 10B5     		push	{r4, lr}
 905              	.LCFI4:
 906              		.cfi_def_cfa_offset 8
 907              		.loc 1 347 0
 908 0006 9A42     		cmp	r2, r3
 909 0008 0CD0     		beq	.L90
 910              		.cfi_offset 14, -4
 911              		.cfi_offset 4, -8
 912              	.L86:
 913              		.loc 1 350 0
 914 000a 13F8014B 		ldrb	r4, [r3], #1	@ zero_extendqisi2
 915              	.LVL101:
 916              		.loc 1 351 0
 917 000e 4268     		ldr	r2, [r0, #4]
 918              		.loc 1 350 0
 919 0010 C360     		str	r3, [r0, #12]
 920              		.loc 1 351 0
 921 0012 9342     		cmp	r3, r2
 922              		.loc 1 352 0
 923 0014 24BF     		itt	cs
 924 0016 0368     		ldrcs	r3, [r0, #0]
 925 0018 C360     		strcs	r3, [r0, #12]
 926              		.loc 1 353 0
 927 001a 1030     		adds	r0, r0, #16
 928              	.LVL102:
 929 001c FFF7FEFF 		bl	chSemSignalI
 930              		.loc 1 354 0
 931 0020 2046     		mov	r0, r4
 932              		.loc 1 355 0
 933 0022 10BD     		pop	{r4, pc}
 934              	.LVL103:
 935              	.L90:
 936              		.loc 1 347 0
 937 0024 8169     		ldr	r1, [r0, #24]
 938 0026 0029     		cmp	r1, #0
 939 0028 EFDD     		ble	.L86
 940 002a 6FF00200 		mvn	r0, #2
 941              	.LVL104:
 942 002e 10BD     		pop	{r4, pc}
 943              		.cfi_endproc
 944              	.LFE17:
 945              		.size	chOQGetI, .-chOQGetI
 946              		.section	.text.chIQPutI,"ax",%progbits
 947              		.align	2
 948              		.p2align 4,,15
 949              		.global	chIQPutI
 950              		.thumb
 951              		.thumb_func
 952              		.type	chIQPutI, %function
ARM GAS  /tmp/ccm5nllD.s 			page 18


 953              	chIQPutI:
 954              	.LFB10:
 955              		.loc 1 127 0
 956              		.cfi_startproc
 957              		@ args = 0, pretend = 0, frame = 0
 958              		@ frame_needed = 0, uses_anonymous_args = 0
 959              	.LVL105:
 960 0000 08B5     		push	{r3, lr}
 961              	.LCFI5:
 962              		.cfi_def_cfa_offset 8
 963              		.loc 1 129 0
 964 0002 C268     		ldr	r2, [r0, #12]
 965 0004 8368     		ldr	r3, [r0, #8]
 966              		.cfi_offset 14, -4
 967              		.cfi_offset 3, -8
 968 0006 9342     		cmp	r3, r2
 969 0008 0CD0     		beq	.L96
 970              	.L92:
 971              		.loc 1 132 0
 972 000a 03F8011B 		strb	r1, [r3], #1
 973              		.loc 1 133 0
 974 000e 4168     		ldr	r1, [r0, #4]
 975              	.LVL106:
 976              		.loc 1 132 0
 977 0010 8360     		str	r3, [r0, #8]
 978              		.loc 1 133 0
 979 0012 8B42     		cmp	r3, r1
 980              		.loc 1 134 0
 981 0014 24BF     		itt	cs
 982 0016 0368     		ldrcs	r3, [r0, #0]
 983 0018 8360     		strcs	r3, [r0, #8]
 984              		.loc 1 135 0
 985 001a 1030     		adds	r0, r0, #16
 986              	.LVL107:
 987 001c FFF7FEFF 		bl	chSemSignalI
 988 0020 0020     		movs	r0, #0
 989              		.loc 1 137 0
 990 0022 08BD     		pop	{r3, pc}
 991              	.LVL108:
 992              	.L96:
 993              		.loc 1 129 0
 994 0024 8269     		ldr	r2, [r0, #24]
 995 0026 002A     		cmp	r2, #0
 996 0028 EFDD     		ble	.L92
 997 002a 6FF00300 		mvn	r0, #3
 998              	.LVL109:
 999 002e 08BD     		pop	{r3, pc}
 1000              		.cfi_endproc
 1001              	.LFE10:
 1002              		.size	chIQPutI, .-chIQPutI
 1003              		.section	.text.chOQResetI,"ax",%progbits
 1004              		.align	2
 1005              		.p2align 4,,15
 1006              		.global	chOQResetI
 1007              		.thumb
 1008              		.thumb_func
 1009              		.type	chOQResetI, %function
ARM GAS  /tmp/ccm5nllD.s 			page 19


 1010              	chOQResetI:
 1011              	.LFB15:
 1012              		.loc 1 289 0
 1013              		.cfi_startproc
 1014              		@ args = 0, pretend = 0, frame = 0
 1015              		@ frame_needed = 0, uses_anonymous_args = 0
 1016              		@ link register save eliminated.
 1017              	.LVL110:
 1018              		.loc 1 291 0
 1019 0000 0368     		ldr	r3, [r0, #0]
 1020              		.loc 1 292 0
 1021 0002 4168     		ldr	r1, [r0, #4]
 1022              		.loc 1 291 0
 1023 0004 8360     		str	r3, [r0, #8]
 1024 0006 C360     		str	r3, [r0, #12]
 1025              		.loc 1 292 0
 1026 0008 C91A     		subs	r1, r1, r3
 1027 000a 1030     		adds	r0, r0, #16
 1028              	.LVL111:
 1029              		.loc 1 293 0
 1030              		.loc 1 292 0
 1031 000c FFF7FEBF 		b	chSemResetI
 1032              		.cfi_endproc
 1033              	.LFE15:
 1034              		.size	chOQResetI, .-chOQResetI
 1035              		.section	.text.chIQResetI,"ax",%progbits
 1036              		.align	2
 1037              		.p2align 4,,15
 1038              		.global	chIQResetI
 1039              		.thumb
 1040              		.thumb_func
 1041              		.type	chIQResetI, %function
 1042              	chIQResetI:
 1043              	.LFB9:
 1044              		.loc 1 108 0
 1045              		.cfi_startproc
 1046              		@ args = 0, pretend = 0, frame = 0
 1047              		@ frame_needed = 0, uses_anonymous_args = 0
 1048              		@ link register save eliminated.
 1049              	.LVL112:
 1050              		.loc 1 110 0
 1051 0000 0268     		ldr	r2, [r0, #0]
 1052              		.loc 1 108 0
 1053 0002 0346     		mov	r3, r0
 1054              		.loc 1 111 0
 1055 0004 0021     		movs	r1, #0
 1056 0006 1030     		adds	r0, r0, #16
 1057              	.LVL113:
 1058              		.loc 1 110 0
 1059 0008 DA60     		str	r2, [r3, #12]
 1060 000a 9A60     		str	r2, [r3, #8]
 1061              		.loc 1 112 0
 1062              		.loc 1 111 0
 1063 000c FFF7FEBF 		b	chSemResetI
 1064              	.LVL114:
 1065              		.cfi_endproc
 1066              	.LFE9:
ARM GAS  /tmp/ccm5nllD.s 			page 20


 1067              		.size	chIQResetI, .-chIQResetI
 1068              		.section	.text.chOQInit,"ax",%progbits
 1069              		.align	2
 1070              		.p2align 4,,15
 1071              		.global	chOQInit
 1072              		.thumb
 1073              		.thumb_func
 1074              		.type	chOQInit, %function
 1075              	chOQInit:
 1076              	.LFB13:
 1077              		.loc 1 252 0
 1078              		.cfi_startproc
 1079              		@ args = 0, pretend = 0, frame = 0
 1080              		@ frame_needed = 0, uses_anonymous_args = 0
 1081              		@ link register save eliminated.
 1082              	.LVL115:
 1083 0000 10B4     		push	{r4}
 1084              	.LCFI6:
 1085              		.cfi_def_cfa_offset 4
 1086              		.loc 1 255 0
 1087 0002 8C18     		adds	r4, r1, r2
 1088              		.cfi_offset 4, -4
 1089              		.loc 1 254 0
 1090 0004 8160     		str	r1, [r0, #8]
 1091 0006 C160     		str	r1, [r0, #12]
 1092 0008 0160     		str	r1, [r0, #0]
 1093              		.loc 1 255 0
 1094 000a 4460     		str	r4, [r0, #4]
 1095              		.loc 1 256 0
 1096 000c C361     		str	r3, [r0, #28]
 1097              		.loc 1 257 0
 1098 000e 1146     		mov	r1, r2
 1099              	.LVL116:
 1100 0010 1030     		adds	r0, r0, #16
 1101              	.LVL117:
 1102              		.loc 1 258 0
 1103 0012 10BC     		pop	{r4}
 1104              		.loc 1 257 0
 1105 0014 FFF7FEBF 		b	chSemInit
 1106              	.LVL118:
 1107              		.cfi_endproc
 1108              	.LFE13:
 1109              		.size	chOQInit, .-chOQInit
 1110 0018 AFF30080 		.section	.text.chIQInit,"ax",%progbits
 1110      AFF30080 
 1111              		.align	2
 1112              		.p2align 4,,15
 1113              		.global	chIQInit
 1114              		.thumb
 1115              		.thumb_func
 1116              		.type	chIQInit, %function
 1117              	chIQInit:
 1118              	.LFB7:
 1119              		.loc 1 71 0
 1120              		.cfi_startproc
 1121              		@ args = 0, pretend = 0, frame = 0
 1122              		@ frame_needed = 0, uses_anonymous_args = 0
ARM GAS  /tmp/ccm5nllD.s 			page 21


 1123              		@ link register save eliminated.
 1124              	.LVL119:
 1125              		.loc 1 74 0
 1126 0000 8A18     		adds	r2, r1, r2
 1127              	.LVL120:
 1128              		.loc 1 73 0
 1129 0002 8160     		str	r1, [r0, #8]
 1130 0004 C160     		str	r1, [r0, #12]
 1131 0006 0160     		str	r1, [r0, #0]
 1132              		.loc 1 74 0
 1133 0008 4260     		str	r2, [r0, #4]
 1134              		.loc 1 75 0
 1135 000a C361     		str	r3, [r0, #28]
 1136              		.loc 1 76 0
 1137 000c 0021     		movs	r1, #0
 1138              	.LVL121:
 1139 000e 1030     		adds	r0, r0, #16
 1140              	.LVL122:
 1141              		.loc 1 77 0
 1142              		.loc 1 76 0
 1143 0010 FFF7FEBF 		b	chSemInit
 1144              	.LVL123:
 1145              		.cfi_endproc
 1146              	.LFE7:
 1147              		.size	chIQInit, .-chIQInit
 1148 0014 AFF30080 		.text
 1148      AFF30080 
 1148      AFF30080 
 1149              	.Letext0:
 1150              		.section	.debug_loc,"",%progbits
 1151              	.Ldebug_loc0:
 1152              	.LLST1:
 1153 0000 00000000 		.4byte	.LVL0
 1154 0004 02000000 		.4byte	.LVL1
 1155 0008 0100     		.2byte	0x1
 1156 000a 50       		.byte	0x50
 1157 000b 00000000 		.4byte	0x0
 1158 000f 00000000 		.4byte	0x0
 1159              	.LLST2:
 1160 0013 02000000 		.4byte	.LVL1
 1161 0017 06000000 		.4byte	.LVL2
 1162 001b 0100     		.2byte	0x1
 1163 001d 50       		.byte	0x50
 1164 001e 00000000 		.4byte	0x0
 1165 0022 00000000 		.4byte	0x0
 1166              	.LLST4:
 1167 0026 00000000 		.4byte	.LVL3
 1168 002a 0A000000 		.4byte	.LVL5
 1169 002e 0100     		.2byte	0x1
 1170 0030 50       		.byte	0x50
 1171 0031 10000000 		.4byte	.LVL6
 1172 0035 14000000 		.4byte	.LVL8
 1173 0039 0100     		.2byte	0x1
 1174 003b 50       		.byte	0x50
 1175 003c 00000000 		.4byte	0x0
 1176 0040 00000000 		.4byte	0x0
 1177              	.LLST5:
ARM GAS  /tmp/ccm5nllD.s 			page 22


 1178 0044 02000000 		.4byte	.LVL4
 1179 0048 12000000 		.4byte	.LVL7
 1180 004c 0100     		.2byte	0x1
 1181 004e 53       		.byte	0x53
 1182 004f 00000000 		.4byte	0x0
 1183 0053 00000000 		.4byte	0x0
 1184              	.LLST6:
 1185 0057 00000000 		.4byte	.LFB18
 1186 005b 04000000 		.4byte	.LCFI0
 1187 005f 0100     		.2byte	0x1
 1188 0061 5D       		.byte	0x5d
 1189 0062 04000000 		.4byte	.LCFI0
 1190 0066 22010000 		.4byte	.LFE18
 1191 006a 0200     		.2byte	0x2
 1192 006c 7D       		.byte	0x7d
 1193 006d 28       		.sleb128 40
 1194 006e 00000000 		.4byte	0x0
 1195 0072 00000000 		.4byte	0x0
 1196              	.LLST7:
 1197 0076 00000000 		.4byte	.LVL9
 1198 007a 2C000000 		.4byte	.LVL18
 1199 007e 0100     		.2byte	0x1
 1200 0080 50       		.byte	0x50
 1201 0081 2C000000 		.4byte	.LVL18
 1202 0085 0C010000 		.4byte	.LVL41
 1203 0089 0100     		.2byte	0x1
 1204 008b 54       		.byte	0x54
 1205 008c 0C010000 		.4byte	.LVL41
 1206 0090 14010000 		.4byte	.LVL42
 1207 0094 0100     		.2byte	0x1
 1208 0096 50       		.byte	0x50
 1209 0097 14010000 		.4byte	.LVL42
 1210 009b 22010000 		.4byte	.LFE18
 1211 009f 0100     		.2byte	0x1
 1212 00a1 54       		.byte	0x54
 1213 00a2 00000000 		.4byte	0x0
 1214 00a6 00000000 		.4byte	0x0
 1215              	.LLST8:
 1216 00aa 00000000 		.4byte	.LVL9
 1217 00ae 22000000 		.4byte	.LVL15
 1218 00b2 0100     		.2byte	0x1
 1219 00b4 51       		.byte	0x51
 1220 00b5 22000000 		.4byte	.LVL15
 1221 00b9 22010000 		.4byte	.LFE18
 1222 00bd 0100     		.2byte	0x1
 1223 00bf 55       		.byte	0x55
 1224 00c0 00000000 		.4byte	0x0
 1225 00c4 00000000 		.4byte	0x0
 1226              	.LLST9:
 1227 00c8 00000000 		.4byte	.LVL9
 1228 00cc 2C000000 		.4byte	.LVL18
 1229 00d0 0100     		.2byte	0x1
 1230 00d2 52       		.byte	0x52
 1231 00d3 2C000000 		.4byte	.LVL18
 1232 00d7 52000000 		.4byte	.LVL21
 1233 00db 0100     		.2byte	0x1
 1234 00dd 58       		.byte	0x58
ARM GAS  /tmp/ccm5nllD.s 			page 23


 1235 00de 52000000 		.4byte	.LVL21
 1236 00e2 56000000 		.4byte	.LVL22
 1237 00e6 0100     		.2byte	0x1
 1238 00e8 52       		.byte	0x52
 1239 00e9 56000000 		.4byte	.LVL22
 1240 00ed B0000000 		.4byte	.LVL32
 1241 00f1 0100     		.2byte	0x1
 1242 00f3 58       		.byte	0x58
 1243 00f4 B0000000 		.4byte	.LVL32
 1244 00f8 BA000000 		.4byte	.LVL33
 1245 00fc 0100     		.2byte	0x1
 1246 00fe 52       		.byte	0x52
 1247 00ff BA000000 		.4byte	.LVL33
 1248 0103 0C010000 		.4byte	.LVL41
 1249 0107 0100     		.2byte	0x1
 1250 0109 58       		.byte	0x58
 1251 010a 0C010000 		.4byte	.LVL41
 1252 010e 14010000 		.4byte	.LVL42
 1253 0112 0100     		.2byte	0x1
 1254 0114 52       		.byte	0x52
 1255 0115 14010000 		.4byte	.LVL42
 1256 0119 22010000 		.4byte	.LFE18
 1257 011d 0100     		.2byte	0x1
 1258 011f 58       		.byte	0x58
 1259 0120 00000000 		.4byte	0x0
 1260 0124 00000000 		.4byte	0x0
 1261              	.LLST10:
 1262 0128 00000000 		.4byte	.LVL9
 1263 012c 04000000 		.4byte	.LVL10
 1264 0130 0100     		.2byte	0x1
 1265 0132 53       		.byte	0x53
 1266 0133 06000000 		.4byte	.LVL11
 1267 0137 12000000 		.4byte	.LVL13
 1268 013b 0100     		.2byte	0x1
 1269 013d 53       		.byte	0x53
 1270 013e 12000000 		.4byte	.LVL13
 1271 0142 22010000 		.4byte	.LFE18
 1272 0146 0100     		.2byte	0x1
 1273 0148 5B       		.byte	0x5b
 1274 0149 00000000 		.4byte	0x0
 1275 014d 00000000 		.4byte	0x0
 1276              	.LLST11:
 1277 0151 18000000 		.4byte	.LVL14
 1278 0155 2A000000 		.4byte	.LVL17
 1279 0159 0100     		.2byte	0x1
 1280 015b 56       		.byte	0x56
 1281 015c 2C000000 		.4byte	.LVL18
 1282 0160 92000000 		.4byte	.LVL26
 1283 0164 0100     		.2byte	0x1
 1284 0166 56       		.byte	0x56
 1285 0167 A6000000 		.4byte	.LVL29
 1286 016b 22010000 		.4byte	.LFE18
 1287 016f 0100     		.2byte	0x1
 1288 0171 56       		.byte	0x56
 1289 0172 00000000 		.4byte	0x0
 1290 0176 00000000 		.4byte	0x0
 1291              	.LLST12:
ARM GAS  /tmp/ccm5nllD.s 			page 24


 1292 017a 12000000 		.4byte	.LVL13
 1293 017e 24000000 		.4byte	.LVL16
 1294 0182 0100     		.2byte	0x1
 1295 0184 53       		.byte	0x53
 1296 0185 AA000000 		.4byte	.LVL30
 1297 0189 AC000000 		.4byte	.LVL31
 1298 018d 0100     		.2byte	0x1
 1299 018f 53       		.byte	0x53
 1300 0190 00000000 		.4byte	0x0
 1301 0194 00000000 		.4byte	0x0
 1302              	.LLST13:
 1303 0198 44000000 		.4byte	.LVL19
 1304 019c 4C000000 		.4byte	.LVL20
 1305 01a0 0100     		.2byte	0x1
 1306 01a2 53       		.byte	0x53
 1307 01a3 6C000000 		.4byte	.LVL23
 1308 01a7 7A000000 		.4byte	.LVL24
 1309 01ab 0100     		.2byte	0x1
 1310 01ad 53       		.byte	0x53
 1311 01ae 9E000000 		.4byte	.LVL27
 1312 01b2 A4000000 		.4byte	.LVL28
 1313 01b6 0100     		.2byte	0x1
 1314 01b8 53       		.byte	0x53
 1315 01b9 F0000000 		.4byte	.LVL37
 1316 01bd F2000000 		.4byte	.LVL38
 1317 01c1 0100     		.2byte	0x1
 1318 01c3 53       		.byte	0x53
 1319 01c4 00000000 		.4byte	0x0
 1320 01c8 00000000 		.4byte	0x0
 1321              	.LLST14:
 1322 01cc 4C000000 		.4byte	.LVL20
 1323 01d0 52000000 		.4byte	.LVL21
 1324 01d4 0100     		.2byte	0x1
 1325 01d6 53       		.byte	0x53
 1326 01d7 7A000000 		.4byte	.LVL24
 1327 01db 80000000 		.4byte	.LVL25
 1328 01df 0100     		.2byte	0x1
 1329 01e1 53       		.byte	0x53
 1330 01e2 A4000000 		.4byte	.LVL28
 1331 01e6 AC000000 		.4byte	.LVL31
 1332 01ea 0100     		.2byte	0x1
 1333 01ec 53       		.byte	0x53
 1334 01ed 00000000 		.4byte	0x0
 1335 01f1 00000000 		.4byte	0x0
 1336              	.LLST15:
 1337 01f5 C8000000 		.4byte	.LVL34
 1338 01f9 D2000000 		.4byte	.LVL35
 1339 01fd 0100     		.2byte	0x1
 1340 01ff 53       		.byte	0x53
 1341 0200 EA000000 		.4byte	.LVL36
 1342 0204 F0000000 		.4byte	.LVL37
 1343 0208 0100     		.2byte	0x1
 1344 020a 53       		.byte	0x53
 1345 020b 00000000 		.4byte	0x0
 1346 020f 00000000 		.4byte	0x0
 1347              	.LLST16:
 1348 0213 F2000000 		.4byte	.LVL38
ARM GAS  /tmp/ccm5nllD.s 			page 25


 1349 0217 00010000 		.4byte	.LVL39
 1350 021b 0100     		.2byte	0x1
 1351 021d 53       		.byte	0x53
 1352 021e 00010000 		.4byte	.LVL39
 1353 0222 02010000 		.4byte	.LVL40
 1354 0226 0100     		.2byte	0x1
 1355 0228 53       		.byte	0x53
 1356 0229 00000000 		.4byte	0x0
 1357 022d 00000000 		.4byte	0x0
 1358              	.LLST17:
 1359 0231 02010000 		.4byte	.LVL40
 1360 0235 0C010000 		.4byte	.LVL41
 1361 0239 0100     		.2byte	0x1
 1362 023b 53       		.byte	0x53
 1363 023c 00000000 		.4byte	0x0
 1364 0240 00000000 		.4byte	0x0
 1365              	.LLST18:
 1366 0244 00000000 		.4byte	.LFB16
 1367 0248 02000000 		.4byte	.LCFI1
 1368 024c 0100     		.2byte	0x1
 1369 024e 5D       		.byte	0x5d
 1370 024f 02000000 		.4byte	.LCFI1
 1371 0253 44000000 		.4byte	.LFE16
 1372 0257 0200     		.2byte	0x2
 1373 0259 7D       		.byte	0x7d
 1374 025a 10       		.sleb128 16
 1375 025b 00000000 		.4byte	0x0
 1376 025f 00000000 		.4byte	0x0
 1377              	.LLST19:
 1378 0263 00000000 		.4byte	.LVL43
 1379 0267 10000000 		.4byte	.LVL46
 1380 026b 0100     		.2byte	0x1
 1381 026d 50       		.byte	0x50
 1382 026e 10000000 		.4byte	.LVL46
 1383 0272 44000000 		.4byte	.LFE16
 1384 0276 0100     		.2byte	0x1
 1385 0278 54       		.byte	0x54
 1386 0279 00000000 		.4byte	0x0
 1387 027d 00000000 		.4byte	0x0
 1388              	.LLST20:
 1389 0281 00000000 		.4byte	.LVL43
 1390 0285 0E000000 		.4byte	.LVL45
 1391 0289 0100     		.2byte	0x1
 1392 028b 51       		.byte	0x51
 1393 028c 0E000000 		.4byte	.LVL45
 1394 0290 44000000 		.4byte	.LFE16
 1395 0294 0100     		.2byte	0x1
 1396 0296 55       		.byte	0x55
 1397 0297 00000000 		.4byte	0x0
 1398 029b 00000000 		.4byte	0x0
 1399              	.LLST21:
 1400 029f 00000000 		.4byte	.LVL43
 1401 02a3 14000000 		.4byte	.LVL47
 1402 02a7 0100     		.2byte	0x1
 1403 02a9 52       		.byte	0x52
 1404 02aa 00000000 		.4byte	0x0
 1405 02ae 00000000 		.4byte	0x0
ARM GAS  /tmp/ccm5nllD.s 			page 26


 1406              	.LLST22:
 1407 02b2 16000000 		.4byte	.LVL48
 1408 02b6 30000000 		.4byte	.LVL49
 1409 02ba 0100     		.2byte	0x1
 1410 02bc 50       		.byte	0x50
 1411 02bd 32000000 		.4byte	.LVL50
 1412 02c1 3A000000 		.4byte	.LVL52
 1413 02c5 0100     		.2byte	0x1
 1414 02c7 50       		.byte	0x50
 1415 02c8 3C000000 		.4byte	.LVL53
 1416 02cc 44000000 		.4byte	.LFE16
 1417 02d0 0100     		.2byte	0x1
 1418 02d2 50       		.byte	0x50
 1419 02d3 00000000 		.4byte	0x0
 1420 02d7 00000000 		.4byte	0x0
 1421              	.LLST23:
 1422 02db 08000000 		.4byte	.LVL44
 1423 02df 14000000 		.4byte	.LVL47
 1424 02e3 0100     		.2byte	0x1
 1425 02e5 53       		.byte	0x53
 1426 02e6 00000000 		.4byte	0x0
 1427 02ea 00000000 		.4byte	0x0
 1428              	.LLST24:
 1429 02ee 34000000 		.4byte	.LVL51
 1430 02f2 3C000000 		.4byte	.LVL53
 1431 02f6 0100     		.2byte	0x1
 1432 02f8 53       		.byte	0x53
 1433 02f9 00000000 		.4byte	0x0
 1434 02fd 00000000 		.4byte	0x0
 1435              	.LLST25:
 1436 0301 00000000 		.4byte	.LFB12
 1437 0305 04000000 		.4byte	.LCFI2
 1438 0309 0100     		.2byte	0x1
 1439 030b 5D       		.byte	0x5d
 1440 030c 04000000 		.4byte	.LCFI2
 1441 0310 22010000 		.4byte	.LFE12
 1442 0314 0200     		.2byte	0x2
 1443 0316 7D       		.byte	0x7d
 1444 0317 28       		.sleb128 40
 1445 0318 00000000 		.4byte	0x0
 1446 031c 00000000 		.4byte	0x0
 1447              	.LLST26:
 1448 0320 00000000 		.4byte	.LVL55
 1449 0324 2C000000 		.4byte	.LVL64
 1450 0328 0100     		.2byte	0x1
 1451 032a 50       		.byte	0x50
 1452 032b 2C000000 		.4byte	.LVL64
 1453 032f 0C010000 		.4byte	.LVL87
 1454 0333 0100     		.2byte	0x1
 1455 0335 54       		.byte	0x54
 1456 0336 0C010000 		.4byte	.LVL87
 1457 033a 14010000 		.4byte	.LVL88
 1458 033e 0100     		.2byte	0x1
 1459 0340 50       		.byte	0x50
 1460 0341 14010000 		.4byte	.LVL88
 1461 0345 22010000 		.4byte	.LFE12
 1462 0349 0100     		.2byte	0x1
ARM GAS  /tmp/ccm5nllD.s 			page 27


 1463 034b 54       		.byte	0x54
 1464 034c 00000000 		.4byte	0x0
 1465 0350 00000000 		.4byte	0x0
 1466              	.LLST27:
 1467 0354 00000000 		.4byte	.LVL55
 1468 0358 22000000 		.4byte	.LVL61
 1469 035c 0100     		.2byte	0x1
 1470 035e 51       		.byte	0x51
 1471 035f 22000000 		.4byte	.LVL61
 1472 0363 22010000 		.4byte	.LFE12
 1473 0367 0100     		.2byte	0x1
 1474 0369 55       		.byte	0x55
 1475 036a 00000000 		.4byte	0x0
 1476 036e 00000000 		.4byte	0x0
 1477              	.LLST28:
 1478 0372 00000000 		.4byte	.LVL55
 1479 0376 2C000000 		.4byte	.LVL64
 1480 037a 0100     		.2byte	0x1
 1481 037c 52       		.byte	0x52
 1482 037d 2C000000 		.4byte	.LVL64
 1483 0381 52000000 		.4byte	.LVL67
 1484 0385 0100     		.2byte	0x1
 1485 0387 58       		.byte	0x58
 1486 0388 52000000 		.4byte	.LVL67
 1487 038c 56000000 		.4byte	.LVL68
 1488 0390 0100     		.2byte	0x1
 1489 0392 52       		.byte	0x52
 1490 0393 56000000 		.4byte	.LVL68
 1491 0397 B0000000 		.4byte	.LVL78
 1492 039b 0100     		.2byte	0x1
 1493 039d 58       		.byte	0x58
 1494 039e B0000000 		.4byte	.LVL78
 1495 03a2 BA000000 		.4byte	.LVL79
 1496 03a6 0100     		.2byte	0x1
 1497 03a8 52       		.byte	0x52
 1498 03a9 BA000000 		.4byte	.LVL79
 1499 03ad 0C010000 		.4byte	.LVL87
 1500 03b1 0100     		.2byte	0x1
 1501 03b3 58       		.byte	0x58
 1502 03b4 0C010000 		.4byte	.LVL87
 1503 03b8 14010000 		.4byte	.LVL88
 1504 03bc 0100     		.2byte	0x1
 1505 03be 52       		.byte	0x52
 1506 03bf 14010000 		.4byte	.LVL88
 1507 03c3 22010000 		.4byte	.LFE12
 1508 03c7 0100     		.2byte	0x1
 1509 03c9 58       		.byte	0x58
 1510 03ca 00000000 		.4byte	0x0
 1511 03ce 00000000 		.4byte	0x0
 1512              	.LLST29:
 1513 03d2 00000000 		.4byte	.LVL55
 1514 03d6 04000000 		.4byte	.LVL56
 1515 03da 0100     		.2byte	0x1
 1516 03dc 53       		.byte	0x53
 1517 03dd 06000000 		.4byte	.LVL57
 1518 03e1 12000000 		.4byte	.LVL59
 1519 03e5 0100     		.2byte	0x1
ARM GAS  /tmp/ccm5nllD.s 			page 28


 1520 03e7 53       		.byte	0x53
 1521 03e8 12000000 		.4byte	.LVL59
 1522 03ec 22010000 		.4byte	.LFE12
 1523 03f0 0100     		.2byte	0x1
 1524 03f2 5B       		.byte	0x5b
 1525 03f3 00000000 		.4byte	0x0
 1526 03f7 00000000 		.4byte	0x0
 1527              	.LLST30:
 1528 03fb 18000000 		.4byte	.LVL60
 1529 03ff 2A000000 		.4byte	.LVL63
 1530 0403 0100     		.2byte	0x1
 1531 0405 56       		.byte	0x56
 1532 0406 2C000000 		.4byte	.LVL64
 1533 040a 92000000 		.4byte	.LVL72
 1534 040e 0100     		.2byte	0x1
 1535 0410 56       		.byte	0x56
 1536 0411 A6000000 		.4byte	.LVL75
 1537 0415 22010000 		.4byte	.LFE12
 1538 0419 0100     		.2byte	0x1
 1539 041b 56       		.byte	0x56
 1540 041c 00000000 		.4byte	0x0
 1541 0420 00000000 		.4byte	0x0
 1542              	.LLST31:
 1543 0424 12000000 		.4byte	.LVL59
 1544 0428 24000000 		.4byte	.LVL62
 1545 042c 0100     		.2byte	0x1
 1546 042e 53       		.byte	0x53
 1547 042f AA000000 		.4byte	.LVL76
 1548 0433 AC000000 		.4byte	.LVL77
 1549 0437 0100     		.2byte	0x1
 1550 0439 53       		.byte	0x53
 1551 043a 00000000 		.4byte	0x0
 1552 043e 00000000 		.4byte	0x0
 1553              	.LLST32:
 1554 0442 44000000 		.4byte	.LVL65
 1555 0446 4C000000 		.4byte	.LVL66
 1556 044a 0100     		.2byte	0x1
 1557 044c 53       		.byte	0x53
 1558 044d 6C000000 		.4byte	.LVL69
 1559 0451 7A000000 		.4byte	.LVL70
 1560 0455 0100     		.2byte	0x1
 1561 0457 53       		.byte	0x53
 1562 0458 9E000000 		.4byte	.LVL73
 1563 045c A4000000 		.4byte	.LVL74
 1564 0460 0100     		.2byte	0x1
 1565 0462 53       		.byte	0x53
 1566 0463 F0000000 		.4byte	.LVL83
 1567 0467 F2000000 		.4byte	.LVL84
 1568 046b 0100     		.2byte	0x1
 1569 046d 53       		.byte	0x53
 1570 046e 00000000 		.4byte	0x0
 1571 0472 00000000 		.4byte	0x0
 1572              	.LLST33:
 1573 0476 4C000000 		.4byte	.LVL66
 1574 047a 52000000 		.4byte	.LVL67
 1575 047e 0100     		.2byte	0x1
 1576 0480 53       		.byte	0x53
ARM GAS  /tmp/ccm5nllD.s 			page 29


 1577 0481 7A000000 		.4byte	.LVL70
 1578 0485 80000000 		.4byte	.LVL71
 1579 0489 0100     		.2byte	0x1
 1580 048b 53       		.byte	0x53
 1581 048c A4000000 		.4byte	.LVL74
 1582 0490 AC000000 		.4byte	.LVL77
 1583 0494 0100     		.2byte	0x1
 1584 0496 53       		.byte	0x53
 1585 0497 00000000 		.4byte	0x0
 1586 049b 00000000 		.4byte	0x0
 1587              	.LLST34:
 1588 049f C8000000 		.4byte	.LVL80
 1589 04a3 D2000000 		.4byte	.LVL81
 1590 04a7 0100     		.2byte	0x1
 1591 04a9 53       		.byte	0x53
 1592 04aa EA000000 		.4byte	.LVL82
 1593 04ae F0000000 		.4byte	.LVL83
 1594 04b2 0100     		.2byte	0x1
 1595 04b4 53       		.byte	0x53
 1596 04b5 00000000 		.4byte	0x0
 1597 04b9 00000000 		.4byte	0x0
 1598              	.LLST35:
 1599 04bd F2000000 		.4byte	.LVL84
 1600 04c1 00010000 		.4byte	.LVL85
 1601 04c5 0100     		.2byte	0x1
 1602 04c7 53       		.byte	0x53
 1603 04c8 00010000 		.4byte	.LVL85
 1604 04cc 02010000 		.4byte	.LVL86
 1605 04d0 0100     		.2byte	0x1
 1606 04d2 53       		.byte	0x53
 1607 04d3 00000000 		.4byte	0x0
 1608 04d7 00000000 		.4byte	0x0
 1609              	.LLST36:
 1610 04db 02010000 		.4byte	.LVL86
 1611 04df 0C010000 		.4byte	.LVL87
 1612 04e3 0100     		.2byte	0x1
 1613 04e5 53       		.byte	0x53
 1614 04e6 00000000 		.4byte	0x0
 1615 04ea 00000000 		.4byte	0x0
 1616              	.LLST37:
 1617 04ee 00000000 		.4byte	.LFB11
 1618 04f2 02000000 		.4byte	.LCFI3
 1619 04f6 0100     		.2byte	0x1
 1620 04f8 5D       		.byte	0x5d
 1621 04f9 02000000 		.4byte	.LCFI3
 1622 04fd 42000000 		.4byte	.LFE11
 1623 0501 0200     		.2byte	0x2
 1624 0503 7D       		.byte	0x7d
 1625 0504 10       		.sleb128 16
 1626 0505 00000000 		.4byte	0x0
 1627 0509 00000000 		.4byte	0x0
 1628              	.LLST38:
 1629 050d 00000000 		.4byte	.LVL89
 1630 0511 12000000 		.4byte	.LVL93
 1631 0515 0100     		.2byte	0x1
 1632 0517 50       		.byte	0x50
 1633 0518 12000000 		.4byte	.LVL93
ARM GAS  /tmp/ccm5nllD.s 			page 30


 1634 051c 42000000 		.4byte	.LFE11
 1635 0520 0100     		.2byte	0x1
 1636 0522 54       		.byte	0x54
 1637 0523 00000000 		.4byte	0x0
 1638 0527 00000000 		.4byte	0x0
 1639              	.LLST39:
 1640 052b 00000000 		.4byte	.LVL89
 1641 052f 10000000 		.4byte	.LVL92
 1642 0533 0100     		.2byte	0x1
 1643 0535 51       		.byte	0x51
 1644 0536 10000000 		.4byte	.LVL92
 1645 053a 42000000 		.4byte	.LFE11
 1646 053e 0100     		.2byte	0x1
 1647 0540 55       		.byte	0x55
 1648 0541 00000000 		.4byte	0x0
 1649 0545 00000000 		.4byte	0x0
 1650              	.LLST40:
 1651 0549 28000000 		.4byte	.LVL95
 1652 054d 38000000 		.4byte	.LVL97
 1653 0551 0100     		.2byte	0x1
 1654 0553 50       		.byte	0x50
 1655 0554 00000000 		.4byte	0x0
 1656 0558 00000000 		.4byte	0x0
 1657              	.LLST41:
 1658 055c 1E000000 		.4byte	.LVL94
 1659 0560 28000000 		.4byte	.LVL95
 1660 0564 0100     		.2byte	0x1
 1661 0566 50       		.byte	0x50
 1662 0567 3A000000 		.4byte	.LVL98
 1663 056b 42000000 		.4byte	.LFE11
 1664 056f 0100     		.2byte	0x1
 1665 0571 50       		.byte	0x50
 1666 0572 00000000 		.4byte	0x0
 1667 0576 00000000 		.4byte	0x0
 1668              	.LLST42:
 1669 057a 08000000 		.4byte	.LVL90
 1670 057e 0E000000 		.4byte	.LVL91
 1671 0582 0100     		.2byte	0x1
 1672 0584 53       		.byte	0x53
 1673 0585 00000000 		.4byte	0x0
 1674 0589 00000000 		.4byte	0x0
 1675              	.LLST43:
 1676 058d 34000000 		.4byte	.LVL96
 1677 0591 3A000000 		.4byte	.LVL98
 1678 0595 0100     		.2byte	0x1
 1679 0597 53       		.byte	0x53
 1680 0598 00000000 		.4byte	0x0
 1681 059c 00000000 		.4byte	0x0
 1682              	.LLST44:
 1683 05a0 00000000 		.4byte	.LFB17
 1684 05a4 06000000 		.4byte	.LCFI4
 1685 05a8 0100     		.2byte	0x1
 1686 05aa 5D       		.byte	0x5d
 1687 05ab 06000000 		.4byte	.LCFI4
 1688 05af 30000000 		.4byte	.LFE17
 1689 05b3 0200     		.2byte	0x2
 1690 05b5 7D       		.byte	0x7d
ARM GAS  /tmp/ccm5nllD.s 			page 31


 1691 05b6 08       		.sleb128 8
 1692 05b7 00000000 		.4byte	0x0
 1693 05bb 00000000 		.4byte	0x0
 1694              	.LLST45:
 1695 05bf 00000000 		.4byte	.LVL100
 1696 05c3 1C000000 		.4byte	.LVL102
 1697 05c7 0100     		.2byte	0x1
 1698 05c9 50       		.byte	0x50
 1699 05ca 24000000 		.4byte	.LVL103
 1700 05ce 2E000000 		.4byte	.LVL104
 1701 05d2 0100     		.2byte	0x1
 1702 05d4 50       		.byte	0x50
 1703 05d5 00000000 		.4byte	0x0
 1704 05d9 00000000 		.4byte	0x0
 1705              	.LLST46:
 1706 05dd 0E000000 		.4byte	.LVL101
 1707 05e1 24000000 		.4byte	.LVL103
 1708 05e5 0100     		.2byte	0x1
 1709 05e7 54       		.byte	0x54
 1710 05e8 00000000 		.4byte	0x0
 1711 05ec 00000000 		.4byte	0x0
 1712              	.LLST47:
 1713 05f0 00000000 		.4byte	.LFB10
 1714 05f4 02000000 		.4byte	.LCFI5
 1715 05f8 0100     		.2byte	0x1
 1716 05fa 5D       		.byte	0x5d
 1717 05fb 02000000 		.4byte	.LCFI5
 1718 05ff 30000000 		.4byte	.LFE10
 1719 0603 0200     		.2byte	0x2
 1720 0605 7D       		.byte	0x7d
 1721 0606 08       		.sleb128 8
 1722 0607 00000000 		.4byte	0x0
 1723 060b 00000000 		.4byte	0x0
 1724              	.LLST48:
 1725 060f 00000000 		.4byte	.LVL105
 1726 0613 1C000000 		.4byte	.LVL107
 1727 0617 0100     		.2byte	0x1
 1728 0619 50       		.byte	0x50
 1729 061a 24000000 		.4byte	.LVL108
 1730 061e 2E000000 		.4byte	.LVL109
 1731 0622 0100     		.2byte	0x1
 1732 0624 50       		.byte	0x50
 1733 0625 00000000 		.4byte	0x0
 1734 0629 00000000 		.4byte	0x0
 1735              	.LLST49:
 1736 062d 00000000 		.4byte	.LVL105
 1737 0631 10000000 		.4byte	.LVL106
 1738 0635 0100     		.2byte	0x1
 1739 0637 51       		.byte	0x51
 1740 0638 24000000 		.4byte	.LVL108
 1741 063c 30000000 		.4byte	.LFE10
 1742 0640 0100     		.2byte	0x1
 1743 0642 51       		.byte	0x51
 1744 0643 00000000 		.4byte	0x0
 1745 0647 00000000 		.4byte	0x0
 1746              	.LLST51:
 1747 064b 00000000 		.4byte	.LVL110
ARM GAS  /tmp/ccm5nllD.s 			page 32


 1748 064f 0C000000 		.4byte	.LVL111
 1749 0653 0100     		.2byte	0x1
 1750 0655 50       		.byte	0x50
 1751 0656 00000000 		.4byte	0x0
 1752 065a 00000000 		.4byte	0x0
 1753              	.LLST53:
 1754 065e 00000000 		.4byte	.LVL112
 1755 0662 08000000 		.4byte	.LVL113
 1756 0666 0100     		.2byte	0x1
 1757 0668 50       		.byte	0x50
 1758 0669 08000000 		.4byte	.LVL113
 1759 066d 10000000 		.4byte	.LVL114
 1760 0671 0100     		.2byte	0x1
 1761 0673 53       		.byte	0x53
 1762 0674 00000000 		.4byte	0x0
 1763 0678 00000000 		.4byte	0x0
 1764              	.LLST54:
 1765 067c 00000000 		.4byte	.LFB13
 1766 0680 02000000 		.4byte	.LCFI6
 1767 0684 0100     		.2byte	0x1
 1768 0686 5D       		.byte	0x5d
 1769 0687 02000000 		.4byte	.LCFI6
 1770 068b 18000000 		.4byte	.LFE13
 1771 068f 0200     		.2byte	0x2
 1772 0691 7D       		.byte	0x7d
 1773 0692 04       		.sleb128 4
 1774 0693 00000000 		.4byte	0x0
 1775 0697 00000000 		.4byte	0x0
 1776              	.LLST55:
 1777 069b 00000000 		.4byte	.LVL115
 1778 069f 12000000 		.4byte	.LVL117
 1779 06a3 0100     		.2byte	0x1
 1780 06a5 50       		.byte	0x50
 1781 06a6 00000000 		.4byte	0x0
 1782 06aa 00000000 		.4byte	0x0
 1783              	.LLST56:
 1784 06ae 00000000 		.4byte	.LVL115
 1785 06b2 10000000 		.4byte	.LVL116
 1786 06b6 0100     		.2byte	0x1
 1787 06b8 51       		.byte	0x51
 1788 06b9 00000000 		.4byte	0x0
 1789 06bd 00000000 		.4byte	0x0
 1790              	.LLST57:
 1791 06c1 00000000 		.4byte	.LVL115
 1792 06c5 18000000 		.4byte	.LVL118
 1793 06c9 0100     		.2byte	0x1
 1794 06cb 52       		.byte	0x52
 1795 06cc 00000000 		.4byte	0x0
 1796 06d0 00000000 		.4byte	0x0
 1797              	.LLST58:
 1798 06d4 00000000 		.4byte	.LVL115
 1799 06d8 18000000 		.4byte	.LVL118
 1800 06dc 0100     		.2byte	0x1
 1801 06de 53       		.byte	0x53
 1802 06df 00000000 		.4byte	0x0
 1803 06e3 00000000 		.4byte	0x0
 1804              	.LLST60:
ARM GAS  /tmp/ccm5nllD.s 			page 33


 1805 06e7 00000000 		.4byte	.LVL119
 1806 06eb 10000000 		.4byte	.LVL122
 1807 06ef 0100     		.2byte	0x1
 1808 06f1 50       		.byte	0x50
 1809 06f2 00000000 		.4byte	0x0
 1810 06f6 00000000 		.4byte	0x0
 1811              	.LLST61:
 1812 06fa 00000000 		.4byte	.LVL119
 1813 06fe 0E000000 		.4byte	.LVL121
 1814 0702 0100     		.2byte	0x1
 1815 0704 51       		.byte	0x51
 1816 0705 00000000 		.4byte	0x0
 1817 0709 00000000 		.4byte	0x0
 1818              	.LLST62:
 1819 070d 00000000 		.4byte	.LVL119
 1820 0711 02000000 		.4byte	.LVL120
 1821 0715 0100     		.2byte	0x1
 1822 0717 52       		.byte	0x52
 1823 0718 00000000 		.4byte	0x0
 1824 071c 00000000 		.4byte	0x0
 1825              	.LLST63:
 1826 0720 00000000 		.4byte	.LVL119
 1827 0724 14000000 		.4byte	.LVL123
 1828 0728 0100     		.2byte	0x1
 1829 072a 53       		.byte	0x53
 1830 072b 00000000 		.4byte	0x0
 1831 072f 00000000 		.4byte	0x0
 1832              		.file 2 "/usr/local/LPCXpresso/tools/bin/../lib/gcc/arm-none-eabi/4.4.1/include/newlib/stddef.h"
 1833              		.file 3 "/usr/local/LPCXpresso/tools/bin/../lib/gcc/arm-none-eabi/4.4.1/../../../../arm-none-eabi/
 1834              		.file 4 "../../os/ports/GCC/ARMCMx/chtypes.h"
 1835              		.file 5 "../../os/kernel/include/chlists.h"
 1836              		.file 6 "../../os/kernel/include/chthreads.h"
 1837              		.file 7 "../../os/ports/GCC/ARMCMx/chcore.h"
 1838              		.file 8 "../../os/ports/GCC/ARMCMx/chcore_v7m.h"
 1839              		.file 9 "../../os/kernel/include/chsem.h"
 1840              		.file 10 "../../os/kernel/include/chmtx.h"
 1841              		.file 11 "../../os/kernel/include/chqueues.h"
 1842              		.section	.debug_info
 1843 0000 FA090000 		.4byte	0x9fa
 1844 0004 0200     		.2byte	0x2
 1845 0006 00000000 		.4byte	.Ldebug_abbrev0
 1846 000a 04       		.byte	0x4
 1847 000b 01       		.uleb128 0x1
 1848 000c 6D000000 		.4byte	.LASF80
 1849 0010 01       		.byte	0x1
 1850 0011 8D010000 		.4byte	.LASF81
 1851 0015 80000000 		.4byte	.LASF82
 1852 0019 00000000 		.4byte	0x0
 1853 001d 00000000 		.4byte	0x0
 1854 0021 C0000000 		.4byte	.Ldebug_ranges0+0xc0
 1855 0025 00000000 		.4byte	.Ldebug_line0
 1856 0029 02       		.uleb128 0x2
 1857 002a 04       		.byte	0x4
 1858 002b 05       		.byte	0x5
 1859 002c 696E7400 		.ascii	"int\000"
 1860 0030 03       		.uleb128 0x3
 1861 0031 1A000000 		.4byte	.LASF2
ARM GAS  /tmp/ccm5nllD.s 			page 34


 1862 0035 02       		.byte	0x2
 1863 0036 D3       		.byte	0xd3
 1864 0037 3B000000 		.4byte	0x3b
 1865 003b 04       		.uleb128 0x4
 1866 003c 04       		.byte	0x4
 1867 003d 07       		.byte	0x7
 1868 003e 37010000 		.4byte	.LASF0
 1869 0042 04       		.uleb128 0x4
 1870 0043 01       		.byte	0x1
 1871 0044 06       		.byte	0x6
 1872 0045 B9000000 		.4byte	.LASF1
 1873 0049 03       		.uleb128 0x3
 1874 004a 19030000 		.4byte	.LASF3
 1875 004e 03       		.byte	0x3
 1876 004f 2A       		.byte	0x2a
 1877 0050 54000000 		.4byte	0x54
 1878 0054 04       		.uleb128 0x4
 1879 0055 01       		.byte	0x1
 1880 0056 08       		.byte	0x8
 1881 0057 4B020000 		.4byte	.LASF4
 1882 005b 04       		.uleb128 0x4
 1883 005c 02       		.byte	0x2
 1884 005d 05       		.byte	0x5
 1885 005e 63020000 		.4byte	.LASF5
 1886 0062 04       		.uleb128 0x4
 1887 0063 02       		.byte	0x2
 1888 0064 07       		.byte	0x7
 1889 0065 74010000 		.4byte	.LASF6
 1890 0069 03       		.uleb128 0x3
 1891 006a 43020000 		.4byte	.LASF7
 1892 006e 03       		.byte	0x3
 1893 006f 4F       		.byte	0x4f
 1894 0070 74000000 		.4byte	0x74
 1895 0074 04       		.uleb128 0x4
 1896 0075 04       		.byte	0x4
 1897 0076 05       		.byte	0x5
 1898 0077 D5000000 		.4byte	.LASF8
 1899 007b 03       		.uleb128 0x3
 1900 007c AB020000 		.4byte	.LASF9
 1901 0080 03       		.byte	0x3
 1902 0081 50       		.byte	0x50
 1903 0082 86000000 		.4byte	0x86
 1904 0086 04       		.uleb128 0x4
 1905 0087 04       		.byte	0x4
 1906 0088 07       		.byte	0x7
 1907 0089 4F010000 		.4byte	.LASF10
 1908 008d 04       		.uleb128 0x4
 1909 008e 08       		.byte	0x8
 1910 008f 05       		.byte	0x5
 1911 0090 F0000000 		.4byte	.LASF11
 1912 0094 04       		.uleb128 0x4
 1913 0095 08       		.byte	0x8
 1914 0096 07       		.byte	0x7
 1915 0097 44000000 		.4byte	.LASF12
 1916 009b 03       		.uleb128 0x3
 1917 009c 83020000 		.4byte	.LASF13
 1918 00a0 04       		.byte	0x4
ARM GAS  /tmp/ccm5nllD.s 			page 35


 1919 00a1 2E       		.byte	0x2e
 1920 00a2 49000000 		.4byte	0x49
 1921 00a6 03       		.uleb128 0x3
 1922 00a7 DE000000 		.4byte	.LASF14
 1923 00ab 04       		.byte	0x4
 1924 00ac 2F       		.byte	0x2f
 1925 00ad 49000000 		.4byte	0x49
 1926 00b1 03       		.uleb128 0x3
 1927 00b2 0D020000 		.4byte	.LASF15
 1928 00b6 04       		.byte	0x4
 1929 00b7 30       		.byte	0x30
 1930 00b8 49000000 		.4byte	0x49
 1931 00bc 03       		.uleb128 0x3
 1932 00bd 33020000 		.4byte	.LASF16
 1933 00c1 04       		.byte	0x4
 1934 00c2 31       		.byte	0x31
 1935 00c3 7B000000 		.4byte	0x7b
 1936 00c7 03       		.uleb128 0x3
 1937 00c8 87010000 		.4byte	.LASF17
 1938 00cc 04       		.byte	0x4
 1939 00cd 32       		.byte	0x32
 1940 00ce 69000000 		.4byte	0x69
 1941 00d2 03       		.uleb128 0x3
 1942 00d3 B8010000 		.4byte	.LASF18
 1943 00d7 04       		.byte	0x4
 1944 00d8 34       		.byte	0x34
 1945 00d9 7B000000 		.4byte	0x7b
 1946 00dd 03       		.uleb128 0x3
 1947 00de BB020000 		.4byte	.LASF19
 1948 00e2 04       		.byte	0x4
 1949 00e3 35       		.byte	0x35
 1950 00e4 7B000000 		.4byte	0x7b
 1951 00e8 03       		.uleb128 0x3
 1952 00e9 31010000 		.4byte	.LASF20
 1953 00ed 04       		.byte	0x4
 1954 00ee 36       		.byte	0x36
 1955 00ef 69000000 		.4byte	0x69
 1956 00f3 03       		.uleb128 0x3
 1957 00f4 93020000 		.4byte	.LASF21
 1958 00f8 05       		.byte	0x5
 1959 00f9 29       		.byte	0x29
 1960 00fa FE000000 		.4byte	0xfe
 1961 00fe 05       		.uleb128 0x5
 1962 00ff 93020000 		.4byte	.LASF21
 1963 0103 44       		.byte	0x44
 1964 0104 05       		.byte	0x5
 1965 0105 29       		.byte	0x29
 1966 0106 07020000 		.4byte	0x207
 1967 010a 06       		.uleb128 0x6
 1968 010b 7C020000 		.4byte	.LASF22
 1969 010f 06       		.byte	0x6
 1970 0110 2F       		.byte	0x2f
 1971 0111 2C020000 		.4byte	0x22c
 1972 0115 02       		.byte	0x2
 1973 0116 23       		.byte	0x23
 1974 0117 00       		.uleb128 0x0
 1975 0118 06       		.uleb128 0x6
ARM GAS  /tmp/ccm5nllD.s 			page 36


 1976 0119 1F020000 		.4byte	.LASF23
 1977 011d 06       		.byte	0x6
 1978 011e 31       		.byte	0x31
 1979 011f 2C020000 		.4byte	0x22c
 1980 0123 02       		.byte	0x2
 1981 0124 23       		.byte	0x23
 1982 0125 04       		.uleb128 0x4
 1983 0126 06       		.uleb128 0x6
 1984 0127 79000000 		.4byte	.LASF24
 1985 012b 06       		.byte	0x6
 1986 012c 33       		.byte	0x33
 1987 012d BC000000 		.4byte	0xbc
 1988 0131 02       		.byte	0x2
 1989 0132 23       		.byte	0x23
 1990 0133 08       		.uleb128 0x8
 1991 0134 06       		.uleb128 0x6
 1992 0135 46030000 		.4byte	.LASF25
 1993 0139 06       		.byte	0x6
 1994 013a 34       		.byte	0x34
 1995 013b 70020000 		.4byte	0x270
 1996 013f 02       		.byte	0x2
 1997 0140 23       		.byte	0x23
 1998 0141 0C       		.uleb128 0xc
 1999 0142 06       		.uleb128 0x6
 2000 0143 0F010000 		.4byte	.LASF26
 2001 0147 06       		.byte	0x6
 2002 0148 36       		.byte	0x36
 2003 0149 2C020000 		.4byte	0x22c
 2004 014d 02       		.byte	0x2
 2005 014e 23       		.byte	0x23
 2006 014f 10       		.uleb128 0x10
 2007 0150 06       		.uleb128 0x6
 2008 0151 F3010000 		.4byte	.LASF27
 2009 0155 06       		.byte	0x6
 2010 0156 37       		.byte	0x37
 2011 0157 2C020000 		.4byte	0x22c
 2012 015b 02       		.byte	0x2
 2013 015c 23       		.byte	0x23
 2014 015d 14       		.uleb128 0x14
 2015 015e 06       		.uleb128 0x6
 2016 015f 6D020000 		.4byte	.LASF28
 2017 0163 06       		.byte	0x6
 2018 0164 3D       		.byte	0x3d
 2019 0165 A6000000 		.4byte	0xa6
 2020 0169 02       		.byte	0x2
 2021 016a 23       		.byte	0x23
 2022 016b 18       		.uleb128 0x18
 2023 016c 06       		.uleb128 0x6
 2024 016d 8B020000 		.4byte	.LASF29
 2025 0171 06       		.byte	0x6
 2026 0172 41       		.byte	0x41
 2027 0173 9B000000 		.4byte	0x9b
 2028 0177 02       		.byte	0x2
 2029 0178 23       		.byte	0x23
 2030 0179 19       		.uleb128 0x19
 2031 017a 06       		.uleb128 0x6
 2032 017b 09030000 		.4byte	.LASF30
ARM GAS  /tmp/ccm5nllD.s 			page 37


 2033 017f 06       		.byte	0x6
 2034 0180 46       		.byte	0x46
 2035 0181 B1000000 		.4byte	0xb1
 2036 0185 02       		.byte	0x2
 2037 0186 23       		.byte	0x23
 2038 0187 1A       		.uleb128 0x1a
 2039 0188 06       		.uleb128 0x6
 2040 0189 E0020000 		.4byte	.LASF31
 2041 018d 06       		.byte	0x6
 2042 018e 53       		.byte	0x53
 2043 018f 18030000 		.4byte	0x318
 2044 0193 02       		.byte	0x2
 2045 0194 23       		.byte	0x23
 2046 0195 1C       		.uleb128 0x1c
 2047 0196 07       		.uleb128 0x7
 2048 0197 705F7500 		.ascii	"p_u\000"
 2049 019b 06       		.byte	0x6
 2050 019c 78       		.byte	0x78
 2051 019d 99030000 		.4byte	0x399
 2052 01a1 02       		.byte	0x2
 2053 01a2 23       		.byte	0x23
 2054 01a3 20       		.uleb128 0x20
 2055 01a4 06       		.uleb128 0x6
 2056 01a5 4C030000 		.4byte	.LASF32
 2057 01a9 06       		.byte	0x6
 2058 01aa 7D       		.byte	0x7d
 2059 01ab 54020000 		.4byte	0x254
 2060 01af 02       		.byte	0x2
 2061 01b0 23       		.byte	0x23
 2062 01b1 24       		.uleb128 0x24
 2063 01b2 06       		.uleb128 0x6
 2064 01b3 EE020000 		.4byte	.LASF33
 2065 01b7 06       		.byte	0x6
 2066 01b8 83       		.byte	0x83
 2067 01b9 32020000 		.4byte	0x232
 2068 01bd 02       		.byte	0x2
 2069 01be 23       		.byte	0x23
 2070 01bf 28       		.uleb128 0x28
 2071 01c0 06       		.uleb128 0x6
 2072 01c1 0F000000 		.4byte	.LASF34
 2073 01c5 06       		.byte	0x6
 2074 01c6 87       		.byte	0x87
 2075 01c7 C7000000 		.4byte	0xc7
 2076 01cb 02       		.byte	0x2
 2077 01cc 23       		.byte	0x23
 2078 01cd 30       		.uleb128 0x30
 2079 01ce 06       		.uleb128 0x6
 2080 01cf 9A020000 		.4byte	.LASF35
 2081 01d3 06       		.byte	0x6
 2082 01d4 8D       		.byte	0x8d
 2083 01d5 D2000000 		.4byte	0xd2
 2084 01d9 02       		.byte	0x2
 2085 01da 23       		.byte	0x23
 2086 01db 34       		.uleb128 0x34
 2087 01dc 06       		.uleb128 0x6
 2088 01dd 59020000 		.4byte	.LASF36
 2089 01e1 06       		.byte	0x6
ARM GAS  /tmp/ccm5nllD.s 			page 38


 2090 01e2 94       		.byte	0x94
 2091 01e3 CE030000 		.4byte	0x3ce
 2092 01e7 02       		.byte	0x2
 2093 01e8 23       		.byte	0x23
 2094 01e9 38       		.uleb128 0x38
 2095 01ea 06       		.uleb128 0x6
 2096 01eb C5020000 		.4byte	.LASF37
 2097 01ef 06       		.byte	0x6
 2098 01f0 98       		.byte	0x98
 2099 01f1 BC000000 		.4byte	0xbc
 2100 01f5 02       		.byte	0x2
 2101 01f6 23       		.byte	0x23
 2102 01f7 3C       		.uleb128 0x3c
 2103 01f8 06       		.uleb128 0x6
 2104 01f9 C5000000 		.4byte	.LASF38
 2105 01fd 06       		.byte	0x6
 2106 01fe 9E       		.byte	0x9e
 2107 01ff 6E020000 		.4byte	0x26e
 2108 0203 02       		.byte	0x2
 2109 0204 23       		.byte	0x23
 2110 0205 40       		.uleb128 0x40
 2111 0206 00       		.byte	0x0
 2112 0207 08       		.uleb128 0x8
 2113 0208 08       		.byte	0x8
 2114 0209 05       		.byte	0x5
 2115 020a 60       		.byte	0x60
 2116 020b 2C020000 		.4byte	0x22c
 2117 020f 06       		.uleb128 0x6
 2118 0210 7C020000 		.4byte	.LASF22
 2119 0214 05       		.byte	0x5
 2120 0215 61       		.byte	0x61
 2121 0216 2C020000 		.4byte	0x22c
 2122 021a 02       		.byte	0x2
 2123 021b 23       		.byte	0x23
 2124 021c 00       		.uleb128 0x0
 2125 021d 06       		.uleb128 0x6
 2126 021e 1F020000 		.4byte	.LASF23
 2127 0222 05       		.byte	0x5
 2128 0223 63       		.byte	0x63
 2129 0224 2C020000 		.4byte	0x22c
 2130 0228 02       		.byte	0x2
 2131 0229 23       		.byte	0x23
 2132 022a 04       		.uleb128 0x4
 2133 022b 00       		.byte	0x0
 2134 022c 09       		.uleb128 0x9
 2135 022d 04       		.byte	0x4
 2136 022e F3000000 		.4byte	0xf3
 2137 0232 03       		.uleb128 0x3
 2138 0233 FB010000 		.4byte	.LASF39
 2139 0237 05       		.byte	0x5
 2140 0238 65       		.byte	0x65
 2141 0239 07020000 		.4byte	0x207
 2142 023d 08       		.uleb128 0x8
 2143 023e 04       		.byte	0x4
 2144 023f 05       		.byte	0x5
 2145 0240 6A       		.byte	0x6a
 2146 0241 54020000 		.4byte	0x254
ARM GAS  /tmp/ccm5nllD.s 			page 39


 2147 0245 06       		.uleb128 0x6
 2148 0246 7C020000 		.4byte	.LASF22
 2149 024a 05       		.byte	0x5
 2150 024b 6C       		.byte	0x6c
 2151 024c 2C020000 		.4byte	0x22c
 2152 0250 02       		.byte	0x2
 2153 0251 23       		.byte	0x23
 2154 0252 00       		.uleb128 0x0
 2155 0253 00       		.byte	0x0
 2156 0254 03       		.uleb128 0x3
 2157 0255 AC010000 		.4byte	.LASF40
 2158 0259 05       		.byte	0x5
 2159 025a 6F       		.byte	0x6f
 2160 025b 3D020000 		.4byte	0x23d
 2161 025f 0A       		.uleb128 0xa
 2162 0260 04       		.byte	0x4
 2163 0261 07       		.byte	0x7
 2164 0262 0B       		.uleb128 0xb
 2165 0263 1F010000 		.4byte	.LASF41
 2166 0267 07       		.byte	0x7
 2167 0268 0F01     		.2byte	0x10f
 2168 026a 6E020000 		.4byte	0x26e
 2169 026e 0C       		.uleb128 0xc
 2170 026f 04       		.byte	0x4
 2171 0270 0D       		.uleb128 0xd
 2172 0271 67010000 		.4byte	.LASF42
 2173 0275 04       		.byte	0x4
 2174 0276 07       		.byte	0x7
 2175 0277 2B01     		.2byte	0x12b
 2176 0279 8D020000 		.4byte	0x28d
 2177 027d 0E       		.uleb128 0xe
 2178 027e 72313300 		.ascii	"r13\000"
 2179 0282 07       		.byte	0x7
 2180 0283 2C01     		.2byte	0x12c
 2181 0285 12030000 		.4byte	0x312
 2182 0289 02       		.byte	0x2
 2183 028a 23       		.byte	0x23
 2184 028b 00       		.uleb128 0x0
 2185 028c 00       		.byte	0x0
 2186 028d 0D       		.uleb128 0xd
 2187 028e E7020000 		.4byte	.LASF43
 2188 0292 24       		.byte	0x24
 2189 0293 07       		.byte	0x7
 2190 0294 2C01     		.2byte	0x12c
 2191 0296 12030000 		.4byte	0x312
 2192 029a 07       		.uleb128 0x7
 2193 029b 723400   		.ascii	"r4\000"
 2194 029e 08       		.byte	0x8
 2195 029f 37       		.byte	0x37
 2196 02a0 62020000 		.4byte	0x262
 2197 02a4 02       		.byte	0x2
 2198 02a5 23       		.byte	0x23
 2199 02a6 00       		.uleb128 0x0
 2200 02a7 07       		.uleb128 0x7
 2201 02a8 723500   		.ascii	"r5\000"
 2202 02ab 08       		.byte	0x8
 2203 02ac 38       		.byte	0x38
ARM GAS  /tmp/ccm5nllD.s 			page 40


 2204 02ad 62020000 		.4byte	0x262
 2205 02b1 02       		.byte	0x2
 2206 02b2 23       		.byte	0x23
 2207 02b3 04       		.uleb128 0x4
 2208 02b4 07       		.uleb128 0x7
 2209 02b5 723600   		.ascii	"r6\000"
 2210 02b8 08       		.byte	0x8
 2211 02b9 39       		.byte	0x39
 2212 02ba 62020000 		.4byte	0x262
 2213 02be 02       		.byte	0x2
 2214 02bf 23       		.byte	0x23
 2215 02c0 08       		.uleb128 0x8
 2216 02c1 07       		.uleb128 0x7
 2217 02c2 723700   		.ascii	"r7\000"
 2218 02c5 08       		.byte	0x8
 2219 02c6 3B       		.byte	0x3b
 2220 02c7 62020000 		.4byte	0x262
 2221 02cb 02       		.byte	0x2
 2222 02cc 23       		.byte	0x23
 2223 02cd 0C       		.uleb128 0xc
 2224 02ce 07       		.uleb128 0x7
 2225 02cf 723800   		.ascii	"r8\000"
 2226 02d2 08       		.byte	0x8
 2227 02d3 3D       		.byte	0x3d
 2228 02d4 62020000 		.4byte	0x262
 2229 02d8 02       		.byte	0x2
 2230 02d9 23       		.byte	0x23
 2231 02da 10       		.uleb128 0x10
 2232 02db 07       		.uleb128 0x7
 2233 02dc 723900   		.ascii	"r9\000"
 2234 02df 08       		.byte	0x8
 2235 02e0 3E       		.byte	0x3e
 2236 02e1 62020000 		.4byte	0x262
 2237 02e5 02       		.byte	0x2
 2238 02e6 23       		.byte	0x23
 2239 02e7 14       		.uleb128 0x14
 2240 02e8 07       		.uleb128 0x7
 2241 02e9 72313000 		.ascii	"r10\000"
 2242 02ed 08       		.byte	0x8
 2243 02ee 3F       		.byte	0x3f
 2244 02ef 62020000 		.4byte	0x262
 2245 02f3 02       		.byte	0x2
 2246 02f4 23       		.byte	0x23
 2247 02f5 18       		.uleb128 0x18
 2248 02f6 07       		.uleb128 0x7
 2249 02f7 72313100 		.ascii	"r11\000"
 2250 02fb 08       		.byte	0x8
 2251 02fc 40       		.byte	0x40
 2252 02fd 62020000 		.4byte	0x262
 2253 0301 02       		.byte	0x2
 2254 0302 23       		.byte	0x23
 2255 0303 1C       		.uleb128 0x1c
 2256 0304 07       		.uleb128 0x7
 2257 0305 6C7200   		.ascii	"lr\000"
 2258 0308 08       		.byte	0x8
 2259 0309 41       		.byte	0x41
 2260 030a 62020000 		.4byte	0x262
ARM GAS  /tmp/ccm5nllD.s 			page 41


 2261 030e 02       		.byte	0x2
 2262 030f 23       		.byte	0x23
 2263 0310 20       		.uleb128 0x20
 2264 0311 00       		.byte	0x0
 2265 0312 09       		.uleb128 0x9
 2266 0313 04       		.byte	0x4
 2267 0314 8D020000 		.4byte	0x28d
 2268 0318 0F       		.uleb128 0xf
 2269 0319 DD000000 		.4byte	0xdd
 2270 031d 05       		.uleb128 0x5
 2271 031e F9020000 		.4byte	.LASF44
 2272 0322 0C       		.byte	0xc
 2273 0323 09       		.byte	0x9
 2274 0324 2B       		.byte	0x2b
 2275 0325 46030000 		.4byte	0x346
 2276 0329 06       		.uleb128 0x6
 2277 032a 17010000 		.4byte	.LASF45
 2278 032e 09       		.byte	0x9
 2279 032f 2C       		.byte	0x2c
 2280 0330 32020000 		.4byte	0x232
 2281 0334 02       		.byte	0x2
 2282 0335 23       		.byte	0x23
 2283 0336 00       		.uleb128 0x0
 2284 0337 06       		.uleb128 0x6
 2285 0338 61010000 		.4byte	.LASF46
 2286 033c 09       		.byte	0x9
 2287 033d 2E       		.byte	0x2e
 2288 033e E8000000 		.4byte	0xe8
 2289 0342 02       		.byte	0x2
 2290 0343 23       		.byte	0x23
 2291 0344 08       		.uleb128 0x8
 2292 0345 00       		.byte	0x0
 2293 0346 03       		.uleb128 0x3
 2294 0347 F9020000 		.4byte	.LASF44
 2295 034b 09       		.byte	0x9
 2296 034c 2F       		.byte	0x2f
 2297 034d 1D030000 		.4byte	0x31d
 2298 0351 05       		.uleb128 0x5
 2299 0352 CF010000 		.4byte	.LASF47
 2300 0356 10       		.byte	0x10
 2301 0357 0A       		.byte	0xa
 2302 0358 2B       		.byte	0x2b
 2303 0359 88030000 		.4byte	0x388
 2304 035d 06       		.uleb128 0x6
 2305 035e CD000000 		.4byte	.LASF48
 2306 0362 0A       		.byte	0xa
 2307 0363 2C       		.byte	0x2c
 2308 0364 32020000 		.4byte	0x232
 2309 0368 02       		.byte	0x2
 2310 0369 23       		.byte	0x23
 2311 036a 00       		.uleb128 0x0
 2312 036b 06       		.uleb128 0x6
 2313 036c 3E030000 		.4byte	.LASF49
 2314 0370 0A       		.byte	0xa
 2315 0371 2E       		.byte	0x2e
 2316 0372 2C020000 		.4byte	0x22c
 2317 0376 02       		.byte	0x2
ARM GAS  /tmp/ccm5nllD.s 			page 42


 2318 0377 23       		.byte	0x23
 2319 0378 08       		.uleb128 0x8
 2320 0379 06       		.uleb128 0x6
 2321 037a B4020000 		.4byte	.LASF50
 2322 037e 0A       		.byte	0xa
 2323 037f 30       		.byte	0x30
 2324 0380 88030000 		.4byte	0x388
 2325 0384 02       		.byte	0x2
 2326 0385 23       		.byte	0x23
 2327 0386 0C       		.uleb128 0xc
 2328 0387 00       		.byte	0x0
 2329 0388 09       		.uleb128 0x9
 2330 0389 04       		.byte	0x4
 2331 038a 51030000 		.4byte	0x351
 2332 038e 03       		.uleb128 0x3
 2333 038f CF010000 		.4byte	.LASF47
 2334 0393 0A       		.byte	0xa
 2335 0394 32       		.byte	0x32
 2336 0395 51030000 		.4byte	0x351
 2337 0399 10       		.uleb128 0x10
 2338 039a 04       		.byte	0x4
 2339 039b 06       		.byte	0x6
 2340 039c 5A       		.byte	0x5a
 2341 039d CE030000 		.4byte	0x3ce
 2342 03a1 11       		.uleb128 0x11
 2343 03a2 21000000 		.4byte	.LASF51
 2344 03a6 06       		.byte	0x6
 2345 03a7 61       		.byte	0x61
 2346 03a8 C7000000 		.4byte	0xc7
 2347 03ac 11       		.uleb128 0x11
 2348 03ad 64000000 		.4byte	.LASF52
 2349 03b1 06       		.byte	0x6
 2350 03b2 68       		.byte	0x68
 2351 03b3 C7000000 		.4byte	0xc7
 2352 03b7 11       		.uleb128 0x11
 2353 03b8 2E030000 		.4byte	.LASF53
 2354 03bc 06       		.byte	0x6
 2355 03bd 6F       		.byte	0x6f
 2356 03be 6E020000 		.4byte	0x26e
 2357 03c2 11       		.uleb128 0x11
 2358 03c3 75020000 		.4byte	.LASF54
 2359 03c7 06       		.byte	0x6
 2360 03c8 76       		.byte	0x76
 2361 03c9 D2000000 		.4byte	0xd2
 2362 03cd 00       		.byte	0x0
 2363 03ce 09       		.uleb128 0x9
 2364 03cf 04       		.byte	0x4
 2365 03d0 8E030000 		.4byte	0x38e
 2366 03d4 03       		.uleb128 0x3
 2367 03d5 D5010000 		.4byte	.LASF55
 2368 03d9 0B       		.byte	0xb
 2369 03da 3D       		.byte	0x3d
 2370 03db DF030000 		.4byte	0x3df
 2371 03df 05       		.uleb128 0x5
 2372 03e0 D5010000 		.4byte	.LASF55
 2373 03e4 20       		.byte	0x20
 2374 03e5 0B       		.byte	0xb
ARM GAS  /tmp/ccm5nllD.s 			page 43


 2375 03e6 3D       		.byte	0x3d
 2376 03e7 40040000 		.4byte	0x440
 2377 03eb 06       		.uleb128 0x6
 2378 03ec FE000000 		.4byte	.LASF56
 2379 03f0 0B       		.byte	0xb
 2380 03f1 4C       		.byte	0x4c
 2381 03f2 63040000 		.4byte	0x463
 2382 03f6 02       		.byte	0x2
 2383 03f7 23       		.byte	0x23
 2384 03f8 00       		.uleb128 0x0
 2385 03f9 06       		.uleb128 0x6
 2386 03fa 03030000 		.4byte	.LASF57
 2387 03fe 0B       		.byte	0xb
 2388 03ff 4D       		.byte	0x4d
 2389 0400 63040000 		.4byte	0x463
 2390 0404 02       		.byte	0x2
 2391 0405 23       		.byte	0x23
 2392 0406 04       		.uleb128 0x4
 2393 0407 06       		.uleb128 0x6
 2394 0408 07010000 		.4byte	.LASF58
 2395 040c 0B       		.byte	0xb
 2396 040d 4F       		.byte	0x4f
 2397 040e 63040000 		.4byte	0x463
 2398 0412 02       		.byte	0x2
 2399 0413 23       		.byte	0x23
 2400 0414 08       		.uleb128 0x8
 2401 0415 06       		.uleb128 0x6
 2402 0416 3B020000 		.4byte	.LASF59
 2403 041a 0B       		.byte	0xb
 2404 041b 50       		.byte	0x50
 2405 041c 63040000 		.4byte	0x463
 2406 0420 02       		.byte	0x2
 2407 0421 23       		.byte	0x23
 2408 0422 0C       		.uleb128 0xc
 2409 0423 06       		.uleb128 0x6
 2410 0424 A5020000 		.4byte	.LASF60
 2411 0428 0B       		.byte	0xb
 2412 0429 51       		.byte	0x51
 2413 042a 46030000 		.4byte	0x346
 2414 042e 02       		.byte	0x2
 2415 042f 23       		.byte	0x23
 2416 0430 10       		.uleb128 0x10
 2417 0431 06       		.uleb128 0x6
 2418 0432 10030000 		.4byte	.LASF61
 2419 0436 0B       		.byte	0xb
 2420 0437 52       		.byte	0x52
 2421 0438 40040000 		.4byte	0x440
 2422 043c 02       		.byte	0x2
 2423 043d 23       		.byte	0x23
 2424 043e 1C       		.uleb128 0x1c
 2425 043f 00       		.byte	0x0
 2426 0440 03       		.uleb128 0x3
 2427 0441 15020000 		.4byte	.LASF62
 2428 0445 0B       		.byte	0xb
 2429 0446 40       		.byte	0x40
 2430 0447 4B040000 		.4byte	0x44b
 2431 044b 09       		.uleb128 0x9
ARM GAS  /tmp/ccm5nllD.s 			page 44


 2432 044c 04       		.byte	0x4
 2433 044d 51040000 		.4byte	0x451
 2434 0451 12       		.uleb128 0x12
 2435 0452 01       		.byte	0x1
 2436 0453 5D040000 		.4byte	0x45d
 2437 0457 13       		.uleb128 0x13
 2438 0458 5D040000 		.4byte	0x45d
 2439 045c 00       		.byte	0x0
 2440 045d 09       		.uleb128 0x9
 2441 045e 04       		.byte	0x4
 2442 045f D4030000 		.4byte	0x3d4
 2443 0463 09       		.uleb128 0x9
 2444 0464 04       		.byte	0x4
 2445 0465 49000000 		.4byte	0x49
 2446 0469 03       		.uleb128 0x3
 2447 046a C4010000 		.4byte	.LASF63
 2448 046e 0B       		.byte	0xb
 2449 046f 78       		.byte	0x78
 2450 0470 D4030000 		.4byte	0x3d4
 2451 0474 03       		.uleb128 0x3
 2452 0475 28000000 		.4byte	.LASF64
 2453 0479 0B       		.byte	0xb
 2454 047a CC       		.byte	0xcc
 2455 047b D4030000 		.4byte	0x3d4
 2456 047f 09       		.uleb128 0x9
 2457 0480 04       		.byte	0x4
 2458 0481 85040000 		.4byte	0x485
 2459 0485 14       		.uleb128 0x14
 2460 0486 49000000 		.4byte	0x49
 2461 048a 15       		.uleb128 0x15
 2462 048b 01       		.byte	0x1
 2463 048c 21030000 		.4byte	.LASF65
 2464 0490 01       		.byte	0x1
 2465 0491 58       		.byte	0x58
 2466 0492 01       		.byte	0x1
 2467 0493 30000000 		.4byte	0x30
 2468 0497 00000000 		.4byte	.LFB8
 2469 049b 08000000 		.4byte	.LFE8
 2470 049f 01       		.byte	0x1
 2471 04a0 5D       		.byte	0x5d
 2472 04a1 C4040000 		.4byte	0x4c4
 2473 04a5 16       		.uleb128 0x16
 2474 04a6 69717000 		.ascii	"iqp\000"
 2475 04aa 01       		.byte	0x1
 2476 04ab 58       		.byte	0x58
 2477 04ac C4040000 		.4byte	0x4c4
 2478 04b0 00000000 		.4byte	.LLST1
 2479 04b4 17       		.uleb128 0x17
 2480 04b5 636E7400 		.ascii	"cnt\000"
 2481 04b9 01       		.byte	0x1
 2482 04ba 59       		.byte	0x59
 2483 04bb E8000000 		.4byte	0xe8
 2484 04bf 13000000 		.4byte	.LLST2
 2485 04c3 00       		.byte	0x0
 2486 04c4 09       		.uleb128 0x9
 2487 04c5 04       		.byte	0x4
 2488 04c6 69040000 		.4byte	0x469
ARM GAS  /tmp/ccm5nllD.s 			page 45


 2489 04ca 18       		.uleb128 0x18
 2490 04cb 01       		.byte	0x1
 2491 04cc 26020000 		.4byte	.LASF66
 2492 04d0 01       		.byte	0x1
 2493 04d1 0D01     		.2byte	0x10d
 2494 04d3 01       		.byte	0x1
 2495 04d4 30000000 		.4byte	0x30
 2496 04d8 00000000 		.4byte	.LFB14
 2497 04dc 18000000 		.4byte	.LFE14
 2498 04e0 01       		.byte	0x1
 2499 04e1 5D       		.byte	0x5d
 2500 04e2 07050000 		.4byte	0x507
 2501 04e6 19       		.uleb128 0x19
 2502 04e7 6F717000 		.ascii	"oqp\000"
 2503 04eb 01       		.byte	0x1
 2504 04ec 0D01     		.2byte	0x10d
 2505 04ee 07050000 		.4byte	0x507
 2506 04f2 26000000 		.4byte	.LLST4
 2507 04f6 1A       		.uleb128 0x1a
 2508 04f7 636E7400 		.ascii	"cnt\000"
 2509 04fb 01       		.byte	0x1
 2510 04fc 0E01     		.2byte	0x10e
 2511 04fe E8000000 		.4byte	0xe8
 2512 0502 44000000 		.4byte	.LLST5
 2513 0506 00       		.byte	0x0
 2514 0507 09       		.uleb128 0x9
 2515 0508 04       		.byte	0x4
 2516 0509 74040000 		.4byte	0x474
 2517 050d 1B       		.uleb128 0x1b
 2518 050e 01       		.byte	0x1
 2519 050f E2010000 		.4byte	.LASF67
 2520 0513 01       		.byte	0x1
 2521 0514 7D01     		.2byte	0x17d
 2522 0516 01       		.byte	0x1
 2523 0517 30000000 		.4byte	0x30
 2524 051b 00000000 		.4byte	.LFB18
 2525 051f 22010000 		.4byte	.LFE18
 2526 0523 57000000 		.4byte	.LLST6
 2527 0527 29060000 		.4byte	0x629
 2528 052b 19       		.uleb128 0x19
 2529 052c 6F717000 		.ascii	"oqp\000"
 2530 0530 01       		.byte	0x1
 2531 0531 7D01     		.2byte	0x17d
 2532 0533 07050000 		.4byte	0x507
 2533 0537 76000000 		.4byte	.LLST7
 2534 053b 19       		.uleb128 0x19
 2535 053c 627000   		.ascii	"bp\000"
 2536 053f 01       		.byte	0x1
 2537 0540 7D01     		.2byte	0x17d
 2538 0542 7F040000 		.4byte	0x47f
 2539 0546 AA000000 		.4byte	.LLST8
 2540 054a 19       		.uleb128 0x19
 2541 054b 6E00     		.ascii	"n\000"
 2542 054d 01       		.byte	0x1
 2543 054e 7E01     		.2byte	0x17e
 2544 0550 30000000 		.4byte	0x30
 2545 0554 C8000000 		.4byte	.LLST9
ARM GAS  /tmp/ccm5nllD.s 			page 46


 2546 0558 1C       		.uleb128 0x1c
 2547 0559 08020000 		.4byte	.LASF68
 2548 055d 01       		.byte	0x1
 2549 055e 7E01     		.2byte	0x17e
 2550 0560 DD000000 		.4byte	0xdd
 2551 0564 28010000 		.4byte	.LLST10
 2552 0568 1D       		.uleb128 0x1d
 2553 0569 6E667900 		.ascii	"nfy\000"
 2554 056d 01       		.byte	0x1
 2555 056e 7F01     		.2byte	0x17f
 2556 0570 40040000 		.4byte	0x440
 2557 0574 01       		.byte	0x1
 2558 0575 5A       		.byte	0x5a
 2559 0576 1A       		.uleb128 0x1a
 2560 0577 7700     		.ascii	"w\000"
 2561 0579 01       		.byte	0x1
 2562 057a 8001     		.2byte	0x180
 2563 057c 30000000 		.4byte	0x30
 2564 0580 51010000 		.4byte	.LLST11
 2565 0584 1E       		.uleb128 0x1e
 2566 0585 10000000 		.4byte	.LBB2
 2567 0589 16000000 		.4byte	.LBE2
 2568 058d A2050000 		.4byte	0x5a2
 2569 0591 1A       		.uleb128 0x1a
 2570 0592 746D7000 		.ascii	"tmp\000"
 2571 0596 01       		.byte	0x1
 2572 0597 8401     		.2byte	0x184
 2573 0599 7B000000 		.4byte	0x7b
 2574 059d 7A010000 		.4byte	.LLST12
 2575 05a1 00       		.byte	0x0
 2576 05a2 1F       		.uleb128 0x1f
 2577 05a3 00000000 		.4byte	.Ldebug_ranges0+0x0
 2578 05a7 BC050000 		.4byte	0x5bc
 2579 05ab 1A       		.uleb128 0x1a
 2580 05ac 746D7000 		.ascii	"tmp\000"
 2581 05b0 01       		.byte	0x1
 2582 05b1 9301     		.2byte	0x193
 2583 05b3 7B000000 		.4byte	0x7b
 2584 05b7 98010000 		.4byte	.LLST13
 2585 05bb 00       		.byte	0x0
 2586 05bc 1F       		.uleb128 0x1f
 2587 05bd 20000000 		.4byte	.Ldebug_ranges0+0x20
 2588 05c1 D6050000 		.4byte	0x5d6
 2589 05c5 1A       		.uleb128 0x1a
 2590 05c6 746D7000 		.ascii	"tmp\000"
 2591 05ca 01       		.byte	0x1
 2592 05cb 9C01     		.2byte	0x19c
 2593 05cd 7B000000 		.4byte	0x7b
 2594 05d1 CC010000 		.4byte	.LLST14
 2595 05d5 00       		.byte	0x0
 2596 05d6 1F       		.uleb128 0x1f
 2597 05d7 48000000 		.4byte	.Ldebug_ranges0+0x48
 2598 05db F0050000 		.4byte	0x5f0
 2599 05df 1A       		.uleb128 0x1a
 2600 05e0 746D7000 		.ascii	"tmp\000"
 2601 05e4 01       		.byte	0x1
 2602 05e5 8A01     		.2byte	0x18a
ARM GAS  /tmp/ccm5nllD.s 			page 47


 2603 05e7 7B000000 		.4byte	0x7b
 2604 05eb F5010000 		.4byte	.LLST15
 2605 05ef 00       		.byte	0x0
 2606 05f0 1E       		.uleb128 0x1e
 2607 05f1 F0000000 		.4byte	.LBB12
 2608 05f5 F6000000 		.4byte	.LBE12
 2609 05f9 0E060000 		.4byte	0x60e
 2610 05fd 1A       		.uleb128 0x1a
 2611 05fe 746D7000 		.ascii	"tmp\000"
 2612 0602 01       		.byte	0x1
 2613 0603 9601     		.2byte	0x196
 2614 0605 7B000000 		.4byte	0x7b
 2615 0609 13020000 		.4byte	.LLST16
 2616 060d 00       		.byte	0x0
 2617 060e 20       		.uleb128 0x20
 2618 060f 00010000 		.4byte	.LBB13
 2619 0613 06010000 		.4byte	.LBE13
 2620 0617 1A       		.uleb128 0x1a
 2621 0618 746D7000 		.ascii	"tmp\000"
 2622 061c 01       		.byte	0x1
 2623 061d 9901     		.2byte	0x199
 2624 061f 7B000000 		.4byte	0x7b
 2625 0623 31020000 		.4byte	.LLST17
 2626 0627 00       		.byte	0x0
 2627 0628 00       		.byte	0x0
 2628 0629 1B       		.uleb128 0x1b
 2629 062a 01       		.byte	0x1
 2630 062b 00000000 		.4byte	.LASF69
 2631 062f 01       		.byte	0x1
 2632 0630 3B01     		.2byte	0x13b
 2633 0632 01       		.byte	0x1
 2634 0633 C7000000 		.4byte	0xc7
 2635 0637 00000000 		.4byte	.LFB16
 2636 063b 44000000 		.4byte	.LFE16
 2637 063f 44020000 		.4byte	.LLST18
 2638 0643 DA060000 		.4byte	0x6da
 2639 0647 19       		.uleb128 0x19
 2640 0648 6F717000 		.ascii	"oqp\000"
 2641 064c 01       		.byte	0x1
 2642 064d 3B01     		.2byte	0x13b
 2643 064f 07050000 		.4byte	0x507
 2644 0653 63020000 		.4byte	.LLST19
 2645 0657 19       		.uleb128 0x19
 2646 0658 6200     		.ascii	"b\000"
 2647 065a 01       		.byte	0x1
 2648 065b 3B01     		.2byte	0x13b
 2649 065d 49000000 		.4byte	0x49
 2650 0661 81020000 		.4byte	.LLST20
 2651 0665 1C       		.uleb128 0x1c
 2652 0666 08020000 		.4byte	.LASF68
 2653 066a 01       		.byte	0x1
 2654 066b 3B01     		.2byte	0x13b
 2655 066d DD000000 		.4byte	0xdd
 2656 0671 9F020000 		.4byte	.LLST21
 2657 0675 1A       		.uleb128 0x1a
 2658 0676 6D736700 		.ascii	"msg\000"
 2659 067a 01       		.byte	0x1
ARM GAS  /tmp/ccm5nllD.s 			page 48


 2660 067b 3C01     		.2byte	0x13c
 2661 067d C7000000 		.4byte	0xc7
 2662 0681 B2020000 		.4byte	.LLST22
 2663 0685 1E       		.uleb128 0x1e
 2664 0686 06000000 		.4byte	.LBB14
 2665 068a 0C000000 		.4byte	.LBE14
 2666 068e A3060000 		.4byte	0x6a3
 2667 0692 1A       		.uleb128 0x1a
 2668 0693 746D7000 		.ascii	"tmp\000"
 2669 0697 01       		.byte	0x1
 2670 0698 3E01     		.2byte	0x13e
 2671 069a 7B000000 		.4byte	0x7b
 2672 069e DB020000 		.4byte	.LLST23
 2673 06a2 00       		.byte	0x0
 2674 06a3 1E       		.uleb128 0x1e
 2675 06a4 32000000 		.4byte	.LBB15
 2676 06a8 3A000000 		.4byte	.LBE15
 2677 06ac C1060000 		.4byte	0x6c1
 2678 06b0 1A       		.uleb128 0x1a
 2679 06b1 746D7000 		.ascii	"tmp\000"
 2680 06b5 01       		.byte	0x1
 2681 06b6 4A01     		.2byte	0x14a
 2682 06b8 7B000000 		.4byte	0x7b
 2683 06bc EE020000 		.4byte	.LLST24
 2684 06c0 00       		.byte	0x0
 2685 06c1 20       		.uleb128 0x20
 2686 06c2 3C000000 		.4byte	.LBB16
 2687 06c6 42000000 		.4byte	.LBE16
 2688 06ca 1D       		.uleb128 0x1d
 2689 06cb 746D7000 		.ascii	"tmp\000"
 2690 06cf 01       		.byte	0x1
 2691 06d0 4001     		.2byte	0x140
 2692 06d2 7B000000 		.4byte	0x7b
 2693 06d6 01       		.byte	0x1
 2694 06d7 53       		.byte	0x53
 2695 06d8 00       		.byte	0x0
 2696 06d9 00       		.byte	0x0
 2697 06da 21       		.uleb128 0x21
 2698 06db 01       		.byte	0x1
 2699 06dc 34000000 		.4byte	.LASF70
 2700 06e0 01       		.byte	0x1
 2701 06e1 CA       		.byte	0xca
 2702 06e2 01       		.byte	0x1
 2703 06e3 30000000 		.4byte	0x30
 2704 06e7 00000000 		.4byte	.LFB12
 2705 06eb 22010000 		.4byte	.LFE12
 2706 06ef 01030000 		.4byte	.LLST25
 2707 06f3 E9070000 		.4byte	0x7e9
 2708 06f7 16       		.uleb128 0x16
 2709 06f8 69717000 		.ascii	"iqp\000"
 2710 06fc 01       		.byte	0x1
 2711 06fd CA       		.byte	0xca
 2712 06fe C4040000 		.4byte	0x4c4
 2713 0702 20030000 		.4byte	.LLST26
 2714 0706 16       		.uleb128 0x16
 2715 0707 627000   		.ascii	"bp\000"
 2716 070a 01       		.byte	0x1
ARM GAS  /tmp/ccm5nllD.s 			page 49


 2717 070b CA       		.byte	0xca
 2718 070c 63040000 		.4byte	0x463
 2719 0710 54030000 		.4byte	.LLST27
 2720 0714 16       		.uleb128 0x16
 2721 0715 6E00     		.ascii	"n\000"
 2722 0717 01       		.byte	0x1
 2723 0718 CB       		.byte	0xcb
 2724 0719 30000000 		.4byte	0x30
 2725 071d 72030000 		.4byte	.LLST28
 2726 0721 22       		.uleb128 0x22
 2727 0722 08020000 		.4byte	.LASF68
 2728 0726 01       		.byte	0x1
 2729 0727 CB       		.byte	0xcb
 2730 0728 DD000000 		.4byte	0xdd
 2731 072c D2030000 		.4byte	.LLST29
 2732 0730 23       		.uleb128 0x23
 2733 0731 6E667900 		.ascii	"nfy\000"
 2734 0735 01       		.byte	0x1
 2735 0736 CC       		.byte	0xcc
 2736 0737 40040000 		.4byte	0x440
 2737 073b 01       		.byte	0x1
 2738 073c 5A       		.byte	0x5a
 2739 073d 17       		.uleb128 0x17
 2740 073e 7200     		.ascii	"r\000"
 2741 0740 01       		.byte	0x1
 2742 0741 CD       		.byte	0xcd
 2743 0742 30000000 		.4byte	0x30
 2744 0746 FB030000 		.4byte	.LLST30
 2745 074a 1E       		.uleb128 0x1e
 2746 074b 10000000 		.4byte	.LBB17
 2747 074f 16000000 		.4byte	.LBE17
 2748 0753 67070000 		.4byte	0x767
 2749 0757 17       		.uleb128 0x17
 2750 0758 746D7000 		.ascii	"tmp\000"
 2751 075c 01       		.byte	0x1
 2752 075d D1       		.byte	0xd1
 2753 075e 7B000000 		.4byte	0x7b
 2754 0762 24040000 		.4byte	.LLST31
 2755 0766 00       		.byte	0x0
 2756 0767 1F       		.uleb128 0x1f
 2757 0768 60000000 		.4byte	.Ldebug_ranges0+0x60
 2758 076c 80070000 		.4byte	0x780
 2759 0770 17       		.uleb128 0x17
 2760 0771 746D7000 		.ascii	"tmp\000"
 2761 0775 01       		.byte	0x1
 2762 0776 E0       		.byte	0xe0
 2763 0777 7B000000 		.4byte	0x7b
 2764 077b 42040000 		.4byte	.LLST32
 2765 077f 00       		.byte	0x0
 2766 0780 1F       		.uleb128 0x1f
 2767 0781 80000000 		.4byte	.Ldebug_ranges0+0x80
 2768 0785 99070000 		.4byte	0x799
 2769 0789 17       		.uleb128 0x17
 2770 078a 746D7000 		.ascii	"tmp\000"
 2771 078e 01       		.byte	0x1
 2772 078f E9       		.byte	0xe9
 2773 0790 7B000000 		.4byte	0x7b
ARM GAS  /tmp/ccm5nllD.s 			page 50


 2774 0794 76040000 		.4byte	.LLST33
 2775 0798 00       		.byte	0x0
 2776 0799 1F       		.uleb128 0x1f
 2777 079a A8000000 		.4byte	.Ldebug_ranges0+0xa8
 2778 079e B2070000 		.4byte	0x7b2
 2779 07a2 17       		.uleb128 0x17
 2780 07a3 746D7000 		.ascii	"tmp\000"
 2781 07a7 01       		.byte	0x1
 2782 07a8 D7       		.byte	0xd7
 2783 07a9 7B000000 		.4byte	0x7b
 2784 07ad 9F040000 		.4byte	.LLST34
 2785 07b1 00       		.byte	0x0
 2786 07b2 1E       		.uleb128 0x1e
 2787 07b3 F0000000 		.4byte	.LBB27
 2788 07b7 F6000000 		.4byte	.LBE27
 2789 07bb CF070000 		.4byte	0x7cf
 2790 07bf 17       		.uleb128 0x17
 2791 07c0 746D7000 		.ascii	"tmp\000"
 2792 07c4 01       		.byte	0x1
 2793 07c5 E3       		.byte	0xe3
 2794 07c6 7B000000 		.4byte	0x7b
 2795 07ca BD040000 		.4byte	.LLST35
 2796 07ce 00       		.byte	0x0
 2797 07cf 20       		.uleb128 0x20
 2798 07d0 00010000 		.4byte	.LBB28
 2799 07d4 06010000 		.4byte	.LBE28
 2800 07d8 17       		.uleb128 0x17
 2801 07d9 746D7000 		.ascii	"tmp\000"
 2802 07dd 01       		.byte	0x1
 2803 07de E6       		.byte	0xe6
 2804 07df 7B000000 		.4byte	0x7b
 2805 07e3 DB040000 		.4byte	.LLST36
 2806 07e7 00       		.byte	0x0
 2807 07e8 00       		.byte	0x0
 2808 07e9 21       		.uleb128 0x21
 2809 07ea 01       		.byte	0x1
 2810 07eb 56030000 		.4byte	.LASF71
 2811 07ef 01       		.byte	0x1
 2812 07f0 9D       		.byte	0x9d
 2813 07f1 01       		.byte	0x1
 2814 07f2 C7000000 		.4byte	0xc7
 2815 07f6 00000000 		.4byte	.LFB11
 2816 07fa 42000000 		.4byte	.LFE11
 2817 07fe EE040000 		.4byte	.LLST37
 2818 0802 92080000 		.4byte	0x892
 2819 0806 16       		.uleb128 0x16
 2820 0807 69717000 		.ascii	"iqp\000"
 2821 080b 01       		.byte	0x1
 2822 080c 9D       		.byte	0x9d
 2823 080d C4040000 		.4byte	0x4c4
 2824 0811 0D050000 		.4byte	.LLST38
 2825 0815 22       		.uleb128 0x22
 2826 0816 08020000 		.4byte	.LASF68
 2827 081a 01       		.byte	0x1
 2828 081b 9D       		.byte	0x9d
 2829 081c DD000000 		.4byte	0xdd
 2830 0820 2B050000 		.4byte	.LLST39
ARM GAS  /tmp/ccm5nllD.s 			page 51


 2831 0824 17       		.uleb128 0x17
 2832 0825 6200     		.ascii	"b\000"
 2833 0827 01       		.byte	0x1
 2834 0828 9E       		.byte	0x9e
 2835 0829 49000000 		.4byte	0x49
 2836 082d 49050000 		.4byte	.LLST40
 2837 0831 17       		.uleb128 0x17
 2838 0832 6D736700 		.ascii	"msg\000"
 2839 0836 01       		.byte	0x1
 2840 0837 9F       		.byte	0x9f
 2841 0838 C7000000 		.4byte	0xc7
 2842 083c 5C050000 		.4byte	.LLST41
 2843 0840 1E       		.uleb128 0x1e
 2844 0841 06000000 		.4byte	.LBB29
 2845 0845 0C000000 		.4byte	.LBE29
 2846 0849 5D080000 		.4byte	0x85d
 2847 084d 17       		.uleb128 0x17
 2848 084e 746D7000 		.ascii	"tmp\000"
 2849 0852 01       		.byte	0x1
 2850 0853 A1       		.byte	0xa1
 2851 0854 7B000000 		.4byte	0x7b
 2852 0858 7A050000 		.4byte	.LLST42
 2853 085c 00       		.byte	0x0
 2854 085d 1E       		.uleb128 0x1e
 2855 085e 32000000 		.4byte	.LBB30
 2856 0862 38000000 		.4byte	.LBE30
 2857 0866 7A080000 		.4byte	0x87a
 2858 086a 17       		.uleb128 0x17
 2859 086b 746D7000 		.ascii	"tmp\000"
 2860 086f 01       		.byte	0x1
 2861 0870 AE       		.byte	0xae
 2862 0871 7B000000 		.4byte	0x7b
 2863 0875 8D050000 		.4byte	.LLST43
 2864 0879 00       		.byte	0x0
 2865 087a 20       		.uleb128 0x20
 2866 087b 3A000000 		.4byte	.LBB31
 2867 087f 40000000 		.4byte	.LBE31
 2868 0883 23       		.uleb128 0x23
 2869 0884 746D7000 		.ascii	"tmp\000"
 2870 0888 01       		.byte	0x1
 2871 0889 A7       		.byte	0xa7
 2872 088a 7B000000 		.4byte	0x7b
 2873 088e 01       		.byte	0x1
 2874 088f 53       		.byte	0x53
 2875 0890 00       		.byte	0x0
 2876 0891 00       		.byte	0x0
 2877 0892 1B       		.uleb128 0x1b
 2878 0893 01       		.byte	0x1
 2879 0894 E7000000 		.4byte	.LASF72
 2880 0898 01       		.byte	0x1
 2881 0899 5801     		.2byte	0x158
 2882 089b 01       		.byte	0x1
 2883 089c C7000000 		.4byte	0xc7
 2884 08a0 00000000 		.4byte	.LFB17
 2885 08a4 30000000 		.4byte	.LFE17
 2886 08a8 A0050000 		.4byte	.LLST44
 2887 08ac CF080000 		.4byte	0x8cf
ARM GAS  /tmp/ccm5nllD.s 			page 52


 2888 08b0 19       		.uleb128 0x19
 2889 08b1 6F717000 		.ascii	"oqp\000"
 2890 08b5 01       		.byte	0x1
 2891 08b6 5801     		.2byte	0x158
 2892 08b8 07050000 		.4byte	0x507
 2893 08bc BF050000 		.4byte	.LLST45
 2894 08c0 1A       		.uleb128 0x1a
 2895 08c1 6200     		.ascii	"b\000"
 2896 08c3 01       		.byte	0x1
 2897 08c4 5901     		.2byte	0x159
 2898 08c6 49000000 		.4byte	0x49
 2899 08ca DD050000 		.4byte	.LLST46
 2900 08ce 00       		.byte	0x0
 2901 08cf 21       		.uleb128 0x21
 2902 08d0 01       		.byte	0x1
 2903 08d1 28010000 		.4byte	.LASF73
 2904 08d5 01       		.byte	0x1
 2905 08d6 7F       		.byte	0x7f
 2906 08d7 01       		.byte	0x1
 2907 08d8 C7000000 		.4byte	0xc7
 2908 08dc 00000000 		.4byte	.LFB10
 2909 08e0 30000000 		.4byte	.LFE10
 2910 08e4 F0050000 		.4byte	.LLST47
 2911 08e8 09090000 		.4byte	0x909
 2912 08ec 16       		.uleb128 0x16
 2913 08ed 69717000 		.ascii	"iqp\000"
 2914 08f1 01       		.byte	0x1
 2915 08f2 7F       		.byte	0x7f
 2916 08f3 C4040000 		.4byte	0x4c4
 2917 08f7 0F060000 		.4byte	.LLST48
 2918 08fb 16       		.uleb128 0x16
 2919 08fc 6200     		.ascii	"b\000"
 2920 08fe 01       		.byte	0x1
 2921 08ff 7F       		.byte	0x7f
 2922 0900 49000000 		.4byte	0x49
 2923 0904 2D060000 		.4byte	.LLST49
 2924 0908 00       		.byte	0x0
 2925 0909 24       		.uleb128 0x24
 2926 090a 01       		.byte	0x1
 2927 090b D5020000 		.4byte	.LASF74
 2928 090f 01       		.byte	0x1
 2929 0910 2101     		.2byte	0x121
 2930 0912 01       		.byte	0x1
 2931 0913 00000000 		.4byte	.LFB15
 2932 0917 10000000 		.4byte	.LFE15
 2933 091b 01       		.byte	0x1
 2934 091c 5D       		.byte	0x5d
 2935 091d 32090000 		.4byte	0x932
 2936 0921 19       		.uleb128 0x19
 2937 0922 6F717000 		.ascii	"oqp\000"
 2938 0926 01       		.byte	0x1
 2939 0927 2101     		.2byte	0x121
 2940 0929 07050000 		.4byte	0x507
 2941 092d 4B060000 		.4byte	.LLST51
 2942 0931 00       		.byte	0x0
 2943 0932 25       		.uleb128 0x25
 2944 0933 01       		.byte	0x1
ARM GAS  /tmp/ccm5nllD.s 			page 53


 2945 0934 44010000 		.4byte	.LASF75
 2946 0938 01       		.byte	0x1
 2947 0939 6C       		.byte	0x6c
 2948 093a 01       		.byte	0x1
 2949 093b 00000000 		.4byte	.LFB9
 2950 093f 10000000 		.4byte	.LFE9
 2951 0943 01       		.byte	0x1
 2952 0944 5D       		.byte	0x5d
 2953 0945 59090000 		.4byte	0x959
 2954 0949 16       		.uleb128 0x16
 2955 094a 69717000 		.ascii	"iqp\000"
 2956 094e 01       		.byte	0x1
 2957 094f 6C       		.byte	0x6c
 2958 0950 C4040000 		.4byte	0x4c4
 2959 0954 5E060000 		.4byte	.LLST53
 2960 0958 00       		.byte	0x0
 2961 0959 26       		.uleb128 0x26
 2962 095a 01       		.byte	0x1
 2963 095b 5B000000 		.4byte	.LASF76
 2964 095f 01       		.byte	0x1
 2965 0960 FC       		.byte	0xfc
 2966 0961 01       		.byte	0x1
 2967 0962 00000000 		.4byte	.LFB13
 2968 0966 18000000 		.4byte	.LFE13
 2969 096a 7C060000 		.4byte	.LLST54
 2970 096e AE090000 		.4byte	0x9ae
 2971 0972 16       		.uleb128 0x16
 2972 0973 6F717000 		.ascii	"oqp\000"
 2973 0977 01       		.byte	0x1
 2974 0978 FC       		.byte	0xfc
 2975 0979 07050000 		.4byte	0x507
 2976 097d 9B060000 		.4byte	.LLST55
 2977 0981 16       		.uleb128 0x16
 2978 0982 627000   		.ascii	"bp\000"
 2979 0985 01       		.byte	0x1
 2980 0986 FC       		.byte	0xfc
 2981 0987 63040000 		.4byte	0x463
 2982 098b AE060000 		.4byte	.LLST56
 2983 098f 22       		.uleb128 0x22
 2984 0990 6F010000 		.4byte	.LASF77
 2985 0994 01       		.byte	0x1
 2986 0995 FC       		.byte	0xfc
 2987 0996 30000000 		.4byte	0x30
 2988 099a C1060000 		.4byte	.LLST57
 2989 099e 22       		.uleb128 0x22
 2990 099f 15000000 		.4byte	.LASF78
 2991 09a3 01       		.byte	0x1
 2992 09a4 FC       		.byte	0xfc
 2993 09a5 40040000 		.4byte	0x440
 2994 09a9 D4060000 		.4byte	.LLST58
 2995 09ad 00       		.byte	0x0
 2996 09ae 27       		.uleb128 0x27
 2997 09af 01       		.byte	0x1
 2998 09b0 35030000 		.4byte	.LASF83
 2999 09b4 01       		.byte	0x1
 3000 09b5 47       		.byte	0x47
 3001 09b6 01       		.byte	0x1
ARM GAS  /tmp/ccm5nllD.s 			page 54


 3002 09b7 00000000 		.4byte	.LFB7
 3003 09bb 14000000 		.4byte	.LFE7
 3004 09bf 01       		.byte	0x1
 3005 09c0 5D       		.byte	0x5d
 3006 09c1 16       		.uleb128 0x16
 3007 09c2 69717000 		.ascii	"iqp\000"
 3008 09c6 01       		.byte	0x1
 3009 09c7 47       		.byte	0x47
 3010 09c8 C4040000 		.4byte	0x4c4
 3011 09cc E7060000 		.4byte	.LLST60
 3012 09d0 16       		.uleb128 0x16
 3013 09d1 627000   		.ascii	"bp\000"
 3014 09d4 01       		.byte	0x1
 3015 09d5 47       		.byte	0x47
 3016 09d6 63040000 		.4byte	0x463
 3017 09da FA060000 		.4byte	.LLST61
 3018 09de 22       		.uleb128 0x22
 3019 09df 6F010000 		.4byte	.LASF77
 3020 09e3 01       		.byte	0x1
 3021 09e4 47       		.byte	0x47
 3022 09e5 30000000 		.4byte	0x30
 3023 09e9 0D070000 		.4byte	.LLST62
 3024 09ed 22       		.uleb128 0x22
 3025 09ee D0020000 		.4byte	.LASF79
 3026 09f2 01       		.byte	0x1
 3027 09f3 47       		.byte	0x47
 3028 09f4 40040000 		.4byte	0x440
 3029 09f8 20070000 		.4byte	.LLST63
 3030 09fc 00       		.byte	0x0
 3031 09fd 00       		.byte	0x0
 3032              		.section	.debug_abbrev
 3033 0000 01       		.uleb128 0x1
 3034 0001 11       		.uleb128 0x11
 3035 0002 01       		.byte	0x1
 3036 0003 25       		.uleb128 0x25
 3037 0004 0E       		.uleb128 0xe
 3038 0005 13       		.uleb128 0x13
 3039 0006 0B       		.uleb128 0xb
 3040 0007 03       		.uleb128 0x3
 3041 0008 0E       		.uleb128 0xe
 3042 0009 1B       		.uleb128 0x1b
 3043 000a 0E       		.uleb128 0xe
 3044 000b 11       		.uleb128 0x11
 3045 000c 01       		.uleb128 0x1
 3046 000d 52       		.uleb128 0x52
 3047 000e 01       		.uleb128 0x1
 3048 000f 55       		.uleb128 0x55
 3049 0010 06       		.uleb128 0x6
 3050 0011 10       		.uleb128 0x10
 3051 0012 06       		.uleb128 0x6
 3052 0013 00       		.byte	0x0
 3053 0014 00       		.byte	0x0
 3054 0015 02       		.uleb128 0x2
 3055 0016 24       		.uleb128 0x24
 3056 0017 00       		.byte	0x0
 3057 0018 0B       		.uleb128 0xb
 3058 0019 0B       		.uleb128 0xb
ARM GAS  /tmp/ccm5nllD.s 			page 55


 3059 001a 3E       		.uleb128 0x3e
 3060 001b 0B       		.uleb128 0xb
 3061 001c 03       		.uleb128 0x3
 3062 001d 08       		.uleb128 0x8
 3063 001e 00       		.byte	0x0
 3064 001f 00       		.byte	0x0
 3065 0020 03       		.uleb128 0x3
 3066 0021 16       		.uleb128 0x16
 3067 0022 00       		.byte	0x0
 3068 0023 03       		.uleb128 0x3
 3069 0024 0E       		.uleb128 0xe
 3070 0025 3A       		.uleb128 0x3a
 3071 0026 0B       		.uleb128 0xb
 3072 0027 3B       		.uleb128 0x3b
 3073 0028 0B       		.uleb128 0xb
 3074 0029 49       		.uleb128 0x49
 3075 002a 13       		.uleb128 0x13
 3076 002b 00       		.byte	0x0
 3077 002c 00       		.byte	0x0
 3078 002d 04       		.uleb128 0x4
 3079 002e 24       		.uleb128 0x24
 3080 002f 00       		.byte	0x0
 3081 0030 0B       		.uleb128 0xb
 3082 0031 0B       		.uleb128 0xb
 3083 0032 3E       		.uleb128 0x3e
 3084 0033 0B       		.uleb128 0xb
 3085 0034 03       		.uleb128 0x3
 3086 0035 0E       		.uleb128 0xe
 3087 0036 00       		.byte	0x0
 3088 0037 00       		.byte	0x0
 3089 0038 05       		.uleb128 0x5
 3090 0039 13       		.uleb128 0x13
 3091 003a 01       		.byte	0x1
 3092 003b 03       		.uleb128 0x3
 3093 003c 0E       		.uleb128 0xe
 3094 003d 0B       		.uleb128 0xb
 3095 003e 0B       		.uleb128 0xb
 3096 003f 3A       		.uleb128 0x3a
 3097 0040 0B       		.uleb128 0xb
 3098 0041 3B       		.uleb128 0x3b
 3099 0042 0B       		.uleb128 0xb
 3100 0043 01       		.uleb128 0x1
 3101 0044 13       		.uleb128 0x13
 3102 0045 00       		.byte	0x0
 3103 0046 00       		.byte	0x0
 3104 0047 06       		.uleb128 0x6
 3105 0048 0D       		.uleb128 0xd
 3106 0049 00       		.byte	0x0
 3107 004a 03       		.uleb128 0x3
 3108 004b 0E       		.uleb128 0xe
 3109 004c 3A       		.uleb128 0x3a
 3110 004d 0B       		.uleb128 0xb
 3111 004e 3B       		.uleb128 0x3b
 3112 004f 0B       		.uleb128 0xb
 3113 0050 49       		.uleb128 0x49
 3114 0051 13       		.uleb128 0x13
 3115 0052 38       		.uleb128 0x38
ARM GAS  /tmp/ccm5nllD.s 			page 56


 3116 0053 0A       		.uleb128 0xa
 3117 0054 00       		.byte	0x0
 3118 0055 00       		.byte	0x0
 3119 0056 07       		.uleb128 0x7
 3120 0057 0D       		.uleb128 0xd
 3121 0058 00       		.byte	0x0
 3122 0059 03       		.uleb128 0x3
 3123 005a 08       		.uleb128 0x8
 3124 005b 3A       		.uleb128 0x3a
 3125 005c 0B       		.uleb128 0xb
 3126 005d 3B       		.uleb128 0x3b
 3127 005e 0B       		.uleb128 0xb
 3128 005f 49       		.uleb128 0x49
 3129 0060 13       		.uleb128 0x13
 3130 0061 38       		.uleb128 0x38
 3131 0062 0A       		.uleb128 0xa
 3132 0063 00       		.byte	0x0
 3133 0064 00       		.byte	0x0
 3134 0065 08       		.uleb128 0x8
 3135 0066 13       		.uleb128 0x13
 3136 0067 01       		.byte	0x1
 3137 0068 0B       		.uleb128 0xb
 3138 0069 0B       		.uleb128 0xb
 3139 006a 3A       		.uleb128 0x3a
 3140 006b 0B       		.uleb128 0xb
 3141 006c 3B       		.uleb128 0x3b
 3142 006d 0B       		.uleb128 0xb
 3143 006e 01       		.uleb128 0x1
 3144 006f 13       		.uleb128 0x13
 3145 0070 00       		.byte	0x0
 3146 0071 00       		.byte	0x0
 3147 0072 09       		.uleb128 0x9
 3148 0073 0F       		.uleb128 0xf
 3149 0074 00       		.byte	0x0
 3150 0075 0B       		.uleb128 0xb
 3151 0076 0B       		.uleb128 0xb
 3152 0077 49       		.uleb128 0x49
 3153 0078 13       		.uleb128 0x13
 3154 0079 00       		.byte	0x0
 3155 007a 00       		.byte	0x0
 3156 007b 0A       		.uleb128 0xa
 3157 007c 24       		.uleb128 0x24
 3158 007d 00       		.byte	0x0
 3159 007e 0B       		.uleb128 0xb
 3160 007f 0B       		.uleb128 0xb
 3161 0080 3E       		.uleb128 0x3e
 3162 0081 0B       		.uleb128 0xb
 3163 0082 00       		.byte	0x0
 3164 0083 00       		.byte	0x0
 3165 0084 0B       		.uleb128 0xb
 3166 0085 16       		.uleb128 0x16
 3167 0086 00       		.byte	0x0
 3168 0087 03       		.uleb128 0x3
 3169 0088 0E       		.uleb128 0xe
 3170 0089 3A       		.uleb128 0x3a
 3171 008a 0B       		.uleb128 0xb
 3172 008b 3B       		.uleb128 0x3b
ARM GAS  /tmp/ccm5nllD.s 			page 57


 3173 008c 05       		.uleb128 0x5
 3174 008d 49       		.uleb128 0x49
 3175 008e 13       		.uleb128 0x13
 3176 008f 00       		.byte	0x0
 3177 0090 00       		.byte	0x0
 3178 0091 0C       		.uleb128 0xc
 3179 0092 0F       		.uleb128 0xf
 3180 0093 00       		.byte	0x0
 3181 0094 0B       		.uleb128 0xb
 3182 0095 0B       		.uleb128 0xb
 3183 0096 00       		.byte	0x0
 3184 0097 00       		.byte	0x0
 3185 0098 0D       		.uleb128 0xd
 3186 0099 13       		.uleb128 0x13
 3187 009a 01       		.byte	0x1
 3188 009b 03       		.uleb128 0x3
 3189 009c 0E       		.uleb128 0xe
 3190 009d 0B       		.uleb128 0xb
 3191 009e 0B       		.uleb128 0xb
 3192 009f 3A       		.uleb128 0x3a
 3193 00a0 0B       		.uleb128 0xb
 3194 00a1 3B       		.uleb128 0x3b
 3195 00a2 05       		.uleb128 0x5
 3196 00a3 01       		.uleb128 0x1
 3197 00a4 13       		.uleb128 0x13
 3198 00a5 00       		.byte	0x0
 3199 00a6 00       		.byte	0x0
 3200 00a7 0E       		.uleb128 0xe
 3201 00a8 0D       		.uleb128 0xd
 3202 00a9 00       		.byte	0x0
 3203 00aa 03       		.uleb128 0x3
 3204 00ab 08       		.uleb128 0x8
 3205 00ac 3A       		.uleb128 0x3a
 3206 00ad 0B       		.uleb128 0xb
 3207 00ae 3B       		.uleb128 0x3b
 3208 00af 05       		.uleb128 0x5
 3209 00b0 49       		.uleb128 0x49
 3210 00b1 13       		.uleb128 0x13
 3211 00b2 38       		.uleb128 0x38
 3212 00b3 0A       		.uleb128 0xa
 3213 00b4 00       		.byte	0x0
 3214 00b5 00       		.byte	0x0
 3215 00b6 0F       		.uleb128 0xf
 3216 00b7 35       		.uleb128 0x35
 3217 00b8 00       		.byte	0x0
 3218 00b9 49       		.uleb128 0x49
 3219 00ba 13       		.uleb128 0x13
 3220 00bb 00       		.byte	0x0
 3221 00bc 00       		.byte	0x0
 3222 00bd 10       		.uleb128 0x10
 3223 00be 17       		.uleb128 0x17
 3224 00bf 01       		.byte	0x1
 3225 00c0 0B       		.uleb128 0xb
 3226 00c1 0B       		.uleb128 0xb
 3227 00c2 3A       		.uleb128 0x3a
 3228 00c3 0B       		.uleb128 0xb
 3229 00c4 3B       		.uleb128 0x3b
ARM GAS  /tmp/ccm5nllD.s 			page 58


 3230 00c5 0B       		.uleb128 0xb
 3231 00c6 01       		.uleb128 0x1
 3232 00c7 13       		.uleb128 0x13
 3233 00c8 00       		.byte	0x0
 3234 00c9 00       		.byte	0x0
 3235 00ca 11       		.uleb128 0x11
 3236 00cb 0D       		.uleb128 0xd
 3237 00cc 00       		.byte	0x0
 3238 00cd 03       		.uleb128 0x3
 3239 00ce 0E       		.uleb128 0xe
 3240 00cf 3A       		.uleb128 0x3a
 3241 00d0 0B       		.uleb128 0xb
 3242 00d1 3B       		.uleb128 0x3b
 3243 00d2 0B       		.uleb128 0xb
 3244 00d3 49       		.uleb128 0x49
 3245 00d4 13       		.uleb128 0x13
 3246 00d5 00       		.byte	0x0
 3247 00d6 00       		.byte	0x0
 3248 00d7 12       		.uleb128 0x12
 3249 00d8 15       		.uleb128 0x15
 3250 00d9 01       		.byte	0x1
 3251 00da 27       		.uleb128 0x27
 3252 00db 0C       		.uleb128 0xc
 3253 00dc 01       		.uleb128 0x1
 3254 00dd 13       		.uleb128 0x13
 3255 00de 00       		.byte	0x0
 3256 00df 00       		.byte	0x0
 3257 00e0 13       		.uleb128 0x13
 3258 00e1 05       		.uleb128 0x5
 3259 00e2 00       		.byte	0x0
 3260 00e3 49       		.uleb128 0x49
 3261 00e4 13       		.uleb128 0x13
 3262 00e5 00       		.byte	0x0
 3263 00e6 00       		.byte	0x0
 3264 00e7 14       		.uleb128 0x14
 3265 00e8 26       		.uleb128 0x26
 3266 00e9 00       		.byte	0x0
 3267 00ea 49       		.uleb128 0x49
 3268 00eb 13       		.uleb128 0x13
 3269 00ec 00       		.byte	0x0
 3270 00ed 00       		.byte	0x0
 3271 00ee 15       		.uleb128 0x15
 3272 00ef 2E       		.uleb128 0x2e
 3273 00f0 01       		.byte	0x1
 3274 00f1 3F       		.uleb128 0x3f
 3275 00f2 0C       		.uleb128 0xc
 3276 00f3 03       		.uleb128 0x3
 3277 00f4 0E       		.uleb128 0xe
 3278 00f5 3A       		.uleb128 0x3a
 3279 00f6 0B       		.uleb128 0xb
 3280 00f7 3B       		.uleb128 0x3b
 3281 00f8 0B       		.uleb128 0xb
 3282 00f9 27       		.uleb128 0x27
 3283 00fa 0C       		.uleb128 0xc
 3284 00fb 49       		.uleb128 0x49
 3285 00fc 13       		.uleb128 0x13
 3286 00fd 11       		.uleb128 0x11
ARM GAS  /tmp/ccm5nllD.s 			page 59


 3287 00fe 01       		.uleb128 0x1
 3288 00ff 12       		.uleb128 0x12
 3289 0100 01       		.uleb128 0x1
 3290 0101 40       		.uleb128 0x40
 3291 0102 0A       		.uleb128 0xa
 3292 0103 01       		.uleb128 0x1
 3293 0104 13       		.uleb128 0x13
 3294 0105 00       		.byte	0x0
 3295 0106 00       		.byte	0x0
 3296 0107 16       		.uleb128 0x16
 3297 0108 05       		.uleb128 0x5
 3298 0109 00       		.byte	0x0
 3299 010a 03       		.uleb128 0x3
 3300 010b 08       		.uleb128 0x8
 3301 010c 3A       		.uleb128 0x3a
 3302 010d 0B       		.uleb128 0xb
 3303 010e 3B       		.uleb128 0x3b
 3304 010f 0B       		.uleb128 0xb
 3305 0110 49       		.uleb128 0x49
 3306 0111 13       		.uleb128 0x13
 3307 0112 02       		.uleb128 0x2
 3308 0113 06       		.uleb128 0x6
 3309 0114 00       		.byte	0x0
 3310 0115 00       		.byte	0x0
 3311 0116 17       		.uleb128 0x17
 3312 0117 34       		.uleb128 0x34
 3313 0118 00       		.byte	0x0
 3314 0119 03       		.uleb128 0x3
 3315 011a 08       		.uleb128 0x8
 3316 011b 3A       		.uleb128 0x3a
 3317 011c 0B       		.uleb128 0xb
 3318 011d 3B       		.uleb128 0x3b
 3319 011e 0B       		.uleb128 0xb
 3320 011f 49       		.uleb128 0x49
 3321 0120 13       		.uleb128 0x13
 3322 0121 02       		.uleb128 0x2
 3323 0122 06       		.uleb128 0x6
 3324 0123 00       		.byte	0x0
 3325 0124 00       		.byte	0x0
 3326 0125 18       		.uleb128 0x18
 3327 0126 2E       		.uleb128 0x2e
 3328 0127 01       		.byte	0x1
 3329 0128 3F       		.uleb128 0x3f
 3330 0129 0C       		.uleb128 0xc
 3331 012a 03       		.uleb128 0x3
 3332 012b 0E       		.uleb128 0xe
 3333 012c 3A       		.uleb128 0x3a
 3334 012d 0B       		.uleb128 0xb
 3335 012e 3B       		.uleb128 0x3b
 3336 012f 05       		.uleb128 0x5
 3337 0130 27       		.uleb128 0x27
 3338 0131 0C       		.uleb128 0xc
 3339 0132 49       		.uleb128 0x49
 3340 0133 13       		.uleb128 0x13
 3341 0134 11       		.uleb128 0x11
 3342 0135 01       		.uleb128 0x1
 3343 0136 12       		.uleb128 0x12
ARM GAS  /tmp/ccm5nllD.s 			page 60


 3344 0137 01       		.uleb128 0x1
 3345 0138 40       		.uleb128 0x40
 3346 0139 0A       		.uleb128 0xa
 3347 013a 01       		.uleb128 0x1
 3348 013b 13       		.uleb128 0x13
 3349 013c 00       		.byte	0x0
 3350 013d 00       		.byte	0x0
 3351 013e 19       		.uleb128 0x19
 3352 013f 05       		.uleb128 0x5
 3353 0140 00       		.byte	0x0
 3354 0141 03       		.uleb128 0x3
 3355 0142 08       		.uleb128 0x8
 3356 0143 3A       		.uleb128 0x3a
 3357 0144 0B       		.uleb128 0xb
 3358 0145 3B       		.uleb128 0x3b
 3359 0146 05       		.uleb128 0x5
 3360 0147 49       		.uleb128 0x49
 3361 0148 13       		.uleb128 0x13
 3362 0149 02       		.uleb128 0x2
 3363 014a 06       		.uleb128 0x6
 3364 014b 00       		.byte	0x0
 3365 014c 00       		.byte	0x0
 3366 014d 1A       		.uleb128 0x1a
 3367 014e 34       		.uleb128 0x34
 3368 014f 00       		.byte	0x0
 3369 0150 03       		.uleb128 0x3
 3370 0151 08       		.uleb128 0x8
 3371 0152 3A       		.uleb128 0x3a
 3372 0153 0B       		.uleb128 0xb
 3373 0154 3B       		.uleb128 0x3b
 3374 0155 05       		.uleb128 0x5
 3375 0156 49       		.uleb128 0x49
 3376 0157 13       		.uleb128 0x13
 3377 0158 02       		.uleb128 0x2
 3378 0159 06       		.uleb128 0x6
 3379 015a 00       		.byte	0x0
 3380 015b 00       		.byte	0x0
 3381 015c 1B       		.uleb128 0x1b
 3382 015d 2E       		.uleb128 0x2e
 3383 015e 01       		.byte	0x1
 3384 015f 3F       		.uleb128 0x3f
 3385 0160 0C       		.uleb128 0xc
 3386 0161 03       		.uleb128 0x3
 3387 0162 0E       		.uleb128 0xe
 3388 0163 3A       		.uleb128 0x3a
 3389 0164 0B       		.uleb128 0xb
 3390 0165 3B       		.uleb128 0x3b
 3391 0166 05       		.uleb128 0x5
 3392 0167 27       		.uleb128 0x27
 3393 0168 0C       		.uleb128 0xc
 3394 0169 49       		.uleb128 0x49
 3395 016a 13       		.uleb128 0x13
 3396 016b 11       		.uleb128 0x11
 3397 016c 01       		.uleb128 0x1
 3398 016d 12       		.uleb128 0x12
 3399 016e 01       		.uleb128 0x1
 3400 016f 40       		.uleb128 0x40
ARM GAS  /tmp/ccm5nllD.s 			page 61


 3401 0170 06       		.uleb128 0x6
 3402 0171 01       		.uleb128 0x1
 3403 0172 13       		.uleb128 0x13
 3404 0173 00       		.byte	0x0
 3405 0174 00       		.byte	0x0
 3406 0175 1C       		.uleb128 0x1c
 3407 0176 05       		.uleb128 0x5
 3408 0177 00       		.byte	0x0
 3409 0178 03       		.uleb128 0x3
 3410 0179 0E       		.uleb128 0xe
 3411 017a 3A       		.uleb128 0x3a
 3412 017b 0B       		.uleb128 0xb
 3413 017c 3B       		.uleb128 0x3b
 3414 017d 05       		.uleb128 0x5
 3415 017e 49       		.uleb128 0x49
 3416 017f 13       		.uleb128 0x13
 3417 0180 02       		.uleb128 0x2
 3418 0181 06       		.uleb128 0x6
 3419 0182 00       		.byte	0x0
 3420 0183 00       		.byte	0x0
 3421 0184 1D       		.uleb128 0x1d
 3422 0185 34       		.uleb128 0x34
 3423 0186 00       		.byte	0x0
 3424 0187 03       		.uleb128 0x3
 3425 0188 08       		.uleb128 0x8
 3426 0189 3A       		.uleb128 0x3a
 3427 018a 0B       		.uleb128 0xb
 3428 018b 3B       		.uleb128 0x3b
 3429 018c 05       		.uleb128 0x5
 3430 018d 49       		.uleb128 0x49
 3431 018e 13       		.uleb128 0x13
 3432 018f 02       		.uleb128 0x2
 3433 0190 0A       		.uleb128 0xa
 3434 0191 00       		.byte	0x0
 3435 0192 00       		.byte	0x0
 3436 0193 1E       		.uleb128 0x1e
 3437 0194 0B       		.uleb128 0xb
 3438 0195 01       		.byte	0x1
 3439 0196 11       		.uleb128 0x11
 3440 0197 01       		.uleb128 0x1
 3441 0198 12       		.uleb128 0x12
 3442 0199 01       		.uleb128 0x1
 3443 019a 01       		.uleb128 0x1
 3444 019b 13       		.uleb128 0x13
 3445 019c 00       		.byte	0x0
 3446 019d 00       		.byte	0x0
 3447 019e 1F       		.uleb128 0x1f
 3448 019f 0B       		.uleb128 0xb
 3449 01a0 01       		.byte	0x1
 3450 01a1 55       		.uleb128 0x55
 3451 01a2 06       		.uleb128 0x6
 3452 01a3 01       		.uleb128 0x1
 3453 01a4 13       		.uleb128 0x13
 3454 01a5 00       		.byte	0x0
 3455 01a6 00       		.byte	0x0
 3456 01a7 20       		.uleb128 0x20
 3457 01a8 0B       		.uleb128 0xb
ARM GAS  /tmp/ccm5nllD.s 			page 62


 3458 01a9 01       		.byte	0x1
 3459 01aa 11       		.uleb128 0x11
 3460 01ab 01       		.uleb128 0x1
 3461 01ac 12       		.uleb128 0x12
 3462 01ad 01       		.uleb128 0x1
 3463 01ae 00       		.byte	0x0
 3464 01af 00       		.byte	0x0
 3465 01b0 21       		.uleb128 0x21
 3466 01b1 2E       		.uleb128 0x2e
 3467 01b2 01       		.byte	0x1
 3468 01b3 3F       		.uleb128 0x3f
 3469 01b4 0C       		.uleb128 0xc
 3470 01b5 03       		.uleb128 0x3
 3471 01b6 0E       		.uleb128 0xe
 3472 01b7 3A       		.uleb128 0x3a
 3473 01b8 0B       		.uleb128 0xb
 3474 01b9 3B       		.uleb128 0x3b
 3475 01ba 0B       		.uleb128 0xb
 3476 01bb 27       		.uleb128 0x27
 3477 01bc 0C       		.uleb128 0xc
 3478 01bd 49       		.uleb128 0x49
 3479 01be 13       		.uleb128 0x13
 3480 01bf 11       		.uleb128 0x11
 3481 01c0 01       		.uleb128 0x1
 3482 01c1 12       		.uleb128 0x12
 3483 01c2 01       		.uleb128 0x1
 3484 01c3 40       		.uleb128 0x40
 3485 01c4 06       		.uleb128 0x6
 3486 01c5 01       		.uleb128 0x1
 3487 01c6 13       		.uleb128 0x13
 3488 01c7 00       		.byte	0x0
 3489 01c8 00       		.byte	0x0
 3490 01c9 22       		.uleb128 0x22
 3491 01ca 05       		.uleb128 0x5
 3492 01cb 00       		.byte	0x0
 3493 01cc 03       		.uleb128 0x3
 3494 01cd 0E       		.uleb128 0xe
 3495 01ce 3A       		.uleb128 0x3a
 3496 01cf 0B       		.uleb128 0xb
 3497 01d0 3B       		.uleb128 0x3b
 3498 01d1 0B       		.uleb128 0xb
 3499 01d2 49       		.uleb128 0x49
 3500 01d3 13       		.uleb128 0x13
 3501 01d4 02       		.uleb128 0x2
 3502 01d5 06       		.uleb128 0x6
 3503 01d6 00       		.byte	0x0
 3504 01d7 00       		.byte	0x0
 3505 01d8 23       		.uleb128 0x23
 3506 01d9 34       		.uleb128 0x34
 3507 01da 00       		.byte	0x0
 3508 01db 03       		.uleb128 0x3
 3509 01dc 08       		.uleb128 0x8
 3510 01dd 3A       		.uleb128 0x3a
 3511 01de 0B       		.uleb128 0xb
 3512 01df 3B       		.uleb128 0x3b
 3513 01e0 0B       		.uleb128 0xb
 3514 01e1 49       		.uleb128 0x49
ARM GAS  /tmp/ccm5nllD.s 			page 63


 3515 01e2 13       		.uleb128 0x13
 3516 01e3 02       		.uleb128 0x2
 3517 01e4 0A       		.uleb128 0xa
 3518 01e5 00       		.byte	0x0
 3519 01e6 00       		.byte	0x0
 3520 01e7 24       		.uleb128 0x24
 3521 01e8 2E       		.uleb128 0x2e
 3522 01e9 01       		.byte	0x1
 3523 01ea 3F       		.uleb128 0x3f
 3524 01eb 0C       		.uleb128 0xc
 3525 01ec 03       		.uleb128 0x3
 3526 01ed 0E       		.uleb128 0xe
 3527 01ee 3A       		.uleb128 0x3a
 3528 01ef 0B       		.uleb128 0xb
 3529 01f0 3B       		.uleb128 0x3b
 3530 01f1 05       		.uleb128 0x5
 3531 01f2 27       		.uleb128 0x27
 3532 01f3 0C       		.uleb128 0xc
 3533 01f4 11       		.uleb128 0x11
 3534 01f5 01       		.uleb128 0x1
 3535 01f6 12       		.uleb128 0x12
 3536 01f7 01       		.uleb128 0x1
 3537 01f8 40       		.uleb128 0x40
 3538 01f9 0A       		.uleb128 0xa
 3539 01fa 01       		.uleb128 0x1
 3540 01fb 13       		.uleb128 0x13
 3541 01fc 00       		.byte	0x0
 3542 01fd 00       		.byte	0x0
 3543 01fe 25       		.uleb128 0x25
 3544 01ff 2E       		.uleb128 0x2e
 3545 0200 01       		.byte	0x1
 3546 0201 3F       		.uleb128 0x3f
 3547 0202 0C       		.uleb128 0xc
 3548 0203 03       		.uleb128 0x3
 3549 0204 0E       		.uleb128 0xe
 3550 0205 3A       		.uleb128 0x3a
 3551 0206 0B       		.uleb128 0xb
 3552 0207 3B       		.uleb128 0x3b
 3553 0208 0B       		.uleb128 0xb
 3554 0209 27       		.uleb128 0x27
 3555 020a 0C       		.uleb128 0xc
 3556 020b 11       		.uleb128 0x11
 3557 020c 01       		.uleb128 0x1
 3558 020d 12       		.uleb128 0x12
 3559 020e 01       		.uleb128 0x1
 3560 020f 40       		.uleb128 0x40
 3561 0210 0A       		.uleb128 0xa
 3562 0211 01       		.uleb128 0x1
 3563 0212 13       		.uleb128 0x13
 3564 0213 00       		.byte	0x0
 3565 0214 00       		.byte	0x0
 3566 0215 26       		.uleb128 0x26
 3567 0216 2E       		.uleb128 0x2e
 3568 0217 01       		.byte	0x1
 3569 0218 3F       		.uleb128 0x3f
 3570 0219 0C       		.uleb128 0xc
 3571 021a 03       		.uleb128 0x3
ARM GAS  /tmp/ccm5nllD.s 			page 64


 3572 021b 0E       		.uleb128 0xe
 3573 021c 3A       		.uleb128 0x3a
 3574 021d 0B       		.uleb128 0xb
 3575 021e 3B       		.uleb128 0x3b
 3576 021f 0B       		.uleb128 0xb
 3577 0220 27       		.uleb128 0x27
 3578 0221 0C       		.uleb128 0xc
 3579 0222 11       		.uleb128 0x11
 3580 0223 01       		.uleb128 0x1
 3581 0224 12       		.uleb128 0x12
 3582 0225 01       		.uleb128 0x1
 3583 0226 40       		.uleb128 0x40
 3584 0227 06       		.uleb128 0x6
 3585 0228 01       		.uleb128 0x1
 3586 0229 13       		.uleb128 0x13
 3587 022a 00       		.byte	0x0
 3588 022b 00       		.byte	0x0
 3589 022c 27       		.uleb128 0x27
 3590 022d 2E       		.uleb128 0x2e
 3591 022e 01       		.byte	0x1
 3592 022f 3F       		.uleb128 0x3f
 3593 0230 0C       		.uleb128 0xc
 3594 0231 03       		.uleb128 0x3
 3595 0232 0E       		.uleb128 0xe
 3596 0233 3A       		.uleb128 0x3a
 3597 0234 0B       		.uleb128 0xb
 3598 0235 3B       		.uleb128 0x3b
 3599 0236 0B       		.uleb128 0xb
 3600 0237 27       		.uleb128 0x27
 3601 0238 0C       		.uleb128 0xc
 3602 0239 11       		.uleb128 0x11
 3603 023a 01       		.uleb128 0x1
 3604 023b 12       		.uleb128 0x12
 3605 023c 01       		.uleb128 0x1
 3606 023d 40       		.uleb128 0x40
 3607 023e 0A       		.uleb128 0xa
 3608 023f 00       		.byte	0x0
 3609 0240 00       		.byte	0x0
 3610 0241 00       		.byte	0x0
 3611              		.section	.debug_pubnames,"",%progbits
 3612 0000 D1000000 		.4byte	0xd1
 3613 0004 0200     		.2byte	0x2
 3614 0006 00000000 		.4byte	.Ldebug_info0
 3615 000a FE090000 		.4byte	0x9fe
 3616 000e 8A040000 		.4byte	0x48a
 3617 0012 63684951 		.ascii	"chIQGetFullI\000"
 3617      47657446 
 3617      756C6C49 
 3617      00
 3618 001f CA040000 		.4byte	0x4ca
 3619 0023 63684F51 		.ascii	"chOQGetFullI\000"
 3619      47657446 
 3619      756C6C49 
 3619      00
 3620 0030 0D050000 		.4byte	0x50d
 3621 0034 63684F51 		.ascii	"chOQWriteTimeout\000"
 3621      57726974 
ARM GAS  /tmp/ccm5nllD.s 			page 65


 3621      6554696D 
 3621      656F7574 
 3621      00
 3622 0045 29060000 		.4byte	0x629
 3623 0049 63684F51 		.ascii	"chOQPutTimeout\000"
 3623      50757454 
 3623      696D656F 
 3623      757400
 3624 0058 DA060000 		.4byte	0x6da
 3625 005c 63684951 		.ascii	"chIQReadTimeout\000"
 3625      52656164 
 3625      54696D65 
 3625      6F757400 
 3626 006c E9070000 		.4byte	0x7e9
 3627 0070 63684951 		.ascii	"chIQGetTimeout\000"
 3627      47657454 
 3627      696D656F 
 3627      757400
 3628 007f 92080000 		.4byte	0x892
 3629 0083 63684F51 		.ascii	"chOQGetI\000"
 3629      47657449 
 3629      00
 3630 008c CF080000 		.4byte	0x8cf
 3631 0090 63684951 		.ascii	"chIQPutI\000"
 3631      50757449 
 3631      00
 3632 0099 09090000 		.4byte	0x909
 3633 009d 63684F51 		.ascii	"chOQResetI\000"
 3633      52657365 
 3633      744900
 3634 00a8 32090000 		.4byte	0x932
 3635 00ac 63684951 		.ascii	"chIQResetI\000"
 3635      52657365 
 3635      744900
 3636 00b7 59090000 		.4byte	0x959
 3637 00bb 63684F51 		.ascii	"chOQInit\000"
 3637      496E6974 
 3637      00
 3638 00c4 AE090000 		.4byte	0x9ae
 3639 00c8 63684951 		.ascii	"chIQInit\000"
 3639      496E6974 
 3639      00
 3640 00d1 00000000 		.4byte	0x0
 3641              		.section	.debug_aranges,"",%progbits
 3642 0000 74000000 		.4byte	0x74
 3643 0004 0200     		.2byte	0x2
 3644 0006 00000000 		.4byte	.Ldebug_info0
 3645 000a 04       		.byte	0x4
 3646 000b 00       		.byte	0x0
 3647 000c 0000     		.2byte	0x0
 3648 000e 0000     		.2byte	0x0
 3649 0010 00000000 		.4byte	.LFB8
 3650 0014 08000000 		.4byte	.LFE8-.LFB8
 3651 0018 00000000 		.4byte	.LFB14
 3652 001c 18000000 		.4byte	.LFE14-.LFB14
 3653 0020 00000000 		.4byte	.LFB18
 3654 0024 22010000 		.4byte	.LFE18-.LFB18
ARM GAS  /tmp/ccm5nllD.s 			page 66


 3655 0028 00000000 		.4byte	.LFB16
 3656 002c 44000000 		.4byte	.LFE16-.LFB16
 3657 0030 00000000 		.4byte	.LFB12
 3658 0034 22010000 		.4byte	.LFE12-.LFB12
 3659 0038 00000000 		.4byte	.LFB11
 3660 003c 42000000 		.4byte	.LFE11-.LFB11
 3661 0040 00000000 		.4byte	.LFB17
 3662 0044 30000000 		.4byte	.LFE17-.LFB17
 3663 0048 00000000 		.4byte	.LFB10
 3664 004c 30000000 		.4byte	.LFE10-.LFB10
 3665 0050 00000000 		.4byte	.LFB15
 3666 0054 10000000 		.4byte	.LFE15-.LFB15
 3667 0058 00000000 		.4byte	.LFB9
 3668 005c 10000000 		.4byte	.LFE9-.LFB9
 3669 0060 00000000 		.4byte	.LFB13
 3670 0064 18000000 		.4byte	.LFE13-.LFB13
 3671 0068 00000000 		.4byte	.LFB7
 3672 006c 14000000 		.4byte	.LFE7-.LFB7
 3673 0070 00000000 		.4byte	0x0
 3674 0074 00000000 		.4byte	0x0
 3675              		.section	.debug_ranges,"",%progbits
 3676              	.Ldebug_ranges0:
 3677 0000 42000000 		.4byte	.LBB3
 3678 0004 48000000 		.4byte	.LBE3
 3679 0008 9C000000 		.4byte	.LBB7
 3680 000c A2000000 		.4byte	.LBE7
 3681 0010 6A000000 		.4byte	.LBB5
 3682 0014 70000000 		.4byte	.LBE5
 3683 0018 00000000 		.4byte	0x0
 3684 001c 00000000 		.4byte	0x0
 3685 0020 4A000000 		.4byte	.LBB4
 3686 0024 52000000 		.4byte	.LBE4
 3687 0028 A6000000 		.4byte	.LBB9
 3688 002c AA000000 		.4byte	.LBE9
 3689 0030 A2000000 		.4byte	.LBB8
 3690 0034 A4000000 		.4byte	.LBE8
 3691 0038 78000000 		.4byte	.LBB6
 3692 003c 7E000000 		.4byte	.LBE6
 3693 0040 00000000 		.4byte	0x0
 3694 0044 00000000 		.4byte	0x0
 3695 0048 C6000000 		.4byte	.LBB10
 3696 004c CC000000 		.4byte	.LBE10
 3697 0050 E8000000 		.4byte	.LBB11
 3698 0054 F0000000 		.4byte	.LBE11
 3699 0058 00000000 		.4byte	0x0
 3700 005c 00000000 		.4byte	0x0
 3701 0060 42000000 		.4byte	.LBB18
 3702 0064 48000000 		.4byte	.LBE18
 3703 0068 9C000000 		.4byte	.LBB22
 3704 006c A2000000 		.4byte	.LBE22
 3705 0070 6A000000 		.4byte	.LBB20
 3706 0074 70000000 		.4byte	.LBE20
 3707 0078 00000000 		.4byte	0x0
 3708 007c 00000000 		.4byte	0x0
 3709 0080 4A000000 		.4byte	.LBB19
 3710 0084 52000000 		.4byte	.LBE19
 3711 0088 A6000000 		.4byte	.LBB24
ARM GAS  /tmp/ccm5nllD.s 			page 67


 3712 008c AA000000 		.4byte	.LBE24
 3713 0090 A2000000 		.4byte	.LBB23
 3714 0094 A4000000 		.4byte	.LBE23
 3715 0098 78000000 		.4byte	.LBB21
 3716 009c 7E000000 		.4byte	.LBE21
 3717 00a0 00000000 		.4byte	0x0
 3718 00a4 00000000 		.4byte	0x0
 3719 00a8 C6000000 		.4byte	.LBB25
 3720 00ac CC000000 		.4byte	.LBE25
 3721 00b0 E8000000 		.4byte	.LBB26
 3722 00b4 F0000000 		.4byte	.LBE26
 3723 00b8 00000000 		.4byte	0x0
 3724 00bc 00000000 		.4byte	0x0
 3725 00c0 00000000 		.4byte	.Ltext0
 3726 00c4 00000000 		.4byte	.Letext0
 3727 00c8 00000000 		.4byte	.LFB8
 3728 00cc 08000000 		.4byte	.LFE8
 3729 00d0 00000000 		.4byte	.LFB14
 3730 00d4 18000000 		.4byte	.LFE14
 3731 00d8 00000000 		.4byte	.LFB18
 3732 00dc 22010000 		.4byte	.LFE18
 3733 00e0 00000000 		.4byte	.LFB16
 3734 00e4 44000000 		.4byte	.LFE16
 3735 00e8 00000000 		.4byte	.LFB12
 3736 00ec 22010000 		.4byte	.LFE12
 3737 00f0 00000000 		.4byte	.LFB11
 3738 00f4 42000000 		.4byte	.LFE11
 3739 00f8 00000000 		.4byte	.LFB17
 3740 00fc 30000000 		.4byte	.LFE17
 3741 0100 00000000 		.4byte	.LFB10
 3742 0104 30000000 		.4byte	.LFE10
 3743 0108 00000000 		.4byte	.LFB15
 3744 010c 10000000 		.4byte	.LFE15
 3745 0110 00000000 		.4byte	.LFB9
 3746 0114 10000000 		.4byte	.LFE9
 3747 0118 00000000 		.4byte	.LFB13
 3748 011c 18000000 		.4byte	.LFE13
 3749 0120 00000000 		.4byte	.LFB7
 3750 0124 14000000 		.4byte	.LFE7
 3751 0128 00000000 		.4byte	0x0
 3752 012c 00000000 		.4byte	0x0
 3753              		.section	.debug_str,"MS",%progbits,1
 3754              	.LASF69:
 3755 0000 63684F51 		.ascii	"chOQPutTimeout\000"
 3755      50757454 
 3755      696D656F 
 3755      757400
 3756              	.LASF34:
 3757 000f 705F6D73 		.ascii	"p_msg\000"
 3757      6700
 3758              	.LASF78:
 3759 0015 6F6E6679 		.ascii	"onfy\000"
 3759      00
 3760              	.LASF2:
 3761 001a 73697A65 		.ascii	"size_t\000"
 3761      5F7400
 3762              	.LASF51:
ARM GAS  /tmp/ccm5nllD.s 			page 68


 3763 0021 7264796D 		.ascii	"rdymsg\000"
 3763      736700
 3764              	.LASF64:
 3765 0028 4F757470 		.ascii	"OutputQueue\000"
 3765      75745175 
 3765      65756500 
 3766              	.LASF70:
 3767 0034 63684951 		.ascii	"chIQReadTimeout\000"
 3767      52656164 
 3767      54696D65 
 3767      6F757400 
 3768              	.LASF12:
 3769 0044 6C6F6E67 		.ascii	"long long unsigned int\000"
 3769      206C6F6E 
 3769      6720756E 
 3769      7369676E 
 3769      65642069 
 3770              	.LASF76:
 3771 005b 63684F51 		.ascii	"chOQInit\000"
 3771      496E6974 
 3771      00
 3772              	.LASF52:
 3773 0064 65786974 		.ascii	"exitcode\000"
 3773      636F6465 
 3773      00
 3774              	.LASF80:
 3775 006d 474E5520 		.ascii	"GNU C 4.4.1\000"
 3775      4320342E 
 3775      342E3100 
 3776              	.LASF24:
 3777 0079 705F7072 		.ascii	"p_prio\000"
 3777      696F00
 3778              	.LASF82:
 3779 0080 2F686F6D 		.ascii	"/home/dan/Downloads/ChibiOS_2.2.3/demos/ARMCM3-STM3"
 3779      652F6461 
 3779      6E2F446F 
 3779      776E6C6F 
 3779      6164732F 
 3780 00b3 32463130 		.ascii	"2F103\000"
 3780      3300
 3781              	.LASF1:
 3782 00b9 7369676E 		.ascii	"signed char\000"
 3782      65642063 
 3782      68617200 
 3783              	.LASF38:
 3784 00c5 705F6D70 		.ascii	"p_mpool\000"
 3784      6F6F6C00 
 3785              	.LASF48:
 3786 00cd 6D5F7175 		.ascii	"m_queue\000"
 3786      65756500 
 3787              	.LASF8:
 3788 00d5 6C6F6E67 		.ascii	"long int\000"
 3788      20696E74 
 3788      00
 3789              	.LASF14:
 3790 00de 74737461 		.ascii	"tstate_t\000"
 3790      74655F74 
ARM GAS  /tmp/ccm5nllD.s 			page 69


 3790      00
 3791              	.LASF72:
 3792 00e7 63684F51 		.ascii	"chOQGetI\000"
 3792      47657449 
 3792      00
 3793              	.LASF11:
 3794 00f0 6C6F6E67 		.ascii	"long long int\000"
 3794      206C6F6E 
 3794      6720696E 
 3794      7400
 3795              	.LASF56:
 3796 00fe 715F6275 		.ascii	"q_buffer\000"
 3796      66666572 
 3796      00
 3797              	.LASF58:
 3798 0107 715F7772 		.ascii	"q_wrptr\000"
 3798      70747200 
 3799              	.LASF26:
 3800 010f 705F6E65 		.ascii	"p_newer\000"
 3800      77657200 
 3801              	.LASF45:
 3802 0117 735F7175 		.ascii	"s_queue\000"
 3802      65756500 
 3803              	.LASF41:
 3804 011f 72656761 		.ascii	"regarm_t\000"
 3804      726D5F74 
 3804      00
 3805              	.LASF73:
 3806 0128 63684951 		.ascii	"chIQPutI\000"
 3806      50757449 
 3806      00
 3807              	.LASF20:
 3808 0131 636E745F 		.ascii	"cnt_t\000"
 3808      7400
 3809              	.LASF0:
 3810 0137 756E7369 		.ascii	"unsigned int\000"
 3810      676E6564 
 3810      20696E74 
 3810      00
 3811              	.LASF75:
 3812 0144 63684951 		.ascii	"chIQResetI\000"
 3812      52657365 
 3812      744900
 3813              	.LASF10:
 3814 014f 6C6F6E67 		.ascii	"long unsigned int\000"
 3814      20756E73 
 3814      69676E65 
 3814      6420696E 
 3814      7400
 3815              	.LASF46:
 3816 0161 735F636E 		.ascii	"s_cnt\000"
 3816      7400
 3817              	.LASF42:
 3818 0167 636F6E74 		.ascii	"context\000"
 3818      65787400 
 3819              	.LASF77:
 3820 016f 73697A65 		.ascii	"size\000"
ARM GAS  /tmp/ccm5nllD.s 			page 70


 3820      00
 3821              	.LASF6:
 3822 0174 73686F72 		.ascii	"short unsigned int\000"
 3822      7420756E 
 3822      7369676E 
 3822      65642069 
 3822      6E7400
 3823              	.LASF17:
 3824 0187 6D73675F 		.ascii	"msg_t\000"
 3824      7400
 3825              	.LASF81:
 3826 018d 2E2E2F2E 		.ascii	"../../os/kernel/src/chqueues.c\000"
 3826      2E2F6F73 
 3826      2F6B6572 
 3826      6E656C2F 
 3826      7372632F 
 3827              	.LASF40:
 3828 01ac 54687265 		.ascii	"ThreadsList\000"
 3828      6164734C 
 3828      69737400 
 3829              	.LASF18:
 3830 01b8 6576656E 		.ascii	"eventmask_t\000"
 3830      746D6173 
 3830      6B5F7400 
 3831              	.LASF63:
 3832 01c4 496E7075 		.ascii	"InputQueue\000"
 3832      74517565 
 3832      756500
 3833              	.LASF47:
 3834 01cf 4D757465 		.ascii	"Mutex\000"
 3834      7800
 3835              	.LASF55:
 3836 01d5 47656E65 		.ascii	"GenericQueue\000"
 3836      72696351 
 3836      75657565 
 3836      00
 3837              	.LASF67:
 3838 01e2 63684F51 		.ascii	"chOQWriteTimeout\000"
 3838      57726974 
 3838      6554696D 
 3838      656F7574 
 3838      00
 3839              	.LASF27:
 3840 01f3 705F6F6C 		.ascii	"p_older\000"
 3840      64657200 
 3841              	.LASF39:
 3842 01fb 54687265 		.ascii	"ThreadsQueue\000"
 3842      61647351 
 3842      75657565 
 3842      00
 3843              	.LASF68:
 3844 0208 74696D65 		.ascii	"time\000"
 3844      00
 3845              	.LASF15:
 3846 020d 74726566 		.ascii	"trefs_t\000"
 3846      735F7400 
 3847              	.LASF62:
ARM GAS  /tmp/ccm5nllD.s 			page 71


 3848 0215 716E6F74 		.ascii	"qnotify_t\000"
 3848      6966795F 
 3848      7400
 3849              	.LASF23:
 3850 021f 705F7072 		.ascii	"p_prev\000"
 3850      657600
 3851              	.LASF66:
 3852 0226 63684F51 		.ascii	"chOQGetFullI\000"
 3852      47657446 
 3852      756C6C49 
 3852      00
 3853              	.LASF16:
 3854 0233 74707269 		.ascii	"tprio_t\000"
 3854      6F5F7400 
 3855              	.LASF59:
 3856 023b 715F7264 		.ascii	"q_rdptr\000"
 3856      70747200 
 3857              	.LASF7:
 3858 0243 696E7433 		.ascii	"int32_t\000"
 3858      325F7400 
 3859              	.LASF4:
 3860 024b 756E7369 		.ascii	"unsigned char\000"
 3860      676E6564 
 3860      20636861 
 3860      7200
 3861              	.LASF36:
 3862 0259 705F6D74 		.ascii	"p_mtxlist\000"
 3862      786C6973 
 3862      7400
 3863              	.LASF5:
 3864 0263 73686F72 		.ascii	"short int\000"
 3864      7420696E 
 3864      7400
 3865              	.LASF28:
 3866 026d 705F7374 		.ascii	"p_state\000"
 3866      61746500 
 3867              	.LASF54:
 3868 0275 65776D61 		.ascii	"ewmask\000"
 3868      736B00
 3869              	.LASF22:
 3870 027c 705F6E65 		.ascii	"p_next\000"
 3870      787400
 3871              	.LASF13:
 3872 0283 746D6F64 		.ascii	"tmode_t\000"
 3872      655F7400 
 3873              	.LASF29:
 3874 028b 705F666C 		.ascii	"p_flags\000"
 3874      61677300 
 3875              	.LASF21:
 3876 0293 54687265 		.ascii	"Thread\000"
 3876      616400
 3877              	.LASF35:
 3878 029a 705F6570 		.ascii	"p_epending\000"
 3878      656E6469 
 3878      6E6700
 3879              	.LASF60:
 3880 02a5 715F7365 		.ascii	"q_sem\000"
ARM GAS  /tmp/ccm5nllD.s 			page 72


 3880      6D00
 3881              	.LASF9:
 3882 02ab 75696E74 		.ascii	"uint32_t\000"
 3882      33325F74 
 3882      00
 3883              	.LASF50:
 3884 02b4 6D5F6E65 		.ascii	"m_next\000"
 3884      787400
 3885              	.LASF19:
 3886 02bb 73797374 		.ascii	"systime_t\000"
 3886      696D655F 
 3886      7400
 3887              	.LASF37:
 3888 02c5 705F7265 		.ascii	"p_realprio\000"
 3888      616C7072 
 3888      696F00
 3889              	.LASF79:
 3890 02d0 696E6679 		.ascii	"infy\000"
 3890      00
 3891              	.LASF74:
 3892 02d5 63684F51 		.ascii	"chOQResetI\000"
 3892      52657365 
 3892      744900
 3893              	.LASF31:
 3894 02e0 705F7469 		.ascii	"p_time\000"
 3894      6D6500
 3895              	.LASF43:
 3896 02e7 696E7463 		.ascii	"intctx\000"
 3896      747800
 3897              	.LASF33:
 3898 02ee 705F6D73 		.ascii	"p_msgqueue\000"
 3898      67717565 
 3898      756500
 3899              	.LASF44:
 3900 02f9 53656D61 		.ascii	"Semaphore\000"
 3900      70686F72 
 3900      6500
 3901              	.LASF57:
 3902 0303 715F746F 		.ascii	"q_top\000"
 3902      7000
 3903              	.LASF30:
 3904 0309 705F7265 		.ascii	"p_refs\000"
 3904      667300
 3905              	.LASF61:
 3906 0310 715F6E6F 		.ascii	"q_notify\000"
 3906      74696679 
 3906      00
 3907              	.LASF3:
 3908 0319 75696E74 		.ascii	"uint8_t\000"
 3908      385F7400 
 3909              	.LASF65:
 3910 0321 63684951 		.ascii	"chIQGetFullI\000"
 3910      47657446 
 3910      756C6C49 
 3910      00
 3911              	.LASF53:
 3912 032e 77746F62 		.ascii	"wtobjp\000"
ARM GAS  /tmp/ccm5nllD.s 			page 73


 3912      6A7000
 3913              	.LASF83:
 3914 0335 63684951 		.ascii	"chIQInit\000"
 3914      496E6974 
 3914      00
 3915              	.LASF49:
 3916 033e 6D5F6F77 		.ascii	"m_owner\000"
 3916      6E657200 
 3917              	.LASF25:
 3918 0346 705F6374 		.ascii	"p_ctx\000"
 3918      7800
 3919              	.LASF32:
 3920 034c 705F7761 		.ascii	"p_waiting\000"
 3920      6974696E 
 3920      6700
 3921              	.LASF71:
 3922 0356 63684951 		.ascii	"chIQGetTimeout\000"
 3922      47657454 
 3922      696D656F 
 3922      757400
 3923              		.ident	"GCC: (Red Suite 2010Q1 by Code Red) 4.4.1"
ARM GAS  /tmp/ccm5nllD.s 			page 74


DEFINED SYMBOLS
                            *ABS*:00000000 chqueues.c
     /tmp/ccm5nllD.s:24     .text.chIQGetFullI:00000000 $t
     /tmp/ccm5nllD.s:30     .text.chIQGetFullI:00000000 chIQGetFullI
     /tmp/ccm5nllD.s:50     .text.chOQGetFullI:00000000 $t
     /tmp/ccm5nllD.s:56     .text.chOQGetFullI:00000000 chOQGetFullI
     /tmp/ccm5nllD.s:91     .text.chOQWriteTimeout:00000000 $t
     /tmp/ccm5nllD.s:97     .text.chOQWriteTimeout:00000000 chOQWriteTimeout
     /tmp/ccm5nllD.s:396    .text.chOQPutTimeout:00000000 $t
     /tmp/ccm5nllD.s:402    .text.chOQPutTimeout:00000000 chOQPutTimeout
     /tmp/ccm5nllD.s:490    .text.chIQReadTimeout:00000000 $t
     /tmp/ccm5nllD.s:496    .text.chIQReadTimeout:00000000 chIQReadTimeout
     /tmp/ccm5nllD.s:795    .text.chIQGetTimeout:00000000 $t
     /tmp/ccm5nllD.s:801    .text.chIQGetTimeout:00000000 chIQGetTimeout
     /tmp/ccm5nllD.s:887    .text.chOQGetI:00000000 $t
     /tmp/ccm5nllD.s:893    .text.chOQGetI:00000000 chOQGetI
     /tmp/ccm5nllD.s:947    .text.chIQPutI:00000000 $t
     /tmp/ccm5nllD.s:953    .text.chIQPutI:00000000 chIQPutI
     /tmp/ccm5nllD.s:1004   .text.chOQResetI:00000000 $t
     /tmp/ccm5nllD.s:1010   .text.chOQResetI:00000000 chOQResetI
     /tmp/ccm5nllD.s:1036   .text.chIQResetI:00000000 $t
     /tmp/ccm5nllD.s:1042   .text.chIQResetI:00000000 chIQResetI
     /tmp/ccm5nllD.s:1069   .text.chOQInit:00000000 $t
     /tmp/ccm5nllD.s:1075   .text.chOQInit:00000000 chOQInit
     /tmp/ccm5nllD.s:1111   .text.chIQInit:00000000 $t
     /tmp/ccm5nllD.s:1117   .text.chIQInit:00000000 chIQInit
                     .debug_frame:00000010 $d

UNDEFINED SYMBOLS
chSemWaitTimeoutS
chSemSignalI
chSemResetI
chSemInit
