ARM GAS  /tmp/ccOlmrMD.s 			page 1


   1              		.syntax unified
   2              		.cpu cortex-m3
   3              		.fpu softvfp
   4              		.eabi_attribute 20, 1
   5              		.eabi_attribute 21, 1
   6              		.eabi_attribute 23, 3
   7              		.eabi_attribute 24, 1
   8              		.eabi_attribute 25, 1
   9              		.eabi_attribute 26, 1
  10              		.eabi_attribute 30, 2
  11              		.eabi_attribute 18, 4
  12              		.thumb
  13              		.file	"chschd.c"
  14              		.section	.debug_abbrev,"",%progbits
  15              	.Ldebug_abbrev0:
  16              		.section	.debug_info,"",%progbits
  17              	.Ldebug_info0:
  18              		.section	.debug_line,"",%progbits
  19              	.Ldebug_line0:
  20 0000 EC020000 		.text
  20      02004B01 
  20      00000201 
  20      FB0E0D00 
  20      01010101 
  21              	.Ltext0:
  22              		.cfi_sections	.debug_frame
  23              		.section	.text.wakeup,"ax",%progbits
  24              		.align	2
  25              		.p2align 4,,15
  26              		.thumb
  27              		.thumb_func
  28              		.type	wakeup, %function
  29              	wakeup:
  30              	.LFB10:
  31              		.file 1 "chibios/os/kernel/src/chschd.c"
  32              		.loc 1 131 0
  33              		.cfi_startproc
  34              		@ args = 0, pretend = 0, frame = 0
  35              		@ frame_needed = 0, uses_anonymous_args = 0
  36              		@ link register save eliminated.
  37              	.LVL0:
  38              		.loc 1 134 0
  39 0000 037E     		ldrb	r3, [r0, #24]	@ zero_extendqisi2
  40 0002 032B     		cmp	r3, #3
  41 0004 16D0     		beq	.L4
  42 0006 052B     		cmp	r3, #5
  43 0008 18D0     		beq	.L5
  44 000a 93B1     		cbz	r3, .L1
  45              	.L2:
  46              		.loc 1 152 0
  47 000c 4FF0FF32 		mov	r2, #-1
  48              	.LBB17:
  49              	.LBB18:
  50              		.loc 1 91 0
  51 0010 40F20003 		movw	r3, #:lower16:rlist
  52              	.LBE18:
  53              	.LBE17:
ARM GAS  /tmp/ccOlmrMD.s 			page 2


  54              		.loc 1 152 0
  55 0014 0262     		str	r2, [r0, #32]
  56              	.LVL1:
  57              	.LBB20:
  58              	.LBB19:
  59              		.loc 1 91 0
  60 0016 8168     		ldr	r1, [r0, #8]
  61              		.loc 1 90 0
  62 0018 0022     		movs	r2, #0
  63 001a 0276     		strb	r2, [r0, #24]
  64              		.loc 1 91 0
  65 001c C0F20003 		movt	r3, #:upper16:rlist
  66              	.LVL2:
  67              	.L6:
  68              		.loc 1 93 0
  69 0020 1B68     		ldr	r3, [r3, #0]
  70              	.LVL3:
  71              		.loc 1 94 0
  72 0022 9A68     		ldr	r2, [r3, #8]
  73 0024 9142     		cmp	r1, r2
  74 0026 FBD9     		bls	.L6
  75              		.loc 1 97 0
  76 0028 5968     		ldr	r1, [r3, #4]
  77              		.loc 1 96 0
  78 002a 0360     		str	r3, [r0, #0]
  79              		.loc 1 97 0
  80 002c 4160     		str	r1, [r0, #4]
  81              		.loc 1 98 0
  82 002e 0860     		str	r0, [r1, #0]
  83 0030 5860     		str	r0, [r3, #4]
  84              	.LVL4:
  85              	.L1:
  86 0032 7047     		bx	lr
  87              	.L4:
  88              	.LBE19:
  89              	.LBE20:
  90              		.loc 1 142 0
  91 0034 036A     		ldr	r3, [r0, #32]
  92 0036 9968     		ldr	r1, [r3, #8]
  93 0038 4A1C     		adds	r2, r1, #1
  94 003a 9A60     		str	r2, [r3, #8]
  95              	.L5:
  96              	.LVL5:
  97              	.LBB21:
  98              	.LBB22:
  99              		.file 2 "chibios/os/kernel/include/chinline.h"
 100              		.loc 2 74 0
 101 003c 4368     		ldr	r3, [r0, #4]
 102 003e 0168     		ldr	r1, [r0, #0]
 103 0040 1960     		str	r1, [r3, #0]
 104              		.loc 2 75 0
 105 0042 0268     		ldr	r2, [r0, #0]
 106 0044 5360     		str	r3, [r2, #4]
 107 0046 E1E7     		b	.L2
 108              	.LBE22:
 109              	.LBE21:
 110              		.cfi_endproc
ARM GAS  /tmp/ccOlmrMD.s 			page 3


 111              	.LFE10:
 112              		.size	wakeup, .-wakeup
 113 0048 AFF30080 		.section	.text.scheduler_init,"ax",%progbits
 113      AFF30080 
 114              		.align	2
 115              		.p2align 4,,15
 116              		.global	scheduler_init
 117              		.thumb
 118              		.thumb_func
 119              		.type	scheduler_init, %function
 120              	scheduler_init:
 121              	.LFB7:
 122              		.loc 1 54 0
 123              		.cfi_startproc
 124              		@ args = 0, pretend = 0, frame = 0
 125              		@ frame_needed = 0, uses_anonymous_args = 0
 126              		@ link register save eliminated.
 127              		.loc 1 56 0
 128 0000 40F20003 		movw	r3, #:lower16:rlist
 129 0004 C0F20003 		movt	r3, #:upper16:rlist
 130              		.loc 1 57 0
 131 0008 0020     		movs	r0, #0
 132              		.loc 1 59 0
 133 000a 1422     		movs	r2, #20
 134              		.loc 1 56 0
 135 000c 5B60     		str	r3, [r3, #4]
 136 000e 1B60     		str	r3, [r3, #0]
 137              		.loc 1 57 0
 138 0010 9860     		str	r0, [r3, #8]
 139              		.loc 1 59 0
 140 0012 9A61     		str	r2, [r3, #24]
 141              		.loc 1 62 0
 142 0014 5B61     		str	r3, [r3, #20]
 143 0016 1B61     		str	r3, [r3, #16]
 144              		.loc 1 64 0
 145 0018 7047     		bx	lr
 146              		.cfi_endproc
 147              	.LFE7:
 148              		.size	scheduler_init, .-scheduler_init
 149 001a 00BFAFF3 		.section	.text.chSchReadyI,"ax",%progbits
 149      0080
 150              		.align	2
 151              		.p2align 4,,15
 152              		.global	chSchReadyI
 153              		.thumb
 154              		.thumb_func
 155              		.type	chSchReadyI, %function
 156              	chSchReadyI:
 157              	.LFB8:
 158              		.loc 1 81 0
 159              		.cfi_startproc
 160              		@ args = 0, pretend = 0, frame = 0
 161              		@ frame_needed = 0, uses_anonymous_args = 0
 162              		@ link register save eliminated.
 163              	.LVL6:
 164              		.loc 1 91 0
 165 0000 40F20003 		movw	r3, #:lower16:rlist
ARM GAS  /tmp/ccOlmrMD.s 			page 4


 166              		.loc 1 90 0
 167 0004 0022     		movs	r2, #0
 168              		.loc 1 91 0
 169 0006 8168     		ldr	r1, [r0, #8]
 170              		.loc 1 90 0
 171 0008 0276     		strb	r2, [r0, #24]
 172              		.loc 1 91 0
 173 000a C0F20003 		movt	r3, #:upper16:rlist
 174              	.LVL7:
 175              	.L11:
 176              		.loc 1 93 0 discriminator 1
 177 000e 1B68     		ldr	r3, [r3, #0]
 178              	.LVL8:
 179              		.loc 1 94 0 discriminator 1
 180 0010 9A68     		ldr	r2, [r3, #8]
 181 0012 8A42     		cmp	r2, r1
 182 0014 FBD2     		bcs	.L11
 183              		.loc 1 97 0
 184 0016 5968     		ldr	r1, [r3, #4]
 185              		.loc 1 96 0
 186 0018 0360     		str	r3, [r0, #0]
 187              		.loc 1 97 0
 188 001a 4160     		str	r1, [r0, #4]
 189              		.loc 1 98 0
 190 001c 0860     		str	r0, [r1, #0]
 191 001e 5860     		str	r0, [r3, #4]
 192              		.loc 1 100 0
 193 0020 7047     		bx	lr
 194              		.cfi_endproc
 195              	.LFE8:
 196              		.size	chSchReadyI, .-chSchReadyI
 197 0022 00BFAFF3 		.section	.text.chSchGoSleepS,"ax",%progbits
 197      0080AFF3 
 197      0080AFF3 
 197      0080
 198              		.align	2
 199              		.p2align 4,,15
 200              		.global	chSchGoSleepS
 201              		.thumb
 202              		.thumb_func
 203              		.type	chSchGoSleepS, %function
 204              	chSchGoSleepS:
 205              	.LFB9:
 206              		.loc 1 113 0
 207              		.cfi_startproc
 208              		@ args = 0, pretend = 0, frame = 0
 209              		@ frame_needed = 0, uses_anonymous_args = 0
 210              		@ link register save eliminated.
 211              	.LVL9:
 212              		.loc 1 116 0
 213 0000 40F20003 		movw	r3, #:lower16:rlist
 214 0004 C0F20003 		movt	r3, #:upper16:rlist
 215 0008 D969     		ldr	r1, [r3, #28]
 216              	.LVL10:
 217              		.loc 1 113 0
 218 000a 30B4     		push	{r4, r5}
 219              	.LCFI0:
ARM GAS  /tmp/ccOlmrMD.s 			page 5


 220              		.cfi_def_cfa_offset 8
 221              		.loc 1 116 0
 222 000c 0876     		strb	r0, [r1, #24]
 223              	.LBB23:
 224              	.LBB25:
 225              		.loc 2 59 0
 226 000e 1A68     		ldr	r2, [r3, #0]
 227              	.LBE25:
 228              	.LBE23:
 229              		.loc 1 118 0
 230 0010 1420     		movs	r0, #20
 231              	.LVL11:
 232              	.LBB27:
 233              	.LBB24:
 234              		.loc 2 61 0
 235 0012 1468     		ldr	r4, [r2, #0]
 236              		.cfi_offset 5, -4
 237              		.cfi_offset 4, -8
 238              	.LBE24:
 239              	.LBE27:
 240              		.loc 1 121 0
 241 0014 0125     		movs	r5, #1
 242              		.loc 1 118 0
 243 0016 9861     		str	r0, [r3, #24]
 244              	.LVL12:
 245              		.loc 1 123 0
 246 0018 1046     		mov	r0, r2
 247              	.LBB28:
 248              	.LBB26:
 249              		.loc 2 61 0
 250 001a 6360     		str	r3, [r4, #4]
 251 001c 1C60     		str	r4, [r3, #0]
 252              	.LBE26:
 253              	.LBE28:
 254              		.loc 1 120 0
 255 001e DA61     		str	r2, [r3, #28]
 256              		.loc 1 121 0
 257 0020 1576     		strb	r5, [r2, #24]
 258              		.loc 1 124 0
 259 0022 30BC     		pop	{r4, r5}
 260              		.loc 1 123 0
 261 0024 FFF7FEBF 		b	port_switch
 262              		.cfi_endproc
 263              	.LFE9:
 264              		.size	chSchGoSleepS, .-chSchGoSleepS
 265 0028 AFF30080 		.section	.text.chSchGoSleepTimeoutS,"ax",%progbits
 265      AFF30080 
 266              		.align	2
 267              		.p2align 4,,15
 268              		.global	chSchGoSleepTimeoutS
 269              		.thumb
 270              		.thumb_func
 271              		.type	chSchGoSleepTimeoutS, %function
 272              	chSchGoSleepTimeoutS:
 273              	.LFB11:
 274              		.loc 1 177 0
 275              		.cfi_startproc
ARM GAS  /tmp/ccOlmrMD.s 			page 6


 276              		@ args = 0, pretend = 0, frame = 24
 277              		@ frame_needed = 0, uses_anonymous_args = 0
 278              	.LVL13:
 279 0000 30B5     		push	{r4, r5, lr}
 280              	.LCFI1:
 281              		.cfi_def_cfa_offset 12
 282              		.loc 1 179 0
 283 0002 B1F1FF3F 		cmp	r1, #-1
 284              		.loc 1 177 0
 285 0006 87B0     		sub	sp, sp, #28
 286              	.LCFI2:
 287              		.cfi_def_cfa_offset 40
 288              		.loc 1 177 0
 289 0008 0546     		mov	r5, r0
 290              		.cfi_offset 14, -4
 291              		.cfi_offset 5, -8
 292              		.cfi_offset 4, -12
 293              		.loc 1 179 0
 294 000a 17D0     		beq	.L15
 295              	.LBB29:
 296              		.loc 1 182 0
 297 000c 40F20004 		movw	r4, #:lower16:rlist
 298 0010 C0F20004 		movt	r4, #:upper16:rlist
 299 0014 40F20002 		movw	r2, #:lower16:wakeup
 300 0018 E369     		ldr	r3, [r4, #28]
 301 001a C0F20002 		movt	r2, #:upper16:wakeup
 302 001e 01A8     		add	r0, sp, #4
 303              	.LVL14:
 304 0020 FFF7FEFF 		bl	chVTSetI
 305              	.LVL15:
 306              		.loc 1 183 0
 307 0024 2846     		mov	r0, r5
 308 0026 FFF7FEFF 		bl	chSchGoSleepS
 309              		.loc 1 184 0
 310 002a 049B     		ldr	r3, [sp, #16]
 311 002c 13B1     		cbz	r3, .L16
 312              		.loc 1 185 0
 313 002e 01A8     		add	r0, sp, #4
 314 0030 FFF7FEFF 		bl	chVTResetI
 315              	.L16:
 316              	.LBE29:
 317              		.loc 1 189 0
 318 0034 E069     		ldr	r0, [r4, #28]
 319              		.loc 1 190 0
 320 0036 006A     		ldr	r0, [r0, #32]
 321 0038 07B0     		add	sp, sp, #28
 322 003a 30BD     		pop	{r4, r5, pc}
 323              	.LVL16:
 324              	.L15:
 325 003c 40F20004 		movw	r4, #:lower16:rlist
 326              		.loc 1 188 0
 327 0040 FFF7FEFF 		bl	chSchGoSleepS
 328              	.LVL17:
 329 0044 C0F20004 		movt	r4, #:upper16:rlist
 330 0048 F4E7     		b	.L16
 331              		.cfi_endproc
 332              	.LFE11:
ARM GAS  /tmp/ccOlmrMD.s 			page 7


 333              		.size	chSchGoSleepTimeoutS, .-chSchGoSleepTimeoutS
 334 004a 00BFAFF3 		.section	.text.chSchWakeupS,"ax",%progbits
 334      0080
 335              		.align	2
 336              		.p2align 4,,15
 337              		.global	chSchWakeupS
 338              		.thumb
 339              		.thumb_func
 340              		.type	chSchWakeupS, %function
 341              	chSchWakeupS:
 342              	.LFB12:
 343              		.loc 1 211 0
 344              		.cfi_startproc
 345              		@ args = 0, pretend = 0, frame = 0
 346              		@ frame_needed = 0, uses_anonymous_args = 0
 347              		@ link register save eliminated.
 348              	.LVL18:
 349              		.loc 1 218 0
 350 0000 40F20002 		movw	r2, #:lower16:rlist
 351 0004 C0F20002 		movt	r2, #:upper16:rlist
 352              		.loc 1 211 0
 353 0008 30B4     		push	{r4, r5}
 354              	.LCFI3:
 355              		.cfi_def_cfa_offset 8
 356              		.loc 1 218 0
 357 000a D469     		ldr	r4, [r2, #28]
 358              		.cfi_offset 5, -4
 359              		.cfi_offset 4, -8
 360              		.loc 1 211 0
 361 000c 0346     		mov	r3, r0
 362              		.loc 1 218 0
 363 000e 8568     		ldr	r5, [r0, #8]
 364 0010 A068     		ldr	r0, [r4, #8]
 365              	.LVL19:
 366              		.loc 1 213 0
 367 0012 1962     		str	r1, [r3, #32]
 368              		.loc 1 218 0
 369 0014 8542     		cmp	r5, r0
 370 0016 0CD8     		bhi	.L18
 371              	.LVL20:
 372              	.LBB30:
 373              	.LBB31:
 374              		.loc 1 90 0
 375 0018 0021     		movs	r1, #0
 376              	.LVL21:
 377 001a 1976     		strb	r1, [r3, #24]
 378              	.LVL22:
 379              	.L19:
 380              		.loc 1 93 0
 381 001c 1268     		ldr	r2, [r2, #0]
 382              	.LVL23:
 383              		.loc 1 94 0
 384 001e 9068     		ldr	r0, [r2, #8]
 385 0020 8542     		cmp	r5, r0
 386 0022 FBD9     		bls	.L19
 387              		.loc 1 97 0
 388 0024 5168     		ldr	r1, [r2, #4]
ARM GAS  /tmp/ccOlmrMD.s 			page 8


 389              		.loc 1 96 0
 390 0026 1A60     		str	r2, [r3, #0]
 391              		.loc 1 97 0
 392 0028 5960     		str	r1, [r3, #4]
 393              		.loc 1 98 0
 394 002a 0B60     		str	r3, [r1, #0]
 395 002c 5360     		str	r3, [r2, #4]
 396              	.LBE31:
 397              	.LBE30:
 398              		.loc 1 230 0
 399 002e 30BC     		pop	{r4, r5}
 400 0030 7047     		bx	lr
 401              	.LVL24:
 402              	.L18:
 403              	.LBB32:
 404              	.LBB34:
 405              	.LBB35:
 406              		.loc 1 90 0
 407 0032 0025     		movs	r5, #0
 408 0034 2576     		strb	r5, [r4, #24]
 409              		.loc 1 91 0
 410 0036 1146     		mov	r1, r2
 411              	.LVL25:
 412              	.L21:
 413              		.loc 1 93 0
 414 0038 0968     		ldr	r1, [r1, #0]
 415              	.LVL26:
 416              		.loc 1 94 0
 417 003a 8D68     		ldr	r5, [r1, #8]
 418 003c A842     		cmp	r0, r5
 419 003e FBD9     		bls	.L21
 420              		.loc 1 97 0
 421 0040 4868     		ldr	r0, [r1, #4]
 422              		.loc 1 96 0
 423 0042 2160     		str	r1, [r4, #0]
 424              		.loc 1 97 0
 425 0044 6060     		str	r0, [r4, #4]
 426              		.loc 1 98 0
 427 0046 4C60     		str	r4, [r1, #4]
 428              	.LBE35:
 429              	.LBE34:
 430              		.loc 1 223 0
 431 0048 1421     		movs	r1, #20
 432              	.LVL27:
 433              	.LBB33:
 434              	.LBB36:
 435              		.loc 1 98 0
 436 004a 0460     		str	r4, [r0, #0]
 437              	.LBE36:
 438              	.LBE33:
 439              		.loc 1 223 0
 440 004c 9161     		str	r1, [r2, #24]
 441              		.loc 1 225 0
 442 004e D361     		str	r3, [r2, #28]
 443              		.loc 1 228 0
 444 0050 1846     		mov	r0, r3
 445              		.loc 1 226 0
ARM GAS  /tmp/ccOlmrMD.s 			page 9


 446 0052 0122     		movs	r2, #1
 447              		.loc 1 228 0
 448 0054 2146     		mov	r1, r4
 449              		.loc 1 226 0
 450 0056 1A76     		strb	r2, [r3, #24]
 451              	.LBE32:
 452              		.loc 1 230 0
 453 0058 30BC     		pop	{r4, r5}
 454              	.LBB37:
 455              		.loc 1 228 0
 456 005a FFF7FEBF 		b	port_switch
 457              	.LBE37:
 458              		.cfi_endproc
 459              	.LFE12:
 460              		.size	chSchWakeupS, .-chSchWakeupS
 461 005e 00BF     		.section	.text.chSchDoRescheduleI,"ax",%progbits
 462              		.align	2
 463              		.p2align 4,,15
 464              		.global	chSchDoRescheduleI
 465              		.thumb
 466              		.thumb_func
 467              		.type	chSchDoRescheduleI, %function
 468              	chSchDoRescheduleI:
 469              	.LFB13:
 470              		.loc 1 241 0
 471              		.cfi_startproc
 472              		@ args = 0, pretend = 0, frame = 0
 473              		@ frame_needed = 0, uses_anonymous_args = 0
 474              		@ link register save eliminated.
 475              		.loc 1 245 0
 476 0000 40F2000C 		movw	ip, #:lower16:rlist
 477 0004 C0F2000C 		movt	ip, #:upper16:rlist
 478              	.LBB38:
 479              	.LBB40:
 480              		.loc 2 59 0
 481 0008 DCF80000 		ldr	r0, [ip, #0]
 482              	.LBE40:
 483              	.LBE38:
 484              		.loc 1 241 0
 485 000c 70B4     		push	{r4, r5, r6}
 486              	.LCFI4:
 487              		.cfi_def_cfa_offset 12
 488              		.loc 1 247 0
 489 000e DCF81C10 		ldr	r1, [ip, #28]
 490              	.LVL28:
 491              	.LBB43:
 492              	.LBB41:
 493              		.loc 2 61 0
 494 0012 0568     		ldr	r5, [r0, #0]
 495              		.cfi_offset 6, -4
 496              		.cfi_offset 5, -8
 497              		.cfi_offset 4, -12
 498              	.LBE41:
 499              	.LBE43:
 500              		.loc 1 250 0
 501 0014 0122     		movs	r2, #1
 502              		.loc 1 245 0
ARM GAS  /tmp/ccOlmrMD.s 			page 10


 503 0016 1426     		movs	r6, #20
 504              	.LBB44:
 505              	.LBB46:
 506              		.loc 1 90 0
 507 0018 8C68     		ldr	r4, [r1, #8]
 508              	.LBE46:
 509              	.LBE44:
 510              		.loc 1 245 0
 511 001a CCF81860 		str	r6, [ip, #24]
 512              	.LBB48:
 513              	.LBB39:
 514              		.loc 2 61 0
 515 001e C5F804C0 		str	ip, [r5, #4]
 516              	.LBE39:
 517              	.LBE48:
 518              		.loc 1 249 0
 519 0022 CCF81C00 		str	r0, [ip, #28]
 520              		.loc 1 250 0
 521 0026 0276     		strb	r2, [r0, #24]
 522              	.LVL29:
 523              	.LBB49:
 524              	.LBB45:
 525              		.loc 1 90 0
 526 0028 0022     		movs	r2, #0
 527              	.LBE45:
 528              	.LBE49:
 529              	.LBB50:
 530              	.LBB42:
 531              		.loc 2 61 0
 532 002a 6346     		mov	r3, ip
 533 002c CCF80050 		str	r5, [ip, #0]
 534              	.LBE42:
 535              	.LBE50:
 536              	.LBB51:
 537              	.LBB47:
 538              		.loc 1 90 0
 539 0030 0A76     		strb	r2, [r1, #24]
 540              	.LVL30:
 541              	.L25:
 542              		.loc 1 93 0
 543 0032 1B68     		ldr	r3, [r3, #0]
 544              	.LVL31:
 545              		.loc 1 94 0
 546 0034 9A68     		ldr	r2, [r3, #8]
 547 0036 A242     		cmp	r2, r4
 548 0038 FBD2     		bcs	.L25
 549              		.loc 1 97 0
 550 003a 5A68     		ldr	r2, [r3, #4]
 551              		.loc 1 96 0
 552 003c 0B60     		str	r3, [r1, #0]
 553              		.loc 1 97 0
 554 003e 4A60     		str	r2, [r1, #4]
 555              		.loc 1 98 0
 556 0040 1160     		str	r1, [r2, #0]
 557 0042 5960     		str	r1, [r3, #4]
 558              	.LBE47:
 559              	.LBE51:
ARM GAS  /tmp/ccOlmrMD.s 			page 11


 560              		.loc 1 254 0
 561 0044 70BC     		pop	{r4, r5, r6}
 562              		.loc 1 253 0
 563 0046 FFF7FEBF 		b	port_switch
 564              		.cfi_endproc
 565              	.LFE13:
 566              		.size	chSchDoRescheduleI, .-chSchDoRescheduleI
 567 004a 00BFAFF3 		.section	.text.chSchRescheduleS,"ax",%progbits
 567      0080
 568              		.align	2
 569              		.p2align 4,,15
 570              		.global	chSchRescheduleS
 571              		.thumb
 572              		.thumb_func
 573              		.type	chSchRescheduleS, %function
 574              	chSchRescheduleS:
 575              	.LFB14:
 576              		.loc 1 265 0
 577              		.cfi_startproc
 578              		@ args = 0, pretend = 0, frame = 0
 579              		@ frame_needed = 0, uses_anonymous_args = 0
 580              		@ link register save eliminated.
 581              		.loc 1 267 0
 582 0000 40F2000C 		movw	ip, #:lower16:rlist
 583 0004 C0F2000C 		movt	ip, #:upper16:rlist
 584 0008 DCF80010 		ldr	r1, [ip, #0]
 585 000c DCF81C00 		ldr	r0, [ip, #28]
 586 0010 8A68     		ldr	r2, [r1, #8]
 587 0012 8368     		ldr	r3, [r0, #8]
 588 0014 9A42     		cmp	r2, r3
 589 0016 00D8     		bhi	.L29
 590 0018 7047     		bx	lr
 591              	.L29:
 592              		.loc 1 269 0
 593              		.loc 1 268 0
 594 001a FFF7FEBF 		b	chSchDoRescheduleI
 595              		.cfi_endproc
 596              	.LFE14:
 597              		.size	chSchRescheduleS, .-chSchRescheduleS
 598 001e 00BF     		.section	.text.chSchIsRescRequiredExI,"ax",%progbits
 599              		.align	2
 600              		.p2align 4,,15
 601              		.global	chSchIsRescRequiredExI
 602              		.thumb
 603              		.thumb_func
 604              		.type	chSchIsRescRequiredExI, %function
 605              	chSchIsRescRequiredExI:
 606              	.LFB15:
 607              		.loc 1 285 0
 608              		.cfi_startproc
 609              		@ args = 0, pretend = 0, frame = 0
 610              		@ frame_needed = 0, uses_anonymous_args = 0
 611              		@ link register save eliminated.
 612              		.loc 1 286 0
 613 0000 40F20003 		movw	r3, #:lower16:rlist
 614 0004 C0F20003 		movt	r3, #:upper16:rlist
 615 0008 1868     		ldr	r0, [r3, #0]
ARM GAS  /tmp/ccOlmrMD.s 			page 12


 616              		.loc 1 287 0
 617 000a D969     		ldr	r1, [r3, #28]
 618              		.loc 1 293 0
 619 000c 9A69     		ldr	r2, [r3, #24]
 620              		.loc 1 286 0
 621 000e 8068     		ldr	r0, [r0, #8]
 622              	.LVL32:
 623              		.loc 1 287 0
 624 0010 8B68     		ldr	r3, [r1, #8]
 625              	.LVL33:
 626              		.loc 1 293 0
 627 0012 22B9     		cbnz	r2, .L33
 628              		.loc 1 293 0 is_stmt 0 discriminator 2
 629 0014 9842     		cmp	r0, r3
 630 0016 34BF     		ite	cc
 631 0018 0020     		movcc	r0, #0
 632 001a 0120     		movcs	r0, #1
 633              		.loc 1 299 0 is_stmt 1 discriminator 2
 634 001c 7047     		bx	lr
 635              	.L33:
 636              		.loc 1 293 0 discriminator 1
 637 001e 9842     		cmp	r0, r3
 638 0020 94BF     		ite	ls
 639 0022 0020     		movls	r0, #0
 640 0024 0120     		movhi	r0, #1
 641 0026 7047     		bx	lr
 642              		.cfi_endproc
 643              	.LFE15:
 644              		.size	chSchIsRescRequiredExI, .-chSchIsRescRequiredExI
 645              		.comm	rlist,32,4
 646 0028 AFF30080 		.text
 646      AFF30080 
 647              	.Letext0:
 648              		.section	.debug_loc,"",%progbits
 649              	.Ldebug_loc0:
 650              	.LLST0:
 651 0000 16000000 		.4byte	.LVL1
 652 0004 32000000 		.4byte	.LVL4
 653 0008 0100     		.2byte	0x1
 654 000a 50       		.byte	0x50
 655 000b 00000000 		.4byte	0x0
 656 000f 00000000 		.4byte	0x0
 657              	.LLST1:
 658 0013 20000000 		.4byte	.LVL2
 659 0017 22000000 		.4byte	.LVL3
 660 001b 0100     		.2byte	0x1
 661 001d 53       		.byte	0x53
 662 001e 22000000 		.4byte	.LVL3
 663 0022 32000000 		.4byte	.LVL4
 664 0026 0100     		.2byte	0x1
 665 0028 53       		.byte	0x53
 666 0029 00000000 		.4byte	0x0
 667 002d 00000000 		.4byte	0x0
 668              	.LLST2:
 669 0031 0E000000 		.4byte	.LVL7
 670 0035 10000000 		.4byte	.LVL8
 671 0039 0100     		.2byte	0x1
ARM GAS  /tmp/ccOlmrMD.s 			page 13


 672 003b 53       		.byte	0x53
 673 003c 10000000 		.4byte	.LVL8
 674 0040 22000000 		.4byte	.LFE8
 675 0044 0100     		.2byte	0x1
 676 0046 53       		.byte	0x53
 677 0047 00000000 		.4byte	0x0
 678 004b 00000000 		.4byte	0x0
 679              	.LLST3:
 680 004f 00000000 		.4byte	.LFB9
 681 0053 0C000000 		.4byte	.LCFI0
 682 0057 0200     		.2byte	0x2
 683 0059 7D       		.byte	0x7d
 684 005a 00       		.sleb128 0
 685 005b 0C000000 		.4byte	.LCFI0
 686 005f 28000000 		.4byte	.LFE9
 687 0063 0200     		.2byte	0x2
 688 0065 7D       		.byte	0x7d
 689 0066 08       		.sleb128 8
 690 0067 00000000 		.4byte	0x0
 691 006b 00000000 		.4byte	0x0
 692              	.LLST4:
 693 006f 00000000 		.4byte	.LVL9
 694 0073 12000000 		.4byte	.LVL11
 695 0077 0100     		.2byte	0x1
 696 0079 50       		.byte	0x50
 697 007a 12000000 		.4byte	.LVL11
 698 007e 28000000 		.4byte	.LFE9
 699 0082 0800     		.2byte	0x8
 700 0084 03       		.byte	0x3
 701 0085 1C000000 		.4byte	rlist+28
 702 0089 06       		.byte	0x6
 703 008a 23       		.byte	0x23
 704 008b 18       		.uleb128 0x18
 705 008c 00000000 		.4byte	0x0
 706 0090 00000000 		.4byte	0x0
 707              	.LLST5:
 708 0094 00000000 		.4byte	.LFB11
 709 0098 02000000 		.4byte	.LCFI1
 710 009c 0200     		.2byte	0x2
 711 009e 7D       		.byte	0x7d
 712 009f 00       		.sleb128 0
 713 00a0 02000000 		.4byte	.LCFI1
 714 00a4 08000000 		.4byte	.LCFI2
 715 00a8 0200     		.2byte	0x2
 716 00aa 7D       		.byte	0x7d
 717 00ab 0C       		.sleb128 12
 718 00ac 08000000 		.4byte	.LCFI2
 719 00b0 4A000000 		.4byte	.LFE11
 720 00b4 0200     		.2byte	0x2
 721 00b6 7D       		.byte	0x7d
 722 00b7 28       		.sleb128 40
 723 00b8 00000000 		.4byte	0x0
 724 00bc 00000000 		.4byte	0x0
 725              	.LLST6:
 726 00c0 00000000 		.4byte	.LVL13
 727 00c4 20000000 		.4byte	.LVL14
 728 00c8 0100     		.2byte	0x1
ARM GAS  /tmp/ccOlmrMD.s 			page 14


 729 00ca 50       		.byte	0x50
 730 00cb 3C000000 		.4byte	.LVL16
 731 00cf 43000000 		.4byte	.LVL17-1
 732 00d3 0100     		.2byte	0x1
 733 00d5 50       		.byte	0x50
 734 00d6 00000000 		.4byte	0x0
 735 00da 00000000 		.4byte	0x0
 736              	.LLST7:
 737 00de 00000000 		.4byte	.LVL13
 738 00e2 23000000 		.4byte	.LVL15-1
 739 00e6 0100     		.2byte	0x1
 740 00e8 51       		.byte	0x51
 741 00e9 3C000000 		.4byte	.LVL16
 742 00ed 43000000 		.4byte	.LVL17-1
 743 00f1 0100     		.2byte	0x1
 744 00f3 51       		.byte	0x51
 745 00f4 00000000 		.4byte	0x0
 746 00f8 00000000 		.4byte	0x0
 747              	.LLST8:
 748 00fc 00000000 		.4byte	.LFB12
 749 0100 0A000000 		.4byte	.LCFI3
 750 0104 0200     		.2byte	0x2
 751 0106 7D       		.byte	0x7d
 752 0107 00       		.sleb128 0
 753 0108 0A000000 		.4byte	.LCFI3
 754 010c 5E000000 		.4byte	.LFE12
 755 0110 0200     		.2byte	0x2
 756 0112 7D       		.byte	0x7d
 757 0113 08       		.sleb128 8
 758 0114 00000000 		.4byte	0x0
 759 0118 00000000 		.4byte	0x0
 760              	.LLST9:
 761 011c 00000000 		.4byte	.LVL18
 762 0120 12000000 		.4byte	.LVL19
 763 0124 0100     		.2byte	0x1
 764 0126 50       		.byte	0x50
 765 0127 12000000 		.4byte	.LVL19
 766 012b 5E000000 		.4byte	.LFE12
 767 012f 0100     		.2byte	0x1
 768 0131 53       		.byte	0x53
 769 0132 00000000 		.4byte	0x0
 770 0136 00000000 		.4byte	0x0
 771              	.LLST10:
 772 013a 00000000 		.4byte	.LVL18
 773 013e 1A000000 		.4byte	.LVL21
 774 0142 0100     		.2byte	0x1
 775 0144 51       		.byte	0x51
 776 0145 1A000000 		.4byte	.LVL21
 777 0149 5E000000 		.4byte	.LFE12
 778 014d 0200     		.2byte	0x2
 779 014f 73       		.byte	0x73
 780 0150 20       		.sleb128 32
 781 0151 00000000 		.4byte	0x0
 782 0155 00000000 		.4byte	0x0
 783              	.LLST11:
 784 0159 18000000 		.4byte	.LVL20
 785 015d 32000000 		.4byte	.LVL24
ARM GAS  /tmp/ccOlmrMD.s 			page 15


 786 0161 0100     		.2byte	0x1
 787 0163 53       		.byte	0x53
 788 0164 00000000 		.4byte	0x0
 789 0168 00000000 		.4byte	0x0
 790              	.LLST12:
 791 016c 1C000000 		.4byte	.LVL22
 792 0170 1E000000 		.4byte	.LVL23
 793 0174 0100     		.2byte	0x1
 794 0176 52       		.byte	0x52
 795 0177 1E000000 		.4byte	.LVL23
 796 017b 32000000 		.4byte	.LVL24
 797 017f 0100     		.2byte	0x1
 798 0181 52       		.byte	0x52
 799 0182 00000000 		.4byte	0x0
 800 0186 00000000 		.4byte	0x0
 801              	.LLST13:
 802 018a 38000000 		.4byte	.LVL25
 803 018e 3A000000 		.4byte	.LVL26
 804 0192 0100     		.2byte	0x1
 805 0194 51       		.byte	0x51
 806 0195 3A000000 		.4byte	.LVL26
 807 0199 4A000000 		.4byte	.LVL27
 808 019d 0100     		.2byte	0x1
 809 019f 51       		.byte	0x51
 810 01a0 4A000000 		.4byte	.LVL27
 811 01a4 5E000000 		.4byte	.LFE12
 812 01a8 0600     		.2byte	0x6
 813 01aa 03       		.byte	0x3
 814 01ab 1C000000 		.4byte	rlist+28
 815 01af 06       		.byte	0x6
 816 01b0 00000000 		.4byte	0x0
 817 01b4 00000000 		.4byte	0x0
 818              	.LLST14:
 819 01b8 00000000 		.4byte	.LFB13
 820 01bc 0E000000 		.4byte	.LCFI4
 821 01c0 0200     		.2byte	0x2
 822 01c2 7D       		.byte	0x7d
 823 01c3 00       		.sleb128 0
 824 01c4 0E000000 		.4byte	.LCFI4
 825 01c8 4A000000 		.4byte	.LFE13
 826 01cc 0200     		.2byte	0x2
 827 01ce 7D       		.byte	0x7d
 828 01cf 0C       		.sleb128 12
 829 01d0 00000000 		.4byte	0x0
 830 01d4 00000000 		.4byte	0x0
 831              	.LLST15:
 832 01d8 32000000 		.4byte	.LVL30
 833 01dc 34000000 		.4byte	.LVL31
 834 01e0 0100     		.2byte	0x1
 835 01e2 53       		.byte	0x53
 836 01e3 34000000 		.4byte	.LVL31
 837 01e7 4A000000 		.4byte	.LFE13
 838 01eb 0100     		.2byte	0x1
 839 01ed 53       		.byte	0x53
 840 01ee 00000000 		.4byte	0x0
 841 01f2 00000000 		.4byte	0x0
 842              		.file 3 "/home/dan/arm-cs-tools/lib/gcc/arm-none-eabi/4.5.1/../../../../arm-none-eabi/include/stdi
ARM GAS  /tmp/ccOlmrMD.s 			page 16


 843              		.file 4 "chibios/os/ports/GCC/ARMCMx/chtypes.h"
 844              		.file 5 "chibios/os/kernel/include/chlists.h"
 845              		.file 6 "chibios/os/kernel/include/chthreads.h"
 846              		.file 7 "chibios/os/ports/GCC/ARMCMx/chcore.h"
 847              		.file 8 "chibios/os/ports/GCC/ARMCMx/chcore_v7m.h"
 848              		.file 9 "chibios/os/kernel/include/chvt.h"
 849              		.file 10 "chibios/os/kernel/include/chschd.h"
 850              		.file 11 "chibios/os/kernel/include/chsem.h"
 851              		.file 12 "chibios/os/kernel/include/chmtx.h"
 852              		.section	.debug_info
 853 0000 3C080000 		.4byte	0x83c
 854 0004 0200     		.2byte	0x2
 855 0006 00000000 		.4byte	.Ldebug_abbrev0
 856 000a 04       		.byte	0x4
 857 000b 01       		.uleb128 0x1
 858 000c 51030000 		.4byte	.LASF82
 859 0010 01       		.byte	0x1
 860 0011 06000000 		.4byte	.LASF83
 861 0015 84010000 		.4byte	.LASF84
 862 0019 00000000 		.4byte	0x0
 863 001d 00000000 		.4byte	0x0
 864 0021 48010000 		.4byte	.Ldebug_ranges0+0x148
 865 0025 00000000 		.4byte	.Ldebug_line0
 866 0029 02       		.uleb128 0x2
 867 002a 04       		.byte	0x4
 868 002b 05       		.byte	0x5
 869 002c 696E7400 		.ascii	"int\000"
 870 0030 03       		.uleb128 0x3
 871 0031 04       		.byte	0x4
 872 0032 07       		.byte	0x7
 873 0033 EC000000 		.4byte	.LASF0
 874 0037 03       		.uleb128 0x3
 875 0038 01       		.byte	0x1
 876 0039 06       		.byte	0x6
 877 003a 61000000 		.4byte	.LASF1
 878 003e 04       		.uleb128 0x4
 879 003f 49030000 		.4byte	.LASF5
 880 0043 03       		.byte	0x3
 881 0044 2A       		.byte	0x2a
 882 0045 49000000 		.4byte	0x49
 883 0049 03       		.uleb128 0x3
 884 004a 01       		.byte	0x1
 885 004b 08       		.byte	0x8
 886 004c 0E020000 		.4byte	.LASF2
 887 0050 03       		.uleb128 0x3
 888 0051 02       		.byte	0x2
 889 0052 05       		.byte	0x5
 890 0053 2F020000 		.4byte	.LASF3
 891 0057 03       		.uleb128 0x3
 892 0058 02       		.byte	0x2
 893 0059 07       		.byte	0x7
 894 005a 28010000 		.4byte	.LASF4
 895 005e 04       		.uleb128 0x4
 896 005f 06020000 		.4byte	.LASF6
 897 0063 03       		.byte	0x3
 898 0064 4F       		.byte	0x4f
 899 0065 69000000 		.4byte	0x69
ARM GAS  /tmp/ccOlmrMD.s 			page 17


 900 0069 03       		.uleb128 0x3
 901 006a 04       		.byte	0x4
 902 006b 05       		.byte	0x5
 903 006c 8B000000 		.4byte	.LASF7
 904 0070 04       		.uleb128 0x4
 905 0071 7E020000 		.4byte	.LASF8
 906 0075 03       		.byte	0x3
 907 0076 50       		.byte	0x50
 908 0077 7B000000 		.4byte	0x7b
 909 007b 03       		.uleb128 0x3
 910 007c 04       		.byte	0x4
 911 007d 07       		.byte	0x7
 912 007e 08010000 		.4byte	.LASF9
 913 0082 03       		.uleb128 0x3
 914 0083 08       		.byte	0x8
 915 0084 05       		.byte	0x5
 916 0085 53000000 		.4byte	.LASF10
 917 0089 03       		.uleb128 0x3
 918 008a 08       		.byte	0x8
 919 008b 07       		.byte	0x7
 920 008c 2C000000 		.4byte	.LASF11
 921 0090 04       		.uleb128 0x4
 922 0091 75000000 		.4byte	.LASF12
 923 0095 04       		.byte	0x4
 924 0096 2D       		.byte	0x2d
 925 0097 5E000000 		.4byte	0x5e
 926 009b 04       		.uleb128 0x4
 927 009c 4E010000 		.4byte	.LASF13
 928 00a0 04       		.byte	0x4
 929 00a1 2E       		.byte	0x2e
 930 00a2 3E000000 		.4byte	0x3e
 931 00a6 04       		.uleb128 0x4
 932 00a7 A3000000 		.4byte	.LASF14
 933 00ab 04       		.byte	0x4
 934 00ac 2F       		.byte	0x2f
 935 00ad 3E000000 		.4byte	0x3e
 936 00b1 04       		.uleb128 0x4
 937 00b2 EF010000 		.4byte	.LASF15
 938 00b6 04       		.byte	0x4
 939 00b7 30       		.byte	0x30
 940 00b8 3E000000 		.4byte	0x3e
 941 00bc 04       		.uleb128 0x4
 942 00bd FE010000 		.4byte	.LASF16
 943 00c1 04       		.byte	0x4
 944 00c2 31       		.byte	0x31
 945 00c3 70000000 		.4byte	0x70
 946 00c7 04       		.uleb128 0x4
 947 00c8 48010000 		.4byte	.LASF17
 948 00cc 04       		.byte	0x4
 949 00cd 32       		.byte	0x32
 950 00ce 5E000000 		.4byte	0x5e
 951 00d2 04       		.uleb128 0x4
 952 00d3 62010000 		.4byte	.LASF18
 953 00d7 04       		.byte	0x4
 954 00d8 34       		.byte	0x34
 955 00d9 70000000 		.4byte	0x70
 956 00dd 04       		.uleb128 0x4
ARM GAS  /tmp/ccOlmrMD.s 			page 18


 957 00de BB020000 		.4byte	.LASF19
 958 00e2 04       		.byte	0x4
 959 00e3 35       		.byte	0x35
 960 00e4 70000000 		.4byte	0x70
 961 00e8 04       		.uleb128 0x4
 962 00e9 E6000000 		.4byte	.LASF20
 963 00ed 04       		.byte	0x4
 964 00ee 36       		.byte	0x36
 965 00ef 5E000000 		.4byte	0x5e
 966 00f3 04       		.uleb128 0x4
 967 00f4 5E020000 		.4byte	.LASF21
 968 00f8 05       		.byte	0x5
 969 00f9 29       		.byte	0x29
 970 00fa FE000000 		.4byte	0xfe
 971 00fe 05       		.uleb128 0x5
 972 00ff 5E020000 		.4byte	.LASF21
 973 0103 44       		.byte	0x44
 974 0104 06       		.byte	0x6
 975 0105 2E       		.byte	0x2e
 976 0106 07020000 		.4byte	0x207
 977 010a 06       		.uleb128 0x6
 978 010b 4F020000 		.4byte	.LASF22
 979 010f 06       		.byte	0x6
 980 0110 2F       		.byte	0x2f
 981 0111 2C020000 		.4byte	0x22c
 982 0115 02       		.byte	0x2
 983 0116 23       		.byte	0x23
 984 0117 00       		.uleb128 0x0
 985 0118 06       		.uleb128 0x6
 986 0119 F7010000 		.4byte	.LASF23
 987 011d 06       		.byte	0x6
 988 011e 31       		.byte	0x31
 989 011f 2C020000 		.4byte	0x22c
 990 0123 02       		.byte	0x2
 991 0124 23       		.byte	0x23
 992 0125 04       		.uleb128 0x4
 993 0126 06       		.uleb128 0x6
 994 0127 4C000000 		.4byte	.LASF24
 995 012b 06       		.byte	0x6
 996 012c 33       		.byte	0x33
 997 012d BC000000 		.4byte	0xbc
 998 0131 02       		.byte	0x2
 999 0132 23       		.byte	0x23
 1000 0133 08       		.uleb128 0x8
 1001 0134 06       		.uleb128 0x6
 1002 0135 84030000 		.4byte	.LASF25
 1003 0139 06       		.byte	0x6
 1004 013a 34       		.byte	0x34
 1005 013b 6D020000 		.4byte	0x26d
 1006 013f 02       		.byte	0x2
 1007 0140 23       		.byte	0x23
 1008 0141 0C       		.uleb128 0xc
 1009 0142 06       		.uleb128 0x6
 1010 0143 AC000000 		.4byte	.LASF26
 1011 0147 06       		.byte	0x6
 1012 0148 36       		.byte	0x36
 1013 0149 2C020000 		.4byte	0x22c
ARM GAS  /tmp/ccOlmrMD.s 			page 19


 1014 014d 02       		.byte	0x2
 1015 014e 23       		.byte	0x23
 1016 014f 10       		.uleb128 0x10
 1017 0150 06       		.uleb128 0x6
 1018 0151 BA010000 		.4byte	.LASF27
 1019 0155 06       		.byte	0x6
 1020 0156 37       		.byte	0x37
 1021 0157 2C020000 		.4byte	0x22c
 1022 015b 02       		.byte	0x2
 1023 015c 23       		.byte	0x23
 1024 015d 14       		.uleb128 0x14
 1025 015e 06       		.uleb128 0x6
 1026 015f 39020000 		.4byte	.LASF28
 1027 0163 06       		.byte	0x6
 1028 0164 3D       		.byte	0x3d
 1029 0165 A6000000 		.4byte	0xa6
 1030 0169 02       		.byte	0x2
 1031 016a 23       		.byte	0x23
 1032 016b 18       		.uleb128 0x18
 1033 016c 06       		.uleb128 0x6
 1034 016d 56020000 		.4byte	.LASF29
 1035 0171 06       		.byte	0x6
 1036 0172 41       		.byte	0x41
 1037 0173 9B000000 		.4byte	0x9b
 1038 0177 02       		.byte	0x2
 1039 0178 23       		.byte	0x23
 1040 0179 19       		.uleb128 0x19
 1041 017a 06       		.uleb128 0x6
 1042 017b 32030000 		.4byte	.LASF30
 1043 017f 06       		.byte	0x6
 1044 0180 46       		.byte	0x46
 1045 0181 B1000000 		.4byte	0xb1
 1046 0185 02       		.byte	0x2
 1047 0186 23       		.byte	0x23
 1048 0187 1A       		.uleb128 0x1a
 1049 0188 06       		.uleb128 0x6
 1050 0189 D9020000 		.4byte	.LASF31
 1051 018d 06       		.byte	0x6
 1052 018e 53       		.byte	0x53
 1053 018f 95030000 		.4byte	0x395
 1054 0193 02       		.byte	0x2
 1055 0194 23       		.byte	0x23
 1056 0195 1C       		.uleb128 0x1c
 1057 0196 07       		.uleb128 0x7
 1058 0197 705F7500 		.ascii	"p_u\000"
 1059 019b 06       		.byte	0x6
 1060 019c 78       		.byte	0x78
 1061 019d 8C040000 		.4byte	0x48c
 1062 01a1 02       		.byte	0x2
 1063 01a2 23       		.byte	0x23
 1064 01a3 20       		.uleb128 0x20
 1065 01a4 06       		.uleb128 0x6
 1066 01a5 8A030000 		.4byte	.LASF32
 1067 01a9 06       		.byte	0x6
 1068 01aa 7D       		.byte	0x7d
 1069 01ab 54020000 		.4byte	0x254
 1070 01af 02       		.byte	0x2
ARM GAS  /tmp/ccOlmrMD.s 			page 20


 1071 01b0 23       		.byte	0x23
 1072 01b1 24       		.uleb128 0x24
 1073 01b2 06       		.uleb128 0x6
 1074 01b3 FE020000 		.4byte	.LASF33
 1075 01b7 06       		.byte	0x6
 1076 01b8 83       		.byte	0x83
 1077 01b9 32020000 		.4byte	0x232
 1078 01bd 02       		.byte	0x2
 1079 01be 23       		.byte	0x23
 1080 01bf 28       		.uleb128 0x28
 1081 01c0 06       		.uleb128 0x6
 1082 01c1 00000000 		.4byte	.LASF34
 1083 01c5 06       		.byte	0x6
 1084 01c6 87       		.byte	0x87
 1085 01c7 C7000000 		.4byte	0xc7
 1086 01cb 02       		.byte	0x2
 1087 01cc 23       		.byte	0x23
 1088 01cd 30       		.uleb128 0x30
 1089 01ce 06       		.uleb128 0x6
 1090 01cf 73020000 		.4byte	.LASF35
 1091 01d3 06       		.byte	0x6
 1092 01d4 8D       		.byte	0x8d
 1093 01d5 D2000000 		.4byte	0xd2
 1094 01d9 02       		.byte	0x2
 1095 01da 23       		.byte	0x23
 1096 01db 34       		.uleb128 0x34
 1097 01dc 06       		.uleb128 0x6
 1098 01dd 25020000 		.4byte	.LASF36
 1099 01e1 06       		.byte	0x6
 1100 01e2 94       		.byte	0x94
 1101 01e3 C1040000 		.4byte	0x4c1
 1102 01e7 02       		.byte	0x2
 1103 01e8 23       		.byte	0x23
 1104 01e9 38       		.uleb128 0x38
 1105 01ea 06       		.uleb128 0x6
 1106 01eb C5020000 		.4byte	.LASF37
 1107 01ef 06       		.byte	0x6
 1108 01f0 98       		.byte	0x98
 1109 01f1 BC000000 		.4byte	0xbc
 1110 01f5 02       		.byte	0x2
 1111 01f6 23       		.byte	0x23
 1112 01f7 3C       		.uleb128 0x3c
 1113 01f8 06       		.uleb128 0x6
 1114 01f9 6D000000 		.4byte	.LASF38
 1115 01fd 06       		.byte	0x6
 1116 01fe 9E       		.byte	0x9e
 1117 01ff 6B020000 		.4byte	0x26b
 1118 0203 02       		.byte	0x2
 1119 0204 23       		.byte	0x23
 1120 0205 40       		.uleb128 0x40
 1121 0206 00       		.byte	0x0
 1122 0207 08       		.uleb128 0x8
 1123 0208 08       		.byte	0x8
 1124 0209 05       		.byte	0x5
 1125 020a 60       		.byte	0x60
 1126 020b 2C020000 		.4byte	0x22c
 1127 020f 06       		.uleb128 0x6
ARM GAS  /tmp/ccOlmrMD.s 			page 21


 1128 0210 4F020000 		.4byte	.LASF22
 1129 0214 05       		.byte	0x5
 1130 0215 61       		.byte	0x61
 1131 0216 2C020000 		.4byte	0x22c
 1132 021a 02       		.byte	0x2
 1133 021b 23       		.byte	0x23
 1134 021c 00       		.uleb128 0x0
 1135 021d 06       		.uleb128 0x6
 1136 021e F7010000 		.4byte	.LASF23
 1137 0222 05       		.byte	0x5
 1138 0223 63       		.byte	0x63
 1139 0224 2C020000 		.4byte	0x22c
 1140 0228 02       		.byte	0x2
 1141 0229 23       		.byte	0x23
 1142 022a 04       		.uleb128 0x4
 1143 022b 00       		.byte	0x0
 1144 022c 09       		.uleb128 0x9
 1145 022d 04       		.byte	0x4
 1146 022e F3000000 		.4byte	0xf3
 1147 0232 04       		.uleb128 0x4
 1148 0233 C8010000 		.4byte	.LASF39
 1149 0237 05       		.byte	0x5
 1150 0238 65       		.byte	0x65
 1151 0239 07020000 		.4byte	0x207
 1152 023d 08       		.uleb128 0x8
 1153 023e 04       		.byte	0x4
 1154 023f 05       		.byte	0x5
 1155 0240 6A       		.byte	0x6a
 1156 0241 54020000 		.4byte	0x254
 1157 0245 06       		.uleb128 0x6
 1158 0246 4F020000 		.4byte	.LASF22
 1159 024a 05       		.byte	0x5
 1160 024b 6C       		.byte	0x6c
 1161 024c 2C020000 		.4byte	0x22c
 1162 0250 02       		.byte	0x2
 1163 0251 23       		.byte	0x23
 1164 0252 00       		.uleb128 0x0
 1165 0253 00       		.byte	0x0
 1166 0254 04       		.uleb128 0x4
 1167 0255 56010000 		.4byte	.LASF40
 1168 0259 05       		.byte	0x5
 1169 025a 6F       		.byte	0x6f
 1170 025b 3D020000 		.4byte	0x23d
 1171 025f 0A       		.uleb128 0xa
 1172 0260 D5000000 		.4byte	.LASF41
 1173 0264 07       		.byte	0x7
 1174 0265 0F01     		.2byte	0x10f
 1175 0267 6B020000 		.4byte	0x26b
 1176 026b 0B       		.uleb128 0xb
 1177 026c 04       		.byte	0x4
 1178 026d 0C       		.uleb128 0xc
 1179 026e 20010000 		.4byte	.LASF42
 1180 0272 04       		.byte	0x4
 1181 0273 07       		.byte	0x7
 1182 0274 2B01     		.2byte	0x12b
 1183 0276 8A020000 		.4byte	0x28a
 1184 027a 0D       		.uleb128 0xd
ARM GAS  /tmp/ccOlmrMD.s 			page 22


 1185 027b 72313300 		.ascii	"r13\000"
 1186 027f 07       		.byte	0x7
 1187 0280 2C01     		.2byte	0x12c
 1188 0282 0E030000 		.4byte	0x30e
 1189 0286 02       		.byte	0x2
 1190 0287 23       		.byte	0x23
 1191 0288 00       		.uleb128 0x0
 1192 0289 00       		.byte	0x0
 1193 028a 05       		.uleb128 0x5
 1194 028b F7020000 		.4byte	.LASF43
 1195 028f 24       		.byte	0x24
 1196 0290 08       		.byte	0x8
 1197 0291 36       		.byte	0x36
 1198 0292 0E030000 		.4byte	0x30e
 1199 0296 07       		.uleb128 0x7
 1200 0297 723400   		.ascii	"r4\000"
 1201 029a 08       		.byte	0x8
 1202 029b 37       		.byte	0x37
 1203 029c 5F020000 		.4byte	0x25f
 1204 02a0 02       		.byte	0x2
 1205 02a1 23       		.byte	0x23
 1206 02a2 00       		.uleb128 0x0
 1207 02a3 07       		.uleb128 0x7
 1208 02a4 723500   		.ascii	"r5\000"
 1209 02a7 08       		.byte	0x8
 1210 02a8 38       		.byte	0x38
 1211 02a9 5F020000 		.4byte	0x25f
 1212 02ad 02       		.byte	0x2
 1213 02ae 23       		.byte	0x23
 1214 02af 04       		.uleb128 0x4
 1215 02b0 07       		.uleb128 0x7
 1216 02b1 723600   		.ascii	"r6\000"
 1217 02b4 08       		.byte	0x8
 1218 02b5 39       		.byte	0x39
 1219 02b6 5F020000 		.4byte	0x25f
 1220 02ba 02       		.byte	0x2
 1221 02bb 23       		.byte	0x23
 1222 02bc 08       		.uleb128 0x8
 1223 02bd 07       		.uleb128 0x7
 1224 02be 723700   		.ascii	"r7\000"
 1225 02c1 08       		.byte	0x8
 1226 02c2 3B       		.byte	0x3b
 1227 02c3 5F020000 		.4byte	0x25f
 1228 02c7 02       		.byte	0x2
 1229 02c8 23       		.byte	0x23
 1230 02c9 0C       		.uleb128 0xc
 1231 02ca 07       		.uleb128 0x7
 1232 02cb 723800   		.ascii	"r8\000"
 1233 02ce 08       		.byte	0x8
 1234 02cf 3D       		.byte	0x3d
 1235 02d0 5F020000 		.4byte	0x25f
 1236 02d4 02       		.byte	0x2
 1237 02d5 23       		.byte	0x23
 1238 02d6 10       		.uleb128 0x10
 1239 02d7 07       		.uleb128 0x7
 1240 02d8 723900   		.ascii	"r9\000"
 1241 02db 08       		.byte	0x8
ARM GAS  /tmp/ccOlmrMD.s 			page 23


 1242 02dc 3E       		.byte	0x3e
 1243 02dd 5F020000 		.4byte	0x25f
 1244 02e1 02       		.byte	0x2
 1245 02e2 23       		.byte	0x23
 1246 02e3 14       		.uleb128 0x14
 1247 02e4 07       		.uleb128 0x7
 1248 02e5 72313000 		.ascii	"r10\000"
 1249 02e9 08       		.byte	0x8
 1250 02ea 3F       		.byte	0x3f
 1251 02eb 5F020000 		.4byte	0x25f
 1252 02ef 02       		.byte	0x2
 1253 02f0 23       		.byte	0x23
 1254 02f1 18       		.uleb128 0x18
 1255 02f2 07       		.uleb128 0x7
 1256 02f3 72313100 		.ascii	"r11\000"
 1257 02f7 08       		.byte	0x8
 1258 02f8 40       		.byte	0x40
 1259 02f9 5F020000 		.4byte	0x25f
 1260 02fd 02       		.byte	0x2
 1261 02fe 23       		.byte	0x23
 1262 02ff 1C       		.uleb128 0x1c
 1263 0300 07       		.uleb128 0x7
 1264 0301 6C7200   		.ascii	"lr\000"
 1265 0304 08       		.byte	0x8
 1266 0305 41       		.byte	0x41
 1267 0306 5F020000 		.4byte	0x25f
 1268 030a 02       		.byte	0x2
 1269 030b 23       		.byte	0x23
 1270 030c 20       		.uleb128 0x20
 1271 030d 00       		.byte	0x0
 1272 030e 09       		.uleb128 0x9
 1273 030f 04       		.byte	0x4
 1274 0310 8A020000 		.4byte	0x28a
 1275 0314 04       		.uleb128 0x4
 1276 0315 D0020000 		.4byte	.LASF44
 1277 0319 09       		.byte	0x9
 1278 031a 3E       		.byte	0x3e
 1279 031b 1F030000 		.4byte	0x31f
 1280 031f 09       		.uleb128 0x9
 1281 0320 04       		.byte	0x4
 1282 0321 25030000 		.4byte	0x325
 1283 0325 0E       		.uleb128 0xe
 1284 0326 01       		.byte	0x1
 1285 0327 31030000 		.4byte	0x331
 1286 032b 0F       		.uleb128 0xf
 1287 032c 6B020000 		.4byte	0x26b
 1288 0330 00       		.byte	0x0
 1289 0331 04       		.uleb128 0x4
 1290 0332 8F020000 		.4byte	.LASF45
 1291 0336 09       		.byte	0x9
 1292 0337 43       		.byte	0x43
 1293 0338 3C030000 		.4byte	0x33c
 1294 033c 05       		.uleb128 0x5
 1295 033d 8F020000 		.4byte	.LASF45
 1296 0341 14       		.byte	0x14
 1297 0342 09       		.byte	0x9
 1298 0343 4A       		.byte	0x4a
ARM GAS  /tmp/ccOlmrMD.s 			page 24


 1299 0344 8F030000 		.4byte	0x38f
 1300 0348 06       		.uleb128 0x6
 1301 0349 00010000 		.4byte	.LASF46
 1302 034d 09       		.byte	0x9
 1303 034e 4B       		.byte	0x4b
 1304 034f 8F030000 		.4byte	0x38f
 1305 0353 02       		.byte	0x2
 1306 0354 23       		.byte	0x23
 1307 0355 00       		.uleb128 0x0
 1308 0356 06       		.uleb128 0x6
 1309 0357 DE000000 		.4byte	.LASF47
 1310 035b 09       		.byte	0x9
 1311 035c 4D       		.byte	0x4d
 1312 035d 8F030000 		.4byte	0x38f
 1313 0361 02       		.byte	0x2
 1314 0362 23       		.byte	0x23
 1315 0363 04       		.uleb128 0x4
 1316 0364 06       		.uleb128 0x6
 1317 0365 74010000 		.4byte	.LASF48
 1318 0369 09       		.byte	0x9
 1319 036a 4F       		.byte	0x4f
 1320 036b DD000000 		.4byte	0xdd
 1321 036f 02       		.byte	0x2
 1322 0370 23       		.byte	0x23
 1323 0371 08       		.uleb128 0x8
 1324 0372 06       		.uleb128 0x6
 1325 0373 7C010000 		.4byte	.LASF49
 1326 0377 09       		.byte	0x9
 1327 0378 50       		.byte	0x50
 1328 0379 14030000 		.4byte	0x314
 1329 037d 02       		.byte	0x2
 1330 037e 23       		.byte	0x23
 1331 037f 0C       		.uleb128 0xc
 1332 0380 06       		.uleb128 0x6
 1333 0381 21030000 		.4byte	.LASF50
 1334 0385 09       		.byte	0x9
 1335 0386 52       		.byte	0x52
 1336 0387 6B020000 		.4byte	0x26b
 1337 038b 02       		.byte	0x2
 1338 038c 23       		.byte	0x23
 1339 038d 10       		.uleb128 0x10
 1340 038e 00       		.byte	0x0
 1341 038f 09       		.uleb128 0x9
 1342 0390 04       		.byte	0x4
 1343 0391 31030000 		.4byte	0x331
 1344 0395 10       		.uleb128 0x10
 1345 0396 DD000000 		.4byte	0xdd
 1346 039a 08       		.uleb128 0x8
 1347 039b 20       		.byte	0x20
 1348 039c 0A       		.byte	0xa
 1349 039d 4F       		.byte	0x4f
 1350 039e 05040000 		.4byte	0x405
 1351 03a2 06       		.uleb128 0x6
 1352 03a3 87020000 		.4byte	.LASF51
 1353 03a7 0A       		.byte	0xa
 1354 03a8 50       		.byte	0x50
 1355 03a9 32020000 		.4byte	0x232
ARM GAS  /tmp/ccOlmrMD.s 			page 25


 1356 03ad 02       		.byte	0x2
 1357 03ae 23       		.byte	0x23
 1358 03af 00       		.uleb128 0x0
 1359 03b0 06       		.uleb128 0x6
 1360 03b1 41020000 		.4byte	.LASF52
 1361 03b5 0A       		.byte	0xa
 1362 03b6 51       		.byte	0x51
 1363 03b7 BC000000 		.4byte	0xbc
 1364 03bb 02       		.byte	0x2
 1365 03bc 23       		.byte	0x23
 1366 03bd 08       		.uleb128 0x8
 1367 03be 06       		.uleb128 0x6
 1368 03bf C2010000 		.4byte	.LASF53
 1369 03c3 0A       		.byte	0xa
 1370 03c4 53       		.byte	0x53
 1371 03c5 6D020000 		.4byte	0x26d
 1372 03c9 02       		.byte	0x2
 1373 03ca 23       		.byte	0x23
 1374 03cb 0C       		.uleb128 0xc
 1375 03cc 06       		.uleb128 0x6
 1376 03cd CD000000 		.4byte	.LASF54
 1377 03d1 0A       		.byte	0xa
 1378 03d2 56       		.byte	0x56
 1379 03d3 2C020000 		.4byte	0x22c
 1380 03d7 02       		.byte	0x2
 1381 03d8 23       		.byte	0x23
 1382 03d9 10       		.uleb128 0x10
 1383 03da 06       		.uleb128 0x6
 1384 03db E7010000 		.4byte	.LASF55
 1385 03df 0A       		.byte	0xa
 1386 03e0 57       		.byte	0x57
 1387 03e1 2C020000 		.4byte	0x22c
 1388 03e5 02       		.byte	0x2
 1389 03e6 23       		.byte	0x23
 1390 03e7 14       		.uleb128 0x14
 1391 03e8 06       		.uleb128 0x6
 1392 03e9 72030000 		.4byte	.LASF56
 1393 03ed 0A       		.byte	0xa
 1394 03ee 5B       		.byte	0x5b
 1395 03ef E8000000 		.4byte	0xe8
 1396 03f3 02       		.byte	0x2
 1397 03f4 23       		.byte	0x23
 1398 03f5 18       		.uleb128 0x18
 1399 03f6 06       		.uleb128 0x6
 1400 03f7 DD010000 		.4byte	.LASF57
 1401 03fb 0A       		.byte	0xa
 1402 03fc 5E       		.byte	0x5e
 1403 03fd 2C020000 		.4byte	0x22c
 1404 0401 02       		.byte	0x2
 1405 0402 23       		.byte	0x23
 1406 0403 1C       		.uleb128 0x1c
 1407 0404 00       		.byte	0x0
 1408 0405 04       		.uleb128 0x4
 1409 0406 39030000 		.4byte	.LASF58
 1410 040a 0A       		.byte	0xa
 1411 040b 61       		.byte	0x61
 1412 040c 9A030000 		.4byte	0x39a
ARM GAS  /tmp/ccOlmrMD.s 			page 26


 1413 0410 05       		.uleb128 0x5
 1414 0411 28030000 		.4byte	.LASF59
 1415 0415 0C       		.byte	0xc
 1416 0416 0B       		.byte	0xb
 1417 0417 2B       		.byte	0x2b
 1418 0418 39040000 		.4byte	0x439
 1419 041c 06       		.uleb128 0x6
 1420 041d B4000000 		.4byte	.LASF60
 1421 0421 0B       		.byte	0xb
 1422 0422 2C       		.byte	0x2c
 1423 0423 32020000 		.4byte	0x232
 1424 0427 02       		.byte	0x2
 1425 0428 23       		.byte	0x23
 1426 0429 00       		.uleb128 0x0
 1427 042a 06       		.uleb128 0x6
 1428 042b 1A010000 		.4byte	.LASF61
 1429 042f 0B       		.byte	0xb
 1430 0430 2E       		.byte	0x2e
 1431 0431 E8000000 		.4byte	0xe8
 1432 0435 02       		.byte	0x2
 1433 0436 23       		.byte	0x23
 1434 0437 08       		.uleb128 0x8
 1435 0438 00       		.byte	0x0
 1436 0439 04       		.uleb128 0x4
 1437 043a 28030000 		.4byte	.LASF59
 1438 043e 0B       		.byte	0xb
 1439 043f 2F       		.byte	0x2f
 1440 0440 10040000 		.4byte	0x410
 1441 0444 05       		.uleb128 0x5
 1442 0445 6E010000 		.4byte	.LASF62
 1443 0449 10       		.byte	0x10
 1444 044a 0C       		.byte	0xc
 1445 044b 2B       		.byte	0x2b
 1446 044c 7B040000 		.4byte	0x47b
 1447 0450 06       		.uleb128 0x6
 1448 0451 7C000000 		.4byte	.LASF63
 1449 0455 0C       		.byte	0xc
 1450 0456 2C       		.byte	0x2c
 1451 0457 32020000 		.4byte	0x232
 1452 045b 02       		.byte	0x2
 1453 045c 23       		.byte	0x23
 1454 045d 00       		.uleb128 0x0
 1455 045e 06       		.uleb128 0x6
 1456 045f 7C030000 		.4byte	.LASF64
 1457 0463 0C       		.byte	0xc
 1458 0464 2E       		.byte	0x2e
 1459 0465 2C020000 		.4byte	0x22c
 1460 0469 02       		.byte	0x2
 1461 046a 23       		.byte	0x23
 1462 046b 08       		.uleb128 0x8
 1463 046c 06       		.uleb128 0x6
 1464 046d B4020000 		.4byte	.LASF65
 1465 0471 0C       		.byte	0xc
 1466 0472 30       		.byte	0x30
 1467 0473 7B040000 		.4byte	0x47b
 1468 0477 02       		.byte	0x2
 1469 0478 23       		.byte	0x23
ARM GAS  /tmp/ccOlmrMD.s 			page 27


 1470 0479 0C       		.uleb128 0xc
 1471 047a 00       		.byte	0x0
 1472 047b 09       		.uleb128 0x9
 1473 047c 04       		.byte	0x4
 1474 047d 44040000 		.4byte	0x444
 1475 0481 04       		.uleb128 0x4
 1476 0482 6E010000 		.4byte	.LASF62
 1477 0486 0C       		.byte	0xc
 1478 0487 32       		.byte	0x32
 1479 0488 44040000 		.4byte	0x444
 1480 048c 11       		.uleb128 0x11
 1481 048d 04       		.byte	0x4
 1482 048e 06       		.byte	0x6
 1483 048f 5A       		.byte	0x5a
 1484 0490 C1040000 		.4byte	0x4c1
 1485 0494 12       		.uleb128 0x12
 1486 0495 25000000 		.4byte	.LASF66
 1487 0499 06       		.byte	0x6
 1488 049a 61       		.byte	0x61
 1489 049b C7000000 		.4byte	0xc7
 1490 049f 12       		.uleb128 0x12
 1491 04a0 43000000 		.4byte	.LASF67
 1492 04a4 06       		.byte	0x6
 1493 04a5 68       		.byte	0x68
 1494 04a6 C7000000 		.4byte	0xc7
 1495 04aa 12       		.uleb128 0x12
 1496 04ab 84000000 		.4byte	.LASF68
 1497 04af 06       		.byte	0x6
 1498 04b0 6F       		.byte	0x6f
 1499 04b1 6B020000 		.4byte	0x26b
 1500 04b5 12       		.uleb128 0x12
 1501 04b6 48020000 		.4byte	.LASF69
 1502 04ba 06       		.byte	0x6
 1503 04bb 76       		.byte	0x76
 1504 04bc D2000000 		.4byte	0xd2
 1505 04c0 00       		.byte	0x0
 1506 04c1 09       		.uleb128 0x9
 1507 04c2 04       		.byte	0x4
 1508 04c3 81040000 		.4byte	0x481
 1509 04c7 13       		.uleb128 0x13
 1510 04c8 D5010000 		.4byte	.LASF70
 1511 04cc 02       		.byte	0x2
 1512 04cd 48       		.byte	0x48
 1513 04ce 01       		.byte	0x1
 1514 04cf 2C020000 		.4byte	0x22c
 1515 04d3 03       		.byte	0x3
 1516 04d4 E3040000 		.4byte	0x4e3
 1517 04d8 14       		.uleb128 0x14
 1518 04d9 747000   		.ascii	"tp\000"
 1519 04dc 02       		.byte	0x2
 1520 04dd 48       		.byte	0x48
 1521 04de 2C020000 		.4byte	0x22c
 1522 04e2 00       		.byte	0x0
 1523 04e3 15       		.uleb128 0x15
 1524 04e4 01       		.byte	0x1
 1525 04e5 9C020000 		.4byte	.LASF85
 1526 04e9 01       		.byte	0x1
ARM GAS  /tmp/ccOlmrMD.s 			page 28


 1527 04ea 51       		.byte	0x51
 1528 04eb 01       		.byte	0x1
 1529 04ec 2C020000 		.4byte	0x22c
 1530 04f0 01       		.byte	0x1
 1531 04f1 0A050000 		.4byte	0x50a
 1532 04f5 14       		.uleb128 0x14
 1533 04f6 747000   		.ascii	"tp\000"
 1534 04f9 01       		.byte	0x1
 1535 04fa 51       		.byte	0x51
 1536 04fb 2C020000 		.4byte	0x22c
 1537 04ff 16       		.uleb128 0x16
 1538 0500 637000   		.ascii	"cp\000"
 1539 0503 01       		.byte	0x1
 1540 0504 52       		.byte	0x52
 1541 0505 2C020000 		.4byte	0x22c
 1542 0509 00       		.byte	0x0
 1543 050a 13       		.uleb128 0x13
 1544 050b A8020000 		.4byte	.LASF71
 1545 050f 02       		.byte	0x2
 1546 0510 3A       		.byte	0x3a
 1547 0511 01       		.byte	0x1
 1548 0512 2C020000 		.4byte	0x22c
 1549 0516 03       		.byte	0x3
 1550 0517 31050000 		.4byte	0x531
 1551 051b 14       		.uleb128 0x14
 1552 051c 74717000 		.ascii	"tqp\000"
 1553 0520 02       		.byte	0x2
 1554 0521 3A       		.byte	0x3a
 1555 0522 31050000 		.4byte	0x531
 1556 0526 16       		.uleb128 0x16
 1557 0527 747000   		.ascii	"tp\000"
 1558 052a 02       		.byte	0x2
 1559 052b 3B       		.byte	0x3b
 1560 052c 2C020000 		.4byte	0x22c
 1561 0530 00       		.byte	0x0
 1562 0531 09       		.uleb128 0x9
 1563 0532 04       		.byte	0x4
 1564 0533 32020000 		.4byte	0x232
 1565 0537 17       		.uleb128 0x17
 1566 0538 F9000000 		.4byte	.LASF86
 1567 053c 01       		.byte	0x1
 1568 053d 83       		.byte	0x83
 1569 053e 01       		.byte	0x1
 1570 053f 00000000 		.4byte	.LFB10
 1571 0543 48000000 		.4byte	.LFE10
 1572 0547 02       		.byte	0x2
 1573 0548 7D       		.byte	0x7d
 1574 0549 00       		.sleb128 0
 1575 054a A9050000 		.4byte	0x5a9
 1576 054e 18       		.uleb128 0x18
 1577 054f 7000     		.ascii	"p\000"
 1578 0551 01       		.byte	0x1
 1579 0552 83       		.byte	0x83
 1580 0553 6B020000 		.4byte	0x26b
 1581 0557 01       		.byte	0x1
 1582 0558 50       		.byte	0x50
 1583 0559 19       		.uleb128 0x19
ARM GAS  /tmp/ccOlmrMD.s 			page 29


 1584 055a 747000   		.ascii	"tp\000"
 1585 055d 01       		.byte	0x1
 1586 055e 84       		.byte	0x84
 1587 055f 2C020000 		.4byte	0x22c
 1588 0563 01       		.byte	0x1
 1589 0564 50       		.byte	0x50
 1590 0565 1A       		.uleb128 0x1a
 1591 0566 E3040000 		.4byte	0x4e3
 1592 056a 10000000 		.4byte	.LBB17
 1593 056e 00000000 		.4byte	.Ldebug_ranges0+0x0
 1594 0572 01       		.byte	0x1
 1595 0573 99       		.byte	0x99
 1596 0574 91050000 		.4byte	0x591
 1597 0578 1B       		.uleb128 0x1b
 1598 0579 F5040000 		.4byte	0x4f5
 1599 057d 00000000 		.4byte	.LLST0
 1600 0581 1C       		.uleb128 0x1c
 1601 0582 18000000 		.4byte	.Ldebug_ranges0+0x18
 1602 0586 1D       		.uleb128 0x1d
 1603 0587 FF040000 		.4byte	0x4ff
 1604 058b 13000000 		.4byte	.LLST1
 1605 058f 00       		.byte	0x0
 1606 0590 00       		.byte	0x0
 1607 0591 1E       		.uleb128 0x1e
 1608 0592 C7040000 		.4byte	0x4c7
 1609 0596 3C000000 		.4byte	.LBB21
 1610 059a 48000000 		.4byte	.LBE21
 1611 059e 01       		.byte	0x1
 1612 059f 95       		.byte	0x95
 1613 05a0 1F       		.uleb128 0x1f
 1614 05a1 D8040000 		.4byte	0x4d8
 1615 05a5 01       		.byte	0x1
 1616 05a6 50       		.byte	0x50
 1617 05a7 00       		.byte	0x0
 1618 05a8 00       		.byte	0x0
 1619 05a9 20       		.uleb128 0x20
 1620 05aa 01       		.byte	0x1
 1621 05ab 94000000 		.4byte	.LASF77
 1622 05af 01       		.byte	0x1
 1623 05b0 36       		.byte	0x36
 1624 05b1 01       		.byte	0x1
 1625 05b2 00000000 		.4byte	.LFB7
 1626 05b6 1A000000 		.4byte	.LFE7
 1627 05ba 02       		.byte	0x2
 1628 05bb 7D       		.byte	0x7d
 1629 05bc 00       		.sleb128 0
 1630 05bd 21       		.uleb128 0x21
 1631 05be E3040000 		.4byte	0x4e3
 1632 05c2 00000000 		.4byte	.LFB8
 1633 05c6 22000000 		.4byte	.LFE8
 1634 05ca 02       		.byte	0x2
 1635 05cb 7D       		.byte	0x7d
 1636 05cc 00       		.sleb128 0
 1637 05cd E2050000 		.4byte	0x5e2
 1638 05d1 1F       		.uleb128 0x1f
 1639 05d2 F5040000 		.4byte	0x4f5
 1640 05d6 01       		.byte	0x1
ARM GAS  /tmp/ccOlmrMD.s 			page 30


 1641 05d7 50       		.byte	0x50
 1642 05d8 1D       		.uleb128 0x1d
 1643 05d9 FF040000 		.4byte	0x4ff
 1644 05dd 31000000 		.4byte	.LLST2
 1645 05e1 00       		.byte	0x0
 1646 05e2 22       		.uleb128 0x22
 1647 05e3 01       		.byte	0x1
 1648 05e4 65020000 		.4byte	.LASF74
 1649 05e8 01       		.byte	0x1
 1650 05e9 71       		.byte	0x71
 1651 05ea 01       		.byte	0x1
 1652 05eb 00000000 		.4byte	.LFB9
 1653 05ef 28000000 		.4byte	.LFE9
 1654 05f3 4F000000 		.4byte	.LLST3
 1655 05f7 49060000 		.4byte	0x649
 1656 05fb 23       		.uleb128 0x23
 1657 05fc 1C020000 		.4byte	.LASF72
 1658 0600 01       		.byte	0x1
 1659 0601 71       		.byte	0x71
 1660 0602 A6000000 		.4byte	0xa6
 1661 0606 6F000000 		.4byte	.LLST4
 1662 060a 19       		.uleb128 0x19
 1663 060b 6F747000 		.ascii	"otp\000"
 1664 060f 01       		.byte	0x1
 1665 0610 72       		.byte	0x72
 1666 0611 2C020000 		.4byte	0x22c
 1667 0615 05       		.byte	0x5
 1668 0616 03       		.byte	0x3
 1669 0617 1C000000 		.4byte	rlist+28
 1670 061b 24       		.uleb128 0x24
 1671 061c 0A050000 		.4byte	0x50a
 1672 0620 0E000000 		.4byte	.LBB23
 1673 0624 30000000 		.4byte	.Ldebug_ranges0+0x30
 1674 0628 01       		.byte	0x1
 1675 0629 78       		.byte	0x78
 1676 062a 1F       		.uleb128 0x1f
 1677 062b 1B050000 		.4byte	0x51b
 1678 062f 06       		.byte	0x6
 1679 0630 03       		.byte	0x3
 1680 0631 00000000 		.4byte	rlist
 1681 0635 9F       		.byte	0x9f
 1682 0636 1C       		.uleb128 0x1c
 1683 0637 50000000 		.4byte	.Ldebug_ranges0+0x50
 1684 063b 25       		.uleb128 0x25
 1685 063c 26050000 		.4byte	0x526
 1686 0640 05       		.byte	0x5
 1687 0641 03       		.byte	0x3
 1688 0642 00000000 		.4byte	rlist
 1689 0646 00       		.byte	0x0
 1690 0647 00       		.byte	0x0
 1691 0648 00       		.byte	0x0
 1692 0649 26       		.uleb128 0x26
 1693 064a 01       		.byte	0x1
 1694 064b 5D030000 		.4byte	.LASF79
 1695 064f 01       		.byte	0x1
 1696 0650 B1       		.byte	0xb1
 1697 0651 01       		.byte	0x1
ARM GAS  /tmp/ccOlmrMD.s 			page 31


 1698 0652 C7000000 		.4byte	0xc7
 1699 0656 00000000 		.4byte	.LFB11
 1700 065a 4A000000 		.4byte	.LFE11
 1701 065e 94000000 		.4byte	.LLST5
 1702 0662 9C060000 		.4byte	0x69c
 1703 0666 23       		.uleb128 0x23
 1704 0667 1C020000 		.4byte	.LASF72
 1705 066b 01       		.byte	0x1
 1706 066c B1       		.byte	0xb1
 1707 066d A6000000 		.4byte	0xa6
 1708 0671 C0000000 		.4byte	.LLST6
 1709 0675 23       		.uleb128 0x23
 1710 0676 09030000 		.4byte	.LASF73
 1711 067a 01       		.byte	0x1
 1712 067b B1       		.byte	0xb1
 1713 067c DD000000 		.4byte	0xdd
 1714 0680 DE000000 		.4byte	.LLST7
 1715 0684 27       		.uleb128 0x27
 1716 0685 0C000000 		.4byte	.LBB29
 1717 0689 34000000 		.4byte	.LBE29
 1718 068d 19       		.uleb128 0x19
 1719 068e 767400   		.ascii	"vt\000"
 1720 0691 01       		.byte	0x1
 1721 0692 B4       		.byte	0xb4
 1722 0693 31030000 		.4byte	0x331
 1723 0697 02       		.byte	0x2
 1724 0698 91       		.byte	0x91
 1725 0699 5C       		.sleb128 -36
 1726 069a 00       		.byte	0x0
 1727 069b 00       		.byte	0x0
 1728 069c 22       		.uleb128 0x22
 1729 069d 01       		.byte	0x1
 1730 069e 3B010000 		.4byte	.LASF75
 1731 06a2 01       		.byte	0x1
 1732 06a3 D3       		.byte	0xd3
 1733 06a4 01       		.byte	0x1
 1734 06a5 00000000 		.4byte	.LFB12
 1735 06a9 5E000000 		.4byte	.LFE12
 1736 06ad FC000000 		.4byte	.LLST8
 1737 06b1 3F070000 		.4byte	0x73f
 1738 06b5 28       		.uleb128 0x28
 1739 06b6 6E747000 		.ascii	"ntp\000"
 1740 06ba 01       		.byte	0x1
 1741 06bb D3       		.byte	0xd3
 1742 06bc 2C020000 		.4byte	0x22c
 1743 06c0 1C010000 		.4byte	.LLST9
 1744 06c4 28       		.uleb128 0x28
 1745 06c5 6D736700 		.ascii	"msg\000"
 1746 06c9 01       		.byte	0x1
 1747 06ca D3       		.byte	0xd3
 1748 06cb C7000000 		.4byte	0xc7
 1749 06cf 3A010000 		.4byte	.LLST10
 1750 06d3 29       		.uleb128 0x29
 1751 06d4 E3040000 		.4byte	0x4e3
 1752 06d8 18000000 		.4byte	.LBB30
 1753 06dc 2E000000 		.4byte	.LBE30
 1754 06e0 01       		.byte	0x1
ARM GAS  /tmp/ccOlmrMD.s 			page 32


 1755 06e1 DB       		.byte	0xdb
 1756 06e2 03070000 		.4byte	0x703
 1757 06e6 1B       		.uleb128 0x1b
 1758 06e7 F5040000 		.4byte	0x4f5
 1759 06eb 59010000 		.4byte	.LLST11
 1760 06ef 27       		.uleb128 0x27
 1761 06f0 18000000 		.4byte	.LBB31
 1762 06f4 2E000000 		.4byte	.LBE31
 1763 06f8 1D       		.uleb128 0x1d
 1764 06f9 FF040000 		.4byte	0x4ff
 1765 06fd 6C010000 		.4byte	.LLST12
 1766 0701 00       		.byte	0x0
 1767 0702 00       		.byte	0x0
 1768 0703 1C       		.uleb128 0x1c
 1769 0704 70000000 		.4byte	.Ldebug_ranges0+0x70
 1770 0708 16       		.uleb128 0x16
 1771 0709 6F747000 		.ascii	"otp\000"
 1772 070d 01       		.byte	0x1
 1773 070e DD       		.byte	0xdd
 1774 070f 2C020000 		.4byte	0x22c
 1775 0713 24       		.uleb128 0x24
 1776 0714 E3040000 		.4byte	0x4e3
 1777 0718 32000000 		.4byte	.LBB34
 1778 071c 88000000 		.4byte	.Ldebug_ranges0+0x88
 1779 0720 01       		.byte	0x1
 1780 0721 DD       		.byte	0xdd
 1781 0722 1F       		.uleb128 0x1f
 1782 0723 F5040000 		.4byte	0x4f5
 1783 0727 05       		.byte	0x5
 1784 0728 03       		.byte	0x3
 1785 0729 1C000000 		.4byte	rlist+28
 1786 072d 1C       		.uleb128 0x1c
 1787 072e A0000000 		.4byte	.Ldebug_ranges0+0xa0
 1788 0732 1D       		.uleb128 0x1d
 1789 0733 FF040000 		.4byte	0x4ff
 1790 0737 8A010000 		.4byte	.LLST13
 1791 073b 00       		.byte	0x0
 1792 073c 00       		.byte	0x0
 1793 073d 00       		.byte	0x0
 1794 073e 00       		.byte	0x0
 1795 073f 22       		.uleb128 0x22
 1796 0740 01       		.byte	0x1
 1797 0741 0E030000 		.4byte	.LASF76
 1798 0745 01       		.byte	0x1
 1799 0746 F1       		.byte	0xf1
 1800 0747 01       		.byte	0x1
 1801 0748 00000000 		.4byte	.LFB13
 1802 074c 4A000000 		.4byte	.LFE13
 1803 0750 B8010000 		.4byte	.LLST14
 1804 0754 C5070000 		.4byte	0x7c5
 1805 0758 19       		.uleb128 0x19
 1806 0759 6F747000 		.ascii	"otp\000"
 1807 075d 01       		.byte	0x1
 1808 075e F2       		.byte	0xf2
 1809 075f 2C020000 		.4byte	0x22c
 1810 0763 05       		.byte	0x5
 1811 0764 03       		.byte	0x3
ARM GAS  /tmp/ccOlmrMD.s 			page 33


 1812 0765 1C000000 		.4byte	rlist+28
 1813 0769 1A       		.uleb128 0x1a
 1814 076a 0A050000 		.4byte	0x50a
 1815 076e 08000000 		.4byte	.LBB38
 1816 0772 B8000000 		.4byte	.Ldebug_ranges0+0xb8
 1817 0776 01       		.byte	0x1
 1818 0777 F9       		.byte	0xf9
 1819 0778 9A070000 		.4byte	0x79a
 1820 077c 1F       		.uleb128 0x1f
 1821 077d 1B050000 		.4byte	0x51b
 1822 0781 06       		.byte	0x6
 1823 0782 03       		.byte	0x3
 1824 0783 00000000 		.4byte	rlist
 1825 0787 9F       		.byte	0x9f
 1826 0788 1C       		.uleb128 0x1c
 1827 0789 E0000000 		.4byte	.Ldebug_ranges0+0xe0
 1828 078d 25       		.uleb128 0x25
 1829 078e 26050000 		.4byte	0x526
 1830 0792 05       		.byte	0x5
 1831 0793 03       		.byte	0x3
 1832 0794 00000000 		.4byte	rlist
 1833 0798 00       		.byte	0x0
 1834 0799 00       		.byte	0x0
 1835 079a 24       		.uleb128 0x24
 1836 079b E3040000 		.4byte	0x4e3
 1837 079f 18000000 		.4byte	.LBB44
 1838 07a3 08010000 		.4byte	.Ldebug_ranges0+0x108
 1839 07a7 01       		.byte	0x1
 1840 07a8 FB       		.byte	0xfb
 1841 07a9 1F       		.uleb128 0x1f
 1842 07aa F5040000 		.4byte	0x4f5
 1843 07ae 05       		.byte	0x5
 1844 07af 03       		.byte	0x3
 1845 07b0 1C000000 		.4byte	rlist+28
 1846 07b4 1C       		.uleb128 0x1c
 1847 07b5 28010000 		.4byte	.Ldebug_ranges0+0x128
 1848 07b9 1D       		.uleb128 0x1d
 1849 07ba FF040000 		.4byte	0x4ff
 1850 07be D8010000 		.4byte	.LLST15
 1851 07c2 00       		.byte	0x0
 1852 07c3 00       		.byte	0x0
 1853 07c4 00       		.byte	0x0
 1854 07c5 2A       		.uleb128 0x2a
 1855 07c6 01       		.byte	0x1
 1856 07c7 BC000000 		.4byte	.LASF78
 1857 07cb 01       		.byte	0x1
 1858 07cc 0901     		.2byte	0x109
 1859 07ce 01       		.byte	0x1
 1860 07cf 00000000 		.4byte	.LFB14
 1861 07d3 1E000000 		.4byte	.LFE14
 1862 07d7 02       		.byte	0x2
 1863 07d8 7D       		.byte	0x7d
 1864 07d9 00       		.sleb128 0
 1865 07da 2B       		.uleb128 0x2b
 1866 07db 01       		.byte	0x1
 1867 07dc E0020000 		.4byte	.LASF80
 1868 07e0 01       		.byte	0x1
ARM GAS  /tmp/ccOlmrMD.s 			page 34


 1869 07e1 1D01     		.2byte	0x11d
 1870 07e3 01       		.byte	0x1
 1871 07e4 90000000 		.4byte	0x90
 1872 07e8 00000000 		.4byte	.LFB15
 1873 07ec 28000000 		.4byte	.LFE15
 1874 07f0 02       		.byte	0x2
 1875 07f1 7D       		.byte	0x7d
 1876 07f2 00       		.sleb128 0
 1877 07f3 20080000 		.4byte	0x820
 1878 07f7 2C       		.uleb128 0x2c
 1879 07f8 703100   		.ascii	"p1\000"
 1880 07fb 01       		.byte	0x1
 1881 07fc 1E01     		.2byte	0x11e
 1882 07fe BC000000 		.4byte	0xbc
 1883 0802 08       		.byte	0x8
 1884 0803 03       		.byte	0x3
 1885 0804 00000000 		.4byte	rlist
 1886 0808 06       		.byte	0x6
 1887 0809 23       		.byte	0x23
 1888 080a 08       		.uleb128 0x8
 1889 080b 2C       		.uleb128 0x2c
 1890 080c 703200   		.ascii	"p2\000"
 1891 080f 01       		.byte	0x1
 1892 0810 1F01     		.2byte	0x11f
 1893 0812 BC000000 		.4byte	0xbc
 1894 0816 08       		.byte	0x8
 1895 0817 03       		.byte	0x3
 1896 0818 1C000000 		.4byte	rlist+28
 1897 081c 06       		.byte	0x6
 1898 081d 23       		.byte	0x23
 1899 081e 08       		.uleb128 0x8
 1900 081f 00       		.byte	0x0
 1901 0820 2D       		.uleb128 0x2d
 1902 0821 43030000 		.4byte	.LASF81
 1903 0825 0A       		.byte	0xa
 1904 0826 65       		.byte	0x65
 1905 0827 05040000 		.4byte	0x405
 1906 082b 01       		.byte	0x1
 1907 082c 01       		.byte	0x1
 1908 082d 2E       		.uleb128 0x2e
 1909 082e 43030000 		.4byte	.LASF81
 1910 0832 01       		.byte	0x1
 1911 0833 2E       		.byte	0x2e
 1912 0834 05040000 		.4byte	0x405
 1913 0838 01       		.byte	0x1
 1914 0839 05       		.byte	0x5
 1915 083a 03       		.byte	0x3
 1916 083b 00000000 		.4byte	rlist
 1917 083f 00       		.byte	0x0
 1918              		.section	.debug_abbrev
 1919 0000 01       		.uleb128 0x1
 1920 0001 11       		.uleb128 0x11
 1921 0002 01       		.byte	0x1
 1922 0003 25       		.uleb128 0x25
 1923 0004 0E       		.uleb128 0xe
 1924 0005 13       		.uleb128 0x13
 1925 0006 0B       		.uleb128 0xb
ARM GAS  /tmp/ccOlmrMD.s 			page 35


 1926 0007 03       		.uleb128 0x3
 1927 0008 0E       		.uleb128 0xe
 1928 0009 1B       		.uleb128 0x1b
 1929 000a 0E       		.uleb128 0xe
 1930 000b 11       		.uleb128 0x11
 1931 000c 01       		.uleb128 0x1
 1932 000d 52       		.uleb128 0x52
 1933 000e 01       		.uleb128 0x1
 1934 000f 55       		.uleb128 0x55
 1935 0010 06       		.uleb128 0x6
 1936 0011 10       		.uleb128 0x10
 1937 0012 06       		.uleb128 0x6
 1938 0013 00       		.byte	0x0
 1939 0014 00       		.byte	0x0
 1940 0015 02       		.uleb128 0x2
 1941 0016 24       		.uleb128 0x24
 1942 0017 00       		.byte	0x0
 1943 0018 0B       		.uleb128 0xb
 1944 0019 0B       		.uleb128 0xb
 1945 001a 3E       		.uleb128 0x3e
 1946 001b 0B       		.uleb128 0xb
 1947 001c 03       		.uleb128 0x3
 1948 001d 08       		.uleb128 0x8
 1949 001e 00       		.byte	0x0
 1950 001f 00       		.byte	0x0
 1951 0020 03       		.uleb128 0x3
 1952 0021 24       		.uleb128 0x24
 1953 0022 00       		.byte	0x0
 1954 0023 0B       		.uleb128 0xb
 1955 0024 0B       		.uleb128 0xb
 1956 0025 3E       		.uleb128 0x3e
 1957 0026 0B       		.uleb128 0xb
 1958 0027 03       		.uleb128 0x3
 1959 0028 0E       		.uleb128 0xe
 1960 0029 00       		.byte	0x0
 1961 002a 00       		.byte	0x0
 1962 002b 04       		.uleb128 0x4
 1963 002c 16       		.uleb128 0x16
 1964 002d 00       		.byte	0x0
 1965 002e 03       		.uleb128 0x3
 1966 002f 0E       		.uleb128 0xe
 1967 0030 3A       		.uleb128 0x3a
 1968 0031 0B       		.uleb128 0xb
 1969 0032 3B       		.uleb128 0x3b
 1970 0033 0B       		.uleb128 0xb
 1971 0034 49       		.uleb128 0x49
 1972 0035 13       		.uleb128 0x13
 1973 0036 00       		.byte	0x0
 1974 0037 00       		.byte	0x0
 1975 0038 05       		.uleb128 0x5
 1976 0039 13       		.uleb128 0x13
 1977 003a 01       		.byte	0x1
 1978 003b 03       		.uleb128 0x3
 1979 003c 0E       		.uleb128 0xe
 1980 003d 0B       		.uleb128 0xb
 1981 003e 0B       		.uleb128 0xb
 1982 003f 3A       		.uleb128 0x3a
ARM GAS  /tmp/ccOlmrMD.s 			page 36


 1983 0040 0B       		.uleb128 0xb
 1984 0041 3B       		.uleb128 0x3b
 1985 0042 0B       		.uleb128 0xb
 1986 0043 01       		.uleb128 0x1
 1987 0044 13       		.uleb128 0x13
 1988 0045 00       		.byte	0x0
 1989 0046 00       		.byte	0x0
 1990 0047 06       		.uleb128 0x6
 1991 0048 0D       		.uleb128 0xd
 1992 0049 00       		.byte	0x0
 1993 004a 03       		.uleb128 0x3
 1994 004b 0E       		.uleb128 0xe
 1995 004c 3A       		.uleb128 0x3a
 1996 004d 0B       		.uleb128 0xb
 1997 004e 3B       		.uleb128 0x3b
 1998 004f 0B       		.uleb128 0xb
 1999 0050 49       		.uleb128 0x49
 2000 0051 13       		.uleb128 0x13
 2001 0052 38       		.uleb128 0x38
 2002 0053 0A       		.uleb128 0xa
 2003 0054 00       		.byte	0x0
 2004 0055 00       		.byte	0x0
 2005 0056 07       		.uleb128 0x7
 2006 0057 0D       		.uleb128 0xd
 2007 0058 00       		.byte	0x0
 2008 0059 03       		.uleb128 0x3
 2009 005a 08       		.uleb128 0x8
 2010 005b 3A       		.uleb128 0x3a
 2011 005c 0B       		.uleb128 0xb
 2012 005d 3B       		.uleb128 0x3b
 2013 005e 0B       		.uleb128 0xb
 2014 005f 49       		.uleb128 0x49
 2015 0060 13       		.uleb128 0x13
 2016 0061 38       		.uleb128 0x38
 2017 0062 0A       		.uleb128 0xa
 2018 0063 00       		.byte	0x0
 2019 0064 00       		.byte	0x0
 2020 0065 08       		.uleb128 0x8
 2021 0066 13       		.uleb128 0x13
 2022 0067 01       		.byte	0x1
 2023 0068 0B       		.uleb128 0xb
 2024 0069 0B       		.uleb128 0xb
 2025 006a 3A       		.uleb128 0x3a
 2026 006b 0B       		.uleb128 0xb
 2027 006c 3B       		.uleb128 0x3b
 2028 006d 0B       		.uleb128 0xb
 2029 006e 01       		.uleb128 0x1
 2030 006f 13       		.uleb128 0x13
 2031 0070 00       		.byte	0x0
 2032 0071 00       		.byte	0x0
 2033 0072 09       		.uleb128 0x9
 2034 0073 0F       		.uleb128 0xf
 2035 0074 00       		.byte	0x0
 2036 0075 0B       		.uleb128 0xb
 2037 0076 0B       		.uleb128 0xb
 2038 0077 49       		.uleb128 0x49
 2039 0078 13       		.uleb128 0x13
ARM GAS  /tmp/ccOlmrMD.s 			page 37


 2040 0079 00       		.byte	0x0
 2041 007a 00       		.byte	0x0
 2042 007b 0A       		.uleb128 0xa
 2043 007c 16       		.uleb128 0x16
 2044 007d 00       		.byte	0x0
 2045 007e 03       		.uleb128 0x3
 2046 007f 0E       		.uleb128 0xe
 2047 0080 3A       		.uleb128 0x3a
 2048 0081 0B       		.uleb128 0xb
 2049 0082 3B       		.uleb128 0x3b
 2050 0083 05       		.uleb128 0x5
 2051 0084 49       		.uleb128 0x49
 2052 0085 13       		.uleb128 0x13
 2053 0086 00       		.byte	0x0
 2054 0087 00       		.byte	0x0
 2055 0088 0B       		.uleb128 0xb
 2056 0089 0F       		.uleb128 0xf
 2057 008a 00       		.byte	0x0
 2058 008b 0B       		.uleb128 0xb
 2059 008c 0B       		.uleb128 0xb
 2060 008d 00       		.byte	0x0
 2061 008e 00       		.byte	0x0
 2062 008f 0C       		.uleb128 0xc
 2063 0090 13       		.uleb128 0x13
 2064 0091 01       		.byte	0x1
 2065 0092 03       		.uleb128 0x3
 2066 0093 0E       		.uleb128 0xe
 2067 0094 0B       		.uleb128 0xb
 2068 0095 0B       		.uleb128 0xb
 2069 0096 3A       		.uleb128 0x3a
 2070 0097 0B       		.uleb128 0xb
 2071 0098 3B       		.uleb128 0x3b
 2072 0099 05       		.uleb128 0x5
 2073 009a 01       		.uleb128 0x1
 2074 009b 13       		.uleb128 0x13
 2075 009c 00       		.byte	0x0
 2076 009d 00       		.byte	0x0
 2077 009e 0D       		.uleb128 0xd
 2078 009f 0D       		.uleb128 0xd
 2079 00a0 00       		.byte	0x0
 2080 00a1 03       		.uleb128 0x3
 2081 00a2 08       		.uleb128 0x8
 2082 00a3 3A       		.uleb128 0x3a
 2083 00a4 0B       		.uleb128 0xb
 2084 00a5 3B       		.uleb128 0x3b
 2085 00a6 05       		.uleb128 0x5
 2086 00a7 49       		.uleb128 0x49
 2087 00a8 13       		.uleb128 0x13
 2088 00a9 38       		.uleb128 0x38
 2089 00aa 0A       		.uleb128 0xa
 2090 00ab 00       		.byte	0x0
 2091 00ac 00       		.byte	0x0
 2092 00ad 0E       		.uleb128 0xe
 2093 00ae 15       		.uleb128 0x15
 2094 00af 01       		.byte	0x1
 2095 00b0 27       		.uleb128 0x27
 2096 00b1 0C       		.uleb128 0xc
ARM GAS  /tmp/ccOlmrMD.s 			page 38


 2097 00b2 01       		.uleb128 0x1
 2098 00b3 13       		.uleb128 0x13
 2099 00b4 00       		.byte	0x0
 2100 00b5 00       		.byte	0x0
 2101 00b6 0F       		.uleb128 0xf
 2102 00b7 05       		.uleb128 0x5
 2103 00b8 00       		.byte	0x0
 2104 00b9 49       		.uleb128 0x49
 2105 00ba 13       		.uleb128 0x13
 2106 00bb 00       		.byte	0x0
 2107 00bc 00       		.byte	0x0
 2108 00bd 10       		.uleb128 0x10
 2109 00be 35       		.uleb128 0x35
 2110 00bf 00       		.byte	0x0
 2111 00c0 49       		.uleb128 0x49
 2112 00c1 13       		.uleb128 0x13
 2113 00c2 00       		.byte	0x0
 2114 00c3 00       		.byte	0x0
 2115 00c4 11       		.uleb128 0x11
 2116 00c5 17       		.uleb128 0x17
 2117 00c6 01       		.byte	0x1
 2118 00c7 0B       		.uleb128 0xb
 2119 00c8 0B       		.uleb128 0xb
 2120 00c9 3A       		.uleb128 0x3a
 2121 00ca 0B       		.uleb128 0xb
 2122 00cb 3B       		.uleb128 0x3b
 2123 00cc 0B       		.uleb128 0xb
 2124 00cd 01       		.uleb128 0x1
 2125 00ce 13       		.uleb128 0x13
 2126 00cf 00       		.byte	0x0
 2127 00d0 00       		.byte	0x0
 2128 00d1 12       		.uleb128 0x12
 2129 00d2 0D       		.uleb128 0xd
 2130 00d3 00       		.byte	0x0
 2131 00d4 03       		.uleb128 0x3
 2132 00d5 0E       		.uleb128 0xe
 2133 00d6 3A       		.uleb128 0x3a
 2134 00d7 0B       		.uleb128 0xb
 2135 00d8 3B       		.uleb128 0x3b
 2136 00d9 0B       		.uleb128 0xb
 2137 00da 49       		.uleb128 0x49
 2138 00db 13       		.uleb128 0x13
 2139 00dc 00       		.byte	0x0
 2140 00dd 00       		.byte	0x0
 2141 00de 13       		.uleb128 0x13
 2142 00df 2E       		.uleb128 0x2e
 2143 00e0 01       		.byte	0x1
 2144 00e1 03       		.uleb128 0x3
 2145 00e2 0E       		.uleb128 0xe
 2146 00e3 3A       		.uleb128 0x3a
 2147 00e4 0B       		.uleb128 0xb
 2148 00e5 3B       		.uleb128 0x3b
 2149 00e6 0B       		.uleb128 0xb
 2150 00e7 27       		.uleb128 0x27
 2151 00e8 0C       		.uleb128 0xc
 2152 00e9 49       		.uleb128 0x49
 2153 00ea 13       		.uleb128 0x13
ARM GAS  /tmp/ccOlmrMD.s 			page 39


 2154 00eb 20       		.uleb128 0x20
 2155 00ec 0B       		.uleb128 0xb
 2156 00ed 01       		.uleb128 0x1
 2157 00ee 13       		.uleb128 0x13
 2158 00ef 00       		.byte	0x0
 2159 00f0 00       		.byte	0x0
 2160 00f1 14       		.uleb128 0x14
 2161 00f2 05       		.uleb128 0x5
 2162 00f3 00       		.byte	0x0
 2163 00f4 03       		.uleb128 0x3
 2164 00f5 08       		.uleb128 0x8
 2165 00f6 3A       		.uleb128 0x3a
 2166 00f7 0B       		.uleb128 0xb
 2167 00f8 3B       		.uleb128 0x3b
 2168 00f9 0B       		.uleb128 0xb
 2169 00fa 49       		.uleb128 0x49
 2170 00fb 13       		.uleb128 0x13
 2171 00fc 00       		.byte	0x0
 2172 00fd 00       		.byte	0x0
 2173 00fe 15       		.uleb128 0x15
 2174 00ff 2E       		.uleb128 0x2e
 2175 0100 01       		.byte	0x1
 2176 0101 3F       		.uleb128 0x3f
 2177 0102 0C       		.uleb128 0xc
 2178 0103 03       		.uleb128 0x3
 2179 0104 0E       		.uleb128 0xe
 2180 0105 3A       		.uleb128 0x3a
 2181 0106 0B       		.uleb128 0xb
 2182 0107 3B       		.uleb128 0x3b
 2183 0108 0B       		.uleb128 0xb
 2184 0109 27       		.uleb128 0x27
 2185 010a 0C       		.uleb128 0xc
 2186 010b 49       		.uleb128 0x49
 2187 010c 13       		.uleb128 0x13
 2188 010d 20       		.uleb128 0x20
 2189 010e 0B       		.uleb128 0xb
 2190 010f 01       		.uleb128 0x1
 2191 0110 13       		.uleb128 0x13
 2192 0111 00       		.byte	0x0
 2193 0112 00       		.byte	0x0
 2194 0113 16       		.uleb128 0x16
 2195 0114 34       		.uleb128 0x34
 2196 0115 00       		.byte	0x0
 2197 0116 03       		.uleb128 0x3
 2198 0117 08       		.uleb128 0x8
 2199 0118 3A       		.uleb128 0x3a
 2200 0119 0B       		.uleb128 0xb
 2201 011a 3B       		.uleb128 0x3b
 2202 011b 0B       		.uleb128 0xb
 2203 011c 49       		.uleb128 0x49
 2204 011d 13       		.uleb128 0x13
 2205 011e 00       		.byte	0x0
 2206 011f 00       		.byte	0x0
 2207 0120 17       		.uleb128 0x17
 2208 0121 2E       		.uleb128 0x2e
 2209 0122 01       		.byte	0x1
 2210 0123 03       		.uleb128 0x3
ARM GAS  /tmp/ccOlmrMD.s 			page 40


 2211 0124 0E       		.uleb128 0xe
 2212 0125 3A       		.uleb128 0x3a
 2213 0126 0B       		.uleb128 0xb
 2214 0127 3B       		.uleb128 0x3b
 2215 0128 0B       		.uleb128 0xb
 2216 0129 27       		.uleb128 0x27
 2217 012a 0C       		.uleb128 0xc
 2218 012b 11       		.uleb128 0x11
 2219 012c 01       		.uleb128 0x1
 2220 012d 12       		.uleb128 0x12
 2221 012e 01       		.uleb128 0x1
 2222 012f 40       		.uleb128 0x40
 2223 0130 0A       		.uleb128 0xa
 2224 0131 01       		.uleb128 0x1
 2225 0132 13       		.uleb128 0x13
 2226 0133 00       		.byte	0x0
 2227 0134 00       		.byte	0x0
 2228 0135 18       		.uleb128 0x18
 2229 0136 05       		.uleb128 0x5
 2230 0137 00       		.byte	0x0
 2231 0138 03       		.uleb128 0x3
 2232 0139 08       		.uleb128 0x8
 2233 013a 3A       		.uleb128 0x3a
 2234 013b 0B       		.uleb128 0xb
 2235 013c 3B       		.uleb128 0x3b
 2236 013d 0B       		.uleb128 0xb
 2237 013e 49       		.uleb128 0x49
 2238 013f 13       		.uleb128 0x13
 2239 0140 02       		.uleb128 0x2
 2240 0141 0A       		.uleb128 0xa
 2241 0142 00       		.byte	0x0
 2242 0143 00       		.byte	0x0
 2243 0144 19       		.uleb128 0x19
 2244 0145 34       		.uleb128 0x34
 2245 0146 00       		.byte	0x0
 2246 0147 03       		.uleb128 0x3
 2247 0148 08       		.uleb128 0x8
 2248 0149 3A       		.uleb128 0x3a
 2249 014a 0B       		.uleb128 0xb
 2250 014b 3B       		.uleb128 0x3b
 2251 014c 0B       		.uleb128 0xb
 2252 014d 49       		.uleb128 0x49
 2253 014e 13       		.uleb128 0x13
 2254 014f 02       		.uleb128 0x2
 2255 0150 0A       		.uleb128 0xa
 2256 0151 00       		.byte	0x0
 2257 0152 00       		.byte	0x0
 2258 0153 1A       		.uleb128 0x1a
 2259 0154 1D       		.uleb128 0x1d
 2260 0155 01       		.byte	0x1
 2261 0156 31       		.uleb128 0x31
 2262 0157 13       		.uleb128 0x13
 2263 0158 52       		.uleb128 0x52
 2264 0159 01       		.uleb128 0x1
 2265 015a 55       		.uleb128 0x55
 2266 015b 06       		.uleb128 0x6
 2267 015c 58       		.uleb128 0x58
ARM GAS  /tmp/ccOlmrMD.s 			page 41


 2268 015d 0B       		.uleb128 0xb
 2269 015e 59       		.uleb128 0x59
 2270 015f 0B       		.uleb128 0xb
 2271 0160 01       		.uleb128 0x1
 2272 0161 13       		.uleb128 0x13
 2273 0162 00       		.byte	0x0
 2274 0163 00       		.byte	0x0
 2275 0164 1B       		.uleb128 0x1b
 2276 0165 05       		.uleb128 0x5
 2277 0166 00       		.byte	0x0
 2278 0167 31       		.uleb128 0x31
 2279 0168 13       		.uleb128 0x13
 2280 0169 02       		.uleb128 0x2
 2281 016a 06       		.uleb128 0x6
 2282 016b 00       		.byte	0x0
 2283 016c 00       		.byte	0x0
 2284 016d 1C       		.uleb128 0x1c
 2285 016e 0B       		.uleb128 0xb
 2286 016f 01       		.byte	0x1
 2287 0170 55       		.uleb128 0x55
 2288 0171 06       		.uleb128 0x6
 2289 0172 00       		.byte	0x0
 2290 0173 00       		.byte	0x0
 2291 0174 1D       		.uleb128 0x1d
 2292 0175 34       		.uleb128 0x34
 2293 0176 00       		.byte	0x0
 2294 0177 31       		.uleb128 0x31
 2295 0178 13       		.uleb128 0x13
 2296 0179 02       		.uleb128 0x2
 2297 017a 06       		.uleb128 0x6
 2298 017b 00       		.byte	0x0
 2299 017c 00       		.byte	0x0
 2300 017d 1E       		.uleb128 0x1e
 2301 017e 1D       		.uleb128 0x1d
 2302 017f 01       		.byte	0x1
 2303 0180 31       		.uleb128 0x31
 2304 0181 13       		.uleb128 0x13
 2305 0182 11       		.uleb128 0x11
 2306 0183 01       		.uleb128 0x1
 2307 0184 12       		.uleb128 0x12
 2308 0185 01       		.uleb128 0x1
 2309 0186 58       		.uleb128 0x58
 2310 0187 0B       		.uleb128 0xb
 2311 0188 59       		.uleb128 0x59
 2312 0189 0B       		.uleb128 0xb
 2313 018a 00       		.byte	0x0
 2314 018b 00       		.byte	0x0
 2315 018c 1F       		.uleb128 0x1f
 2316 018d 05       		.uleb128 0x5
 2317 018e 00       		.byte	0x0
 2318 018f 31       		.uleb128 0x31
 2319 0190 13       		.uleb128 0x13
 2320 0191 02       		.uleb128 0x2
 2321 0192 0A       		.uleb128 0xa
 2322 0193 00       		.byte	0x0
 2323 0194 00       		.byte	0x0
 2324 0195 20       		.uleb128 0x20
ARM GAS  /tmp/ccOlmrMD.s 			page 42


 2325 0196 2E       		.uleb128 0x2e
 2326 0197 00       		.byte	0x0
 2327 0198 3F       		.uleb128 0x3f
 2328 0199 0C       		.uleb128 0xc
 2329 019a 03       		.uleb128 0x3
 2330 019b 0E       		.uleb128 0xe
 2331 019c 3A       		.uleb128 0x3a
 2332 019d 0B       		.uleb128 0xb
 2333 019e 3B       		.uleb128 0x3b
 2334 019f 0B       		.uleb128 0xb
 2335 01a0 27       		.uleb128 0x27
 2336 01a1 0C       		.uleb128 0xc
 2337 01a2 11       		.uleb128 0x11
 2338 01a3 01       		.uleb128 0x1
 2339 01a4 12       		.uleb128 0x12
 2340 01a5 01       		.uleb128 0x1
 2341 01a6 40       		.uleb128 0x40
 2342 01a7 0A       		.uleb128 0xa
 2343 01a8 00       		.byte	0x0
 2344 01a9 00       		.byte	0x0
 2345 01aa 21       		.uleb128 0x21
 2346 01ab 2E       		.uleb128 0x2e
 2347 01ac 01       		.byte	0x1
 2348 01ad 31       		.uleb128 0x31
 2349 01ae 13       		.uleb128 0x13
 2350 01af 11       		.uleb128 0x11
 2351 01b0 01       		.uleb128 0x1
 2352 01b1 12       		.uleb128 0x12
 2353 01b2 01       		.uleb128 0x1
 2354 01b3 40       		.uleb128 0x40
 2355 01b4 0A       		.uleb128 0xa
 2356 01b5 01       		.uleb128 0x1
 2357 01b6 13       		.uleb128 0x13
 2358 01b7 00       		.byte	0x0
 2359 01b8 00       		.byte	0x0
 2360 01b9 22       		.uleb128 0x22
 2361 01ba 2E       		.uleb128 0x2e
 2362 01bb 01       		.byte	0x1
 2363 01bc 3F       		.uleb128 0x3f
 2364 01bd 0C       		.uleb128 0xc
 2365 01be 03       		.uleb128 0x3
 2366 01bf 0E       		.uleb128 0xe
 2367 01c0 3A       		.uleb128 0x3a
 2368 01c1 0B       		.uleb128 0xb
 2369 01c2 3B       		.uleb128 0x3b
 2370 01c3 0B       		.uleb128 0xb
 2371 01c4 27       		.uleb128 0x27
 2372 01c5 0C       		.uleb128 0xc
 2373 01c6 11       		.uleb128 0x11
 2374 01c7 01       		.uleb128 0x1
 2375 01c8 12       		.uleb128 0x12
 2376 01c9 01       		.uleb128 0x1
 2377 01ca 40       		.uleb128 0x40
 2378 01cb 06       		.uleb128 0x6
 2379 01cc 01       		.uleb128 0x1
 2380 01cd 13       		.uleb128 0x13
 2381 01ce 00       		.byte	0x0
ARM GAS  /tmp/ccOlmrMD.s 			page 43


 2382 01cf 00       		.byte	0x0
 2383 01d0 23       		.uleb128 0x23
 2384 01d1 05       		.uleb128 0x5
 2385 01d2 00       		.byte	0x0
 2386 01d3 03       		.uleb128 0x3
 2387 01d4 0E       		.uleb128 0xe
 2388 01d5 3A       		.uleb128 0x3a
 2389 01d6 0B       		.uleb128 0xb
 2390 01d7 3B       		.uleb128 0x3b
 2391 01d8 0B       		.uleb128 0xb
 2392 01d9 49       		.uleb128 0x49
 2393 01da 13       		.uleb128 0x13
 2394 01db 02       		.uleb128 0x2
 2395 01dc 06       		.uleb128 0x6
 2396 01dd 00       		.byte	0x0
 2397 01de 00       		.byte	0x0
 2398 01df 24       		.uleb128 0x24
 2399 01e0 1D       		.uleb128 0x1d
 2400 01e1 01       		.byte	0x1
 2401 01e2 31       		.uleb128 0x31
 2402 01e3 13       		.uleb128 0x13
 2403 01e4 52       		.uleb128 0x52
 2404 01e5 01       		.uleb128 0x1
 2405 01e6 55       		.uleb128 0x55
 2406 01e7 06       		.uleb128 0x6
 2407 01e8 58       		.uleb128 0x58
 2408 01e9 0B       		.uleb128 0xb
 2409 01ea 59       		.uleb128 0x59
 2410 01eb 0B       		.uleb128 0xb
 2411 01ec 00       		.byte	0x0
 2412 01ed 00       		.byte	0x0
 2413 01ee 25       		.uleb128 0x25
 2414 01ef 34       		.uleb128 0x34
 2415 01f0 00       		.byte	0x0
 2416 01f1 31       		.uleb128 0x31
 2417 01f2 13       		.uleb128 0x13
 2418 01f3 02       		.uleb128 0x2
 2419 01f4 0A       		.uleb128 0xa
 2420 01f5 00       		.byte	0x0
 2421 01f6 00       		.byte	0x0
 2422 01f7 26       		.uleb128 0x26
 2423 01f8 2E       		.uleb128 0x2e
 2424 01f9 01       		.byte	0x1
 2425 01fa 3F       		.uleb128 0x3f
 2426 01fb 0C       		.uleb128 0xc
 2427 01fc 03       		.uleb128 0x3
 2428 01fd 0E       		.uleb128 0xe
 2429 01fe 3A       		.uleb128 0x3a
 2430 01ff 0B       		.uleb128 0xb
 2431 0200 3B       		.uleb128 0x3b
 2432 0201 0B       		.uleb128 0xb
 2433 0202 27       		.uleb128 0x27
 2434 0203 0C       		.uleb128 0xc
 2435 0204 49       		.uleb128 0x49
 2436 0205 13       		.uleb128 0x13
 2437 0206 11       		.uleb128 0x11
 2438 0207 01       		.uleb128 0x1
ARM GAS  /tmp/ccOlmrMD.s 			page 44


 2439 0208 12       		.uleb128 0x12
 2440 0209 01       		.uleb128 0x1
 2441 020a 40       		.uleb128 0x40
 2442 020b 06       		.uleb128 0x6
 2443 020c 01       		.uleb128 0x1
 2444 020d 13       		.uleb128 0x13
 2445 020e 00       		.byte	0x0
 2446 020f 00       		.byte	0x0
 2447 0210 27       		.uleb128 0x27
 2448 0211 0B       		.uleb128 0xb
 2449 0212 01       		.byte	0x1
 2450 0213 11       		.uleb128 0x11
 2451 0214 01       		.uleb128 0x1
 2452 0215 12       		.uleb128 0x12
 2453 0216 01       		.uleb128 0x1
 2454 0217 00       		.byte	0x0
 2455 0218 00       		.byte	0x0
 2456 0219 28       		.uleb128 0x28
 2457 021a 05       		.uleb128 0x5
 2458 021b 00       		.byte	0x0
 2459 021c 03       		.uleb128 0x3
 2460 021d 08       		.uleb128 0x8
 2461 021e 3A       		.uleb128 0x3a
 2462 021f 0B       		.uleb128 0xb
 2463 0220 3B       		.uleb128 0x3b
 2464 0221 0B       		.uleb128 0xb
 2465 0222 49       		.uleb128 0x49
 2466 0223 13       		.uleb128 0x13
 2467 0224 02       		.uleb128 0x2
 2468 0225 06       		.uleb128 0x6
 2469 0226 00       		.byte	0x0
 2470 0227 00       		.byte	0x0
 2471 0228 29       		.uleb128 0x29
 2472 0229 1D       		.uleb128 0x1d
 2473 022a 01       		.byte	0x1
 2474 022b 31       		.uleb128 0x31
 2475 022c 13       		.uleb128 0x13
 2476 022d 11       		.uleb128 0x11
 2477 022e 01       		.uleb128 0x1
 2478 022f 12       		.uleb128 0x12
 2479 0230 01       		.uleb128 0x1
 2480 0231 58       		.uleb128 0x58
 2481 0232 0B       		.uleb128 0xb
 2482 0233 59       		.uleb128 0x59
 2483 0234 0B       		.uleb128 0xb
 2484 0235 01       		.uleb128 0x1
 2485 0236 13       		.uleb128 0x13
 2486 0237 00       		.byte	0x0
 2487 0238 00       		.byte	0x0
 2488 0239 2A       		.uleb128 0x2a
 2489 023a 2E       		.uleb128 0x2e
 2490 023b 00       		.byte	0x0
 2491 023c 3F       		.uleb128 0x3f
 2492 023d 0C       		.uleb128 0xc
 2493 023e 03       		.uleb128 0x3
 2494 023f 0E       		.uleb128 0xe
 2495 0240 3A       		.uleb128 0x3a
ARM GAS  /tmp/ccOlmrMD.s 			page 45


 2496 0241 0B       		.uleb128 0xb
 2497 0242 3B       		.uleb128 0x3b
 2498 0243 05       		.uleb128 0x5
 2499 0244 27       		.uleb128 0x27
 2500 0245 0C       		.uleb128 0xc
 2501 0246 11       		.uleb128 0x11
 2502 0247 01       		.uleb128 0x1
 2503 0248 12       		.uleb128 0x12
 2504 0249 01       		.uleb128 0x1
 2505 024a 40       		.uleb128 0x40
 2506 024b 0A       		.uleb128 0xa
 2507 024c 00       		.byte	0x0
 2508 024d 00       		.byte	0x0
 2509 024e 2B       		.uleb128 0x2b
 2510 024f 2E       		.uleb128 0x2e
 2511 0250 01       		.byte	0x1
 2512 0251 3F       		.uleb128 0x3f
 2513 0252 0C       		.uleb128 0xc
 2514 0253 03       		.uleb128 0x3
 2515 0254 0E       		.uleb128 0xe
 2516 0255 3A       		.uleb128 0x3a
 2517 0256 0B       		.uleb128 0xb
 2518 0257 3B       		.uleb128 0x3b
 2519 0258 05       		.uleb128 0x5
 2520 0259 27       		.uleb128 0x27
 2521 025a 0C       		.uleb128 0xc
 2522 025b 49       		.uleb128 0x49
 2523 025c 13       		.uleb128 0x13
 2524 025d 11       		.uleb128 0x11
 2525 025e 01       		.uleb128 0x1
 2526 025f 12       		.uleb128 0x12
 2527 0260 01       		.uleb128 0x1
 2528 0261 40       		.uleb128 0x40
 2529 0262 0A       		.uleb128 0xa
 2530 0263 01       		.uleb128 0x1
 2531 0264 13       		.uleb128 0x13
 2532 0265 00       		.byte	0x0
 2533 0266 00       		.byte	0x0
 2534 0267 2C       		.uleb128 0x2c
 2535 0268 34       		.uleb128 0x34
 2536 0269 00       		.byte	0x0
 2537 026a 03       		.uleb128 0x3
 2538 026b 08       		.uleb128 0x8
 2539 026c 3A       		.uleb128 0x3a
 2540 026d 0B       		.uleb128 0xb
 2541 026e 3B       		.uleb128 0x3b
 2542 026f 05       		.uleb128 0x5
 2543 0270 49       		.uleb128 0x49
 2544 0271 13       		.uleb128 0x13
 2545 0272 02       		.uleb128 0x2
 2546 0273 0A       		.uleb128 0xa
 2547 0274 00       		.byte	0x0
 2548 0275 00       		.byte	0x0
 2549 0276 2D       		.uleb128 0x2d
 2550 0277 34       		.uleb128 0x34
 2551 0278 00       		.byte	0x0
 2552 0279 03       		.uleb128 0x3
ARM GAS  /tmp/ccOlmrMD.s 			page 46


 2553 027a 0E       		.uleb128 0xe
 2554 027b 3A       		.uleb128 0x3a
 2555 027c 0B       		.uleb128 0xb
 2556 027d 3B       		.uleb128 0x3b
 2557 027e 0B       		.uleb128 0xb
 2558 027f 49       		.uleb128 0x49
 2559 0280 13       		.uleb128 0x13
 2560 0281 3F       		.uleb128 0x3f
 2561 0282 0C       		.uleb128 0xc
 2562 0283 3C       		.uleb128 0x3c
 2563 0284 0C       		.uleb128 0xc
 2564 0285 00       		.byte	0x0
 2565 0286 00       		.byte	0x0
 2566 0287 2E       		.uleb128 0x2e
 2567 0288 34       		.uleb128 0x34
 2568 0289 00       		.byte	0x0
 2569 028a 03       		.uleb128 0x3
 2570 028b 0E       		.uleb128 0xe
 2571 028c 3A       		.uleb128 0x3a
 2572 028d 0B       		.uleb128 0xb
 2573 028e 3B       		.uleb128 0x3b
 2574 028f 0B       		.uleb128 0xb
 2575 0290 49       		.uleb128 0x49
 2576 0291 13       		.uleb128 0x13
 2577 0292 3F       		.uleb128 0x3f
 2578 0293 0C       		.uleb128 0xc
 2579 0294 02       		.uleb128 0x2
 2580 0295 0A       		.uleb128 0xa
 2581 0296 00       		.byte	0x0
 2582 0297 00       		.byte	0x0
 2583 0298 00       		.byte	0x0
 2584              		.section	.debug_pubnames,"",%progbits
 2585 0000 BE000000 		.4byte	0xbe
 2586 0004 0200     		.2byte	0x2
 2587 0006 00000000 		.4byte	.Ldebug_info0
 2588 000a 40080000 		.4byte	0x840
 2589 000e A9050000 		.4byte	0x5a9
 2590 0012 73636865 		.ascii	"scheduler_init\000"
 2590      64756C65 
 2590      725F696E 
 2590      697400
 2591 0021 BD050000 		.4byte	0x5bd
 2592 0025 63685363 		.ascii	"chSchReadyI\000"
 2592      68526561 
 2592      64794900 
 2593 0031 E2050000 		.4byte	0x5e2
 2594 0035 63685363 		.ascii	"chSchGoSleepS\000"
 2594      68476F53 
 2594      6C656570 
 2594      5300
 2595 0043 49060000 		.4byte	0x649
 2596 0047 63685363 		.ascii	"chSchGoSleepTimeoutS\000"
 2596      68476F53 
 2596      6C656570 
 2596      54696D65 
 2596      6F757453 
 2597 005c 9C060000 		.4byte	0x69c
ARM GAS  /tmp/ccOlmrMD.s 			page 47


 2598 0060 63685363 		.ascii	"chSchWakeupS\000"
 2598      6857616B 
 2598      65757053 
 2598      00
 2599 006d 3F070000 		.4byte	0x73f
 2600 0071 63685363 		.ascii	"chSchDoRescheduleI\000"
 2600      68446F52 
 2600      65736368 
 2600      6564756C 
 2600      654900
 2601 0084 C5070000 		.4byte	0x7c5
 2602 0088 63685363 		.ascii	"chSchRescheduleS\000"
 2602      68526573 
 2602      63686564 
 2602      756C6553 
 2602      00
 2603 0099 DA070000 		.4byte	0x7da
 2604 009d 63685363 		.ascii	"chSchIsRescRequiredExI\000"
 2604      68497352 
 2604      65736352 
 2604      65717569 
 2604      72656445 
 2605 00b4 2D080000 		.4byte	0x82d
 2606 00b8 726C6973 		.ascii	"rlist\000"
 2606      7400
 2607 00be 00000000 		.4byte	0x0
 2608              		.section	.debug_pubtypes,"",%progbits
 2609 0000 69010000 		.4byte	0x169
 2610 0004 0200     		.2byte	0x2
 2611 0006 00000000 		.4byte	.Ldebug_info0
 2612 000a 40080000 		.4byte	0x840
 2613 000e 3E000000 		.4byte	0x3e
 2614 0012 75696E74 		.ascii	"uint8_t\000"
 2614      385F7400 
 2615 001a 5E000000 		.4byte	0x5e
 2616 001e 696E7433 		.ascii	"int32_t\000"
 2616      325F7400 
 2617 0026 70000000 		.4byte	0x70
 2618 002a 75696E74 		.ascii	"uint32_t\000"
 2618      33325F74 
 2618      00
 2619 0033 90000000 		.4byte	0x90
 2620 0037 626F6F6C 		.ascii	"bool_t\000"
 2620      5F7400
 2621 003e 9B000000 		.4byte	0x9b
 2622 0042 746D6F64 		.ascii	"tmode_t\000"
 2622      655F7400 
 2623 004a A6000000 		.4byte	0xa6
 2624 004e 74737461 		.ascii	"tstate_t\000"
 2624      74655F74 
 2624      00
 2625 0057 B1000000 		.4byte	0xb1
 2626 005b 74726566 		.ascii	"trefs_t\000"
 2626      735F7400 
 2627 0063 BC000000 		.4byte	0xbc
 2628 0067 74707269 		.ascii	"tprio_t\000"
 2628      6F5F7400 
ARM GAS  /tmp/ccOlmrMD.s 			page 48


 2629 006f C7000000 		.4byte	0xc7
 2630 0073 6D73675F 		.ascii	"msg_t\000"
 2630      7400
 2631 0079 D2000000 		.4byte	0xd2
 2632 007d 6576656E 		.ascii	"eventmask_t\000"
 2632      746D6173 
 2632      6B5F7400 
 2633 0089 DD000000 		.4byte	0xdd
 2634 008d 73797374 		.ascii	"systime_t\000"
 2634      696D655F 
 2634      7400
 2635 0097 E8000000 		.4byte	0xe8
 2636 009b 636E745F 		.ascii	"cnt_t\000"
 2636      7400
 2637 00a1 F3000000 		.4byte	0xf3
 2638 00a5 54687265 		.ascii	"Thread\000"
 2638      616400
 2639 00ac 32020000 		.4byte	0x232
 2640 00b0 54687265 		.ascii	"ThreadsQueue\000"
 2640      61647351 
 2640      75657565 
 2640      00
 2641 00bd 54020000 		.4byte	0x254
 2642 00c1 54687265 		.ascii	"ThreadsList\000"
 2642      6164734C 
 2642      69737400 
 2643 00cd 5F020000 		.4byte	0x25f
 2644 00d1 72656761 		.ascii	"regarm_t\000"
 2644      726D5F74 
 2644      00
 2645 00da 6D020000 		.4byte	0x26d
 2646 00de 636F6E74 		.ascii	"context\000"
 2646      65787400 
 2647 00e6 8A020000 		.4byte	0x28a
 2648 00ea 696E7463 		.ascii	"intctx\000"
 2648      747800
 2649 00f1 14030000 		.4byte	0x314
 2650 00f5 76746675 		.ascii	"vtfunc_t\000"
 2650      6E635F74 
 2650      00
 2651 00fe 31030000 		.4byte	0x331
 2652 0102 56697274 		.ascii	"VirtualTimer\000"
 2652      75616C54 
 2652      696D6572 
 2652      00
 2653 010f 3C030000 		.4byte	0x33c
 2654 0113 56697274 		.ascii	"VirtualTimer\000"
 2654      75616C54 
 2654      696D6572 
 2654      00
 2655 0120 05040000 		.4byte	0x405
 2656 0124 52656164 		.ascii	"ReadyList\000"
 2656      794C6973 
 2656      7400
 2657 012e 10040000 		.4byte	0x410
 2658 0132 53656D61 		.ascii	"Semaphore\000"
 2658      70686F72 
ARM GAS  /tmp/ccOlmrMD.s 			page 49


 2658      6500
 2659 013c 39040000 		.4byte	0x439
 2660 0140 53656D61 		.ascii	"Semaphore\000"
 2660      70686F72 
 2660      6500
 2661 014a 44040000 		.4byte	0x444
 2662 014e 4D757465 		.ascii	"Mutex\000"
 2662      7800
 2663 0154 81040000 		.4byte	0x481
 2664 0158 4D757465 		.ascii	"Mutex\000"
 2664      7800
 2665 015e FE000000 		.4byte	0xfe
 2666 0162 54687265 		.ascii	"Thread\000"
 2666      616400
 2667 0169 00000000 		.4byte	0x0
 2668              		.section	.debug_aranges,"",%progbits
 2669 0000 5C000000 		.4byte	0x5c
 2670 0004 0200     		.2byte	0x2
 2671 0006 00000000 		.4byte	.Ldebug_info0
 2672 000a 04       		.byte	0x4
 2673 000b 00       		.byte	0x0
 2674 000c 0000     		.2byte	0x0
 2675 000e 0000     		.2byte	0x0
 2676 0010 00000000 		.4byte	.LFB10
 2677 0014 48000000 		.4byte	.LFE10-.LFB10
 2678 0018 00000000 		.4byte	.LFB7
 2679 001c 1A000000 		.4byte	.LFE7-.LFB7
 2680 0020 00000000 		.4byte	.LFB8
 2681 0024 22000000 		.4byte	.LFE8-.LFB8
 2682 0028 00000000 		.4byte	.LFB9
 2683 002c 28000000 		.4byte	.LFE9-.LFB9
 2684 0030 00000000 		.4byte	.LFB11
 2685 0034 4A000000 		.4byte	.LFE11-.LFB11
 2686 0038 00000000 		.4byte	.LFB12
 2687 003c 5E000000 		.4byte	.LFE12-.LFB12
 2688 0040 00000000 		.4byte	.LFB13
 2689 0044 4A000000 		.4byte	.LFE13-.LFB13
 2690 0048 00000000 		.4byte	.LFB14
 2691 004c 1E000000 		.4byte	.LFE14-.LFB14
 2692 0050 00000000 		.4byte	.LFB15
 2693 0054 28000000 		.4byte	.LFE15-.LFB15
 2694 0058 00000000 		.4byte	0x0
 2695 005c 00000000 		.4byte	0x0
 2696              		.section	.debug_ranges,"",%progbits
 2697              	.Ldebug_ranges0:
 2698 0000 10000000 		.4byte	.LBB17
 2699 0004 14000000 		.4byte	.LBE17
 2700 0008 16000000 		.4byte	.LBB20
 2701 000c 34000000 		.4byte	.LBE20
 2702 0010 00000000 		.4byte	0x0
 2703 0014 00000000 		.4byte	0x0
 2704 0018 10000000 		.4byte	.LBB18
 2705 001c 14000000 		.4byte	.LBE18
 2706 0020 16000000 		.4byte	.LBB19
 2707 0024 34000000 		.4byte	.LBE19
 2708 0028 00000000 		.4byte	0x0
 2709 002c 00000000 		.4byte	0x0
ARM GAS  /tmp/ccOlmrMD.s 			page 50


 2710 0030 0E000000 		.4byte	.LBB23
 2711 0034 10000000 		.4byte	.LBE23
 2712 0038 1A000000 		.4byte	.LBB28
 2713 003c 1E000000 		.4byte	.LBE28
 2714 0040 12000000 		.4byte	.LBB27
 2715 0044 14000000 		.4byte	.LBE27
 2716 0048 00000000 		.4byte	0x0
 2717 004c 00000000 		.4byte	0x0
 2718 0050 0E000000 		.4byte	.LBB25
 2719 0054 10000000 		.4byte	.LBE25
 2720 0058 1A000000 		.4byte	.LBB26
 2721 005c 1E000000 		.4byte	.LBE26
 2722 0060 12000000 		.4byte	.LBB24
 2723 0064 14000000 		.4byte	.LBE24
 2724 0068 00000000 		.4byte	0x0
 2725 006c 00000000 		.4byte	0x0
 2726 0070 32000000 		.4byte	.LBB32
 2727 0074 58000000 		.4byte	.LBE32
 2728 0078 5A000000 		.4byte	.LBB37
 2729 007c 5E000000 		.4byte	.LBE37
 2730 0080 00000000 		.4byte	0x0
 2731 0084 00000000 		.4byte	0x0
 2732 0088 32000000 		.4byte	.LBB34
 2733 008c 48000000 		.4byte	.LBE34
 2734 0090 4A000000 		.4byte	.LBB33
 2735 0094 4C000000 		.4byte	.LBE33
 2736 0098 00000000 		.4byte	0x0
 2737 009c 00000000 		.4byte	0x0
 2738 00a0 32000000 		.4byte	.LBB35
 2739 00a4 48000000 		.4byte	.LBE35
 2740 00a8 4A000000 		.4byte	.LBB36
 2741 00ac 4C000000 		.4byte	.LBE36
 2742 00b0 00000000 		.4byte	0x0
 2743 00b4 00000000 		.4byte	0x0
 2744 00b8 08000000 		.4byte	.LBB38
 2745 00bc 0C000000 		.4byte	.LBE38
 2746 00c0 2A000000 		.4byte	.LBB50
 2747 00c4 30000000 		.4byte	.LBE50
 2748 00c8 1E000000 		.4byte	.LBB48
 2749 00cc 22000000 		.4byte	.LBE48
 2750 00d0 12000000 		.4byte	.LBB43
 2751 00d4 14000000 		.4byte	.LBE43
 2752 00d8 00000000 		.4byte	0x0
 2753 00dc 00000000 		.4byte	0x0
 2754 00e0 08000000 		.4byte	.LBB40
 2755 00e4 0C000000 		.4byte	.LBE40
 2756 00e8 2A000000 		.4byte	.LBB42
 2757 00ec 30000000 		.4byte	.LBE42
 2758 00f0 1E000000 		.4byte	.LBB39
 2759 00f4 22000000 		.4byte	.LBE39
 2760 00f8 12000000 		.4byte	.LBB41
 2761 00fc 14000000 		.4byte	.LBE41
 2762 0100 00000000 		.4byte	0x0
 2763 0104 00000000 		.4byte	0x0
 2764 0108 18000000 		.4byte	.LBB44
 2765 010c 1A000000 		.4byte	.LBE44
 2766 0110 30000000 		.4byte	.LBB51
ARM GAS  /tmp/ccOlmrMD.s 			page 51


 2767 0114 44000000 		.4byte	.LBE51
 2768 0118 28000000 		.4byte	.LBB49
 2769 011c 2A000000 		.4byte	.LBE49
 2770 0120 00000000 		.4byte	0x0
 2771 0124 00000000 		.4byte	0x0
 2772 0128 18000000 		.4byte	.LBB46
 2773 012c 1A000000 		.4byte	.LBE46
 2774 0130 30000000 		.4byte	.LBB47
 2775 0134 44000000 		.4byte	.LBE47
 2776 0138 28000000 		.4byte	.LBB45
 2777 013c 2A000000 		.4byte	.LBE45
 2778 0140 00000000 		.4byte	0x0
 2779 0144 00000000 		.4byte	0x0
 2780 0148 00000000 		.4byte	.LFB10
 2781 014c 48000000 		.4byte	.LFE10
 2782 0150 00000000 		.4byte	.LFB7
 2783 0154 1A000000 		.4byte	.LFE7
 2784 0158 00000000 		.4byte	.LFB8
 2785 015c 22000000 		.4byte	.LFE8
 2786 0160 00000000 		.4byte	.LFB9
 2787 0164 28000000 		.4byte	.LFE9
 2788 0168 00000000 		.4byte	.LFB11
 2789 016c 4A000000 		.4byte	.LFE11
 2790 0170 00000000 		.4byte	.LFB12
 2791 0174 5E000000 		.4byte	.LFE12
 2792 0178 00000000 		.4byte	.LFB13
 2793 017c 4A000000 		.4byte	.LFE13
 2794 0180 00000000 		.4byte	.LFB14
 2795 0184 1E000000 		.4byte	.LFE14
 2796 0188 00000000 		.4byte	.LFB15
 2797 018c 28000000 		.4byte	.LFE15
 2798 0190 00000000 		.4byte	0x0
 2799 0194 00000000 		.4byte	0x0
 2800              		.section	.debug_str,"MS",%progbits,1
 2801              	.LASF34:
 2802 0000 705F6D73 		.ascii	"p_msg\000"
 2802      6700
 2803              	.LASF83:
 2804 0006 63686962 		.ascii	"chibios/os/kernel/src/chschd.c\000"
 2804      696F732F 
 2804      6F732F6B 
 2804      65726E65 
 2804      6C2F7372 
 2805              	.LASF66:
 2806 0025 7264796D 		.ascii	"rdymsg\000"
 2806      736700
 2807              	.LASF11:
 2808 002c 6C6F6E67 		.ascii	"long long unsigned int\000"
 2808      206C6F6E 
 2808      6720756E 
 2808      7369676E 
 2808      65642069 
 2809              	.LASF67:
 2810 0043 65786974 		.ascii	"exitcode\000"
 2810      636F6465 
 2810      00
 2811              	.LASF24:
ARM GAS  /tmp/ccOlmrMD.s 			page 52


 2812 004c 705F7072 		.ascii	"p_prio\000"
 2812      696F00
 2813              	.LASF10:
 2814 0053 6C6F6E67 		.ascii	"long long int\000"
 2814      206C6F6E 
 2814      6720696E 
 2814      7400
 2815              	.LASF1:
 2816 0061 7369676E 		.ascii	"signed char\000"
 2816      65642063 
 2816      68617200 
 2817              	.LASF38:
 2818 006d 705F6D70 		.ascii	"p_mpool\000"
 2818      6F6F6C00 
 2819              	.LASF12:
 2820 0075 626F6F6C 		.ascii	"bool_t\000"
 2820      5F7400
 2821              	.LASF63:
 2822 007c 6D5F7175 		.ascii	"m_queue\000"
 2822      65756500 
 2823              	.LASF68:
 2824 0084 77746F62 		.ascii	"wtobjp\000"
 2824      6A7000
 2825              	.LASF7:
 2826 008b 6C6F6E67 		.ascii	"long int\000"
 2826      20696E74 
 2826      00
 2827              	.LASF77:
 2828 0094 73636865 		.ascii	"scheduler_init\000"
 2828      64756C65 
 2828      725F696E 
 2828      697400
 2829              	.LASF14:
 2830 00a3 74737461 		.ascii	"tstate_t\000"
 2830      74655F74 
 2830      00
 2831              	.LASF26:
 2832 00ac 705F6E65 		.ascii	"p_newer\000"
 2832      77657200 
 2833              	.LASF60:
 2834 00b4 735F7175 		.ascii	"s_queue\000"
 2834      65756500 
 2835              	.LASF78:
 2836 00bc 63685363 		.ascii	"chSchRescheduleS\000"
 2836      68526573 
 2836      63686564 
 2836      756C6553 
 2836      00
 2837              	.LASF54:
 2838 00cd 725F6E65 		.ascii	"r_newer\000"
 2838      77657200 
 2839              	.LASF41:
 2840 00d5 72656761 		.ascii	"regarm_t\000"
 2840      726D5F74 
 2840      00
 2841              	.LASF47:
 2842 00de 76745F70 		.ascii	"vt_prev\000"
ARM GAS  /tmp/ccOlmrMD.s 			page 53


 2842      72657600 
 2843              	.LASF20:
 2844 00e6 636E745F 		.ascii	"cnt_t\000"
 2844      7400
 2845              	.LASF0:
 2846 00ec 756E7369 		.ascii	"unsigned int\000"
 2846      676E6564 
 2846      20696E74 
 2846      00
 2847              	.LASF86:
 2848 00f9 77616B65 		.ascii	"wakeup\000"
 2848      757000
 2849              	.LASF46:
 2850 0100 76745F6E 		.ascii	"vt_next\000"
 2850      65787400 
 2851              	.LASF9:
 2852 0108 6C6F6E67 		.ascii	"long unsigned int\000"
 2852      20756E73 
 2852      69676E65 
 2852      6420696E 
 2852      7400
 2853              	.LASF61:
 2854 011a 735F636E 		.ascii	"s_cnt\000"
 2854      7400
 2855              	.LASF42:
 2856 0120 636F6E74 		.ascii	"context\000"
 2856      65787400 
 2857              	.LASF4:
 2858 0128 73686F72 		.ascii	"short unsigned int\000"
 2858      7420756E 
 2858      7369676E 
 2858      65642069 
 2858      6E7400
 2859              	.LASF75:
 2860 013b 63685363 		.ascii	"chSchWakeupS\000"
 2860      6857616B 
 2860      65757053 
 2860      00
 2861              	.LASF17:
 2862 0148 6D73675F 		.ascii	"msg_t\000"
 2862      7400
 2863              	.LASF13:
 2864 014e 746D6F64 		.ascii	"tmode_t\000"
 2864      655F7400 
 2865              	.LASF40:
 2866 0156 54687265 		.ascii	"ThreadsList\000"
 2866      6164734C 
 2866      69737400 
 2867              	.LASF18:
 2868 0162 6576656E 		.ascii	"eventmask_t\000"
 2868      746D6173 
 2868      6B5F7400 
 2869              	.LASF62:
 2870 016e 4D757465 		.ascii	"Mutex\000"
 2870      7800
 2871              	.LASF48:
 2872 0174 76745F74 		.ascii	"vt_time\000"
ARM GAS  /tmp/ccOlmrMD.s 			page 54


 2872      696D6500 
 2873              	.LASF49:
 2874 017c 76745F66 		.ascii	"vt_func\000"
 2874      756E6300 
 2875              	.LASF84:
 2876 0184 2F686F6D 		.ascii	"/home/dan/github/github-projects/Quad-Rotor/QuadRot"
 2876      652F6461 
 2876      6E2F6769 
 2876      74687562 
 2876      2F676974 
 2877 01b7 6F7200   		.ascii	"or\000"
 2878              	.LASF27:
 2879 01ba 705F6F6C 		.ascii	"p_older\000"
 2879      64657200 
 2880              	.LASF53:
 2881 01c2 725F6374 		.ascii	"r_ctx\000"
 2881      7800
 2882              	.LASF39:
 2883 01c8 54687265 		.ascii	"ThreadsQueue\000"
 2883      61647351 
 2883      75657565 
 2883      00
 2884              	.LASF70:
 2885 01d5 64657175 		.ascii	"dequeue\000"
 2885      65756500 
 2886              	.LASF57:
 2887 01dd 725F6375 		.ascii	"r_current\000"
 2887      7272656E 
 2887      7400
 2888              	.LASF55:
 2889 01e7 725F6F6C 		.ascii	"r_older\000"
 2889      64657200 
 2890              	.LASF15:
 2891 01ef 74726566 		.ascii	"trefs_t\000"
 2891      735F7400 
 2892              	.LASF23:
 2893 01f7 705F7072 		.ascii	"p_prev\000"
 2893      657600
 2894              	.LASF16:
 2895 01fe 74707269 		.ascii	"tprio_t\000"
 2895      6F5F7400 
 2896              	.LASF6:
 2897 0206 696E7433 		.ascii	"int32_t\000"
 2897      325F7400 
 2898              	.LASF2:
 2899 020e 756E7369 		.ascii	"unsigned char\000"
 2899      676E6564 
 2899      20636861 
 2899      7200
 2900              	.LASF72:
 2901 021c 6E657773 		.ascii	"newstate\000"
 2901      74617465 
 2901      00
 2902              	.LASF36:
 2903 0225 705F6D74 		.ascii	"p_mtxlist\000"
 2903      786C6973 
 2903      7400
ARM GAS  /tmp/ccOlmrMD.s 			page 55


 2904              	.LASF3:
 2905 022f 73686F72 		.ascii	"short int\000"
 2905      7420696E 
 2905      7400
 2906              	.LASF28:
 2907 0239 705F7374 		.ascii	"p_state\000"
 2907      61746500 
 2908              	.LASF52:
 2909 0241 725F7072 		.ascii	"r_prio\000"
 2909      696F00
 2910              	.LASF69:
 2911 0248 65776D61 		.ascii	"ewmask\000"
 2911      736B00
 2912              	.LASF22:
 2913 024f 705F6E65 		.ascii	"p_next\000"
 2913      787400
 2914              	.LASF29:
 2915 0256 705F666C 		.ascii	"p_flags\000"
 2915      61677300 
 2916              	.LASF21:
 2917 025e 54687265 		.ascii	"Thread\000"
 2917      616400
 2918              	.LASF74:
 2919 0265 63685363 		.ascii	"chSchGoSleepS\000"
 2919      68476F53 
 2919      6C656570 
 2919      5300
 2920              	.LASF35:
 2921 0273 705F6570 		.ascii	"p_epending\000"
 2921      656E6469 
 2921      6E6700
 2922              	.LASF8:
 2923 027e 75696E74 		.ascii	"uint32_t\000"
 2923      33325F74 
 2923      00
 2924              	.LASF51:
 2925 0287 725F7175 		.ascii	"r_queue\000"
 2925      65756500 
 2926              	.LASF45:
 2927 028f 56697274 		.ascii	"VirtualTimer\000"
 2927      75616C54 
 2927      696D6572 
 2927      00
 2928              	.LASF85:
 2929 029c 63685363 		.ascii	"chSchReadyI\000"
 2929      68526561 
 2929      64794900 
 2930              	.LASF71:
 2931 02a8 6669666F 		.ascii	"fifo_remove\000"
 2931      5F72656D 
 2931      6F766500 
 2932              	.LASF65:
 2933 02b4 6D5F6E65 		.ascii	"m_next\000"
 2933      787400
 2934              	.LASF19:
 2935 02bb 73797374 		.ascii	"systime_t\000"
 2935      696D655F 
ARM GAS  /tmp/ccOlmrMD.s 			page 56


 2935      7400
 2936              	.LASF37:
 2937 02c5 705F7265 		.ascii	"p_realprio\000"
 2937      616C7072 
 2937      696F00
 2938              	.LASF44:
 2939 02d0 76746675 		.ascii	"vtfunc_t\000"
 2939      6E635F74 
 2939      00
 2940              	.LASF31:
 2941 02d9 705F7469 		.ascii	"p_time\000"
 2941      6D6500
 2942              	.LASF80:
 2943 02e0 63685363 		.ascii	"chSchIsRescRequiredExI\000"
 2943      68497352 
 2943      65736352 
 2943      65717569 
 2943      72656445 
 2944              	.LASF43:
 2945 02f7 696E7463 		.ascii	"intctx\000"
 2945      747800
 2946              	.LASF33:
 2947 02fe 705F6D73 		.ascii	"p_msgqueue\000"
 2947      67717565 
 2947      756500
 2948              	.LASF73:
 2949 0309 74696D65 		.ascii	"time\000"
 2949      00
 2950              	.LASF76:
 2951 030e 63685363 		.ascii	"chSchDoRescheduleI\000"
 2951      68446F52 
 2951      65736368 
 2951      6564756C 
 2951      654900
 2952              	.LASF50:
 2953 0321 76745F70 		.ascii	"vt_par\000"
 2953      617200
 2954              	.LASF59:
 2955 0328 53656D61 		.ascii	"Semaphore\000"
 2955      70686F72 
 2955      6500
 2956              	.LASF30:
 2957 0332 705F7265 		.ascii	"p_refs\000"
 2957      667300
 2958              	.LASF58:
 2959 0339 52656164 		.ascii	"ReadyList\000"
 2959      794C6973 
 2959      7400
 2960              	.LASF81:
 2961 0343 726C6973 		.ascii	"rlist\000"
 2961      7400
 2962              	.LASF5:
 2963 0349 75696E74 		.ascii	"uint8_t\000"
 2963      385F7400 
 2964              	.LASF82:
 2965 0351 474E5520 		.ascii	"GNU C 4.5.1\000"
 2965      4320342E 
ARM GAS  /tmp/ccOlmrMD.s 			page 57


 2965      352E3100 
 2966              	.LASF79:
 2967 035d 63685363 		.ascii	"chSchGoSleepTimeoutS\000"
 2967      68476F53 
 2967      6C656570 
 2967      54696D65 
 2967      6F757453 
 2968              	.LASF56:
 2969 0372 725F7072 		.ascii	"r_preempt\000"
 2969      65656D70 
 2969      7400
 2970              	.LASF64:
 2971 037c 6D5F6F77 		.ascii	"m_owner\000"
 2971      6E657200 
 2972              	.LASF25:
 2973 0384 705F6374 		.ascii	"p_ctx\000"
 2973      7800
 2974              	.LASF32:
 2975 038a 705F7761 		.ascii	"p_waiting\000"
 2975      6974696E 
 2975      6700
 2976              		.ident	"GCC: (GNU) 4.5.1"
ARM GAS  /tmp/ccOlmrMD.s 			page 58


DEFINED SYMBOLS
                            *ABS*:0000000000000000 chschd.c
     /tmp/ccOlmrMD.s:24     .text.wakeup:0000000000000000 $t
     /tmp/ccOlmrMD.s:29     .text.wakeup:0000000000000000 wakeup
                            *COM*:0000000000000020 rlist
     /tmp/ccOlmrMD.s:114    .text.scheduler_init:0000000000000000 $t
     /tmp/ccOlmrMD.s:120    .text.scheduler_init:0000000000000000 scheduler_init
     /tmp/ccOlmrMD.s:150    .text.chSchReadyI:0000000000000000 $t
     /tmp/ccOlmrMD.s:156    .text.chSchReadyI:0000000000000000 chSchReadyI
     /tmp/ccOlmrMD.s:198    .text.chSchGoSleepS:0000000000000000 $t
     /tmp/ccOlmrMD.s:204    .text.chSchGoSleepS:0000000000000000 chSchGoSleepS
     /tmp/ccOlmrMD.s:266    .text.chSchGoSleepTimeoutS:0000000000000000 $t
     /tmp/ccOlmrMD.s:272    .text.chSchGoSleepTimeoutS:0000000000000000 chSchGoSleepTimeoutS
     /tmp/ccOlmrMD.s:335    .text.chSchWakeupS:0000000000000000 $t
     /tmp/ccOlmrMD.s:341    .text.chSchWakeupS:0000000000000000 chSchWakeupS
     /tmp/ccOlmrMD.s:462    .text.chSchDoRescheduleI:0000000000000000 $t
     /tmp/ccOlmrMD.s:468    .text.chSchDoRescheduleI:0000000000000000 chSchDoRescheduleI
     /tmp/ccOlmrMD.s:568    .text.chSchRescheduleS:0000000000000000 $t
     /tmp/ccOlmrMD.s:574    .text.chSchRescheduleS:0000000000000000 chSchRescheduleS
     /tmp/ccOlmrMD.s:599    .text.chSchIsRescRequiredExI:0000000000000000 $t
     /tmp/ccOlmrMD.s:605    .text.chSchIsRescRequiredExI:0000000000000000 chSchIsRescRequiredExI
                     .debug_frame:0000000000000010 $d

UNDEFINED SYMBOLS
port_switch
chVTSetI
chVTResetI
