ARM GAS  /tmp/ccWtGeXX.s 			page 1


   1              		.syntax unified
   2              		.cpu cortex-m3
   3              		.fpu softvfp
   4              		.eabi_attribute 20, 1
   5              		.eabi_attribute 21, 1
   6              		.eabi_attribute 23, 3
   7              		.eabi_attribute 24, 1
   8              		.eabi_attribute 25, 1
   9              		.eabi_attribute 26, 1
  10              		.eabi_attribute 30, 2
  11              		.eabi_attribute 18, 4
  12              		.thumb
  13              		.file	"chschd.c"
  14              		.section	.debug_abbrev,"",%progbits
  15              	.Ldebug_abbrev0:
  16              		.section	.debug_info,"",%progbits
  17              	.Ldebug_info0:
  18              		.section	.debug_line,"",%progbits
  19              	.Ldebug_line0:
  20 0000 C8020000 		.text
  20      02005801 
  20      00000201 
  20      FB0E0D00 
  20      01010101 
  21              	.Ltext0:
  22              		.cfi_sections	.debug_frame
  23              		.section	.text.scheduler_init,"ax",%progbits
  24              		.align	2
  25              		.p2align 4,,15
  26              		.global	scheduler_init
  27              		.thumb
  28              		.thumb_func
  29              		.type	scheduler_init, %function
  30              	scheduler_init:
  31              	.LFB7:
  32              		.file 1 "../../os/kernel/src/chschd.c"
  33              		.loc 1 54 0
  34              		.cfi_startproc
  35              		@ args = 0, pretend = 0, frame = 0
  36              		@ frame_needed = 0, uses_anonymous_args = 0
  37              		@ link register save eliminated.
  38              		.loc 1 56 0
  39 0000 40F20003 		movw	r3, #:lower16:rlist
  40 0004 C0F20003 		movt	r3, #:upper16:rlist
  41              		.loc 1 57 0
  42 0008 0020     		movs	r0, #0
  43              		.loc 1 59 0
  44 000a 1422     		movs	r2, #20
  45              		.loc 1 57 0
  46 000c 9860     		str	r0, [r3, #8]
  47              		.loc 1 59 0
  48 000e 9A61     		str	r2, [r3, #24]
  49              		.loc 1 62 0
  50 0010 1B61     		str	r3, [r3, #16]
  51              		.loc 1 56 0
  52 0012 5B60     		str	r3, [r3, #4]
  53 0014 1B60     		str	r3, [r3, #0]
ARM GAS  /tmp/ccWtGeXX.s 			page 2


  54              		.loc 1 62 0
  55 0016 5B61     		str	r3, [r3, #20]
  56              		.loc 1 64 0
  57 0018 7047     		bx	lr
  58              		.cfi_endproc
  59              	.LFE7:
  60              		.size	scheduler_init, .-scheduler_init
  61 001a 00BFAFF3 		.section	.text.chSchReadyI,"ax",%progbits
  61      0080
  62              		.align	2
  63              		.p2align 4,,15
  64              		.global	chSchReadyI
  65              		.thumb
  66              		.thumb_func
  67              		.type	chSchReadyI, %function
  68              	chSchReadyI:
  69              	.LFB8:
  70              		.loc 1 81 0
  71              		.cfi_startproc
  72              		@ args = 0, pretend = 0, frame = 0
  73              		@ frame_needed = 0, uses_anonymous_args = 0
  74              		@ link register save eliminated.
  75              	.LVL0:
  76              		.loc 1 91 0
  77 0000 40F20003 		movw	r3, #:lower16:rlist
  78              	.LVL1:
  79              		.loc 1 90 0
  80 0004 0022     		movs	r2, #0
  81              		.loc 1 91 0
  82 0006 8168     		ldr	r1, [r0, #8]
  83              		.loc 1 90 0
  84 0008 0276     		strb	r2, [r0, #24]
  85              		.loc 1 91 0
  86 000a C0F20003 		movt	r3, #:upper16:rlist
  87              	.L4:
  88              		.loc 1 93 0
  89 000e 1B68     		ldr	r3, [r3, #0]
  90              		.loc 1 94 0
  91 0010 9A68     		ldr	r2, [r3, #8]
  92 0012 8A42     		cmp	r2, r1
  93 0014 FBD2     		bcs	.L4
  94              		.loc 1 97 0
  95 0016 5968     		ldr	r1, [r3, #4]
  96              		.loc 1 96 0
  97 0018 0360     		str	r3, [r0, #0]
  98              		.loc 1 97 0
  99 001a 4160     		str	r1, [r0, #4]
 100              		.loc 1 98 0
 101 001c 0860     		str	r0, [r1, #0]
 102 001e 5860     		str	r0, [r3, #4]
 103              	.LVL2:
 104              		.loc 1 100 0
 105 0020 7047     		bx	lr
 106              		.cfi_endproc
 107              	.LFE8:
 108              		.size	chSchReadyI, .-chSchReadyI
 109 0022 00BFAFF3 		.section	.text.wakeup,"ax",%progbits
ARM GAS  /tmp/ccWtGeXX.s 			page 3


 109      0080AFF3 
 109      0080AFF3 
 109      0080
 110              		.align	2
 111              		.p2align 4,,15
 112              		.thumb
 113              		.thumb_func
 114              		.type	wakeup, %function
 115              	wakeup:
 116              	.LFB10:
 117              		.loc 1 131 0
 118              		.cfi_startproc
 119              		@ args = 0, pretend = 0, frame = 0
 120              		@ frame_needed = 0, uses_anonymous_args = 0
 121              		@ link register save eliminated.
 122              	.LVL3:
 123              		.loc 1 134 0
 124 0000 037E     		ldrb	r3, [r0, #24]	@ zero_extendqisi2
 125              	.LVL4:
 126 0002 032B     		cmp	r3, #3
 127 0004 16D0     		beq	.L11
 128 0006 052B     		cmp	r3, #5
 129 0008 18D0     		beq	.L12
 130 000a 93B1     		cbz	r3, .L14
 131              	.L9:
 132              		.loc 1 152 0
 133 000c 4FF0FF32 		mov	r2, #-1
 134              	.LBB17:
 135              	.LBB18:
 136              		.loc 1 91 0
 137 0010 40F20003 		movw	r3, #:lower16:rlist
 138              	.LVL5:
 139              	.LBE18:
 140              	.LBE17:
 141              		.loc 1 152 0
 142 0014 0262     		str	r2, [r0, #32]
 143              	.LBB20:
 144              	.LBB19:
 145              		.loc 1 91 0
 146 0016 8168     		ldr	r1, [r0, #8]
 147              		.loc 1 90 0
 148 0018 0022     		movs	r2, #0
 149 001a 0276     		strb	r2, [r0, #24]
 150              		.loc 1 91 0
 151 001c C0F20003 		movt	r3, #:upper16:rlist
 152              	.L13:
 153              		.loc 1 93 0
 154 0020 1B68     		ldr	r3, [r3, #0]
 155              		.loc 1 94 0
 156 0022 9A68     		ldr	r2, [r3, #8]
 157 0024 8A42     		cmp	r2, r1
 158 0026 FBD2     		bcs	.L13
 159              		.loc 1 97 0
 160 0028 5968     		ldr	r1, [r3, #4]
 161              		.loc 1 96 0
 162 002a 0360     		str	r3, [r0, #0]
 163              		.loc 1 97 0
ARM GAS  /tmp/ccWtGeXX.s 			page 4


 164 002c 4160     		str	r1, [r0, #4]
 165              		.loc 1 98 0
 166 002e 0860     		str	r0, [r1, #0]
 167 0030 5860     		str	r0, [r3, #4]
 168              	.L14:
 169 0032 7047     		bx	lr
 170              	.LVL6:
 171              	.L11:
 172              	.LBE19:
 173              	.LBE20:
 174              		.loc 1 142 0
 175 0034 036A     		ldr	r3, [r0, #32]
 176 0036 9968     		ldr	r1, [r3, #8]
 177 0038 4A1C     		adds	r2, r1, #1
 178 003a 9A60     		str	r2, [r3, #8]
 179              	.L12:
 180              	.LBB21:
 181              	.LBB22:
 182              		.file 2 "../../os/kernel/include/chinline.h"
 183              		.loc 2 74 0
 184 003c 4368     		ldr	r3, [r0, #4]
 185 003e 0168     		ldr	r1, [r0, #0]
 186 0040 1960     		str	r1, [r3, #0]
 187              		.loc 2 75 0
 188 0042 0268     		ldr	r2, [r0, #0]
 189 0044 5360     		str	r3, [r2, #4]
 190 0046 E1E7     		b	.L9
 191              	.LBE22:
 192              	.LBE21:
 193              		.cfi_endproc
 194              	.LFE10:
 195              		.size	wakeup, .-wakeup
 196 0048 AFF30080 		.section	.text.chSchIsRescRequiredExI,"ax",%progbits
 196      AFF30080 
 197              		.align	2
 198              		.p2align 4,,15
 199              		.global	chSchIsRescRequiredExI
 200              		.thumb
 201              		.thumb_func
 202              		.type	chSchIsRescRequiredExI, %function
 203              	chSchIsRescRequiredExI:
 204              	.LFB15:
 205              		.loc 1 285 0
 206              		.cfi_startproc
 207              		@ args = 0, pretend = 0, frame = 0
 208              		@ frame_needed = 0, uses_anonymous_args = 0
 209              		@ link register save eliminated.
 210              		.loc 1 286 0
 211 0000 40F20000 		movw	r0, #:lower16:rlist
 212 0004 C0F20000 		movt	r0, #:upper16:rlist
 213              		.loc 1 287 0
 214 0008 C369     		ldr	r3, [r0, #28]
 215              		.loc 1 293 0
 216 000a 8269     		ldr	r2, [r0, #24]
 217              		.loc 1 286 0
 218 000c 0168     		ldr	r1, [r0, #0]
 219              		.loc 1 287 0
ARM GAS  /tmp/ccWtGeXX.s 			page 5


 220 000e 9B68     		ldr	r3, [r3, #8]
 221              	.LVL7:
 222              		.loc 1 286 0
 223 0010 8868     		ldr	r0, [r1, #8]
 224              	.LVL8:
 225              		.loc 1 293 0
 226 0012 22B9     		cbnz	r2, .L20
 227 0014 9842     		cmp	r0, r3
 228 0016 34BF     		ite	cc
 229 0018 0020     		movcc	r0, #0
 230 001a 0120     		movcs	r0, #1
 231              	.LVL9:
 232              		.loc 1 299 0
 233 001c 7047     		bx	lr
 234              	.LVL10:
 235              	.L20:
 236              		.loc 1 293 0
 237 001e 9842     		cmp	r0, r3
 238 0020 94BF     		ite	ls
 239 0022 0020     		movls	r0, #0
 240 0024 0120     		movhi	r0, #1
 241              	.LVL11:
 242 0026 7047     		bx	lr
 243              		.cfi_endproc
 244              	.LFE15:
 245              		.size	chSchIsRescRequiredExI, .-chSchIsRescRequiredExI
 246 0028 AFF30080 		.section	.text.chSchDoRescheduleI,"ax",%progbits
 246      AFF30080 
 247              		.align	2
 248              		.p2align 4,,15
 249              		.global	chSchDoRescheduleI
 250              		.thumb
 251              		.thumb_func
 252              		.type	chSchDoRescheduleI, %function
 253              	chSchDoRescheduleI:
 254              	.LFB13:
 255              		.loc 1 241 0
 256              		.cfi_startproc
 257              		@ args = 0, pretend = 0, frame = 0
 258              		@ frame_needed = 0, uses_anonymous_args = 0
 259              		@ link register save eliminated.
 260              		.loc 1 245 0
 261 0000 40F20002 		movw	r2, #:lower16:rlist
 262 0004 C0F20002 		movt	r2, #:upper16:rlist
 263              	.LBB23:
 264              	.LBB25:
 265              		.loc 2 59 0
 266 0008 1068     		ldr	r0, [r2, #0]
 267              	.LVL12:
 268              	.LBE25:
 269              	.LBE23:
 270              		.loc 1 241 0
 271 000a 30B4     		push	{r4, r5}
 272              	.LCFI0:
 273              		.cfi_def_cfa_offset 8
 274              	.LBB27:
 275              	.LBB24:
ARM GAS  /tmp/ccWtGeXX.s 			page 6


 276              		.loc 2 61 0
 277 000c 0568     		ldr	r5, [r0, #0]
 278              		.cfi_offset 5, -4
 279              		.cfi_offset 4, -8
 280              	.LBE24:
 281              	.LBE27:
 282              		.loc 1 247 0
 283 000e D169     		ldr	r1, [r2, #28]
 284              	.LVL13:
 285              		.loc 1 245 0
 286 0010 1423     		movs	r3, #20
 287 0012 9361     		str	r3, [r2, #24]
 288              	.LBB28:
 289              	.LBB26:
 290              		.loc 2 61 0
 291 0014 1560     		str	r5, [r2, #0]
 292 0016 1346     		mov	r3, r2
 293              	.LVL14:
 294 0018 6A60     		str	r2, [r5, #4]
 295              	.LBE26:
 296              	.LBE28:
 297              		.loc 1 249 0
 298 001a D061     		str	r0, [r2, #28]
 299              		.loc 1 250 0
 300 001c 0122     		movs	r2, #1
 301 001e 0276     		strb	r2, [r0, #24]
 302              	.LBB29:
 303              	.LBB30:
 304              		.loc 1 90 0
 305 0020 8C68     		ldr	r4, [r1, #8]
 306 0022 0022     		movs	r2, #0
 307 0024 0A76     		strb	r2, [r1, #24]
 308              	.L22:
 309              		.loc 1 93 0
 310 0026 1B68     		ldr	r3, [r3, #0]
 311              		.loc 1 94 0
 312 0028 9A68     		ldr	r2, [r3, #8]
 313 002a 9442     		cmp	r4, r2
 314 002c FBD9     		bls	.L22
 315              		.loc 1 97 0
 316 002e 5A68     		ldr	r2, [r3, #4]
 317              		.loc 1 96 0
 318 0030 0B60     		str	r3, [r1, #0]
 319              		.loc 1 97 0
 320 0032 4A60     		str	r2, [r1, #4]
 321              		.loc 1 98 0
 322 0034 1160     		str	r1, [r2, #0]
 323 0036 5960     		str	r1, [r3, #4]
 324              	.LBE30:
 325              	.LBE29:
 326              		.loc 1 254 0
 327 0038 30BC     		pop	{r4, r5}
 328              		.loc 1 253 0
 329 003a FFF7FEBF 		b	port_switch
 330              	.LVL15:
 331              		.cfi_endproc
 332              	.LFE13:
ARM GAS  /tmp/ccWtGeXX.s 			page 7


 333              		.size	chSchDoRescheduleI, .-chSchDoRescheduleI
 334 003e 00BF     		.section	.text.chSchRescheduleS,"ax",%progbits
 335              		.align	2
 336              		.p2align 4,,15
 337              		.global	chSchRescheduleS
 338              		.thumb
 339              		.thumb_func
 340              		.type	chSchRescheduleS, %function
 341              	chSchRescheduleS:
 342              	.LFB14:
 343              		.loc 1 265 0
 344              		.cfi_startproc
 345              		@ args = 0, pretend = 0, frame = 0
 346              		@ frame_needed = 0, uses_anonymous_args = 0
 347              		@ link register save eliminated.
 348              		.loc 1 267 0
 349 0000 40F20002 		movw	r2, #:lower16:rlist
 350 0004 C0F20002 		movt	r2, #:upper16:rlist
 351 0008 D169     		ldr	r1, [r2, #28]
 352 000a 1068     		ldr	r0, [r2, #0]
 353 000c 8B68     		ldr	r3, [r1, #8]
 354 000e 8268     		ldr	r2, [r0, #8]
 355 0010 9A42     		cmp	r2, r3
 356 0012 00D8     		bhi	.L28
 357 0014 7047     		bx	lr
 358              	.L28:
 359              		.loc 1 269 0
 360              		.loc 1 268 0
 361 0016 FFF7FEBF 		b	chSchDoRescheduleI
 362              		.cfi_endproc
 363              	.LFE14:
 364              		.size	chSchRescheduleS, .-chSchRescheduleS
 365 001a 00BFAFF3 		.section	.text.chSchWakeupS,"ax",%progbits
 365      0080
 366              		.align	2
 367              		.p2align 4,,15
 368              		.global	chSchWakeupS
 369              		.thumb
 370              		.thumb_func
 371              		.type	chSchWakeupS, %function
 372              	chSchWakeupS:
 373              	.LFB12:
 374              		.loc 1 211 0
 375              		.cfi_startproc
 376              		@ args = 0, pretend = 0, frame = 0
 377              		@ frame_needed = 0, uses_anonymous_args = 0
 378              		@ link register save eliminated.
 379              	.LVL16:
 380              		.loc 1 218 0
 381 0000 40F20003 		movw	r3, #:lower16:rlist
 382              		.loc 1 213 0
 383 0004 0162     		str	r1, [r0, #32]
 384              		.loc 1 218 0
 385 0006 C0F20003 		movt	r3, #:upper16:rlist
 386 000a D969     		ldr	r1, [r3, #28]
 387              	.LVL17:
 388              		.loc 1 211 0
ARM GAS  /tmp/ccWtGeXX.s 			page 8


 389 000c 30B4     		push	{r4, r5}
 390              	.LCFI1:
 391              		.cfi_def_cfa_offset 8
 392              		.loc 1 218 0
 393 000e 8468     		ldr	r4, [r0, #8]
 394              		.cfi_offset 5, -4
 395              		.cfi_offset 4, -8
 396 0010 8D68     		ldr	r5, [r1, #8]
 397 0012 AC42     		cmp	r4, r5
 398 0014 0CD8     		bhi	.L30
 399              	.LBB31:
 400              	.LBB32:
 401              		.loc 1 90 0
 402 0016 0022     		movs	r2, #0
 403 0018 0276     		strb	r2, [r0, #24]
 404              	.L31:
 405              		.loc 1 93 0
 406 001a 1B68     		ldr	r3, [r3, #0]
 407              	.LVL18:
 408              		.loc 1 94 0
 409 001c 9968     		ldr	r1, [r3, #8]
 410 001e A142     		cmp	r1, r4
 411 0020 FBD2     		bcs	.L31
 412              		.loc 1 97 0
 413 0022 5A68     		ldr	r2, [r3, #4]
 414              		.loc 1 96 0
 415 0024 0360     		str	r3, [r0, #0]
 416              		.loc 1 97 0
 417 0026 4260     		str	r2, [r0, #4]
 418              		.loc 1 98 0
 419 0028 1060     		str	r0, [r2, #0]
 420 002a 5860     		str	r0, [r3, #4]
 421              	.LBE32:
 422              	.LBE31:
 423              		.loc 1 230 0
 424 002c 30BC     		pop	{r4, r5}
 425 002e 7047     		bx	lr
 426              	.LVL19:
 427              	.L30:
 428              	.LBB33:
 429              	.LBB35:
 430              	.LBB36:
 431              		.loc 1 90 0
 432 0030 0024     		movs	r4, #0
 433 0032 0C76     		strb	r4, [r1, #24]
 434              		.loc 1 91 0
 435 0034 1A46     		mov	r2, r3
 436              	.LVL20:
 437              	.L33:
 438              		.loc 1 93 0
 439 0036 1268     		ldr	r2, [r2, #0]
 440              		.loc 1 94 0
 441 0038 9468     		ldr	r4, [r2, #8]
 442 003a AC42     		cmp	r4, r5
 443 003c FBD2     		bcs	.L33
 444              		.loc 1 97 0
 445 003e 5468     		ldr	r4, [r2, #4]
ARM GAS  /tmp/ccWtGeXX.s 			page 9


 446              	.LBE36:
 447              	.LBE35:
 448              		.loc 1 223 0
 449 0040 1425     		movs	r5, #20
 450 0042 9D61     		str	r5, [r3, #24]
 451              	.LBB34:
 452              	.LBB37:
 453              		.loc 1 96 0
 454 0044 0A60     		str	r2, [r1, #0]
 455              		.loc 1 97 0
 456 0046 4C60     		str	r4, [r1, #4]
 457              		.loc 1 98 0
 458 0048 2160     		str	r1, [r4, #0]
 459 004a 5160     		str	r1, [r2, #4]
 460              	.LBE37:
 461              	.LBE34:
 462              		.loc 1 225 0
 463 004c D861     		str	r0, [r3, #28]
 464              		.loc 1 226 0
 465 004e 0123     		movs	r3, #1
 466 0050 0376     		strb	r3, [r0, #24]
 467              	.LBE33:
 468              		.loc 1 230 0
 469 0052 30BC     		pop	{r4, r5}
 470              	.LBB38:
 471              		.loc 1 228 0
 472 0054 FFF7FEBF 		b	port_switch
 473              	.LVL21:
 474              	.LBE38:
 475              		.cfi_endproc
 476              	.LFE12:
 477              		.size	chSchWakeupS, .-chSchWakeupS
 478 0058 AFF30080 		.section	.text.chSchGoSleepS,"ax",%progbits
 478      AFF30080 
 479              		.align	2
 480              		.p2align 4,,15
 481              		.global	chSchGoSleepS
 482              		.thumb
 483              		.thumb_func
 484              		.type	chSchGoSleepS, %function
 485              	chSchGoSleepS:
 486              	.LFB9:
 487              		.loc 1 113 0
 488              		.cfi_startproc
 489              		@ args = 0, pretend = 0, frame = 0
 490              		@ frame_needed = 0, uses_anonymous_args = 0
 491              		@ link register save eliminated.
 492              	.LVL22:
 493              		.loc 1 116 0
 494 0000 40F20003 		movw	r3, #:lower16:rlist
 495 0004 C0F20003 		movt	r3, #:upper16:rlist
 496 0008 D969     		ldr	r1, [r3, #28]
 497              	.LVL23:
 498              		.loc 1 113 0
 499 000a 10B4     		push	{r4}
 500              	.LCFI2:
 501              		.cfi_def_cfa_offset 4
ARM GAS  /tmp/ccWtGeXX.s 			page 10


 502              		.loc 1 116 0
 503 000c 0876     		strb	r0, [r1, #24]
 504              	.LBB39:
 505              	.LBB41:
 506              		.loc 2 59 0
 507 000e 1868     		ldr	r0, [r3, #0]
 508              	.LVL24:
 509              	.LBE41:
 510              	.LBE39:
 511              		.loc 1 118 0
 512 0010 1424     		movs	r4, #20
 513              		.cfi_offset 4, -4
 514              	.LBB43:
 515              	.LBB40:
 516              		.loc 2 61 0
 517 0012 0268     		ldr	r2, [r0, #0]
 518              	.LBE40:
 519              	.LBE43:
 520              		.loc 1 118 0
 521 0014 9C61     		str	r4, [r3, #24]
 522              	.LBB44:
 523              	.LBB42:
 524              		.loc 2 61 0
 525 0016 1A60     		str	r2, [r3, #0]
 526 0018 5360     		str	r3, [r2, #4]
 527              	.LBE42:
 528              	.LBE44:
 529              		.loc 1 120 0
 530 001a D861     		str	r0, [r3, #28]
 531              		.loc 1 121 0
 532 001c 0123     		movs	r3, #1
 533 001e 0376     		strb	r3, [r0, #24]
 534              		.loc 1 124 0
 535 0020 10BC     		pop	{r4}
 536              		.loc 1 123 0
 537 0022 FFF7FEBF 		b	port_switch
 538              	.LVL25:
 539              		.cfi_endproc
 540              	.LFE9:
 541              		.size	chSchGoSleepS, .-chSchGoSleepS
 542 0026 00BFAFF3 		.section	.text.chSchGoSleepTimeoutS,"ax",%progbits
 542      0080AFF3 
 542      0080
 543              		.align	2
 544              		.p2align 4,,15
 545              		.global	chSchGoSleepTimeoutS
 546              		.thumb
 547              		.thumb_func
 548              		.type	chSchGoSleepTimeoutS, %function
 549              	chSchGoSleepTimeoutS:
 550              	.LFB11:
 551              		.loc 1 177 0
 552              		.cfi_startproc
 553              		@ args = 0, pretend = 0, frame = 24
 554              		@ frame_needed = 0, uses_anonymous_args = 0
 555              	.LVL26:
 556 0000 70B5     		push	{r4, r5, r6, lr}
ARM GAS  /tmp/ccWtGeXX.s 			page 11


 557              	.LCFI3:
 558              		.cfi_def_cfa_offset 16
 559              		.loc 1 179 0
 560 0002 B1F1FF3F 		cmp	r1, #-1
 561              		.loc 1 177 0
 562 0006 86B0     		sub	sp, sp, #24
 563              	.LCFI4:
 564              		.cfi_def_cfa_offset 40
 565              		.loc 1 177 0
 566 0008 0646     		mov	r6, r0
 567              		.cfi_offset 14, -4
 568              		.cfi_offset 6, -8
 569              		.cfi_offset 5, -12
 570              		.cfi_offset 4, -16
 571              		.loc 1 179 0
 572 000a 18D0     		beq	.L40
 573              	.LVL27:
 574              	.LBB45:
 575              		.loc 1 182 0
 576 000c 40F20004 		movw	r4, #:lower16:rlist
 577 0010 C0F20004 		movt	r4, #:upper16:rlist
 578 0014 01AD     		add	r5, sp, #4
 579 0016 40F20002 		movw	r2, #:lower16:wakeup
 580 001a E369     		ldr	r3, [r4, #28]
 581 001c C0F20002 		movt	r2, #:upper16:wakeup
 582 0020 2846     		mov	r0, r5
 583 0022 FFF7FEFF 		bl	chVTSetI
 584              	.LVL28:
 585              		.loc 1 183 0
 586 0026 3046     		mov	r0, r6
 587 0028 FFF7FEFF 		bl	chSchGoSleepS
 588              		.loc 1 184 0
 589 002c 049B     		ldr	r3, [sp, #16]
 590 002e 13B1     		cbz	r3, .L41
 591              		.loc 1 185 0
 592 0030 2846     		mov	r0, r5
 593 0032 FFF7FEFF 		bl	chVTResetI
 594              	.L41:
 595              	.LBE45:
 596              		.loc 1 188 0
 597 0036 E169     		ldr	r1, [r4, #28]
 598              		.loc 1 190 0
 599 0038 086A     		ldr	r0, [r1, #32]
 600 003a 06B0     		add	sp, sp, #24
 601 003c 70BD     		pop	{r4, r5, r6, pc}
 602              	.LVL29:
 603              	.L40:
 604 003e 40F20004 		movw	r4, #:lower16:rlist
 605              		.loc 1 188 0
 606 0042 FFF7FEFF 		bl	chSchGoSleepS
 607              	.LVL30:
 608 0046 C0F20004 		movt	r4, #:upper16:rlist
 609 004a F4E7     		b	.L41
 610              		.cfi_endproc
 611              	.LFE11:
 612              		.size	chSchGoSleepTimeoutS, .-chSchGoSleepTimeoutS
 613              		.comm	rlist,32,4
ARM GAS  /tmp/ccWtGeXX.s 			page 12


 614 004c AFF30080 		.text
 615              	.Letext0:
 616              		.section	.debug_loc,"",%progbits
 617              	.Ldebug_loc0:
 618              	.LLST2:
 619 0000 00000000 		.4byte	.LVL0
 620 0004 20000000 		.4byte	.LVL2
 621 0008 0100     		.2byte	0x1
 622 000a 50       		.byte	0x50
 623 000b 00000000 		.4byte	0x0
 624 000f 00000000 		.4byte	0x0
 625              	.LLST4:
 626 0013 14000000 		.4byte	.LVL5
 627 0017 34000000 		.4byte	.LVL6
 628 001b 0100     		.2byte	0x1
 629 001d 53       		.byte	0x53
 630 001e 00000000 		.4byte	0x0
 631 0022 00000000 		.4byte	0x0
 632              	.LLST6:
 633 0026 12000000 		.4byte	.LVL8
 634 002a 1C000000 		.4byte	.LVL9
 635 002e 0100     		.2byte	0x1
 636 0030 50       		.byte	0x50
 637 0031 1E000000 		.4byte	.LVL10
 638 0035 26000000 		.4byte	.LVL11
 639 0039 0100     		.2byte	0x1
 640 003b 50       		.byte	0x50
 641 003c 00000000 		.4byte	0x0
 642 0040 00000000 		.4byte	0x0
 643              	.LLST7:
 644 0044 00000000 		.4byte	.LFB13
 645 0048 0C000000 		.4byte	.LCFI0
 646 004c 0100     		.2byte	0x1
 647 004e 5D       		.byte	0x5d
 648 004f 0C000000 		.4byte	.LCFI0
 649 0053 3E000000 		.4byte	.LFE13
 650 0057 0200     		.2byte	0x2
 651 0059 7D       		.byte	0x7d
 652 005a 08       		.sleb128 8
 653 005b 00000000 		.4byte	0x0
 654 005f 00000000 		.4byte	0x0
 655              	.LLST8:
 656 0063 10000000 		.4byte	.LVL13
 657 0067 3E000000 		.4byte	.LVL15
 658 006b 0100     		.2byte	0x1
 659 006d 51       		.byte	0x51
 660 006e 00000000 		.4byte	0x0
 661 0072 00000000 		.4byte	0x0
 662              	.LLST9:
 663 0076 0A000000 		.4byte	.LVL12
 664 007a 3E000000 		.4byte	.LVL15
 665 007e 0100     		.2byte	0x1
 666 0080 50       		.byte	0x50
 667 0081 00000000 		.4byte	0x0
 668 0085 00000000 		.4byte	0x0
 669              	.LLST10:
 670 0089 18000000 		.4byte	.LVL14
ARM GAS  /tmp/ccWtGeXX.s 			page 13


 671 008d 3E000000 		.4byte	.LVL15
 672 0091 0100     		.2byte	0x1
 673 0093 53       		.byte	0x53
 674 0094 00000000 		.4byte	0x0
 675 0098 00000000 		.4byte	0x0
 676              	.LLST12:
 677 009c 00000000 		.4byte	.LFB12
 678 00a0 0E000000 		.4byte	.LCFI1
 679 00a4 0100     		.2byte	0x1
 680 00a6 5D       		.byte	0x5d
 681 00a7 0E000000 		.4byte	.LCFI1
 682 00ab 58000000 		.4byte	.LFE12
 683 00af 0200     		.2byte	0x2
 684 00b1 7D       		.byte	0x7d
 685 00b2 08       		.sleb128 8
 686 00b3 00000000 		.4byte	0x0
 687 00b7 00000000 		.4byte	0x0
 688              	.LLST13:
 689 00bb 00000000 		.4byte	.LVL16
 690 00bf 58000000 		.4byte	.LVL21
 691 00c3 0100     		.2byte	0x1
 692 00c5 50       		.byte	0x50
 693 00c6 00000000 		.4byte	0x0
 694 00ca 00000000 		.4byte	0x0
 695              	.LLST14:
 696 00ce 00000000 		.4byte	.LVL16
 697 00d2 0C000000 		.4byte	.LVL17
 698 00d6 0100     		.2byte	0x1
 699 00d8 51       		.byte	0x51
 700 00d9 00000000 		.4byte	0x0
 701 00dd 00000000 		.4byte	0x0
 702              	.LLST15:
 703 00e1 1C000000 		.4byte	.LVL18
 704 00e5 30000000 		.4byte	.LVL19
 705 00e9 0100     		.2byte	0x1
 706 00eb 53       		.byte	0x53
 707 00ec 00000000 		.4byte	0x0
 708 00f0 00000000 		.4byte	0x0
 709              	.LLST16:
 710 00f4 36000000 		.4byte	.LVL20
 711 00f8 58000000 		.4byte	.LVL21
 712 00fc 0100     		.2byte	0x1
 713 00fe 52       		.byte	0x52
 714 00ff 00000000 		.4byte	0x0
 715 0103 00000000 		.4byte	0x0
 716              	.LLST17:
 717 0107 00000000 		.4byte	.LFB9
 718 010b 0C000000 		.4byte	.LCFI2
 719 010f 0100     		.2byte	0x1
 720 0111 5D       		.byte	0x5d
 721 0112 0C000000 		.4byte	.LCFI2
 722 0116 26000000 		.4byte	.LFE9
 723 011a 0200     		.2byte	0x2
 724 011c 7D       		.byte	0x7d
 725 011d 04       		.sleb128 4
 726 011e 00000000 		.4byte	0x0
 727 0122 00000000 		.4byte	0x0
ARM GAS  /tmp/ccWtGeXX.s 			page 14


 728              	.LLST18:
 729 0126 00000000 		.4byte	.LVL22
 730 012a 10000000 		.4byte	.LVL24
 731 012e 0100     		.2byte	0x1
 732 0130 50       		.byte	0x50
 733 0131 00000000 		.4byte	0x0
 734 0135 00000000 		.4byte	0x0
 735              	.LLST19:
 736 0139 0A000000 		.4byte	.LVL23
 737 013d 26000000 		.4byte	.LVL25
 738 0141 0100     		.2byte	0x1
 739 0143 51       		.byte	0x51
 740 0144 00000000 		.4byte	0x0
 741 0148 00000000 		.4byte	0x0
 742              	.LLST20:
 743 014c 10000000 		.4byte	.LVL24
 744 0150 26000000 		.4byte	.LVL25
 745 0154 0100     		.2byte	0x1
 746 0156 50       		.byte	0x50
 747 0157 00000000 		.4byte	0x0
 748 015b 00000000 		.4byte	0x0
 749              	.LLST21:
 750 015f 00000000 		.4byte	.LFB11
 751 0163 02000000 		.4byte	.LCFI3
 752 0167 0100     		.2byte	0x1
 753 0169 5D       		.byte	0x5d
 754 016a 02000000 		.4byte	.LCFI3
 755 016e 08000000 		.4byte	.LCFI4
 756 0172 0200     		.2byte	0x2
 757 0174 7D       		.byte	0x7d
 758 0175 10       		.sleb128 16
 759 0176 08000000 		.4byte	.LCFI4
 760 017a 4C000000 		.4byte	.LFE11
 761 017e 0200     		.2byte	0x2
 762 0180 7D       		.byte	0x7d
 763 0181 28       		.sleb128 40
 764 0182 00000000 		.4byte	0x0
 765 0186 00000000 		.4byte	0x0
 766              	.LLST22:
 767 018a 00000000 		.4byte	.LVL26
 768 018e 0C000000 		.4byte	.LVL27
 769 0192 0100     		.2byte	0x1
 770 0194 50       		.byte	0x50
 771 0195 0C000000 		.4byte	.LVL27
 772 0199 4C000000 		.4byte	.LFE11
 773 019d 0100     		.2byte	0x1
 774 019f 56       		.byte	0x56
 775 01a0 00000000 		.4byte	0x0
 776 01a4 00000000 		.4byte	0x0
 777              	.LLST23:
 778 01a8 00000000 		.4byte	.LVL26
 779 01ac 26000000 		.4byte	.LVL28
 780 01b0 0100     		.2byte	0x1
 781 01b2 51       		.byte	0x51
 782 01b3 3E000000 		.4byte	.LVL29
 783 01b7 46000000 		.4byte	.LVL30
 784 01bb 0100     		.2byte	0x1
ARM GAS  /tmp/ccWtGeXX.s 			page 15


 785 01bd 51       		.byte	0x51
 786 01be 00000000 		.4byte	0x0
 787 01c2 00000000 		.4byte	0x0
 788              		.file 3 "/usr/local/LPCXpresso/tools/bin/../lib/gcc/arm-none-eabi/4.4.1/../../../../arm-none-eabi/
 789              		.file 4 "../../os/ports/GCC/ARMCMx/chtypes.h"
 790              		.file 5 "../../os/kernel/include/chlists.h"
 791              		.file 6 "../../os/kernel/include/chthreads.h"
 792              		.file 7 "../../os/ports/GCC/ARMCMx/chcore.h"
 793              		.file 8 "../../os/ports/GCC/ARMCMx/chcore_v7m.h"
 794              		.file 9 "../../os/kernel/include/chvt.h"
 795              		.file 10 "../../os/kernel/include/chschd.h"
 796              		.file 11 "../../os/kernel/include/chsem.h"
 797              		.file 12 "../../os/kernel/include/chmtx.h"
 798              		.section	.debug_info
 799 0000 EF070000 		.4byte	0x7ef
 800 0004 0200     		.2byte	0x2
 801 0006 00000000 		.4byte	.Ldebug_abbrev0
 802 000a 04       		.byte	0x4
 803 000b 01       		.uleb128 0x1
 804 000c 2D000000 		.4byte	.LASF81
 805 0010 01       		.byte	0x1
 806 0011 2C030000 		.4byte	.LASF82
 807 0015 40000000 		.4byte	.LASF83
 808 0019 00000000 		.4byte	0x0
 809 001d 00000000 		.4byte	0x0
 810 0021 F8000000 		.4byte	.Ldebug_ranges0+0xf8
 811 0025 00000000 		.4byte	.Ldebug_line0
 812 0029 02       		.uleb128 0x2
 813 002a 04       		.byte	0x4
 814 002b 05       		.byte	0x5
 815 002c 696E7400 		.ascii	"int\000"
 816 0030 03       		.uleb128 0x3
 817 0031 04       		.byte	0x4
 818 0032 07       		.byte	0x7
 819 0033 0B010000 		.4byte	.LASF0
 820 0037 03       		.uleb128 0x3
 821 0038 01       		.byte	0x1
 822 0039 06       		.byte	0x6
 823 003a 79000000 		.4byte	.LASF1
 824 003e 04       		.uleb128 0x4
 825 003f 4F030000 		.4byte	.LASF5
 826 0043 03       		.byte	0x3
 827 0044 2A       		.byte	0x2a
 828 0045 49000000 		.4byte	0x49
 829 0049 03       		.uleb128 0x3
 830 004a 01       		.byte	0x1
 831 004b 08       		.byte	0x8
 832 004c F7010000 		.4byte	.LASF2
 833 0050 03       		.uleb128 0x3
 834 0051 02       		.byte	0x2
 835 0052 05       		.byte	0x5
 836 0053 18020000 		.4byte	.LASF3
 837 0057 03       		.uleb128 0x3
 838 0058 02       		.byte	0x2
 839 0059 07       		.byte	0x7
 840 005a 47010000 		.4byte	.LASF4
 841 005e 04       		.uleb128 0x4
ARM GAS  /tmp/ccWtGeXX.s 			page 16


 842 005f EF010000 		.4byte	.LASF6
 843 0063 03       		.byte	0x3
 844 0064 4F       		.byte	0x4f
 845 0065 69000000 		.4byte	0x69
 846 0069 03       		.uleb128 0x3
 847 006a 04       		.byte	0x4
 848 006b 05       		.byte	0x5
 849 006c 9C000000 		.4byte	.LASF7
 850 0070 04       		.uleb128 0x4
 851 0071 67020000 		.4byte	.LASF8
 852 0075 03       		.byte	0x3
 853 0076 50       		.byte	0x50
 854 0077 7B000000 		.4byte	0x7b
 855 007b 03       		.uleb128 0x3
 856 007c 04       		.byte	0x4
 857 007d 07       		.byte	0x7
 858 007e 27010000 		.4byte	.LASF9
 859 0082 03       		.uleb128 0x3
 860 0083 08       		.byte	0x8
 861 0084 05       		.byte	0x5
 862 0085 BD000000 		.4byte	.LASF10
 863 0089 03       		.uleb128 0x3
 864 008a 08       		.byte	0x8
 865 008b 07       		.byte	0x7
 866 008c 0D000000 		.4byte	.LASF11
 867 0090 04       		.uleb128 0x4
 868 0091 8D000000 		.4byte	.LASF12
 869 0095 04       		.byte	0x4
 870 0096 2D       		.byte	0x2d
 871 0097 5E000000 		.4byte	0x5e
 872 009b 04       		.uleb128 0x4
 873 009c 6D010000 		.4byte	.LASF13
 874 00a0 04       		.byte	0x4
 875 00a1 2E       		.byte	0x2e
 876 00a2 3E000000 		.4byte	0x3e
 877 00a6 04       		.uleb128 0x4
 878 00a7 B4000000 		.4byte	.LASF14
 879 00ab 04       		.byte	0x4
 880 00ac 2F       		.byte	0x2f
 881 00ad 3E000000 		.4byte	0x3e
 882 00b1 04       		.uleb128 0x4
 883 00b2 D8010000 		.4byte	.LASF15
 884 00b6 04       		.byte	0x4
 885 00b7 30       		.byte	0x30
 886 00b8 3E000000 		.4byte	0x3e
 887 00bc 04       		.uleb128 0x4
 888 00bd E7010000 		.4byte	.LASF16
 889 00c1 04       		.byte	0x4
 890 00c2 31       		.byte	0x31
 891 00c3 70000000 		.4byte	0x70
 892 00c7 04       		.uleb128 0x4
 893 00c8 67010000 		.4byte	.LASF17
 894 00cc 04       		.byte	0x4
 895 00cd 32       		.byte	0x32
 896 00ce 5E000000 		.4byte	0x5e
 897 00d2 04       		.uleb128 0x4
 898 00d3 81010000 		.4byte	.LASF18
ARM GAS  /tmp/ccWtGeXX.s 			page 17


 899 00d7 04       		.byte	0x4
 900 00d8 34       		.byte	0x34
 901 00d9 70000000 		.4byte	0x70
 902 00dd 04       		.uleb128 0x4
 903 00de A4020000 		.4byte	.LASF19
 904 00e2 04       		.byte	0x4
 905 00e3 35       		.byte	0x35
 906 00e4 70000000 		.4byte	0x70
 907 00e8 04       		.uleb128 0x4
 908 00e9 05010000 		.4byte	.LASF20
 909 00ed 04       		.byte	0x4
 910 00ee 36       		.byte	0x36
 911 00ef 5E000000 		.4byte	0x5e
 912 00f3 04       		.uleb128 0x4
 913 00f4 47020000 		.4byte	.LASF21
 914 00f8 05       		.byte	0x5
 915 00f9 29       		.byte	0x29
 916 00fa FE000000 		.4byte	0xfe
 917 00fe 05       		.uleb128 0x5
 918 00ff 47020000 		.4byte	.LASF21
 919 0103 44       		.byte	0x44
 920 0104 05       		.byte	0x5
 921 0105 29       		.byte	0x29
 922 0106 07020000 		.4byte	0x207
 923 010a 06       		.uleb128 0x6
 924 010b 38020000 		.4byte	.LASF22
 925 010f 06       		.byte	0x6
 926 0110 2F       		.byte	0x2f
 927 0111 2C020000 		.4byte	0x22c
 928 0115 02       		.byte	0x2
 929 0116 23       		.byte	0x23
 930 0117 00       		.uleb128 0x0
 931 0118 06       		.uleb128 0x6
 932 0119 E0010000 		.4byte	.LASF23
 933 011d 06       		.byte	0x6
 934 011e 31       		.byte	0x31
 935 011f 2C020000 		.4byte	0x22c
 936 0123 02       		.byte	0x2
 937 0124 23       		.byte	0x23
 938 0125 04       		.uleb128 0x4
 939 0126 06       		.uleb128 0x6
 940 0127 39000000 		.4byte	.LASF24
 941 012b 06       		.byte	0x6
 942 012c 33       		.byte	0x33
 943 012d BC000000 		.4byte	0xbc
 944 0131 02       		.byte	0x2
 945 0132 23       		.byte	0x23
 946 0133 08       		.uleb128 0x8
 947 0134 06       		.uleb128 0x6
 948 0135 85030000 		.4byte	.LASF25
 949 0139 06       		.byte	0x6
 950 013a 34       		.byte	0x34
 951 013b 70020000 		.4byte	0x270
 952 013f 02       		.byte	0x2
 953 0140 23       		.byte	0x23
 954 0141 0C       		.uleb128 0xc
 955 0142 06       		.uleb128 0x6
ARM GAS  /tmp/ccWtGeXX.s 			page 18


 956 0143 CB000000 		.4byte	.LASF26
 957 0147 06       		.byte	0x6
 958 0148 36       		.byte	0x36
 959 0149 2C020000 		.4byte	0x22c
 960 014d 02       		.byte	0x2
 961 014e 23       		.byte	0x23
 962 014f 10       		.uleb128 0x10
 963 0150 06       		.uleb128 0x6
 964 0151 A3010000 		.4byte	.LASF27
 965 0155 06       		.byte	0x6
 966 0156 37       		.byte	0x37
 967 0157 2C020000 		.4byte	0x22c
 968 015b 02       		.byte	0x2
 969 015c 23       		.byte	0x23
 970 015d 14       		.uleb128 0x14
 971 015e 06       		.uleb128 0x6
 972 015f 22020000 		.4byte	.LASF28
 973 0163 06       		.byte	0x6
 974 0164 3D       		.byte	0x3d
 975 0165 A6000000 		.4byte	0xa6
 976 0169 02       		.byte	0x2
 977 016a 23       		.byte	0x23
 978 016b 18       		.uleb128 0x18
 979 016c 06       		.uleb128 0x6
 980 016d 3F020000 		.4byte	.LASF29
 981 0171 06       		.byte	0x6
 982 0172 41       		.byte	0x41
 983 0173 9B000000 		.4byte	0x9b
 984 0177 02       		.byte	0x2
 985 0178 23       		.byte	0x23
 986 0179 19       		.uleb128 0x19
 987 017a 06       		.uleb128 0x6
 988 017b 1B030000 		.4byte	.LASF30
 989 017f 06       		.byte	0x6
 990 0180 46       		.byte	0x46
 991 0181 B1000000 		.4byte	0xb1
 992 0185 02       		.byte	0x2
 993 0186 23       		.byte	0x23
 994 0187 1A       		.uleb128 0x1a
 995 0188 06       		.uleb128 0x6
 996 0189 C2020000 		.4byte	.LASF31
 997 018d 06       		.byte	0x6
 998 018e 53       		.byte	0x53
 999 018f 99030000 		.4byte	0x399
 1000 0193 02       		.byte	0x2
 1001 0194 23       		.byte	0x23
 1002 0195 1C       		.uleb128 0x1c
 1003 0196 07       		.uleb128 0x7
 1004 0197 705F7500 		.ascii	"p_u\000"
 1005 019b 06       		.byte	0x6
 1006 019c 78       		.byte	0x78
 1007 019d 85040000 		.4byte	0x485
 1008 01a1 02       		.byte	0x2
 1009 01a2 23       		.byte	0x23
 1010 01a3 20       		.uleb128 0x20
 1011 01a4 06       		.uleb128 0x6
 1012 01a5 8B030000 		.4byte	.LASF32
ARM GAS  /tmp/ccWtGeXX.s 			page 19


 1013 01a9 06       		.byte	0x6
 1014 01aa 7D       		.byte	0x7d
 1015 01ab 54020000 		.4byte	0x254
 1016 01af 02       		.byte	0x2
 1017 01b0 23       		.byte	0x23
 1018 01b1 24       		.uleb128 0x24
 1019 01b2 06       		.uleb128 0x6
 1020 01b3 E7020000 		.4byte	.LASF33
 1021 01b7 06       		.byte	0x6
 1022 01b8 83       		.byte	0x83
 1023 01b9 32020000 		.4byte	0x232
 1024 01bd 02       		.byte	0x2
 1025 01be 23       		.byte	0x23
 1026 01bf 28       		.uleb128 0x28
 1027 01c0 06       		.uleb128 0x6
 1028 01c1 00000000 		.4byte	.LASF34
 1029 01c5 06       		.byte	0x6
 1030 01c6 87       		.byte	0x87
 1031 01c7 C7000000 		.4byte	0xc7
 1032 01cb 02       		.byte	0x2
 1033 01cc 23       		.byte	0x23
 1034 01cd 30       		.uleb128 0x30
 1035 01ce 06       		.uleb128 0x6
 1036 01cf 5C020000 		.4byte	.LASF35
 1037 01d3 06       		.byte	0x6
 1038 01d4 8D       		.byte	0x8d
 1039 01d5 D2000000 		.4byte	0xd2
 1040 01d9 02       		.byte	0x2
 1041 01da 23       		.byte	0x23
 1042 01db 34       		.uleb128 0x34
 1043 01dc 06       		.uleb128 0x6
 1044 01dd 0E020000 		.4byte	.LASF36
 1045 01e1 06       		.byte	0x6
 1046 01e2 94       		.byte	0x94
 1047 01e3 BA040000 		.4byte	0x4ba
 1048 01e7 02       		.byte	0x2
 1049 01e8 23       		.byte	0x23
 1050 01e9 38       		.uleb128 0x38
 1051 01ea 06       		.uleb128 0x6
 1052 01eb AE020000 		.4byte	.LASF37
 1053 01ef 06       		.byte	0x6
 1054 01f0 98       		.byte	0x98
 1055 01f1 BC000000 		.4byte	0xbc
 1056 01f5 02       		.byte	0x2
 1057 01f6 23       		.byte	0x23
 1058 01f7 3C       		.uleb128 0x3c
 1059 01f8 06       		.uleb128 0x6
 1060 01f9 85000000 		.4byte	.LASF38
 1061 01fd 06       		.byte	0x6
 1062 01fe 9E       		.byte	0x9e
 1063 01ff 6E020000 		.4byte	0x26e
 1064 0203 02       		.byte	0x2
 1065 0204 23       		.byte	0x23
 1066 0205 40       		.uleb128 0x40
 1067 0206 00       		.byte	0x0
 1068 0207 08       		.uleb128 0x8
 1069 0208 08       		.byte	0x8
ARM GAS  /tmp/ccWtGeXX.s 			page 20


 1070 0209 05       		.byte	0x5
 1071 020a 60       		.byte	0x60
 1072 020b 2C020000 		.4byte	0x22c
 1073 020f 06       		.uleb128 0x6
 1074 0210 38020000 		.4byte	.LASF22
 1075 0214 05       		.byte	0x5
 1076 0215 61       		.byte	0x61
 1077 0216 2C020000 		.4byte	0x22c
 1078 021a 02       		.byte	0x2
 1079 021b 23       		.byte	0x23
 1080 021c 00       		.uleb128 0x0
 1081 021d 06       		.uleb128 0x6
 1082 021e E0010000 		.4byte	.LASF23
 1083 0222 05       		.byte	0x5
 1084 0223 63       		.byte	0x63
 1085 0224 2C020000 		.4byte	0x22c
 1086 0228 02       		.byte	0x2
 1087 0229 23       		.byte	0x23
 1088 022a 04       		.uleb128 0x4
 1089 022b 00       		.byte	0x0
 1090 022c 09       		.uleb128 0x9
 1091 022d 04       		.byte	0x4
 1092 022e F3000000 		.4byte	0xf3
 1093 0232 04       		.uleb128 0x4
 1094 0233 B1010000 		.4byte	.LASF39
 1095 0237 05       		.byte	0x5
 1096 0238 65       		.byte	0x65
 1097 0239 07020000 		.4byte	0x207
 1098 023d 08       		.uleb128 0x8
 1099 023e 04       		.byte	0x4
 1100 023f 05       		.byte	0x5
 1101 0240 6A       		.byte	0x6a
 1102 0241 54020000 		.4byte	0x254
 1103 0245 06       		.uleb128 0x6
 1104 0246 38020000 		.4byte	.LASF22
 1105 024a 05       		.byte	0x5
 1106 024b 6C       		.byte	0x6c
 1107 024c 2C020000 		.4byte	0x22c
 1108 0250 02       		.byte	0x2
 1109 0251 23       		.byte	0x23
 1110 0252 00       		.uleb128 0x0
 1111 0253 00       		.byte	0x0
 1112 0254 04       		.uleb128 0x4
 1113 0255 75010000 		.4byte	.LASF40
 1114 0259 05       		.byte	0x5
 1115 025a 6F       		.byte	0x6f
 1116 025b 3D020000 		.4byte	0x23d
 1117 025f 0A       		.uleb128 0xa
 1118 0260 04       		.byte	0x4
 1119 0261 07       		.byte	0x7
 1120 0262 0B       		.uleb128 0xb
 1121 0263 F4000000 		.4byte	.LASF41
 1122 0267 07       		.byte	0x7
 1123 0268 0F01     		.2byte	0x10f
 1124 026a 6E020000 		.4byte	0x26e
 1125 026e 0C       		.uleb128 0xc
 1126 026f 04       		.byte	0x4
ARM GAS  /tmp/ccWtGeXX.s 			page 21


 1127 0270 0D       		.uleb128 0xd
 1128 0271 3F010000 		.4byte	.LASF42
 1129 0275 04       		.byte	0x4
 1130 0276 07       		.byte	0x7
 1131 0277 2B01     		.2byte	0x12b
 1132 0279 8D020000 		.4byte	0x28d
 1133 027d 0E       		.uleb128 0xe
 1134 027e 72313300 		.ascii	"r13\000"
 1135 0282 07       		.byte	0x7
 1136 0283 2C01     		.2byte	0x12c
 1137 0285 12030000 		.4byte	0x312
 1138 0289 02       		.byte	0x2
 1139 028a 23       		.byte	0x23
 1140 028b 00       		.uleb128 0x0
 1141 028c 00       		.byte	0x0
 1142 028d 0D       		.uleb128 0xd
 1143 028e E0020000 		.4byte	.LASF43
 1144 0292 24       		.byte	0x24
 1145 0293 07       		.byte	0x7
 1146 0294 2C01     		.2byte	0x12c
 1147 0296 12030000 		.4byte	0x312
 1148 029a 07       		.uleb128 0x7
 1149 029b 723400   		.ascii	"r4\000"
 1150 029e 08       		.byte	0x8
 1151 029f 37       		.byte	0x37
 1152 02a0 62020000 		.4byte	0x262
 1153 02a4 02       		.byte	0x2
 1154 02a5 23       		.byte	0x23
 1155 02a6 00       		.uleb128 0x0
 1156 02a7 07       		.uleb128 0x7
 1157 02a8 723500   		.ascii	"r5\000"
 1158 02ab 08       		.byte	0x8
 1159 02ac 38       		.byte	0x38
 1160 02ad 62020000 		.4byte	0x262
 1161 02b1 02       		.byte	0x2
 1162 02b2 23       		.byte	0x23
 1163 02b3 04       		.uleb128 0x4
 1164 02b4 07       		.uleb128 0x7
 1165 02b5 723600   		.ascii	"r6\000"
 1166 02b8 08       		.byte	0x8
 1167 02b9 39       		.byte	0x39
 1168 02ba 62020000 		.4byte	0x262
 1169 02be 02       		.byte	0x2
 1170 02bf 23       		.byte	0x23
 1171 02c0 08       		.uleb128 0x8
 1172 02c1 07       		.uleb128 0x7
 1173 02c2 723700   		.ascii	"r7\000"
 1174 02c5 08       		.byte	0x8
 1175 02c6 3B       		.byte	0x3b
 1176 02c7 62020000 		.4byte	0x262
 1177 02cb 02       		.byte	0x2
 1178 02cc 23       		.byte	0x23
 1179 02cd 0C       		.uleb128 0xc
 1180 02ce 07       		.uleb128 0x7
 1181 02cf 723800   		.ascii	"r8\000"
 1182 02d2 08       		.byte	0x8
 1183 02d3 3D       		.byte	0x3d
ARM GAS  /tmp/ccWtGeXX.s 			page 22


 1184 02d4 62020000 		.4byte	0x262
 1185 02d8 02       		.byte	0x2
 1186 02d9 23       		.byte	0x23
 1187 02da 10       		.uleb128 0x10
 1188 02db 07       		.uleb128 0x7
 1189 02dc 723900   		.ascii	"r9\000"
 1190 02df 08       		.byte	0x8
 1191 02e0 3E       		.byte	0x3e
 1192 02e1 62020000 		.4byte	0x262
 1193 02e5 02       		.byte	0x2
 1194 02e6 23       		.byte	0x23
 1195 02e7 14       		.uleb128 0x14
 1196 02e8 07       		.uleb128 0x7
 1197 02e9 72313000 		.ascii	"r10\000"
 1198 02ed 08       		.byte	0x8
 1199 02ee 3F       		.byte	0x3f
 1200 02ef 62020000 		.4byte	0x262
 1201 02f3 02       		.byte	0x2
 1202 02f4 23       		.byte	0x23
 1203 02f5 18       		.uleb128 0x18
 1204 02f6 07       		.uleb128 0x7
 1205 02f7 72313100 		.ascii	"r11\000"
 1206 02fb 08       		.byte	0x8
 1207 02fc 40       		.byte	0x40
 1208 02fd 62020000 		.4byte	0x262
 1209 0301 02       		.byte	0x2
 1210 0302 23       		.byte	0x23
 1211 0303 1C       		.uleb128 0x1c
 1212 0304 07       		.uleb128 0x7
 1213 0305 6C7200   		.ascii	"lr\000"
 1214 0308 08       		.byte	0x8
 1215 0309 41       		.byte	0x41
 1216 030a 62020000 		.4byte	0x262
 1217 030e 02       		.byte	0x2
 1218 030f 23       		.byte	0x23
 1219 0310 20       		.uleb128 0x20
 1220 0311 00       		.byte	0x0
 1221 0312 09       		.uleb128 0x9
 1222 0313 04       		.byte	0x4
 1223 0314 8D020000 		.4byte	0x28d
 1224 0318 04       		.uleb128 0x4
 1225 0319 B9020000 		.4byte	.LASF44
 1226 031d 09       		.byte	0x9
 1227 031e 3E       		.byte	0x3e
 1228 031f 23030000 		.4byte	0x323
 1229 0323 09       		.uleb128 0x9
 1230 0324 04       		.byte	0x4
 1231 0325 29030000 		.4byte	0x329
 1232 0329 0F       		.uleb128 0xf
 1233 032a 01       		.byte	0x1
 1234 032b 35030000 		.4byte	0x335
 1235 032f 10       		.uleb128 0x10
 1236 0330 6E020000 		.4byte	0x26e
 1237 0334 00       		.byte	0x0
 1238 0335 04       		.uleb128 0x4
 1239 0336 78020000 		.4byte	.LASF45
 1240 033a 09       		.byte	0x9
ARM GAS  /tmp/ccWtGeXX.s 			page 23


 1241 033b 43       		.byte	0x43
 1242 033c 40030000 		.4byte	0x340
 1243 0340 05       		.uleb128 0x5
 1244 0341 78020000 		.4byte	.LASF45
 1245 0345 14       		.byte	0x14
 1246 0346 09       		.byte	0x9
 1247 0347 43       		.byte	0x43
 1248 0348 93030000 		.4byte	0x393
 1249 034c 06       		.uleb128 0x6
 1250 034d 1F010000 		.4byte	.LASF46
 1251 0351 09       		.byte	0x9
 1252 0352 4B       		.byte	0x4b
 1253 0353 93030000 		.4byte	0x393
 1254 0357 02       		.byte	0x2
 1255 0358 23       		.byte	0x23
 1256 0359 00       		.uleb128 0x0
 1257 035a 06       		.uleb128 0x6
 1258 035b FD000000 		.4byte	.LASF47
 1259 035f 09       		.byte	0x9
 1260 0360 4D       		.byte	0x4d
 1261 0361 93030000 		.4byte	0x393
 1262 0365 02       		.byte	0x2
 1263 0366 23       		.byte	0x23
 1264 0367 04       		.uleb128 0x4
 1265 0368 06       		.uleb128 0x6
 1266 0369 93010000 		.4byte	.LASF48
 1267 036d 09       		.byte	0x9
 1268 036e 4F       		.byte	0x4f
 1269 036f DD000000 		.4byte	0xdd
 1270 0373 02       		.byte	0x2
 1271 0374 23       		.byte	0x23
 1272 0375 08       		.uleb128 0x8
 1273 0376 06       		.uleb128 0x6
 1274 0377 9B010000 		.4byte	.LASF49
 1275 037b 09       		.byte	0x9
 1276 037c 50       		.byte	0x50
 1277 037d 18030000 		.4byte	0x318
 1278 0381 02       		.byte	0x2
 1279 0382 23       		.byte	0x23
 1280 0383 0C       		.uleb128 0xc
 1281 0384 06       		.uleb128 0x6
 1282 0385 0A030000 		.4byte	.LASF50
 1283 0389 09       		.byte	0x9
 1284 038a 52       		.byte	0x52
 1285 038b 6E020000 		.4byte	0x26e
 1286 038f 02       		.byte	0x2
 1287 0390 23       		.byte	0x23
 1288 0391 10       		.uleb128 0x10
 1289 0392 00       		.byte	0x0
 1290 0393 09       		.uleb128 0x9
 1291 0394 04       		.byte	0x4
 1292 0395 35030000 		.4byte	0x335
 1293 0399 11       		.uleb128 0x11
 1294 039a DD000000 		.4byte	0xdd
 1295 039e 08       		.uleb128 0x8
 1296 039f 20       		.byte	0x20
 1297 03a0 0A       		.byte	0xa
ARM GAS  /tmp/ccWtGeXX.s 			page 24


 1298 03a1 4F       		.byte	0x4f
 1299 03a2 09040000 		.4byte	0x409
 1300 03a6 06       		.uleb128 0x6
 1301 03a7 70020000 		.4byte	.LASF51
 1302 03ab 0A       		.byte	0xa
 1303 03ac 50       		.byte	0x50
 1304 03ad 32020000 		.4byte	0x232
 1305 03b1 02       		.byte	0x2
 1306 03b2 23       		.byte	0x23
 1307 03b3 00       		.uleb128 0x0
 1308 03b4 06       		.uleb128 0x6
 1309 03b5 2A020000 		.4byte	.LASF52
 1310 03b9 0A       		.byte	0xa
 1311 03ba 51       		.byte	0x51
 1312 03bb BC000000 		.4byte	0xbc
 1313 03bf 02       		.byte	0x2
 1314 03c0 23       		.byte	0x23
 1315 03c1 08       		.uleb128 0x8
 1316 03c2 06       		.uleb128 0x6
 1317 03c3 AB010000 		.4byte	.LASF53
 1318 03c7 0A       		.byte	0xa
 1319 03c8 53       		.byte	0x53
 1320 03c9 70020000 		.4byte	0x270
 1321 03cd 02       		.byte	0x2
 1322 03ce 23       		.byte	0x23
 1323 03cf 0C       		.uleb128 0xc
 1324 03d0 06       		.uleb128 0x6
 1325 03d1 EC000000 		.4byte	.LASF54
 1326 03d5 0A       		.byte	0xa
 1327 03d6 56       		.byte	0x56
 1328 03d7 2C020000 		.4byte	0x22c
 1329 03db 02       		.byte	0x2
 1330 03dc 23       		.byte	0x23
 1331 03dd 10       		.uleb128 0x10
 1332 03de 06       		.uleb128 0x6
 1333 03df D0010000 		.4byte	.LASF55
 1334 03e3 0A       		.byte	0xa
 1335 03e4 57       		.byte	0x57
 1336 03e5 2C020000 		.4byte	0x22c
 1337 03e9 02       		.byte	0x2
 1338 03ea 23       		.byte	0x23
 1339 03eb 14       		.uleb128 0x14
 1340 03ec 06       		.uleb128 0x6
 1341 03ed 73030000 		.4byte	.LASF56
 1342 03f1 0A       		.byte	0xa
 1343 03f2 5B       		.byte	0x5b
 1344 03f3 E8000000 		.4byte	0xe8
 1345 03f7 02       		.byte	0x2
 1346 03f8 23       		.byte	0x23
 1347 03f9 18       		.uleb128 0x18
 1348 03fa 06       		.uleb128 0x6
 1349 03fb C6010000 		.4byte	.LASF57
 1350 03ff 0A       		.byte	0xa
 1351 0400 5E       		.byte	0x5e
 1352 0401 2C020000 		.4byte	0x22c
 1353 0405 02       		.byte	0x2
 1354 0406 23       		.byte	0x23
ARM GAS  /tmp/ccWtGeXX.s 			page 25


 1355 0407 1C       		.uleb128 0x1c
 1356 0408 00       		.byte	0x0
 1357 0409 04       		.uleb128 0x4
 1358 040a 22030000 		.4byte	.LASF58
 1359 040e 0A       		.byte	0xa
 1360 040f 61       		.byte	0x61
 1361 0410 9E030000 		.4byte	0x39e
 1362 0414 05       		.uleb128 0x5
 1363 0415 11030000 		.4byte	.LASF59
 1364 0419 0C       		.byte	0xc
 1365 041a 0B       		.byte	0xb
 1366 041b 2B       		.byte	0x2b
 1367 041c 3D040000 		.4byte	0x43d
 1368 0420 06       		.uleb128 0x6
 1369 0421 D3000000 		.4byte	.LASF60
 1370 0425 0B       		.byte	0xb
 1371 0426 2C       		.byte	0x2c
 1372 0427 32020000 		.4byte	0x232
 1373 042b 02       		.byte	0x2
 1374 042c 23       		.byte	0x23
 1375 042d 00       		.uleb128 0x0
 1376 042e 06       		.uleb128 0x6
 1377 042f 39010000 		.4byte	.LASF61
 1378 0433 0B       		.byte	0xb
 1379 0434 2E       		.byte	0x2e
 1380 0435 E8000000 		.4byte	0xe8
 1381 0439 02       		.byte	0x2
 1382 043a 23       		.byte	0x23
 1383 043b 08       		.uleb128 0x8
 1384 043c 00       		.byte	0x0
 1385 043d 05       		.uleb128 0x5
 1386 043e 8D010000 		.4byte	.LASF62
 1387 0442 10       		.byte	0x10
 1388 0443 0C       		.byte	0xc
 1389 0444 2B       		.byte	0x2b
 1390 0445 74040000 		.4byte	0x474
 1391 0449 06       		.uleb128 0x6
 1392 044a 94000000 		.4byte	.LASF63
 1393 044e 0C       		.byte	0xc
 1394 044f 2C       		.byte	0x2c
 1395 0450 32020000 		.4byte	0x232
 1396 0454 02       		.byte	0x2
 1397 0455 23       		.byte	0x23
 1398 0456 00       		.uleb128 0x0
 1399 0457 06       		.uleb128 0x6
 1400 0458 7D030000 		.4byte	.LASF64
 1401 045c 0C       		.byte	0xc
 1402 045d 2E       		.byte	0x2e
 1403 045e 2C020000 		.4byte	0x22c
 1404 0462 02       		.byte	0x2
 1405 0463 23       		.byte	0x23
 1406 0464 08       		.uleb128 0x8
 1407 0465 06       		.uleb128 0x6
 1408 0466 9D020000 		.4byte	.LASF65
 1409 046a 0C       		.byte	0xc
 1410 046b 30       		.byte	0x30
 1411 046c 74040000 		.4byte	0x474
ARM GAS  /tmp/ccWtGeXX.s 			page 26


 1412 0470 02       		.byte	0x2
 1413 0471 23       		.byte	0x23
 1414 0472 0C       		.uleb128 0xc
 1415 0473 00       		.byte	0x0
 1416 0474 09       		.uleb128 0x9
 1417 0475 04       		.byte	0x4
 1418 0476 3D040000 		.4byte	0x43d
 1419 047a 04       		.uleb128 0x4
 1420 047b 8D010000 		.4byte	.LASF62
 1421 047f 0C       		.byte	0xc
 1422 0480 32       		.byte	0x32
 1423 0481 3D040000 		.4byte	0x43d
 1424 0485 12       		.uleb128 0x12
 1425 0486 04       		.byte	0x4
 1426 0487 06       		.byte	0x6
 1427 0488 5A       		.byte	0x5a
 1428 0489 BA040000 		.4byte	0x4ba
 1429 048d 13       		.uleb128 0x13
 1430 048e 06000000 		.4byte	.LASF66
 1431 0492 06       		.byte	0x6
 1432 0493 61       		.byte	0x61
 1433 0494 C7000000 		.4byte	0xc7
 1434 0498 13       		.uleb128 0x13
 1435 0499 24000000 		.4byte	.LASF67
 1436 049d 06       		.byte	0x6
 1437 049e 68       		.byte	0x68
 1438 049f C7000000 		.4byte	0xc7
 1439 04a3 13       		.uleb128 0x13
 1440 04a4 57030000 		.4byte	.LASF68
 1441 04a8 06       		.byte	0x6
 1442 04a9 6F       		.byte	0x6f
 1443 04aa 6E020000 		.4byte	0x26e
 1444 04ae 13       		.uleb128 0x13
 1445 04af 31020000 		.4byte	.LASF69
 1446 04b3 06       		.byte	0x6
 1447 04b4 76       		.byte	0x76
 1448 04b5 D2000000 		.4byte	0xd2
 1449 04b9 00       		.byte	0x0
 1450 04ba 09       		.uleb128 0x9
 1451 04bb 04       		.byte	0x4
 1452 04bc 7A040000 		.4byte	0x47a
 1453 04c0 14       		.uleb128 0x14
 1454 04c1 BE010000 		.4byte	.LASF70
 1455 04c5 02       		.byte	0x2
 1456 04c6 48       		.byte	0x48
 1457 04c7 01       		.byte	0x1
 1458 04c8 2C020000 		.4byte	0x22c
 1459 04cc 03       		.byte	0x3
 1460 04cd DC040000 		.4byte	0x4dc
 1461 04d1 15       		.uleb128 0x15
 1462 04d2 747000   		.ascii	"tp\000"
 1463 04d5 02       		.byte	0x2
 1464 04d6 48       		.byte	0x48
 1465 04d7 2C020000 		.4byte	0x22c
 1466 04db 00       		.byte	0x0
 1467 04dc 16       		.uleb128 0x16
 1468 04dd 01       		.byte	0x1
ARM GAS  /tmp/ccWtGeXX.s 			page 27


 1469 04de 85020000 		.4byte	.LASF84
 1470 04e2 01       		.byte	0x1
 1471 04e3 51       		.byte	0x51
 1472 04e4 01       		.byte	0x1
 1473 04e5 2C020000 		.4byte	0x22c
 1474 04e9 01       		.byte	0x1
 1475 04ea 03050000 		.4byte	0x503
 1476 04ee 15       		.uleb128 0x15
 1477 04ef 747000   		.ascii	"tp\000"
 1478 04f2 01       		.byte	0x1
 1479 04f3 51       		.byte	0x51
 1480 04f4 2C020000 		.4byte	0x22c
 1481 04f8 17       		.uleb128 0x17
 1482 04f9 637000   		.ascii	"cp\000"
 1483 04fc 01       		.byte	0x1
 1484 04fd 52       		.byte	0x52
 1485 04fe 2C020000 		.4byte	0x22c
 1486 0502 00       		.byte	0x0
 1487 0503 14       		.uleb128 0x14
 1488 0504 91020000 		.4byte	.LASF71
 1489 0508 02       		.byte	0x2
 1490 0509 3A       		.byte	0x3a
 1491 050a 01       		.byte	0x1
 1492 050b 2C020000 		.4byte	0x22c
 1493 050f 03       		.byte	0x3
 1494 0510 2A050000 		.4byte	0x52a
 1495 0514 15       		.uleb128 0x15
 1496 0515 74717000 		.ascii	"tqp\000"
 1497 0519 02       		.byte	0x2
 1498 051a 3A       		.byte	0x3a
 1499 051b 2A050000 		.4byte	0x52a
 1500 051f 17       		.uleb128 0x17
 1501 0520 747000   		.ascii	"tp\000"
 1502 0523 02       		.byte	0x2
 1503 0524 3B       		.byte	0x3b
 1504 0525 2C020000 		.4byte	0x22c
 1505 0529 00       		.byte	0x0
 1506 052a 09       		.uleb128 0x9
 1507 052b 04       		.byte	0x4
 1508 052c 32020000 		.4byte	0x232
 1509 0530 18       		.uleb128 0x18
 1510 0531 01       		.byte	0x1
 1511 0532 A5000000 		.4byte	.LASF72
 1512 0536 01       		.byte	0x1
 1513 0537 36       		.byte	0x36
 1514 0538 01       		.byte	0x1
 1515 0539 00000000 		.4byte	.LFB7
 1516 053d 1A000000 		.4byte	.LFE7
 1517 0541 01       		.byte	0x1
 1518 0542 5D       		.byte	0x5d
 1519 0543 19       		.uleb128 0x19
 1520 0544 DC040000 		.4byte	0x4dc
 1521 0548 00000000 		.4byte	.LFB8
 1522 054c 22000000 		.4byte	.LFE8
 1523 0550 01       		.byte	0x1
 1524 0551 5D       		.byte	0x5d
 1525 0552 67050000 		.4byte	0x567
ARM GAS  /tmp/ccWtGeXX.s 			page 28


 1526 0556 1A       		.uleb128 0x1a
 1527 0557 EE040000 		.4byte	0x4ee
 1528 055b 00000000 		.4byte	.LLST2
 1529 055f 1B       		.uleb128 0x1b
 1530 0560 F8040000 		.4byte	0x4f8
 1531 0564 01       		.byte	0x1
 1532 0565 53       		.byte	0x53
 1533 0566 00       		.byte	0x0
 1534 0567 1C       		.uleb128 0x1c
 1535 0568 18010000 		.4byte	.LASF85
 1536 056c 01       		.byte	0x1
 1537 056d 83       		.byte	0x83
 1538 056e 01       		.byte	0x1
 1539 056f 00000000 		.4byte	.LFB10
 1540 0573 48000000 		.4byte	.LFE10
 1541 0577 01       		.byte	0x1
 1542 0578 5D       		.byte	0x5d
 1543 0579 D2050000 		.4byte	0x5d2
 1544 057d 1D       		.uleb128 0x1d
 1545 057e 7000     		.ascii	"p\000"
 1546 0580 01       		.byte	0x1
 1547 0581 83       		.byte	0x83
 1548 0582 6E020000 		.4byte	0x26e
 1549 0586 01       		.byte	0x1
 1550 0587 50       		.byte	0x50
 1551 0588 1E       		.uleb128 0x1e
 1552 0589 747000   		.ascii	"tp\000"
 1553 058c 01       		.byte	0x1
 1554 058d 84       		.byte	0x84
 1555 058e 2C020000 		.4byte	0x22c
 1556 0592 01       		.byte	0x1
 1557 0593 50       		.byte	0x50
 1558 0594 1F       		.uleb128 0x1f
 1559 0595 DC040000 		.4byte	0x4dc
 1560 0599 10000000 		.4byte	.LBB17
 1561 059d 00000000 		.4byte	.Ldebug_ranges0+0x0
 1562 05a1 01       		.byte	0x1
 1563 05a2 99       		.byte	0x99
 1564 05a3 BC050000 		.4byte	0x5bc
 1565 05a7 20       		.uleb128 0x20
 1566 05a8 56050000 		.4byte	0x556
 1567 05ac 21       		.uleb128 0x21
 1568 05ad 18000000 		.4byte	.Ldebug_ranges0+0x18
 1569 05b1 22       		.uleb128 0x22
 1570 05b2 F8040000 		.4byte	0x4f8
 1571 05b6 13000000 		.4byte	.LLST4
 1572 05ba 00       		.byte	0x0
 1573 05bb 00       		.byte	0x0
 1574 05bc 23       		.uleb128 0x23
 1575 05bd C0040000 		.4byte	0x4c0
 1576 05c1 3C000000 		.4byte	.LBB21
 1577 05c5 48000000 		.4byte	.LBE21
 1578 05c9 01       		.byte	0x1
 1579 05ca 95       		.byte	0x95
 1580 05cb 20       		.uleb128 0x20
 1581 05cc D1040000 		.4byte	0x4d1
 1582 05d0 00       		.byte	0x0
ARM GAS  /tmp/ccWtGeXX.s 			page 29


 1583 05d1 00       		.byte	0x0
 1584 05d2 24       		.uleb128 0x24
 1585 05d3 01       		.byte	0x1
 1586 05d4 C9020000 		.4byte	.LASF78
 1587 05d8 01       		.byte	0x1
 1588 05d9 1D01     		.2byte	0x11d
 1589 05db 01       		.byte	0x1
 1590 05dc 90000000 		.4byte	0x90
 1591 05e0 00000000 		.4byte	.LFB15
 1592 05e4 28000000 		.4byte	.LFE15
 1593 05e8 01       		.byte	0x1
 1594 05e9 5D       		.byte	0x5d
 1595 05ea 0B060000 		.4byte	0x60b
 1596 05ee 25       		.uleb128 0x25
 1597 05ef 703100   		.ascii	"p1\000"
 1598 05f2 01       		.byte	0x1
 1599 05f3 1E01     		.2byte	0x11e
 1600 05f5 BC000000 		.4byte	0xbc
 1601 05f9 26000000 		.4byte	.LLST6
 1602 05fd 26       		.uleb128 0x26
 1603 05fe 703200   		.ascii	"p2\000"
 1604 0601 01       		.byte	0x1
 1605 0602 1F01     		.2byte	0x11f
 1606 0604 BC000000 		.4byte	0xbc
 1607 0608 01       		.byte	0x1
 1608 0609 53       		.byte	0x53
 1609 060a 00       		.byte	0x0
 1610 060b 27       		.uleb128 0x27
 1611 060c 01       		.byte	0x1
 1612 060d F7020000 		.4byte	.LASF74
 1613 0611 01       		.byte	0x1
 1614 0612 F1       		.byte	0xf1
 1615 0613 01       		.byte	0x1
 1616 0614 00000000 		.4byte	.LFB13
 1617 0618 3E000000 		.4byte	.LFE13
 1618 061c 44000000 		.4byte	.LLST7
 1619 0620 84060000 		.4byte	0x684
 1620 0624 28       		.uleb128 0x28
 1621 0625 6F747000 		.ascii	"otp\000"
 1622 0629 01       		.byte	0x1
 1623 062a F2       		.byte	0xf2
 1624 062b 2C020000 		.4byte	0x22c
 1625 062f 63000000 		.4byte	.LLST8
 1626 0633 1F       		.uleb128 0x1f
 1627 0634 03050000 		.4byte	0x503
 1628 0638 08000000 		.4byte	.LBB23
 1629 063c 30000000 		.4byte	.Ldebug_ranges0+0x30
 1630 0640 01       		.byte	0x1
 1631 0641 F9       		.byte	0xf9
 1632 0642 5B060000 		.4byte	0x65b
 1633 0646 20       		.uleb128 0x20
 1634 0647 14050000 		.4byte	0x514
 1635 064b 21       		.uleb128 0x21
 1636 064c 50000000 		.4byte	.Ldebug_ranges0+0x50
 1637 0650 22       		.uleb128 0x22
 1638 0651 1F050000 		.4byte	0x51f
 1639 0655 76000000 		.4byte	.LLST9
ARM GAS  /tmp/ccWtGeXX.s 			page 30


 1640 0659 00       		.byte	0x0
 1641 065a 00       		.byte	0x0
 1642 065b 23       		.uleb128 0x23
 1643 065c DC040000 		.4byte	0x4dc
 1644 0660 20000000 		.4byte	.LBB29
 1645 0664 38000000 		.4byte	.LBE29
 1646 0668 01       		.byte	0x1
 1647 0669 FB       		.byte	0xfb
 1648 066a 20       		.uleb128 0x20
 1649 066b 56050000 		.4byte	0x556
 1650 066f 29       		.uleb128 0x29
 1651 0670 20000000 		.4byte	.LBB30
 1652 0674 38000000 		.4byte	.LBE30
 1653 0678 22       		.uleb128 0x22
 1654 0679 F8040000 		.4byte	0x4f8
 1655 067d 89000000 		.4byte	.LLST10
 1656 0681 00       		.byte	0x0
 1657 0682 00       		.byte	0x0
 1658 0683 00       		.byte	0x0
 1659 0684 2A       		.uleb128 0x2a
 1660 0685 01       		.byte	0x1
 1661 0686 DB000000 		.4byte	.LASF73
 1662 068a 01       		.byte	0x1
 1663 068b 0901     		.2byte	0x109
 1664 068d 01       		.byte	0x1
 1665 068e 00000000 		.4byte	.LFB14
 1666 0692 1A000000 		.4byte	.LFE14
 1667 0696 01       		.byte	0x1
 1668 0697 5D       		.byte	0x5d
 1669 0698 27       		.uleb128 0x27
 1670 0699 01       		.byte	0x1
 1671 069a 5A010000 		.4byte	.LASF75
 1672 069e 01       		.byte	0x1
 1673 069f D3       		.byte	0xd3
 1674 06a0 01       		.byte	0x1
 1675 06a1 00000000 		.4byte	.LFB12
 1676 06a5 58000000 		.4byte	.LFE12
 1677 06a9 9C000000 		.4byte	.LLST12
 1678 06ad 31070000 		.4byte	0x731
 1679 06b1 2B       		.uleb128 0x2b
 1680 06b2 6E747000 		.ascii	"ntp\000"
 1681 06b6 01       		.byte	0x1
 1682 06b7 D3       		.byte	0xd3
 1683 06b8 2C020000 		.4byte	0x22c
 1684 06bc BB000000 		.4byte	.LLST13
 1685 06c0 2B       		.uleb128 0x2b
 1686 06c1 6D736700 		.ascii	"msg\000"
 1687 06c5 01       		.byte	0x1
 1688 06c6 D3       		.byte	0xd3
 1689 06c7 C7000000 		.4byte	0xc7
 1690 06cb CE000000 		.4byte	.LLST14
 1691 06cf 2C       		.uleb128 0x2c
 1692 06d0 DC040000 		.4byte	0x4dc
 1693 06d4 16000000 		.4byte	.LBB31
 1694 06d8 2C000000 		.4byte	.LBE31
 1695 06dc 01       		.byte	0x1
 1696 06dd DB       		.byte	0xdb
ARM GAS  /tmp/ccWtGeXX.s 			page 31


 1697 06de FB060000 		.4byte	0x6fb
 1698 06e2 20       		.uleb128 0x20
 1699 06e3 56050000 		.4byte	0x556
 1700 06e7 29       		.uleb128 0x29
 1701 06e8 16000000 		.4byte	.LBB32
 1702 06ec 2C000000 		.4byte	.LBE32
 1703 06f0 22       		.uleb128 0x22
 1704 06f1 F8040000 		.4byte	0x4f8
 1705 06f5 E1000000 		.4byte	.LLST15
 1706 06f9 00       		.byte	0x0
 1707 06fa 00       		.byte	0x0
 1708 06fb 21       		.uleb128 0x21
 1709 06fc 70000000 		.4byte	.Ldebug_ranges0+0x70
 1710 0700 17       		.uleb128 0x17
 1711 0701 6F747000 		.ascii	"otp\000"
 1712 0705 01       		.byte	0x1
 1713 0706 DD       		.byte	0xdd
 1714 0707 2C020000 		.4byte	0x22c
 1715 070b 2D       		.uleb128 0x2d
 1716 070c DC040000 		.4byte	0x4dc
 1717 0710 30000000 		.4byte	.LBB35
 1718 0714 88000000 		.4byte	.Ldebug_ranges0+0x88
 1719 0718 01       		.byte	0x1
 1720 0719 DD       		.byte	0xdd
 1721 071a 20       		.uleb128 0x20
 1722 071b 56050000 		.4byte	0x556
 1723 071f 21       		.uleb128 0x21
 1724 0720 A0000000 		.4byte	.Ldebug_ranges0+0xa0
 1725 0724 22       		.uleb128 0x22
 1726 0725 F8040000 		.4byte	0x4f8
 1727 0729 F4000000 		.4byte	.LLST16
 1728 072d 00       		.byte	0x0
 1729 072e 00       		.byte	0x0
 1730 072f 00       		.byte	0x0
 1731 0730 00       		.byte	0x0
 1732 0731 27       		.uleb128 0x27
 1733 0732 01       		.byte	0x1
 1734 0733 4E020000 		.4byte	.LASF76
 1735 0737 01       		.byte	0x1
 1736 0738 71       		.byte	0x71
 1737 0739 01       		.byte	0x1
 1738 073a 00000000 		.4byte	.LFB9
 1739 073e 26000000 		.4byte	.LFE9
 1740 0742 07010000 		.4byte	.LLST17
 1741 0746 8D070000 		.4byte	0x78d
 1742 074a 2E       		.uleb128 0x2e
 1743 074b 05020000 		.4byte	.LASF77
 1744 074f 01       		.byte	0x1
 1745 0750 71       		.byte	0x71
 1746 0751 A6000000 		.4byte	0xa6
 1747 0755 26010000 		.4byte	.LLST18
 1748 0759 28       		.uleb128 0x28
 1749 075a 6F747000 		.ascii	"otp\000"
 1750 075e 01       		.byte	0x1
 1751 075f 72       		.byte	0x72
 1752 0760 2C020000 		.4byte	0x22c
 1753 0764 39010000 		.4byte	.LLST19
ARM GAS  /tmp/ccWtGeXX.s 			page 32


 1754 0768 2D       		.uleb128 0x2d
 1755 0769 03050000 		.4byte	0x503
 1756 076d 0E000000 		.4byte	.LBB39
 1757 0771 B8000000 		.4byte	.Ldebug_ranges0+0xb8
 1758 0775 01       		.byte	0x1
 1759 0776 78       		.byte	0x78
 1760 0777 20       		.uleb128 0x20
 1761 0778 14050000 		.4byte	0x514
 1762 077c 21       		.uleb128 0x21
 1763 077d D8000000 		.4byte	.Ldebug_ranges0+0xd8
 1764 0781 22       		.uleb128 0x22
 1765 0782 1F050000 		.4byte	0x51f
 1766 0786 4C010000 		.4byte	.LLST20
 1767 078a 00       		.byte	0x0
 1768 078b 00       		.byte	0x0
 1769 078c 00       		.byte	0x0
 1770 078d 2F       		.uleb128 0x2f
 1771 078e 01       		.byte	0x1
 1772 078f 5E030000 		.4byte	.LASF79
 1773 0793 01       		.byte	0x1
 1774 0794 B1       		.byte	0xb1
 1775 0795 01       		.byte	0x1
 1776 0796 C7000000 		.4byte	0xc7
 1777 079a 00000000 		.4byte	.LFB11
 1778 079e 4C000000 		.4byte	.LFE11
 1779 07a2 5F010000 		.4byte	.LLST21
 1780 07a6 E0070000 		.4byte	0x7e0
 1781 07aa 2E       		.uleb128 0x2e
 1782 07ab 05020000 		.4byte	.LASF77
 1783 07af 01       		.byte	0x1
 1784 07b0 B1       		.byte	0xb1
 1785 07b1 A6000000 		.4byte	0xa6
 1786 07b5 8A010000 		.4byte	.LLST22
 1787 07b9 2E       		.uleb128 0x2e
 1788 07ba F2020000 		.4byte	.LASF80
 1789 07be 01       		.byte	0x1
 1790 07bf B1       		.byte	0xb1
 1791 07c0 DD000000 		.4byte	0xdd
 1792 07c4 A8010000 		.4byte	.LLST23
 1793 07c8 29       		.uleb128 0x29
 1794 07c9 0C000000 		.4byte	.LBB45
 1795 07cd 36000000 		.4byte	.LBE45
 1796 07d1 1E       		.uleb128 0x1e
 1797 07d2 767400   		.ascii	"vt\000"
 1798 07d5 01       		.byte	0x1
 1799 07d6 B4       		.byte	0xb4
 1800 07d7 35030000 		.4byte	0x335
 1801 07db 02       		.byte	0x2
 1802 07dc 91       		.byte	0x91
 1803 07dd 5C       		.sleb128 -36
 1804 07de 00       		.byte	0x0
 1805 07df 00       		.byte	0x0
 1806 07e0 30       		.uleb128 0x30
 1807 07e1 49030000 		.4byte	.LASF86
 1808 07e5 01       		.byte	0x1
 1809 07e6 2E       		.byte	0x2e
 1810 07e7 09040000 		.4byte	0x409
ARM GAS  /tmp/ccWtGeXX.s 			page 33


 1811 07eb 01       		.byte	0x1
 1812 07ec 05       		.byte	0x5
 1813 07ed 03       		.byte	0x3
 1814 07ee 00000000 		.4byte	rlist
 1815 07f2 00       		.byte	0x0
 1816              		.section	.debug_abbrev
 1817 0000 01       		.uleb128 0x1
 1818 0001 11       		.uleb128 0x11
 1819 0002 01       		.byte	0x1
 1820 0003 25       		.uleb128 0x25
 1821 0004 0E       		.uleb128 0xe
 1822 0005 13       		.uleb128 0x13
 1823 0006 0B       		.uleb128 0xb
 1824 0007 03       		.uleb128 0x3
 1825 0008 0E       		.uleb128 0xe
 1826 0009 1B       		.uleb128 0x1b
 1827 000a 0E       		.uleb128 0xe
 1828 000b 11       		.uleb128 0x11
 1829 000c 01       		.uleb128 0x1
 1830 000d 52       		.uleb128 0x52
 1831 000e 01       		.uleb128 0x1
 1832 000f 55       		.uleb128 0x55
 1833 0010 06       		.uleb128 0x6
 1834 0011 10       		.uleb128 0x10
 1835 0012 06       		.uleb128 0x6
 1836 0013 00       		.byte	0x0
 1837 0014 00       		.byte	0x0
 1838 0015 02       		.uleb128 0x2
 1839 0016 24       		.uleb128 0x24
 1840 0017 00       		.byte	0x0
 1841 0018 0B       		.uleb128 0xb
 1842 0019 0B       		.uleb128 0xb
 1843 001a 3E       		.uleb128 0x3e
 1844 001b 0B       		.uleb128 0xb
 1845 001c 03       		.uleb128 0x3
 1846 001d 08       		.uleb128 0x8
 1847 001e 00       		.byte	0x0
 1848 001f 00       		.byte	0x0
 1849 0020 03       		.uleb128 0x3
 1850 0021 24       		.uleb128 0x24
 1851 0022 00       		.byte	0x0
 1852 0023 0B       		.uleb128 0xb
 1853 0024 0B       		.uleb128 0xb
 1854 0025 3E       		.uleb128 0x3e
 1855 0026 0B       		.uleb128 0xb
 1856 0027 03       		.uleb128 0x3
 1857 0028 0E       		.uleb128 0xe
 1858 0029 00       		.byte	0x0
 1859 002a 00       		.byte	0x0
 1860 002b 04       		.uleb128 0x4
 1861 002c 16       		.uleb128 0x16
 1862 002d 00       		.byte	0x0
 1863 002e 03       		.uleb128 0x3
 1864 002f 0E       		.uleb128 0xe
 1865 0030 3A       		.uleb128 0x3a
 1866 0031 0B       		.uleb128 0xb
 1867 0032 3B       		.uleb128 0x3b
ARM GAS  /tmp/ccWtGeXX.s 			page 34


 1868 0033 0B       		.uleb128 0xb
 1869 0034 49       		.uleb128 0x49
 1870 0035 13       		.uleb128 0x13
 1871 0036 00       		.byte	0x0
 1872 0037 00       		.byte	0x0
 1873 0038 05       		.uleb128 0x5
 1874 0039 13       		.uleb128 0x13
 1875 003a 01       		.byte	0x1
 1876 003b 03       		.uleb128 0x3
 1877 003c 0E       		.uleb128 0xe
 1878 003d 0B       		.uleb128 0xb
 1879 003e 0B       		.uleb128 0xb
 1880 003f 3A       		.uleb128 0x3a
 1881 0040 0B       		.uleb128 0xb
 1882 0041 3B       		.uleb128 0x3b
 1883 0042 0B       		.uleb128 0xb
 1884 0043 01       		.uleb128 0x1
 1885 0044 13       		.uleb128 0x13
 1886 0045 00       		.byte	0x0
 1887 0046 00       		.byte	0x0
 1888 0047 06       		.uleb128 0x6
 1889 0048 0D       		.uleb128 0xd
 1890 0049 00       		.byte	0x0
 1891 004a 03       		.uleb128 0x3
 1892 004b 0E       		.uleb128 0xe
 1893 004c 3A       		.uleb128 0x3a
 1894 004d 0B       		.uleb128 0xb
 1895 004e 3B       		.uleb128 0x3b
 1896 004f 0B       		.uleb128 0xb
 1897 0050 49       		.uleb128 0x49
 1898 0051 13       		.uleb128 0x13
 1899 0052 38       		.uleb128 0x38
 1900 0053 0A       		.uleb128 0xa
 1901 0054 00       		.byte	0x0
 1902 0055 00       		.byte	0x0
 1903 0056 07       		.uleb128 0x7
 1904 0057 0D       		.uleb128 0xd
 1905 0058 00       		.byte	0x0
 1906 0059 03       		.uleb128 0x3
 1907 005a 08       		.uleb128 0x8
 1908 005b 3A       		.uleb128 0x3a
 1909 005c 0B       		.uleb128 0xb
 1910 005d 3B       		.uleb128 0x3b
 1911 005e 0B       		.uleb128 0xb
 1912 005f 49       		.uleb128 0x49
 1913 0060 13       		.uleb128 0x13
 1914 0061 38       		.uleb128 0x38
 1915 0062 0A       		.uleb128 0xa
 1916 0063 00       		.byte	0x0
 1917 0064 00       		.byte	0x0
 1918 0065 08       		.uleb128 0x8
 1919 0066 13       		.uleb128 0x13
 1920 0067 01       		.byte	0x1
 1921 0068 0B       		.uleb128 0xb
 1922 0069 0B       		.uleb128 0xb
 1923 006a 3A       		.uleb128 0x3a
 1924 006b 0B       		.uleb128 0xb
ARM GAS  /tmp/ccWtGeXX.s 			page 35


 1925 006c 3B       		.uleb128 0x3b
 1926 006d 0B       		.uleb128 0xb
 1927 006e 01       		.uleb128 0x1
 1928 006f 13       		.uleb128 0x13
 1929 0070 00       		.byte	0x0
 1930 0071 00       		.byte	0x0
 1931 0072 09       		.uleb128 0x9
 1932 0073 0F       		.uleb128 0xf
 1933 0074 00       		.byte	0x0
 1934 0075 0B       		.uleb128 0xb
 1935 0076 0B       		.uleb128 0xb
 1936 0077 49       		.uleb128 0x49
 1937 0078 13       		.uleb128 0x13
 1938 0079 00       		.byte	0x0
 1939 007a 00       		.byte	0x0
 1940 007b 0A       		.uleb128 0xa
 1941 007c 24       		.uleb128 0x24
 1942 007d 00       		.byte	0x0
 1943 007e 0B       		.uleb128 0xb
 1944 007f 0B       		.uleb128 0xb
 1945 0080 3E       		.uleb128 0x3e
 1946 0081 0B       		.uleb128 0xb
 1947 0082 00       		.byte	0x0
 1948 0083 00       		.byte	0x0
 1949 0084 0B       		.uleb128 0xb
 1950 0085 16       		.uleb128 0x16
 1951 0086 00       		.byte	0x0
 1952 0087 03       		.uleb128 0x3
 1953 0088 0E       		.uleb128 0xe
 1954 0089 3A       		.uleb128 0x3a
 1955 008a 0B       		.uleb128 0xb
 1956 008b 3B       		.uleb128 0x3b
 1957 008c 05       		.uleb128 0x5
 1958 008d 49       		.uleb128 0x49
 1959 008e 13       		.uleb128 0x13
 1960 008f 00       		.byte	0x0
 1961 0090 00       		.byte	0x0
 1962 0091 0C       		.uleb128 0xc
 1963 0092 0F       		.uleb128 0xf
 1964 0093 00       		.byte	0x0
 1965 0094 0B       		.uleb128 0xb
 1966 0095 0B       		.uleb128 0xb
 1967 0096 00       		.byte	0x0
 1968 0097 00       		.byte	0x0
 1969 0098 0D       		.uleb128 0xd
 1970 0099 13       		.uleb128 0x13
 1971 009a 01       		.byte	0x1
 1972 009b 03       		.uleb128 0x3
 1973 009c 0E       		.uleb128 0xe
 1974 009d 0B       		.uleb128 0xb
 1975 009e 0B       		.uleb128 0xb
 1976 009f 3A       		.uleb128 0x3a
 1977 00a0 0B       		.uleb128 0xb
 1978 00a1 3B       		.uleb128 0x3b
 1979 00a2 05       		.uleb128 0x5
 1980 00a3 01       		.uleb128 0x1
 1981 00a4 13       		.uleb128 0x13
ARM GAS  /tmp/ccWtGeXX.s 			page 36


 1982 00a5 00       		.byte	0x0
 1983 00a6 00       		.byte	0x0
 1984 00a7 0E       		.uleb128 0xe
 1985 00a8 0D       		.uleb128 0xd
 1986 00a9 00       		.byte	0x0
 1987 00aa 03       		.uleb128 0x3
 1988 00ab 08       		.uleb128 0x8
 1989 00ac 3A       		.uleb128 0x3a
 1990 00ad 0B       		.uleb128 0xb
 1991 00ae 3B       		.uleb128 0x3b
 1992 00af 05       		.uleb128 0x5
 1993 00b0 49       		.uleb128 0x49
 1994 00b1 13       		.uleb128 0x13
 1995 00b2 38       		.uleb128 0x38
 1996 00b3 0A       		.uleb128 0xa
 1997 00b4 00       		.byte	0x0
 1998 00b5 00       		.byte	0x0
 1999 00b6 0F       		.uleb128 0xf
 2000 00b7 15       		.uleb128 0x15
 2001 00b8 01       		.byte	0x1
 2002 00b9 27       		.uleb128 0x27
 2003 00ba 0C       		.uleb128 0xc
 2004 00bb 01       		.uleb128 0x1
 2005 00bc 13       		.uleb128 0x13
 2006 00bd 00       		.byte	0x0
 2007 00be 00       		.byte	0x0
 2008 00bf 10       		.uleb128 0x10
 2009 00c0 05       		.uleb128 0x5
 2010 00c1 00       		.byte	0x0
 2011 00c2 49       		.uleb128 0x49
 2012 00c3 13       		.uleb128 0x13
 2013 00c4 00       		.byte	0x0
 2014 00c5 00       		.byte	0x0
 2015 00c6 11       		.uleb128 0x11
 2016 00c7 35       		.uleb128 0x35
 2017 00c8 00       		.byte	0x0
 2018 00c9 49       		.uleb128 0x49
 2019 00ca 13       		.uleb128 0x13
 2020 00cb 00       		.byte	0x0
 2021 00cc 00       		.byte	0x0
 2022 00cd 12       		.uleb128 0x12
 2023 00ce 17       		.uleb128 0x17
 2024 00cf 01       		.byte	0x1
 2025 00d0 0B       		.uleb128 0xb
 2026 00d1 0B       		.uleb128 0xb
 2027 00d2 3A       		.uleb128 0x3a
 2028 00d3 0B       		.uleb128 0xb
 2029 00d4 3B       		.uleb128 0x3b
 2030 00d5 0B       		.uleb128 0xb
 2031 00d6 01       		.uleb128 0x1
 2032 00d7 13       		.uleb128 0x13
 2033 00d8 00       		.byte	0x0
 2034 00d9 00       		.byte	0x0
 2035 00da 13       		.uleb128 0x13
 2036 00db 0D       		.uleb128 0xd
 2037 00dc 00       		.byte	0x0
 2038 00dd 03       		.uleb128 0x3
ARM GAS  /tmp/ccWtGeXX.s 			page 37


 2039 00de 0E       		.uleb128 0xe
 2040 00df 3A       		.uleb128 0x3a
 2041 00e0 0B       		.uleb128 0xb
 2042 00e1 3B       		.uleb128 0x3b
 2043 00e2 0B       		.uleb128 0xb
 2044 00e3 49       		.uleb128 0x49
 2045 00e4 13       		.uleb128 0x13
 2046 00e5 00       		.byte	0x0
 2047 00e6 00       		.byte	0x0
 2048 00e7 14       		.uleb128 0x14
 2049 00e8 2E       		.uleb128 0x2e
 2050 00e9 01       		.byte	0x1
 2051 00ea 03       		.uleb128 0x3
 2052 00eb 0E       		.uleb128 0xe
 2053 00ec 3A       		.uleb128 0x3a
 2054 00ed 0B       		.uleb128 0xb
 2055 00ee 3B       		.uleb128 0x3b
 2056 00ef 0B       		.uleb128 0xb
 2057 00f0 27       		.uleb128 0x27
 2058 00f1 0C       		.uleb128 0xc
 2059 00f2 49       		.uleb128 0x49
 2060 00f3 13       		.uleb128 0x13
 2061 00f4 20       		.uleb128 0x20
 2062 00f5 0B       		.uleb128 0xb
 2063 00f6 01       		.uleb128 0x1
 2064 00f7 13       		.uleb128 0x13
 2065 00f8 00       		.byte	0x0
 2066 00f9 00       		.byte	0x0
 2067 00fa 15       		.uleb128 0x15
 2068 00fb 05       		.uleb128 0x5
 2069 00fc 00       		.byte	0x0
 2070 00fd 03       		.uleb128 0x3
 2071 00fe 08       		.uleb128 0x8
 2072 00ff 3A       		.uleb128 0x3a
 2073 0100 0B       		.uleb128 0xb
 2074 0101 3B       		.uleb128 0x3b
 2075 0102 0B       		.uleb128 0xb
 2076 0103 49       		.uleb128 0x49
 2077 0104 13       		.uleb128 0x13
 2078 0105 00       		.byte	0x0
 2079 0106 00       		.byte	0x0
 2080 0107 16       		.uleb128 0x16
 2081 0108 2E       		.uleb128 0x2e
 2082 0109 01       		.byte	0x1
 2083 010a 3F       		.uleb128 0x3f
 2084 010b 0C       		.uleb128 0xc
 2085 010c 03       		.uleb128 0x3
 2086 010d 0E       		.uleb128 0xe
 2087 010e 3A       		.uleb128 0x3a
 2088 010f 0B       		.uleb128 0xb
 2089 0110 3B       		.uleb128 0x3b
 2090 0111 0B       		.uleb128 0xb
 2091 0112 27       		.uleb128 0x27
 2092 0113 0C       		.uleb128 0xc
 2093 0114 49       		.uleb128 0x49
 2094 0115 13       		.uleb128 0x13
 2095 0116 20       		.uleb128 0x20
ARM GAS  /tmp/ccWtGeXX.s 			page 38


 2096 0117 0B       		.uleb128 0xb
 2097 0118 01       		.uleb128 0x1
 2098 0119 13       		.uleb128 0x13
 2099 011a 00       		.byte	0x0
 2100 011b 00       		.byte	0x0
 2101 011c 17       		.uleb128 0x17
 2102 011d 34       		.uleb128 0x34
 2103 011e 00       		.byte	0x0
 2104 011f 03       		.uleb128 0x3
 2105 0120 08       		.uleb128 0x8
 2106 0121 3A       		.uleb128 0x3a
 2107 0122 0B       		.uleb128 0xb
 2108 0123 3B       		.uleb128 0x3b
 2109 0124 0B       		.uleb128 0xb
 2110 0125 49       		.uleb128 0x49
 2111 0126 13       		.uleb128 0x13
 2112 0127 00       		.byte	0x0
 2113 0128 00       		.byte	0x0
 2114 0129 18       		.uleb128 0x18
 2115 012a 2E       		.uleb128 0x2e
 2116 012b 00       		.byte	0x0
 2117 012c 3F       		.uleb128 0x3f
 2118 012d 0C       		.uleb128 0xc
 2119 012e 03       		.uleb128 0x3
 2120 012f 0E       		.uleb128 0xe
 2121 0130 3A       		.uleb128 0x3a
 2122 0131 0B       		.uleb128 0xb
 2123 0132 3B       		.uleb128 0x3b
 2124 0133 0B       		.uleb128 0xb
 2125 0134 27       		.uleb128 0x27
 2126 0135 0C       		.uleb128 0xc
 2127 0136 11       		.uleb128 0x11
 2128 0137 01       		.uleb128 0x1
 2129 0138 12       		.uleb128 0x12
 2130 0139 01       		.uleb128 0x1
 2131 013a 40       		.uleb128 0x40
 2132 013b 0A       		.uleb128 0xa
 2133 013c 00       		.byte	0x0
 2134 013d 00       		.byte	0x0
 2135 013e 19       		.uleb128 0x19
 2136 013f 2E       		.uleb128 0x2e
 2137 0140 01       		.byte	0x1
 2138 0141 31       		.uleb128 0x31
 2139 0142 13       		.uleb128 0x13
 2140 0143 11       		.uleb128 0x11
 2141 0144 01       		.uleb128 0x1
 2142 0145 12       		.uleb128 0x12
 2143 0146 01       		.uleb128 0x1
 2144 0147 40       		.uleb128 0x40
 2145 0148 0A       		.uleb128 0xa
 2146 0149 01       		.uleb128 0x1
 2147 014a 13       		.uleb128 0x13
 2148 014b 00       		.byte	0x0
 2149 014c 00       		.byte	0x0
 2150 014d 1A       		.uleb128 0x1a
 2151 014e 05       		.uleb128 0x5
 2152 014f 00       		.byte	0x0
ARM GAS  /tmp/ccWtGeXX.s 			page 39


 2153 0150 31       		.uleb128 0x31
 2154 0151 13       		.uleb128 0x13
 2155 0152 02       		.uleb128 0x2
 2156 0153 06       		.uleb128 0x6
 2157 0154 00       		.byte	0x0
 2158 0155 00       		.byte	0x0
 2159 0156 1B       		.uleb128 0x1b
 2160 0157 34       		.uleb128 0x34
 2161 0158 00       		.byte	0x0
 2162 0159 31       		.uleb128 0x31
 2163 015a 13       		.uleb128 0x13
 2164 015b 02       		.uleb128 0x2
 2165 015c 0A       		.uleb128 0xa
 2166 015d 00       		.byte	0x0
 2167 015e 00       		.byte	0x0
 2168 015f 1C       		.uleb128 0x1c
 2169 0160 2E       		.uleb128 0x2e
 2170 0161 01       		.byte	0x1
 2171 0162 03       		.uleb128 0x3
 2172 0163 0E       		.uleb128 0xe
 2173 0164 3A       		.uleb128 0x3a
 2174 0165 0B       		.uleb128 0xb
 2175 0166 3B       		.uleb128 0x3b
 2176 0167 0B       		.uleb128 0xb
 2177 0168 27       		.uleb128 0x27
 2178 0169 0C       		.uleb128 0xc
 2179 016a 11       		.uleb128 0x11
 2180 016b 01       		.uleb128 0x1
 2181 016c 12       		.uleb128 0x12
 2182 016d 01       		.uleb128 0x1
 2183 016e 40       		.uleb128 0x40
 2184 016f 0A       		.uleb128 0xa
 2185 0170 01       		.uleb128 0x1
 2186 0171 13       		.uleb128 0x13
 2187 0172 00       		.byte	0x0
 2188 0173 00       		.byte	0x0
 2189 0174 1D       		.uleb128 0x1d
 2190 0175 05       		.uleb128 0x5
 2191 0176 00       		.byte	0x0
 2192 0177 03       		.uleb128 0x3
 2193 0178 08       		.uleb128 0x8
 2194 0179 3A       		.uleb128 0x3a
 2195 017a 0B       		.uleb128 0xb
 2196 017b 3B       		.uleb128 0x3b
 2197 017c 0B       		.uleb128 0xb
 2198 017d 49       		.uleb128 0x49
 2199 017e 13       		.uleb128 0x13
 2200 017f 02       		.uleb128 0x2
 2201 0180 0A       		.uleb128 0xa
 2202 0181 00       		.byte	0x0
 2203 0182 00       		.byte	0x0
 2204 0183 1E       		.uleb128 0x1e
 2205 0184 34       		.uleb128 0x34
 2206 0185 00       		.byte	0x0
 2207 0186 03       		.uleb128 0x3
 2208 0187 08       		.uleb128 0x8
 2209 0188 3A       		.uleb128 0x3a
ARM GAS  /tmp/ccWtGeXX.s 			page 40


 2210 0189 0B       		.uleb128 0xb
 2211 018a 3B       		.uleb128 0x3b
 2212 018b 0B       		.uleb128 0xb
 2213 018c 49       		.uleb128 0x49
 2214 018d 13       		.uleb128 0x13
 2215 018e 02       		.uleb128 0x2
 2216 018f 0A       		.uleb128 0xa
 2217 0190 00       		.byte	0x0
 2218 0191 00       		.byte	0x0
 2219 0192 1F       		.uleb128 0x1f
 2220 0193 1D       		.uleb128 0x1d
 2221 0194 01       		.byte	0x1
 2222 0195 31       		.uleb128 0x31
 2223 0196 13       		.uleb128 0x13
 2224 0197 52       		.uleb128 0x52
 2225 0198 01       		.uleb128 0x1
 2226 0199 55       		.uleb128 0x55
 2227 019a 06       		.uleb128 0x6
 2228 019b 58       		.uleb128 0x58
 2229 019c 0B       		.uleb128 0xb
 2230 019d 59       		.uleb128 0x59
 2231 019e 0B       		.uleb128 0xb
 2232 019f 01       		.uleb128 0x1
 2233 01a0 13       		.uleb128 0x13
 2234 01a1 00       		.byte	0x0
 2235 01a2 00       		.byte	0x0
 2236 01a3 20       		.uleb128 0x20
 2237 01a4 05       		.uleb128 0x5
 2238 01a5 00       		.byte	0x0
 2239 01a6 31       		.uleb128 0x31
 2240 01a7 13       		.uleb128 0x13
 2241 01a8 00       		.byte	0x0
 2242 01a9 00       		.byte	0x0
 2243 01aa 21       		.uleb128 0x21
 2244 01ab 0B       		.uleb128 0xb
 2245 01ac 01       		.byte	0x1
 2246 01ad 55       		.uleb128 0x55
 2247 01ae 06       		.uleb128 0x6
 2248 01af 00       		.byte	0x0
 2249 01b0 00       		.byte	0x0
 2250 01b1 22       		.uleb128 0x22
 2251 01b2 34       		.uleb128 0x34
 2252 01b3 00       		.byte	0x0
 2253 01b4 31       		.uleb128 0x31
 2254 01b5 13       		.uleb128 0x13
 2255 01b6 02       		.uleb128 0x2
 2256 01b7 06       		.uleb128 0x6
 2257 01b8 00       		.byte	0x0
 2258 01b9 00       		.byte	0x0
 2259 01ba 23       		.uleb128 0x23
 2260 01bb 1D       		.uleb128 0x1d
 2261 01bc 01       		.byte	0x1
 2262 01bd 31       		.uleb128 0x31
 2263 01be 13       		.uleb128 0x13
 2264 01bf 11       		.uleb128 0x11
 2265 01c0 01       		.uleb128 0x1
 2266 01c1 12       		.uleb128 0x12
ARM GAS  /tmp/ccWtGeXX.s 			page 41


 2267 01c2 01       		.uleb128 0x1
 2268 01c3 58       		.uleb128 0x58
 2269 01c4 0B       		.uleb128 0xb
 2270 01c5 59       		.uleb128 0x59
 2271 01c6 0B       		.uleb128 0xb
 2272 01c7 00       		.byte	0x0
 2273 01c8 00       		.byte	0x0
 2274 01c9 24       		.uleb128 0x24
 2275 01ca 2E       		.uleb128 0x2e
 2276 01cb 01       		.byte	0x1
 2277 01cc 3F       		.uleb128 0x3f
 2278 01cd 0C       		.uleb128 0xc
 2279 01ce 03       		.uleb128 0x3
 2280 01cf 0E       		.uleb128 0xe
 2281 01d0 3A       		.uleb128 0x3a
 2282 01d1 0B       		.uleb128 0xb
 2283 01d2 3B       		.uleb128 0x3b
 2284 01d3 05       		.uleb128 0x5
 2285 01d4 27       		.uleb128 0x27
 2286 01d5 0C       		.uleb128 0xc
 2287 01d6 49       		.uleb128 0x49
 2288 01d7 13       		.uleb128 0x13
 2289 01d8 11       		.uleb128 0x11
 2290 01d9 01       		.uleb128 0x1
 2291 01da 12       		.uleb128 0x12
 2292 01db 01       		.uleb128 0x1
 2293 01dc 40       		.uleb128 0x40
 2294 01dd 0A       		.uleb128 0xa
 2295 01de 01       		.uleb128 0x1
 2296 01df 13       		.uleb128 0x13
 2297 01e0 00       		.byte	0x0
 2298 01e1 00       		.byte	0x0
 2299 01e2 25       		.uleb128 0x25
 2300 01e3 34       		.uleb128 0x34
 2301 01e4 00       		.byte	0x0
 2302 01e5 03       		.uleb128 0x3
 2303 01e6 08       		.uleb128 0x8
 2304 01e7 3A       		.uleb128 0x3a
 2305 01e8 0B       		.uleb128 0xb
 2306 01e9 3B       		.uleb128 0x3b
 2307 01ea 05       		.uleb128 0x5
 2308 01eb 49       		.uleb128 0x49
 2309 01ec 13       		.uleb128 0x13
 2310 01ed 02       		.uleb128 0x2
 2311 01ee 06       		.uleb128 0x6
 2312 01ef 00       		.byte	0x0
 2313 01f0 00       		.byte	0x0
 2314 01f1 26       		.uleb128 0x26
 2315 01f2 34       		.uleb128 0x34
 2316 01f3 00       		.byte	0x0
 2317 01f4 03       		.uleb128 0x3
 2318 01f5 08       		.uleb128 0x8
 2319 01f6 3A       		.uleb128 0x3a
 2320 01f7 0B       		.uleb128 0xb
 2321 01f8 3B       		.uleb128 0x3b
 2322 01f9 05       		.uleb128 0x5
 2323 01fa 49       		.uleb128 0x49
ARM GAS  /tmp/ccWtGeXX.s 			page 42


 2324 01fb 13       		.uleb128 0x13
 2325 01fc 02       		.uleb128 0x2
 2326 01fd 0A       		.uleb128 0xa
 2327 01fe 00       		.byte	0x0
 2328 01ff 00       		.byte	0x0
 2329 0200 27       		.uleb128 0x27
 2330 0201 2E       		.uleb128 0x2e
 2331 0202 01       		.byte	0x1
 2332 0203 3F       		.uleb128 0x3f
 2333 0204 0C       		.uleb128 0xc
 2334 0205 03       		.uleb128 0x3
 2335 0206 0E       		.uleb128 0xe
 2336 0207 3A       		.uleb128 0x3a
 2337 0208 0B       		.uleb128 0xb
 2338 0209 3B       		.uleb128 0x3b
 2339 020a 0B       		.uleb128 0xb
 2340 020b 27       		.uleb128 0x27
 2341 020c 0C       		.uleb128 0xc
 2342 020d 11       		.uleb128 0x11
 2343 020e 01       		.uleb128 0x1
 2344 020f 12       		.uleb128 0x12
 2345 0210 01       		.uleb128 0x1
 2346 0211 40       		.uleb128 0x40
 2347 0212 06       		.uleb128 0x6
 2348 0213 01       		.uleb128 0x1
 2349 0214 13       		.uleb128 0x13
 2350 0215 00       		.byte	0x0
 2351 0216 00       		.byte	0x0
 2352 0217 28       		.uleb128 0x28
 2353 0218 34       		.uleb128 0x34
 2354 0219 00       		.byte	0x0
 2355 021a 03       		.uleb128 0x3
 2356 021b 08       		.uleb128 0x8
 2357 021c 3A       		.uleb128 0x3a
 2358 021d 0B       		.uleb128 0xb
 2359 021e 3B       		.uleb128 0x3b
 2360 021f 0B       		.uleb128 0xb
 2361 0220 49       		.uleb128 0x49
 2362 0221 13       		.uleb128 0x13
 2363 0222 02       		.uleb128 0x2
 2364 0223 06       		.uleb128 0x6
 2365 0224 00       		.byte	0x0
 2366 0225 00       		.byte	0x0
 2367 0226 29       		.uleb128 0x29
 2368 0227 0B       		.uleb128 0xb
 2369 0228 01       		.byte	0x1
 2370 0229 11       		.uleb128 0x11
 2371 022a 01       		.uleb128 0x1
 2372 022b 12       		.uleb128 0x12
 2373 022c 01       		.uleb128 0x1
 2374 022d 00       		.byte	0x0
 2375 022e 00       		.byte	0x0
 2376 022f 2A       		.uleb128 0x2a
 2377 0230 2E       		.uleb128 0x2e
 2378 0231 00       		.byte	0x0
 2379 0232 3F       		.uleb128 0x3f
 2380 0233 0C       		.uleb128 0xc
ARM GAS  /tmp/ccWtGeXX.s 			page 43


 2381 0234 03       		.uleb128 0x3
 2382 0235 0E       		.uleb128 0xe
 2383 0236 3A       		.uleb128 0x3a
 2384 0237 0B       		.uleb128 0xb
 2385 0238 3B       		.uleb128 0x3b
 2386 0239 05       		.uleb128 0x5
 2387 023a 27       		.uleb128 0x27
 2388 023b 0C       		.uleb128 0xc
 2389 023c 11       		.uleb128 0x11
 2390 023d 01       		.uleb128 0x1
 2391 023e 12       		.uleb128 0x12
 2392 023f 01       		.uleb128 0x1
 2393 0240 40       		.uleb128 0x40
 2394 0241 0A       		.uleb128 0xa
 2395 0242 00       		.byte	0x0
 2396 0243 00       		.byte	0x0
 2397 0244 2B       		.uleb128 0x2b
 2398 0245 05       		.uleb128 0x5
 2399 0246 00       		.byte	0x0
 2400 0247 03       		.uleb128 0x3
 2401 0248 08       		.uleb128 0x8
 2402 0249 3A       		.uleb128 0x3a
 2403 024a 0B       		.uleb128 0xb
 2404 024b 3B       		.uleb128 0x3b
 2405 024c 0B       		.uleb128 0xb
 2406 024d 49       		.uleb128 0x49
 2407 024e 13       		.uleb128 0x13
 2408 024f 02       		.uleb128 0x2
 2409 0250 06       		.uleb128 0x6
 2410 0251 00       		.byte	0x0
 2411 0252 00       		.byte	0x0
 2412 0253 2C       		.uleb128 0x2c
 2413 0254 1D       		.uleb128 0x1d
 2414 0255 01       		.byte	0x1
 2415 0256 31       		.uleb128 0x31
 2416 0257 13       		.uleb128 0x13
 2417 0258 11       		.uleb128 0x11
 2418 0259 01       		.uleb128 0x1
 2419 025a 12       		.uleb128 0x12
 2420 025b 01       		.uleb128 0x1
 2421 025c 58       		.uleb128 0x58
 2422 025d 0B       		.uleb128 0xb
 2423 025e 59       		.uleb128 0x59
 2424 025f 0B       		.uleb128 0xb
 2425 0260 01       		.uleb128 0x1
 2426 0261 13       		.uleb128 0x13
 2427 0262 00       		.byte	0x0
 2428 0263 00       		.byte	0x0
 2429 0264 2D       		.uleb128 0x2d
 2430 0265 1D       		.uleb128 0x1d
 2431 0266 01       		.byte	0x1
 2432 0267 31       		.uleb128 0x31
 2433 0268 13       		.uleb128 0x13
 2434 0269 52       		.uleb128 0x52
 2435 026a 01       		.uleb128 0x1
 2436 026b 55       		.uleb128 0x55
 2437 026c 06       		.uleb128 0x6
ARM GAS  /tmp/ccWtGeXX.s 			page 44


 2438 026d 58       		.uleb128 0x58
 2439 026e 0B       		.uleb128 0xb
 2440 026f 59       		.uleb128 0x59
 2441 0270 0B       		.uleb128 0xb
 2442 0271 00       		.byte	0x0
 2443 0272 00       		.byte	0x0
 2444 0273 2E       		.uleb128 0x2e
 2445 0274 05       		.uleb128 0x5
 2446 0275 00       		.byte	0x0
 2447 0276 03       		.uleb128 0x3
 2448 0277 0E       		.uleb128 0xe
 2449 0278 3A       		.uleb128 0x3a
 2450 0279 0B       		.uleb128 0xb
 2451 027a 3B       		.uleb128 0x3b
 2452 027b 0B       		.uleb128 0xb
 2453 027c 49       		.uleb128 0x49
 2454 027d 13       		.uleb128 0x13
 2455 027e 02       		.uleb128 0x2
 2456 027f 06       		.uleb128 0x6
 2457 0280 00       		.byte	0x0
 2458 0281 00       		.byte	0x0
 2459 0282 2F       		.uleb128 0x2f
 2460 0283 2E       		.uleb128 0x2e
 2461 0284 01       		.byte	0x1
 2462 0285 3F       		.uleb128 0x3f
 2463 0286 0C       		.uleb128 0xc
 2464 0287 03       		.uleb128 0x3
 2465 0288 0E       		.uleb128 0xe
 2466 0289 3A       		.uleb128 0x3a
 2467 028a 0B       		.uleb128 0xb
 2468 028b 3B       		.uleb128 0x3b
 2469 028c 0B       		.uleb128 0xb
 2470 028d 27       		.uleb128 0x27
 2471 028e 0C       		.uleb128 0xc
 2472 028f 49       		.uleb128 0x49
 2473 0290 13       		.uleb128 0x13
 2474 0291 11       		.uleb128 0x11
 2475 0292 01       		.uleb128 0x1
 2476 0293 12       		.uleb128 0x12
 2477 0294 01       		.uleb128 0x1
 2478 0295 40       		.uleb128 0x40
 2479 0296 06       		.uleb128 0x6
 2480 0297 01       		.uleb128 0x1
 2481 0298 13       		.uleb128 0x13
 2482 0299 00       		.byte	0x0
 2483 029a 00       		.byte	0x0
 2484 029b 30       		.uleb128 0x30
 2485 029c 34       		.uleb128 0x34
 2486 029d 00       		.byte	0x0
 2487 029e 03       		.uleb128 0x3
 2488 029f 0E       		.uleb128 0xe
 2489 02a0 3A       		.uleb128 0x3a
 2490 02a1 0B       		.uleb128 0xb
 2491 02a2 3B       		.uleb128 0x3b
 2492 02a3 0B       		.uleb128 0xb
 2493 02a4 49       		.uleb128 0x49
 2494 02a5 13       		.uleb128 0x13
ARM GAS  /tmp/ccWtGeXX.s 			page 45


 2495 02a6 3F       		.uleb128 0x3f
 2496 02a7 0C       		.uleb128 0xc
 2497 02a8 02       		.uleb128 0x2
 2498 02a9 0A       		.uleb128 0xa
 2499 02aa 00       		.byte	0x0
 2500 02ab 00       		.byte	0x0
 2501 02ac 00       		.byte	0x0
 2502              		.section	.debug_pubnames,"",%progbits
 2503 0000 BE000000 		.4byte	0xbe
 2504 0004 0200     		.2byte	0x2
 2505 0006 00000000 		.4byte	.Ldebug_info0
 2506 000a F3070000 		.4byte	0x7f3
 2507 000e 30050000 		.4byte	0x530
 2508 0012 73636865 		.ascii	"scheduler_init\000"
 2508      64756C65 
 2508      725F696E 
 2508      697400
 2509 0021 43050000 		.4byte	0x543
 2510 0025 63685363 		.ascii	"chSchReadyI\000"
 2510      68526561 
 2510      64794900 
 2511 0031 D2050000 		.4byte	0x5d2
 2512 0035 63685363 		.ascii	"chSchIsRescRequiredExI\000"
 2512      68497352 
 2512      65736352 
 2512      65717569 
 2512      72656445 
 2513 004c 0B060000 		.4byte	0x60b
 2514 0050 63685363 		.ascii	"chSchDoRescheduleI\000"
 2514      68446F52 
 2514      65736368 
 2514      6564756C 
 2514      654900
 2515 0063 84060000 		.4byte	0x684
 2516 0067 63685363 		.ascii	"chSchRescheduleS\000"
 2516      68526573 
 2516      63686564 
 2516      756C6553 
 2516      00
 2517 0078 98060000 		.4byte	0x698
 2518 007c 63685363 		.ascii	"chSchWakeupS\000"
 2518      6857616B 
 2518      65757053 
 2518      00
 2519 0089 31070000 		.4byte	0x731
 2520 008d 63685363 		.ascii	"chSchGoSleepS\000"
 2520      68476F53 
 2520      6C656570 
 2520      5300
 2521 009b 8D070000 		.4byte	0x78d
 2522 009f 63685363 		.ascii	"chSchGoSleepTimeoutS\000"
 2522      68476F53 
 2522      6C656570 
 2522      54696D65 
 2522      6F757453 
 2523 00b4 E0070000 		.4byte	0x7e0
 2524 00b8 726C6973 		.ascii	"rlist\000"
ARM GAS  /tmp/ccWtGeXX.s 			page 46


 2524      7400
 2525 00be 00000000 		.4byte	0x0
 2526              		.section	.debug_aranges,"",%progbits
 2527 0000 5C000000 		.4byte	0x5c
 2528 0004 0200     		.2byte	0x2
 2529 0006 00000000 		.4byte	.Ldebug_info0
 2530 000a 04       		.byte	0x4
 2531 000b 00       		.byte	0x0
 2532 000c 0000     		.2byte	0x0
 2533 000e 0000     		.2byte	0x0
 2534 0010 00000000 		.4byte	.LFB7
 2535 0014 1A000000 		.4byte	.LFE7-.LFB7
 2536 0018 00000000 		.4byte	.LFB8
 2537 001c 22000000 		.4byte	.LFE8-.LFB8
 2538 0020 00000000 		.4byte	.LFB10
 2539 0024 48000000 		.4byte	.LFE10-.LFB10
 2540 0028 00000000 		.4byte	.LFB15
 2541 002c 28000000 		.4byte	.LFE15-.LFB15
 2542 0030 00000000 		.4byte	.LFB13
 2543 0034 3E000000 		.4byte	.LFE13-.LFB13
 2544 0038 00000000 		.4byte	.LFB14
 2545 003c 1A000000 		.4byte	.LFE14-.LFB14
 2546 0040 00000000 		.4byte	.LFB12
 2547 0044 58000000 		.4byte	.LFE12-.LFB12
 2548 0048 00000000 		.4byte	.LFB9
 2549 004c 26000000 		.4byte	.LFE9-.LFB9
 2550 0050 00000000 		.4byte	.LFB11
 2551 0054 4C000000 		.4byte	.LFE11-.LFB11
 2552 0058 00000000 		.4byte	0x0
 2553 005c 00000000 		.4byte	0x0
 2554              		.section	.debug_ranges,"",%progbits
 2555              	.Ldebug_ranges0:
 2556 0000 10000000 		.4byte	.LBB17
 2557 0004 14000000 		.4byte	.LBE17
 2558 0008 16000000 		.4byte	.LBB20
 2559 000c 34000000 		.4byte	.LBE20
 2560 0010 00000000 		.4byte	0x0
 2561 0014 00000000 		.4byte	0x0
 2562 0018 10000000 		.4byte	.LBB18
 2563 001c 14000000 		.4byte	.LBE18
 2564 0020 16000000 		.4byte	.LBB19
 2565 0024 34000000 		.4byte	.LBE19
 2566 0028 00000000 		.4byte	0x0
 2567 002c 00000000 		.4byte	0x0
 2568 0030 08000000 		.4byte	.LBB23
 2569 0034 0A000000 		.4byte	.LBE23
 2570 0038 14000000 		.4byte	.LBB28
 2571 003c 1A000000 		.4byte	.LBE28
 2572 0040 0C000000 		.4byte	.LBB27
 2573 0044 0E000000 		.4byte	.LBE27
 2574 0048 00000000 		.4byte	0x0
 2575 004c 00000000 		.4byte	0x0
 2576 0050 08000000 		.4byte	.LBB25
 2577 0054 0A000000 		.4byte	.LBE25
 2578 0058 14000000 		.4byte	.LBB26
 2579 005c 1A000000 		.4byte	.LBE26
 2580 0060 0C000000 		.4byte	.LBB24
ARM GAS  /tmp/ccWtGeXX.s 			page 47


 2581 0064 0E000000 		.4byte	.LBE24
 2582 0068 00000000 		.4byte	0x0
 2583 006c 00000000 		.4byte	0x0
 2584 0070 30000000 		.4byte	.LBB33
 2585 0074 52000000 		.4byte	.LBE33
 2586 0078 54000000 		.4byte	.LBB38
 2587 007c 58000000 		.4byte	.LBE38
 2588 0080 00000000 		.4byte	0x0
 2589 0084 00000000 		.4byte	0x0
 2590 0088 30000000 		.4byte	.LBB35
 2591 008c 40000000 		.4byte	.LBE35
 2592 0090 44000000 		.4byte	.LBB34
 2593 0094 4C000000 		.4byte	.LBE34
 2594 0098 00000000 		.4byte	0x0
 2595 009c 00000000 		.4byte	0x0
 2596 00a0 30000000 		.4byte	.LBB36
 2597 00a4 40000000 		.4byte	.LBE36
 2598 00a8 44000000 		.4byte	.LBB37
 2599 00ac 4C000000 		.4byte	.LBE37
 2600 00b0 00000000 		.4byte	0x0
 2601 00b4 00000000 		.4byte	0x0
 2602 00b8 0E000000 		.4byte	.LBB39
 2603 00bc 10000000 		.4byte	.LBE39
 2604 00c0 16000000 		.4byte	.LBB44
 2605 00c4 1A000000 		.4byte	.LBE44
 2606 00c8 12000000 		.4byte	.LBB43
 2607 00cc 14000000 		.4byte	.LBE43
 2608 00d0 00000000 		.4byte	0x0
 2609 00d4 00000000 		.4byte	0x0
 2610 00d8 0E000000 		.4byte	.LBB41
 2611 00dc 10000000 		.4byte	.LBE41
 2612 00e0 16000000 		.4byte	.LBB42
 2613 00e4 1A000000 		.4byte	.LBE42
 2614 00e8 12000000 		.4byte	.LBB40
 2615 00ec 14000000 		.4byte	.LBE40
 2616 00f0 00000000 		.4byte	0x0
 2617 00f4 00000000 		.4byte	0x0
 2618 00f8 00000000 		.4byte	.Ltext0
 2619 00fc 00000000 		.4byte	.Letext0
 2620 0100 00000000 		.4byte	.LFB7
 2621 0104 1A000000 		.4byte	.LFE7
 2622 0108 00000000 		.4byte	.LFB8
 2623 010c 22000000 		.4byte	.LFE8
 2624 0110 00000000 		.4byte	.LFB10
 2625 0114 48000000 		.4byte	.LFE10
 2626 0118 00000000 		.4byte	.LFB15
 2627 011c 28000000 		.4byte	.LFE15
 2628 0120 00000000 		.4byte	.LFB13
 2629 0124 3E000000 		.4byte	.LFE13
 2630 0128 00000000 		.4byte	.LFB14
 2631 012c 1A000000 		.4byte	.LFE14
 2632 0130 00000000 		.4byte	.LFB12
 2633 0134 58000000 		.4byte	.LFE12
 2634 0138 00000000 		.4byte	.LFB9
 2635 013c 26000000 		.4byte	.LFE9
 2636 0140 00000000 		.4byte	.LFB11
 2637 0144 4C000000 		.4byte	.LFE11
ARM GAS  /tmp/ccWtGeXX.s 			page 48


 2638 0148 00000000 		.4byte	0x0
 2639 014c 00000000 		.4byte	0x0
 2640              		.section	.debug_str,"MS",%progbits,1
 2641              	.LASF34:
 2642 0000 705F6D73 		.ascii	"p_msg\000"
 2642      6700
 2643              	.LASF66:
 2644 0006 7264796D 		.ascii	"rdymsg\000"
 2644      736700
 2645              	.LASF11:
 2646 000d 6C6F6E67 		.ascii	"long long unsigned int\000"
 2646      206C6F6E 
 2646      6720756E 
 2646      7369676E 
 2646      65642069 
 2647              	.LASF67:
 2648 0024 65786974 		.ascii	"exitcode\000"
 2648      636F6465 
 2648      00
 2649              	.LASF81:
 2650 002d 474E5520 		.ascii	"GNU C 4.4.1\000"
 2650      4320342E 
 2650      342E3100 
 2651              	.LASF24:
 2652 0039 705F7072 		.ascii	"p_prio\000"
 2652      696F00
 2653              	.LASF83:
 2654 0040 2F686F6D 		.ascii	"/home/dan/Downloads/ChibiOS_2.2.3/demos/ARMCM3-STM3"
 2654      652F6461 
 2654      6E2F446F 
 2654      776E6C6F 
 2654      6164732F 
 2655 0073 32463130 		.ascii	"2F103\000"
 2655      3300
 2656              	.LASF1:
 2657 0079 7369676E 		.ascii	"signed char\000"
 2657      65642063 
 2657      68617200 
 2658              	.LASF38:
 2659 0085 705F6D70 		.ascii	"p_mpool\000"
 2659      6F6F6C00 
 2660              	.LASF12:
 2661 008d 626F6F6C 		.ascii	"bool_t\000"
 2661      5F7400
 2662              	.LASF63:
 2663 0094 6D5F7175 		.ascii	"m_queue\000"
 2663      65756500 
 2664              	.LASF7:
 2665 009c 6C6F6E67 		.ascii	"long int\000"
 2665      20696E74 
 2665      00
 2666              	.LASF72:
 2667 00a5 73636865 		.ascii	"scheduler_init\000"
 2667      64756C65 
 2667      725F696E 
 2667      697400
 2668              	.LASF14:
ARM GAS  /tmp/ccWtGeXX.s 			page 49


 2669 00b4 74737461 		.ascii	"tstate_t\000"
 2669      74655F74 
 2669      00
 2670              	.LASF10:
 2671 00bd 6C6F6E67 		.ascii	"long long int\000"
 2671      206C6F6E 
 2671      6720696E 
 2671      7400
 2672              	.LASF26:
 2673 00cb 705F6E65 		.ascii	"p_newer\000"
 2673      77657200 
 2674              	.LASF60:
 2675 00d3 735F7175 		.ascii	"s_queue\000"
 2675      65756500 
 2676              	.LASF73:
 2677 00db 63685363 		.ascii	"chSchRescheduleS\000"
 2677      68526573 
 2677      63686564 
 2677      756C6553 
 2677      00
 2678              	.LASF54:
 2679 00ec 725F6E65 		.ascii	"r_newer\000"
 2679      77657200 
 2680              	.LASF41:
 2681 00f4 72656761 		.ascii	"regarm_t\000"
 2681      726D5F74 
 2681      00
 2682              	.LASF47:
 2683 00fd 76745F70 		.ascii	"vt_prev\000"
 2683      72657600 
 2684              	.LASF20:
 2685 0105 636E745F 		.ascii	"cnt_t\000"
 2685      7400
 2686              	.LASF0:
 2687 010b 756E7369 		.ascii	"unsigned int\000"
 2687      676E6564 
 2687      20696E74 
 2687      00
 2688              	.LASF85:
 2689 0118 77616B65 		.ascii	"wakeup\000"
 2689      757000
 2690              	.LASF46:
 2691 011f 76745F6E 		.ascii	"vt_next\000"
 2691      65787400 
 2692              	.LASF9:
 2693 0127 6C6F6E67 		.ascii	"long unsigned int\000"
 2693      20756E73 
 2693      69676E65 
 2693      6420696E 
 2693      7400
 2694              	.LASF61:
 2695 0139 735F636E 		.ascii	"s_cnt\000"
 2695      7400
 2696              	.LASF42:
 2697 013f 636F6E74 		.ascii	"context\000"
 2697      65787400 
 2698              	.LASF4:
ARM GAS  /tmp/ccWtGeXX.s 			page 50


 2699 0147 73686F72 		.ascii	"short unsigned int\000"
 2699      7420756E 
 2699      7369676E 
 2699      65642069 
 2699      6E7400
 2700              	.LASF75:
 2701 015a 63685363 		.ascii	"chSchWakeupS\000"
 2701      6857616B 
 2701      65757053 
 2701      00
 2702              	.LASF17:
 2703 0167 6D73675F 		.ascii	"msg_t\000"
 2703      7400
 2704              	.LASF13:
 2705 016d 746D6F64 		.ascii	"tmode_t\000"
 2705      655F7400 
 2706              	.LASF40:
 2707 0175 54687265 		.ascii	"ThreadsList\000"
 2707      6164734C 
 2707      69737400 
 2708              	.LASF18:
 2709 0181 6576656E 		.ascii	"eventmask_t\000"
 2709      746D6173 
 2709      6B5F7400 
 2710              	.LASF62:
 2711 018d 4D757465 		.ascii	"Mutex\000"
 2711      7800
 2712              	.LASF48:
 2713 0193 76745F74 		.ascii	"vt_time\000"
 2713      696D6500 
 2714              	.LASF49:
 2715 019b 76745F66 		.ascii	"vt_func\000"
 2715      756E6300 
 2716              	.LASF27:
 2717 01a3 705F6F6C 		.ascii	"p_older\000"
 2717      64657200 
 2718              	.LASF53:
 2719 01ab 725F6374 		.ascii	"r_ctx\000"
 2719      7800
 2720              	.LASF39:
 2721 01b1 54687265 		.ascii	"ThreadsQueue\000"
 2721      61647351 
 2721      75657565 
 2721      00
 2722              	.LASF70:
 2723 01be 64657175 		.ascii	"dequeue\000"
 2723      65756500 
 2724              	.LASF57:
 2725 01c6 725F6375 		.ascii	"r_current\000"
 2725      7272656E 
 2725      7400
 2726              	.LASF55:
 2727 01d0 725F6F6C 		.ascii	"r_older\000"
 2727      64657200 
 2728              	.LASF15:
 2729 01d8 74726566 		.ascii	"trefs_t\000"
 2729      735F7400 
ARM GAS  /tmp/ccWtGeXX.s 			page 51


 2730              	.LASF23:
 2731 01e0 705F7072 		.ascii	"p_prev\000"
 2731      657600
 2732              	.LASF16:
 2733 01e7 74707269 		.ascii	"tprio_t\000"
 2733      6F5F7400 
 2734              	.LASF6:
 2735 01ef 696E7433 		.ascii	"int32_t\000"
 2735      325F7400 
 2736              	.LASF2:
 2737 01f7 756E7369 		.ascii	"unsigned char\000"
 2737      676E6564 
 2737      20636861 
 2737      7200
 2738              	.LASF77:
 2739 0205 6E657773 		.ascii	"newstate\000"
 2739      74617465 
 2739      00
 2740              	.LASF36:
 2741 020e 705F6D74 		.ascii	"p_mtxlist\000"
 2741      786C6973 
 2741      7400
 2742              	.LASF3:
 2743 0218 73686F72 		.ascii	"short int\000"
 2743      7420696E 
 2743      7400
 2744              	.LASF28:
 2745 0222 705F7374 		.ascii	"p_state\000"
 2745      61746500 
 2746              	.LASF52:
 2747 022a 725F7072 		.ascii	"r_prio\000"
 2747      696F00
 2748              	.LASF69:
 2749 0231 65776D61 		.ascii	"ewmask\000"
 2749      736B00
 2750              	.LASF22:
 2751 0238 705F6E65 		.ascii	"p_next\000"
 2751      787400
 2752              	.LASF29:
 2753 023f 705F666C 		.ascii	"p_flags\000"
 2753      61677300 
 2754              	.LASF21:
 2755 0247 54687265 		.ascii	"Thread\000"
 2755      616400
 2756              	.LASF76:
 2757 024e 63685363 		.ascii	"chSchGoSleepS\000"
 2757      68476F53 
 2757      6C656570 
 2757      5300
 2758              	.LASF35:
 2759 025c 705F6570 		.ascii	"p_epending\000"
 2759      656E6469 
 2759      6E6700
 2760              	.LASF8:
 2761 0267 75696E74 		.ascii	"uint32_t\000"
 2761      33325F74 
 2761      00
ARM GAS  /tmp/ccWtGeXX.s 			page 52


 2762              	.LASF51:
 2763 0270 725F7175 		.ascii	"r_queue\000"
 2763      65756500 
 2764              	.LASF45:
 2765 0278 56697274 		.ascii	"VirtualTimer\000"
 2765      75616C54 
 2765      696D6572 
 2765      00
 2766              	.LASF84:
 2767 0285 63685363 		.ascii	"chSchReadyI\000"
 2767      68526561 
 2767      64794900 
 2768              	.LASF71:
 2769 0291 6669666F 		.ascii	"fifo_remove\000"
 2769      5F72656D 
 2769      6F766500 
 2770              	.LASF65:
 2771 029d 6D5F6E65 		.ascii	"m_next\000"
 2771      787400
 2772              	.LASF19:
 2773 02a4 73797374 		.ascii	"systime_t\000"
 2773      696D655F 
 2773      7400
 2774              	.LASF37:
 2775 02ae 705F7265 		.ascii	"p_realprio\000"
 2775      616C7072 
 2775      696F00
 2776              	.LASF44:
 2777 02b9 76746675 		.ascii	"vtfunc_t\000"
 2777      6E635F74 
 2777      00
 2778              	.LASF31:
 2779 02c2 705F7469 		.ascii	"p_time\000"
 2779      6D6500
 2780              	.LASF78:
 2781 02c9 63685363 		.ascii	"chSchIsRescRequiredExI\000"
 2781      68497352 
 2781      65736352 
 2781      65717569 
 2781      72656445 
 2782              	.LASF43:
 2783 02e0 696E7463 		.ascii	"intctx\000"
 2783      747800
 2784              	.LASF33:
 2785 02e7 705F6D73 		.ascii	"p_msgqueue\000"
 2785      67717565 
 2785      756500
 2786              	.LASF80:
 2787 02f2 74696D65 		.ascii	"time\000"
 2787      00
 2788              	.LASF74:
 2789 02f7 63685363 		.ascii	"chSchDoRescheduleI\000"
 2789      68446F52 
 2789      65736368 
 2789      6564756C 
 2789      654900
 2790              	.LASF50:
ARM GAS  /tmp/ccWtGeXX.s 			page 53


 2791 030a 76745F70 		.ascii	"vt_par\000"
 2791      617200
 2792              	.LASF59:
 2793 0311 53656D61 		.ascii	"Semaphore\000"
 2793      70686F72 
 2793      6500
 2794              	.LASF30:
 2795 031b 705F7265 		.ascii	"p_refs\000"
 2795      667300
 2796              	.LASF58:
 2797 0322 52656164 		.ascii	"ReadyList\000"
 2797      794C6973 
 2797      7400
 2798              	.LASF82:
 2799 032c 2E2E2F2E 		.ascii	"../../os/kernel/src/chschd.c\000"
 2799      2E2F6F73 
 2799      2F6B6572 
 2799      6E656C2F 
 2799      7372632F 
 2800              	.LASF86:
 2801 0349 726C6973 		.ascii	"rlist\000"
 2801      7400
 2802              	.LASF5:
 2803 034f 75696E74 		.ascii	"uint8_t\000"
 2803      385F7400 
 2804              	.LASF68:
 2805 0357 77746F62 		.ascii	"wtobjp\000"
 2805      6A7000
 2806              	.LASF79:
 2807 035e 63685363 		.ascii	"chSchGoSleepTimeoutS\000"
 2807      68476F53 
 2807      6C656570 
 2807      54696D65 
 2807      6F757453 
 2808              	.LASF56:
 2809 0373 725F7072 		.ascii	"r_preempt\000"
 2809      65656D70 
 2809      7400
 2810              	.LASF64:
 2811 037d 6D5F6F77 		.ascii	"m_owner\000"
 2811      6E657200 
 2812              	.LASF25:
 2813 0385 705F6374 		.ascii	"p_ctx\000"
 2813      7800
 2814              	.LASF32:
 2815 038b 705F7761 		.ascii	"p_waiting\000"
 2815      6974696E 
 2815      6700
 2816              		.ident	"GCC: (Red Suite 2010Q1 by Code Red) 4.4.1"
ARM GAS  /tmp/ccWtGeXX.s 			page 54


DEFINED SYMBOLS
                            *ABS*:00000000 chschd.c
     /tmp/ccWtGeXX.s:24     .text.scheduler_init:00000000 $t
     /tmp/ccWtGeXX.s:30     .text.scheduler_init:00000000 scheduler_init
                            *COM*:00000020 rlist
     /tmp/ccWtGeXX.s:62     .text.chSchReadyI:00000000 $t
     /tmp/ccWtGeXX.s:68     .text.chSchReadyI:00000000 chSchReadyI
     /tmp/ccWtGeXX.s:110    .text.wakeup:00000000 $t
     /tmp/ccWtGeXX.s:115    .text.wakeup:00000000 wakeup
     /tmp/ccWtGeXX.s:197    .text.chSchIsRescRequiredExI:00000000 $t
     /tmp/ccWtGeXX.s:203    .text.chSchIsRescRequiredExI:00000000 chSchIsRescRequiredExI
     /tmp/ccWtGeXX.s:247    .text.chSchDoRescheduleI:00000000 $t
     /tmp/ccWtGeXX.s:253    .text.chSchDoRescheduleI:00000000 chSchDoRescheduleI
     /tmp/ccWtGeXX.s:335    .text.chSchRescheduleS:00000000 $t
     /tmp/ccWtGeXX.s:341    .text.chSchRescheduleS:00000000 chSchRescheduleS
     /tmp/ccWtGeXX.s:366    .text.chSchWakeupS:00000000 $t
     /tmp/ccWtGeXX.s:372    .text.chSchWakeupS:00000000 chSchWakeupS
     /tmp/ccWtGeXX.s:479    .text.chSchGoSleepS:00000000 $t
     /tmp/ccWtGeXX.s:485    .text.chSchGoSleepS:00000000 chSchGoSleepS
     /tmp/ccWtGeXX.s:543    .text.chSchGoSleepTimeoutS:00000000 $t
     /tmp/ccWtGeXX.s:549    .text.chSchGoSleepTimeoutS:00000000 chSchGoSleepTimeoutS
                     .debug_frame:00000010 $d

UNDEFINED SYMBOLS
port_switch
chVTSetI
chVTResetI
