ARM GAS  /tmp/ccOlmrMD.s 			page 1


   1              		.syntax unified
   2              		.cpu cortex-m3
   3              		.fpu softvfp
   4              		.eabi_attribute 20, 1
   5              		.eabi_attribute 21, 1
   6              		.eabi_attribute 23, 3
   7              		.eabi_attribute 24, 1
   8              		.eabi_attribute 25, 1
   9              		.eabi_attribute 26, 1
  10              		.eabi_attribute 30, 2
  11              		.eabi_attribute 18, 4
  12              		.thumb
  13              		.file	"chschd.c"
  20 0000 EC020000 		.text
  20      02004B01 
  20      00000201 
  20      FB0E0D00 
  20      01010101 
  21              	.Ltext0:
  22              		.cfi_sections	.debug_frame
  23              		.section	.text.wakeup,"ax",%progbits
  24              		.align	2
  25              		.p2align 4,,15
  26              		.thumb
  27              		.thumb_func
  28              		.type	wakeup, %function
  29              	wakeup:
  30              	.LFB10:
  31              		.file 1 "chibios/os/kernel/src/chschd.c"
  32              		.loc 1 131 0
  33              		.cfi_startproc
  34              		@ args = 0, pretend = 0, frame = 0
  35              		@ frame_needed = 0, uses_anonymous_args = 0
  36              		@ link register save eliminated.
  37              	.LVL0:
  38              		.loc 1 134 0
  39 0000 037E     		ldrb	r3, [r0, #24]	@ zero_extendqisi2
  40 0002 032B     		cmp	r3, #3
  41 0004 16D0     		beq	.L4
  42 0006 052B     		cmp	r3, #5
  43 0008 18D0     		beq	.L5
  44 000a 93B1     		cbz	r3, .L1
  45              	.L2:
  46              		.loc 1 152 0
  47 000c 4FF0FF32 		mov	r2, #-1
  48              	.LBB17:
  49              	.LBB18:
  50              		.loc 1 91 0
  51 0010 40F20003 		movw	r3, #:lower16:rlist
  52              	.LBE18:
  53              	.LBE17:
ARM GAS  /tmp/ccOlmrMD.s 			page 2


  54              		.loc 1 152 0
  55 0014 0262     		str	r2, [r0, #32]
  56              	.LVL1:
  57              	.LBB20:
  58              	.LBB19:
  59              		.loc 1 91 0
  60 0016 8168     		ldr	r1, [r0, #8]
  61              		.loc 1 90 0
  62 0018 0022     		movs	r2, #0
  63 001a 0276     		strb	r2, [r0, #24]
  64              		.loc 1 91 0
  65 001c C0F20003 		movt	r3, #:upper16:rlist
  66              	.LVL2:
  67              	.L6:
  68              		.loc 1 93 0
  69 0020 1B68     		ldr	r3, [r3, #0]
  70              	.LVL3:
  71              		.loc 1 94 0
  72 0022 9A68     		ldr	r2, [r3, #8]
  73 0024 9142     		cmp	r1, r2
  74 0026 FBD9     		bls	.L6
  75              		.loc 1 97 0
  76 0028 5968     		ldr	r1, [r3, #4]
  77              		.loc 1 96 0
  78 002a 0360     		str	r3, [r0, #0]
  79              		.loc 1 97 0
  80 002c 4160     		str	r1, [r0, #4]
  81              		.loc 1 98 0
  82 002e 0860     		str	r0, [r1, #0]
  83 0030 5860     		str	r0, [r3, #4]
  84              	.LVL4:
  85              	.L1:
  86 0032 7047     		bx	lr
  87              	.L4:
  88              	.LBE19:
  89              	.LBE20:
  90              		.loc 1 142 0
  91 0034 036A     		ldr	r3, [r0, #32]
  92 0036 9968     		ldr	r1, [r3, #8]
  93 0038 4A1C     		adds	r2, r1, #1
  94 003a 9A60     		str	r2, [r3, #8]
  95              	.L5:
  96              	.LVL5:
  97              	.LBB21:
  98              	.LBB22:
  99              		.file 2 "chibios/os/kernel/include/chinline.h"
 100              		.loc 2 74 0
 101 003c 4368     		ldr	r3, [r0, #4]
 102 003e 0168     		ldr	r1, [r0, #0]
 103 0040 1960     		str	r1, [r3, #0]
 104              		.loc 2 75 0
 105 0042 0268     		ldr	r2, [r0, #0]
 106 0044 5360     		str	r3, [r2, #4]
 107 0046 E1E7     		b	.L2
 108              	.LBE22:
 109              	.LBE21:
 110              		.cfi_endproc
ARM GAS  /tmp/ccOlmrMD.s 			page 3


 111              	.LFE10:
 112              		.size	wakeup, .-wakeup
 113 0048 AFF30080 		.section	.text.scheduler_init,"ax",%progbits
 113      AFF30080 
 114              		.align	2
 115              		.p2align 4,,15
 116              		.global	scheduler_init
 117              		.thumb
 118              		.thumb_func
 119              		.type	scheduler_init, %function
 120              	scheduler_init:
 121              	.LFB7:
 122              		.loc 1 54 0
 123              		.cfi_startproc
 124              		@ args = 0, pretend = 0, frame = 0
 125              		@ frame_needed = 0, uses_anonymous_args = 0
 126              		@ link register save eliminated.
 127              		.loc 1 56 0
 128 0000 40F20003 		movw	r3, #:lower16:rlist
 129 0004 C0F20003 		movt	r3, #:upper16:rlist
 130              		.loc 1 57 0
 131 0008 0020     		movs	r0, #0
 132              		.loc 1 59 0
 133 000a 1422     		movs	r2, #20
 134              		.loc 1 56 0
 135 000c 5B60     		str	r3, [r3, #4]
 136 000e 1B60     		str	r3, [r3, #0]
 137              		.loc 1 57 0
 138 0010 9860     		str	r0, [r3, #8]
 139              		.loc 1 59 0
 140 0012 9A61     		str	r2, [r3, #24]
 141              		.loc 1 62 0
 142 0014 5B61     		str	r3, [r3, #20]
 143 0016 1B61     		str	r3, [r3, #16]
 144              		.loc 1 64 0
 145 0018 7047     		bx	lr
 146              		.cfi_endproc
 147              	.LFE7:
 148              		.size	scheduler_init, .-scheduler_init
 149 001a 00BFAFF3 		.section	.text.chSchReadyI,"ax",%progbits
 149      0080
 150              		.align	2
 151              		.p2align 4,,15
 152              		.global	chSchReadyI
 153              		.thumb
 154              		.thumb_func
 155              		.type	chSchReadyI, %function
 156              	chSchReadyI:
 157              	.LFB8:
 158              		.loc 1 81 0
 159              		.cfi_startproc
 160              		@ args = 0, pretend = 0, frame = 0
 161              		@ frame_needed = 0, uses_anonymous_args = 0
 162              		@ link register save eliminated.
 163              	.LVL6:
 164              		.loc 1 91 0
 165 0000 40F20003 		movw	r3, #:lower16:rlist
ARM GAS  /tmp/ccOlmrMD.s 			page 4


 166              		.loc 1 90 0
 167 0004 0022     		movs	r2, #0
 168              		.loc 1 91 0
 169 0006 8168     		ldr	r1, [r0, #8]
 170              		.loc 1 90 0
 171 0008 0276     		strb	r2, [r0, #24]
 172              		.loc 1 91 0
 173 000a C0F20003 		movt	r3, #:upper16:rlist
 174              	.LVL7:
 175              	.L11:
 176              		.loc 1 93 0 discriminator 1
 177 000e 1B68     		ldr	r3, [r3, #0]
 178              	.LVL8:
 179              		.loc 1 94 0 discriminator 1
 180 0010 9A68     		ldr	r2, [r3, #8]
 181 0012 8A42     		cmp	r2, r1
 182 0014 FBD2     		bcs	.L11
 183              		.loc 1 97 0
 184 0016 5968     		ldr	r1, [r3, #4]
 185              		.loc 1 96 0
 186 0018 0360     		str	r3, [r0, #0]
 187              		.loc 1 97 0
 188 001a 4160     		str	r1, [r0, #4]
 189              		.loc 1 98 0
 190 001c 0860     		str	r0, [r1, #0]
 191 001e 5860     		str	r0, [r3, #4]
 192              		.loc 1 100 0
 193 0020 7047     		bx	lr
 194              		.cfi_endproc
 195              	.LFE8:
 196              		.size	chSchReadyI, .-chSchReadyI
 197 0022 00BFAFF3 		.section	.text.chSchGoSleepS,"ax",%progbits
 197      0080AFF3 
 197      0080AFF3 
 197      0080
 198              		.align	2
 199              		.p2align 4,,15
 200              		.global	chSchGoSleepS
 201              		.thumb
 202              		.thumb_func
 203              		.type	chSchGoSleepS, %function
 204              	chSchGoSleepS:
 205              	.LFB9:
 206              		.loc 1 113 0
 207              		.cfi_startproc
 208              		@ args = 0, pretend = 0, frame = 0
 209              		@ frame_needed = 0, uses_anonymous_args = 0
 210              		@ link register save eliminated.
 211              	.LVL9:
 212              		.loc 1 116 0
 213 0000 40F20003 		movw	r3, #:lower16:rlist
 214 0004 C0F20003 		movt	r3, #:upper16:rlist
 215 0008 D969     		ldr	r1, [r3, #28]
 216              	.LVL10:
 217              		.loc 1 113 0
 218 000a 30B4     		push	{r4, r5}
 219              	.LCFI0:
ARM GAS  /tmp/ccOlmrMD.s 			page 5


 220              		.cfi_def_cfa_offset 8
 221              		.loc 1 116 0
 222 000c 0876     		strb	r0, [r1, #24]
 223              	.LBB23:
 224              	.LBB25:
 225              		.loc 2 59 0
 226 000e 1A68     		ldr	r2, [r3, #0]
 227              	.LBE25:
 228              	.LBE23:
 229              		.loc 1 118 0
 230 0010 1420     		movs	r0, #20
 231              	.LVL11:
 232              	.LBB27:
 233              	.LBB24:
 234              		.loc 2 61 0
 235 0012 1468     		ldr	r4, [r2, #0]
 236              		.cfi_offset 5, -4
 237              		.cfi_offset 4, -8
 238              	.LBE24:
 239              	.LBE27:
 240              		.loc 1 121 0
 241 0014 0125     		movs	r5, #1
 242              		.loc 1 118 0
 243 0016 9861     		str	r0, [r3, #24]
 244              	.LVL12:
 245              		.loc 1 123 0
 246 0018 1046     		mov	r0, r2
 247              	.LBB28:
 248              	.LBB26:
 249              		.loc 2 61 0
 250 001a 6360     		str	r3, [r4, #4]
 251 001c 1C60     		str	r4, [r3, #0]
 252              	.LBE26:
 253              	.LBE28:
 254              		.loc 1 120 0
 255 001e DA61     		str	r2, [r3, #28]
 256              		.loc 1 121 0
 257 0020 1576     		strb	r5, [r2, #24]
 258              		.loc 1 124 0
 259 0022 30BC     		pop	{r4, r5}
 260              		.loc 1 123 0
 261 0024 FFF7FEBF 		b	port_switch
 262              		.cfi_endproc
 263              	.LFE9:
 264              		.size	chSchGoSleepS, .-chSchGoSleepS
 265 0028 AFF30080 		.section	.text.chSchGoSleepTimeoutS,"ax",%progbits
 265      AFF30080 
 266              		.align	2
 267              		.p2align 4,,15
 268              		.global	chSchGoSleepTimeoutS
 269              		.thumb
 270              		.thumb_func
 271              		.type	chSchGoSleepTimeoutS, %function
 272              	chSchGoSleepTimeoutS:
 273              	.LFB11:
 274              		.loc 1 177 0
 275              		.cfi_startproc
ARM GAS  /tmp/ccOlmrMD.s 			page 6


 276              		@ args = 0, pretend = 0, frame = 24
 277              		@ frame_needed = 0, uses_anonymous_args = 0
 278              	.LVL13:
 279 0000 30B5     		push	{r4, r5, lr}
 280              	.LCFI1:
 281              		.cfi_def_cfa_offset 12
 282              		.loc 1 179 0
 283 0002 B1F1FF3F 		cmp	r1, #-1
 284              		.loc 1 177 0
 285 0006 87B0     		sub	sp, sp, #28
 286              	.LCFI2:
 287              		.cfi_def_cfa_offset 40
 288              		.loc 1 177 0
 289 0008 0546     		mov	r5, r0
 290              		.cfi_offset 14, -4
 291              		.cfi_offset 5, -8
 292              		.cfi_offset 4, -12
 293              		.loc 1 179 0
 294 000a 17D0     		beq	.L15
 295              	.LBB29:
 296              		.loc 1 182 0
 297 000c 40F20004 		movw	r4, #:lower16:rlist
 298 0010 C0F20004 		movt	r4, #:upper16:rlist
 299 0014 40F20002 		movw	r2, #:lower16:wakeup
 300 0018 E369     		ldr	r3, [r4, #28]
 301 001a C0F20002 		movt	r2, #:upper16:wakeup
 302 001e 01A8     		add	r0, sp, #4
 303              	.LVL14:
 304 0020 FFF7FEFF 		bl	chVTSetI
 305              	.LVL15:
 306              		.loc 1 183 0
 307 0024 2846     		mov	r0, r5
 308 0026 FFF7FEFF 		bl	chSchGoSleepS
 309              		.loc 1 184 0
 310 002a 049B     		ldr	r3, [sp, #16]
 311 002c 13B1     		cbz	r3, .L16
 312              		.loc 1 185 0
 313 002e 01A8     		add	r0, sp, #4
 314 0030 FFF7FEFF 		bl	chVTResetI
 315              	.L16:
 316              	.LBE29:
 317              		.loc 1 189 0
 318 0034 E069     		ldr	r0, [r4, #28]
 319              		.loc 1 190 0
 320 0036 006A     		ldr	r0, [r0, #32]
 321 0038 07B0     		add	sp, sp, #28
 322 003a 30BD     		pop	{r4, r5, pc}
 323              	.LVL16:
 324              	.L15:
 325 003c 40F20004 		movw	r4, #:lower16:rlist
 326              		.loc 1 188 0
 327 0040 FFF7FEFF 		bl	chSchGoSleepS
 328              	.LVL17:
 329 0044 C0F20004 		movt	r4, #:upper16:rlist
 330 0048 F4E7     		b	.L16
 331              		.cfi_endproc
 332              	.LFE11:
ARM GAS  /tmp/ccOlmrMD.s 			page 7


 333              		.size	chSchGoSleepTimeoutS, .-chSchGoSleepTimeoutS
 334 004a 00BFAFF3 		.section	.text.chSchWakeupS,"ax",%progbits
 334      0080
 335              		.align	2
 336              		.p2align 4,,15
 337              		.global	chSchWakeupS
 338              		.thumb
 339              		.thumb_func
 340              		.type	chSchWakeupS, %function
 341              	chSchWakeupS:
 342              	.LFB12:
 343              		.loc 1 211 0
 344              		.cfi_startproc
 345              		@ args = 0, pretend = 0, frame = 0
 346              		@ frame_needed = 0, uses_anonymous_args = 0
 347              		@ link register save eliminated.
 348              	.LVL18:
 349              		.loc 1 218 0
 350 0000 40F20002 		movw	r2, #:lower16:rlist
 351 0004 C0F20002 		movt	r2, #:upper16:rlist
 352              		.loc 1 211 0
 353 0008 30B4     		push	{r4, r5}
 354              	.LCFI3:
 355              		.cfi_def_cfa_offset 8
 356              		.loc 1 218 0
 357 000a D469     		ldr	r4, [r2, #28]
 358              		.cfi_offset 5, -4
 359              		.cfi_offset 4, -8
 360              		.loc 1 211 0
 361 000c 0346     		mov	r3, r0
 362              		.loc 1 218 0
 363 000e 8568     		ldr	r5, [r0, #8]
 364 0010 A068     		ldr	r0, [r4, #8]
 365              	.LVL19:
 366              		.loc 1 213 0
 367 0012 1962     		str	r1, [r3, #32]
 368              		.loc 1 218 0
 369 0014 8542     		cmp	r5, r0
 370 0016 0CD8     		bhi	.L18
 371              	.LVL20:
 372              	.LBB30:
 373              	.LBB31:
 374              		.loc 1 90 0
 375 0018 0021     		movs	r1, #0
 376              	.LVL21:
 377 001a 1976     		strb	r1, [r3, #24]
 378              	.LVL22:
 379              	.L19:
 380              		.loc 1 93 0
 381 001c 1268     		ldr	r2, [r2, #0]
 382              	.LVL23:
 383              		.loc 1 94 0
 384 001e 9068     		ldr	r0, [r2, #8]
 385 0020 8542     		cmp	r5, r0
 386 0022 FBD9     		bls	.L19
 387              		.loc 1 97 0
 388 0024 5168     		ldr	r1, [r2, #4]
ARM GAS  /tmp/ccOlmrMD.s 			page 8


 389              		.loc 1 96 0
 390 0026 1A60     		str	r2, [r3, #0]
 391              		.loc 1 97 0
 392 0028 5960     		str	r1, [r3, #4]
 393              		.loc 1 98 0
 394 002a 0B60     		str	r3, [r1, #0]
 395 002c 5360     		str	r3, [r2, #4]
 396              	.LBE31:
 397              	.LBE30:
 398              		.loc 1 230 0
 399 002e 30BC     		pop	{r4, r5}
 400 0030 7047     		bx	lr
 401              	.LVL24:
 402              	.L18:
 403              	.LBB32:
 404              	.LBB34:
 405              	.LBB35:
 406              		.loc 1 90 0
 407 0032 0025     		movs	r5, #0
 408 0034 2576     		strb	r5, [r4, #24]
 409              		.loc 1 91 0
 410 0036 1146     		mov	r1, r2
 411              	.LVL25:
 412              	.L21:
 413              		.loc 1 93 0
 414 0038 0968     		ldr	r1, [r1, #0]
 415              	.LVL26:
 416              		.loc 1 94 0
 417 003a 8D68     		ldr	r5, [r1, #8]
 418 003c A842     		cmp	r0, r5
 419 003e FBD9     		bls	.L21
 420              		.loc 1 97 0
 421 0040 4868     		ldr	r0, [r1, #4]
 422              		.loc 1 96 0
 423 0042 2160     		str	r1, [r4, #0]
 424              		.loc 1 97 0
 425 0044 6060     		str	r0, [r4, #4]
 426              		.loc 1 98 0
 427 0046 4C60     		str	r4, [r1, #4]
 428              	.LBE35:
 429              	.LBE34:
 430              		.loc 1 223 0
 431 0048 1421     		movs	r1, #20
 432              	.LVL27:
 433              	.LBB33:
 434              	.LBB36:
 435              		.loc 1 98 0
 436 004a 0460     		str	r4, [r0, #0]
 437              	.LBE36:
 438              	.LBE33:
 439              		.loc 1 223 0
 440 004c 9161     		str	r1, [r2, #24]
 441              		.loc 1 225 0
 442 004e D361     		str	r3, [r2, #28]
 443              		.loc 1 228 0
 444 0050 1846     		mov	r0, r3
 445              		.loc 1 226 0
ARM GAS  /tmp/ccOlmrMD.s 			page 9


 446 0052 0122     		movs	r2, #1
 447              		.loc 1 228 0
 448 0054 2146     		mov	r1, r4
 449              		.loc 1 226 0
 450 0056 1A76     		strb	r2, [r3, #24]
 451              	.LBE32:
 452              		.loc 1 230 0
 453 0058 30BC     		pop	{r4, r5}
 454              	.LBB37:
 455              		.loc 1 228 0
 456 005a FFF7FEBF 		b	port_switch
 457              	.LBE37:
 458              		.cfi_endproc
 459              	.LFE12:
 460              		.size	chSchWakeupS, .-chSchWakeupS
 461 005e 00BF     		.section	.text.chSchDoRescheduleI,"ax",%progbits
 462              		.align	2
 463              		.p2align 4,,15
 464              		.global	chSchDoRescheduleI
 465              		.thumb
 466              		.thumb_func
 467              		.type	chSchDoRescheduleI, %function
 468              	chSchDoRescheduleI:
 469              	.LFB13:
 470              		.loc 1 241 0
 471              		.cfi_startproc
 472              		@ args = 0, pretend = 0, frame = 0
 473              		@ frame_needed = 0, uses_anonymous_args = 0
 474              		@ link register save eliminated.
 475              		.loc 1 245 0
 476 0000 40F2000C 		movw	ip, #:lower16:rlist
 477 0004 C0F2000C 		movt	ip, #:upper16:rlist
 478              	.LBB38:
 479              	.LBB40:
 480              		.loc 2 59 0
 481 0008 DCF80000 		ldr	r0, [ip, #0]
 482              	.LBE40:
 483              	.LBE38:
 484              		.loc 1 241 0
 485 000c 70B4     		push	{r4, r5, r6}
 486              	.LCFI4:
 487              		.cfi_def_cfa_offset 12
 488              		.loc 1 247 0
 489 000e DCF81C10 		ldr	r1, [ip, #28]
 490              	.LVL28:
 491              	.LBB43:
 492              	.LBB41:
 493              		.loc 2 61 0
 494 0012 0568     		ldr	r5, [r0, #0]
 495              		.cfi_offset 6, -4
 496              		.cfi_offset 5, -8
 497              		.cfi_offset 4, -12
 498              	.LBE41:
 499              	.LBE43:
 500              		.loc 1 250 0
 501 0014 0122     		movs	r2, #1
 502              		.loc 1 245 0
ARM GAS  /tmp/ccOlmrMD.s 			page 10


 503 0016 1426     		movs	r6, #20
 504              	.LBB44:
 505              	.LBB46:
 506              		.loc 1 90 0
 507 0018 8C68     		ldr	r4, [r1, #8]
 508              	.LBE46:
 509              	.LBE44:
 510              		.loc 1 245 0
 511 001a CCF81860 		str	r6, [ip, #24]
 512              	.LBB48:
 513              	.LBB39:
 514              		.loc 2 61 0
 515 001e C5F804C0 		str	ip, [r5, #4]
 516              	.LBE39:
 517              	.LBE48:
 518              		.loc 1 249 0
 519 0022 CCF81C00 		str	r0, [ip, #28]
 520              		.loc 1 250 0
 521 0026 0276     		strb	r2, [r0, #24]
 522              	.LVL29:
 523              	.LBB49:
 524              	.LBB45:
 525              		.loc 1 90 0
 526 0028 0022     		movs	r2, #0
 527              	.LBE45:
 528              	.LBE49:
 529              	.LBB50:
 530              	.LBB42:
 531              		.loc 2 61 0
 532 002a 6346     		mov	r3, ip
 533 002c CCF80050 		str	r5, [ip, #0]
 534              	.LBE42:
 535              	.LBE50:
 536              	.LBB51:
 537              	.LBB47:
 538              		.loc 1 90 0
 539 0030 0A76     		strb	r2, [r1, #24]
 540              	.LVL30:
 541              	.L25:
 542              		.loc 1 93 0
 543 0032 1B68     		ldr	r3, [r3, #0]
 544              	.LVL31:
 545              		.loc 1 94 0
 546 0034 9A68     		ldr	r2, [r3, #8]
 547 0036 A242     		cmp	r2, r4
 548 0038 FBD2     		bcs	.L25
 549              		.loc 1 97 0
 550 003a 5A68     		ldr	r2, [r3, #4]
 551              		.loc 1 96 0
 552 003c 0B60     		str	r3, [r1, #0]
 553              		.loc 1 97 0
 554 003e 4A60     		str	r2, [r1, #4]
 555              		.loc 1 98 0
 556 0040 1160     		str	r1, [r2, #0]
 557 0042 5960     		str	r1, [r3, #4]
 558              	.LBE47:
 559              	.LBE51:
ARM GAS  /tmp/ccOlmrMD.s 			page 11


 560              		.loc 1 254 0
 561 0044 70BC     		pop	{r4, r5, r6}
 562              		.loc 1 253 0
 563 0046 FFF7FEBF 		b	port_switch
 564              		.cfi_endproc
 565              	.LFE13:
 566              		.size	chSchDoRescheduleI, .-chSchDoRescheduleI
 567 004a 00BFAFF3 		.section	.text.chSchRescheduleS,"ax",%progbits
 567      0080
 568              		.align	2
 569              		.p2align 4,,15
 570              		.global	chSchRescheduleS
 571              		.thumb
 572              		.thumb_func
 573              		.type	chSchRescheduleS, %function
 574              	chSchRescheduleS:
 575              	.LFB14:
 576              		.loc 1 265 0
 577              		.cfi_startproc
 578              		@ args = 0, pretend = 0, frame = 0
 579              		@ frame_needed = 0, uses_anonymous_args = 0
 580              		@ link register save eliminated.
 581              		.loc 1 267 0
 582 0000 40F2000C 		movw	ip, #:lower16:rlist
 583 0004 C0F2000C 		movt	ip, #:upper16:rlist
 584 0008 DCF80010 		ldr	r1, [ip, #0]
 585 000c DCF81C00 		ldr	r0, [ip, #28]
 586 0010 8A68     		ldr	r2, [r1, #8]
 587 0012 8368     		ldr	r3, [r0, #8]
 588 0014 9A42     		cmp	r2, r3
 589 0016 00D8     		bhi	.L29
 590 0018 7047     		bx	lr
 591              	.L29:
 592              		.loc 1 269 0
 593              		.loc 1 268 0
 594 001a FFF7FEBF 		b	chSchDoRescheduleI
 595              		.cfi_endproc
 596              	.LFE14:
 597              		.size	chSchRescheduleS, .-chSchRescheduleS
 598 001e 00BF     		.section	.text.chSchIsRescRequiredExI,"ax",%progbits
 599              		.align	2
 600              		.p2align 4,,15
 601              		.global	chSchIsRescRequiredExI
 602              		.thumb
 603              		.thumb_func
 604              		.type	chSchIsRescRequiredExI, %function
 605              	chSchIsRescRequiredExI:
 606              	.LFB15:
 607              		.loc 1 285 0
 608              		.cfi_startproc
 609              		@ args = 0, pretend = 0, frame = 0
 610              		@ frame_needed = 0, uses_anonymous_args = 0
 611              		@ link register save eliminated.
 612              		.loc 1 286 0
 613 0000 40F20003 		movw	r3, #:lower16:rlist
 614 0004 C0F20003 		movt	r3, #:upper16:rlist
 615 0008 1868     		ldr	r0, [r3, #0]
ARM GAS  /tmp/ccOlmrMD.s 			page 12


 616              		.loc 1 287 0
 617 000a D969     		ldr	r1, [r3, #28]
 618              		.loc 1 293 0
 619 000c 9A69     		ldr	r2, [r3, #24]
 620              		.loc 1 286 0
 621 000e 8068     		ldr	r0, [r0, #8]
 622              	.LVL32:
 623              		.loc 1 287 0
 624 0010 8B68     		ldr	r3, [r1, #8]
 625              	.LVL33:
 626              		.loc 1 293 0
 627 0012 22B9     		cbnz	r2, .L33
 628              		.loc 1 293 0 is_stmt 0 discriminator 2
 629 0014 9842     		cmp	r0, r3
 630 0016 34BF     		ite	cc
 631 0018 0020     		movcc	r0, #0
 632 001a 0120     		movcs	r0, #1
 633              		.loc 1 299 0 is_stmt 1 discriminator 2
 634 001c 7047     		bx	lr
 635              	.L33:
 636              		.loc 1 293 0 discriminator 1
 637 001e 9842     		cmp	r0, r3
 638 0020 94BF     		ite	ls
 639 0022 0020     		movls	r0, #0
 640 0024 0120     		movhi	r0, #1
 641 0026 7047     		bx	lr
 642              		.cfi_endproc
 643              	.LFE15:
 644              		.size	chSchIsRescRequiredExI, .-chSchIsRescRequiredExI
 645              		.comm	rlist,32,4
 646 0028 AFF30080 		.text
 646      AFF30080 
 647              	.Letext0: