ARM GAS  /tmp/ccCWhezY.s 			page 1


   1              		.syntax unified
   2              		.cpu cortex-m3
   3              		.fpu softvfp
   4              		.eabi_attribute 20, 1
   5              		.eabi_attribute 21, 1
   6              		.eabi_attribute 23, 3
   7              		.eabi_attribute 24, 1
   8              		.eabi_attribute 25, 1
   9              		.eabi_attribute 26, 1
  10              		.eabi_attribute 30, 2
  11              		.eabi_attribute 18, 4
  12              		.thumb
  13              		.file	"chsem.c"
  20 0000 B0030000 		.text
  20      02004001 
  20      00000201 
  20      FB0E0D00 
  20      01010101 
  21              	.Ltext0:
  22              		.cfi_sections	.debug_frame
  23              		.section	.text.chSemInit,"ax",%progbits
  24              		.align	2
  25              		.p2align 4,,15
  26              		.global	chSemInit
  27              		.thumb
  28              		.thumb_func
  29              		.type	chSemInit, %function
  30              	chSemInit:
  31              	.LFB7:
  32              		.file 1 "chibios/os/kernel/src/chsem.c"
  33              		.loc 1 85 0
  34              		.cfi_startproc
  35              		@ args = 0, pretend = 0, frame = 0
  36              		@ frame_needed = 0, uses_anonymous_args = 0
  37              		@ link register save eliminated.
  38              	.LVL0:
  39              		.loc 1 89 0
  40 0000 4060     		str	r0, [r0, #4]
  41 0002 0060     		str	r0, [r0, #0]
  42              		.loc 1 90 0
  43 0004 8160     		str	r1, [r0, #8]
  44              		.loc 1 91 0
  45 0006 7047     		bx	lr
  46              		.cfi_endproc
  47              	.LFE7:
  48              		.size	chSemInit, .-chSemInit
  49 0008 AFF30080 		.section	.text.chSemResetI,"ax",%progbits
  49      AFF30080 
  50              		.align	2
  51              		.p2align 4,,15
  52              		.global	chSemResetI
ARM GAS  /tmp/ccCWhezY.s 			page 2


  53              		.thumb
  54              		.thumb_func
  55              		.type	chSemResetI, %function
  56              	chSemResetI:
  57              	.LFB9:
  58              		.loc 1 135 0
  59              		.cfi_startproc
  60              		@ args = 0, pretend = 0, frame = 0
  61              		@ frame_needed = 0, uses_anonymous_args = 0
  62              	.LVL1:
  63 0000 F8B5     		push	{r3, r4, r5, r6, r7, lr}
  64              	.LCFI0:
  65              		.cfi_def_cfa_offset 24
  66              		.loc 1 145 0
  67 0002 8768     		ldr	r7, [r0, #8]
  68              		.cfi_offset 14, -4
  69              		.cfi_offset 7, -8
  70              		.cfi_offset 6, -12
  71              		.cfi_offset 5, -16
  72              		.cfi_offset 4, -20
  73              		.cfi_offset 3, -24
  74              	.LVL2:
  75              		.loc 1 135 0
  76 0004 0446     		mov	r4, r0
  77              		.loc 1 147 0
  78 0006 0137     		adds	r7, r7, #1
  79 0008 002F     		cmp	r7, #0
  80              		.loc 1 146 0
  81 000a 8160     		str	r1, [r0, #8]
  82              	.LVL3:
  83              		.loc 1 147 0
  84 000c 29DC     		bgt	.L2
  85              	.LBB24:
  86              	.LBB28:
  87              		.file 2 "chibios/os/kernel/include/chinline.h"
  88              		.loc 2 66 0
  89 000e 4068     		ldr	r0, [r0, #4]
  90              	.LVL4:
  91              	.LBE28:
  92              	.LBE24:
  93              		.loc 1 147 0
  94 0010 7D1C     		adds	r5, r7, #1
  95              	.LBB33:
  96              	.LBB29:
  97              		.loc 2 68 0
  98 0012 4368     		ldr	r3, [r0, #4]
  99              	.LBE29:
 100              	.LBE33:
 101              		.loc 1 148 0
 102 0014 6FF00106 		mvn	r6, #1
 103              	.LBB34:
 104              	.LBB27:
 105              		.loc 2 68 0
 106 0018 6360     		str	r3, [r4, #4]
 107 001a 1C60     		str	r4, [r3, #0]
 108              	.LBE27:
 109              	.LBE34:
ARM GAS  /tmp/ccCWhezY.s 			page 3


 110              		.loc 1 148 0
 111 001c FFF7FEFF 		bl	chSchReadyI
 112              	.LVL5:
 113              		.loc 1 147 0
 114 0020 002D     		cmp	r5, #0
 115              		.loc 1 148 0
 116 0022 0662     		str	r6, [r0, #32]
 117 0024 07F00107 		and	r7, r7, #1
 118              	.LVL6:
 119              		.loc 1 147 0
 120 0028 1CDC     		bgt	.L13
 121 002a 4FB1     		cbz	r7, .L5
 122              	.LBB35:
 123              	.LBB30:
 124              		.loc 2 66 0
 125 002c 6068     		ldr	r0, [r4, #4]
 126              	.LBE30:
 127              	.LBE35:
 128              		.loc 1 147 0
 129 002e 0135     		adds	r5, r5, #1
 130              	.LBB36:
 131              	.LBB26:
 132              		.loc 2 68 0
 133 0030 4368     		ldr	r3, [r0, #4]
 134 0032 6360     		str	r3, [r4, #4]
 135 0034 1C60     		str	r4, [r3, #0]
 136              	.LBE26:
 137              	.LBE36:
 138              		.loc 1 148 0
 139 0036 FFF7FEFF 		bl	chSchReadyI
 140              		.loc 1 147 0
 141 003a 002D     		cmp	r5, #0
 142              		.loc 1 148 0
 143 003c 0662     		str	r6, [r0, #32]
 144              		.loc 1 147 0
 145 003e 12DC     		bgt	.L14
 146              	.L5:
 147              	.LBB37:
 148              	.LBB31:
 149              		.loc 2 66 0
 150 0040 6068     		ldr	r0, [r4, #4]
 151              	.LBE31:
 152              	.LBE37:
 153              		.loc 1 147 0
 154 0042 0235     		adds	r5, r5, #2
 155              	.LBB38:
 156              	.LBB25:
 157              		.loc 2 68 0
 158 0044 4268     		ldr	r2, [r0, #4]
 159 0046 6260     		str	r2, [r4, #4]
 160 0048 1460     		str	r4, [r2, #0]
 161              	.LBE25:
 162              	.LBE38:
 163              		.loc 1 148 0
 164 004a FFF7FEFF 		bl	chSchReadyI
 165 004e 0662     		str	r6, [r0, #32]
 166              	.LBB39:
ARM GAS  /tmp/ccCWhezY.s 			page 4


 167              	.LBB32:
 168              		.loc 2 66 0
 169 0050 6068     		ldr	r0, [r4, #4]
 170              		.loc 2 68 0
 171 0052 4168     		ldr	r1, [r0, #4]
 172 0054 6160     		str	r1, [r4, #4]
 173 0056 0C60     		str	r4, [r1, #0]
 174              	.LBE32:
 175              	.LBE39:
 176              		.loc 1 148 0
 177 0058 FFF7FEFF 		bl	chSchReadyI
 178              		.loc 1 147 0
 179 005c 002D     		cmp	r5, #0
 180              		.loc 1 148 0
 181 005e 0662     		str	r6, [r0, #32]
 182              		.loc 1 147 0
 183 0060 EEDD     		ble	.L5
 184              	.LVL7:
 185              	.L2:
 186 0062 F8BD     		pop	{r3, r4, r5, r6, r7, pc}
 187              	.LVL8:
 188              	.L13:
 189 0064 F8BD     		pop	{r3, r4, r5, r6, r7, pc}
 190              	.L14:
 191 0066 F8BD     		pop	{r3, r4, r5, r6, r7, pc}
 192              		.cfi_endproc
 193              	.LFE9:
 194              		.size	chSemResetI, .-chSemResetI
 195 0068 AFF30080 		.section	.text.chSemReset,"ax",%progbits
 195      AFF30080 
 196              		.align	2
 197              		.p2align 4,,15
 198              		.global	chSemReset
 199              		.thumb
 200              		.thumb_func
 201              		.type	chSemReset, %function
 202              	chSemReset:
 203              	.LFB8:
 204              		.loc 1 108 0
 205              		.cfi_startproc
 206              		@ args = 0, pretend = 0, frame = 0
 207              		@ frame_needed = 0, uses_anonymous_args = 0
 208              	.LVL9:
 209 0000 08B5     		push	{r3, lr}
 210              	.LCFI1:
 211              		.cfi_def_cfa_offset 8
 212              	.LBB40:
 213              		.loc 1 110 0
 214 0002 2023     		movs	r3, #32
 215              		.cfi_offset 14, -4
 216              		.cfi_offset 3, -8
 217              	.LVL10:
 218              	@ 110 "chibios/os/kernel/src/chsem.c" 1
 219 0004 83F31188 		msr     BASEPRI, r3
 220              	@ 0 "" 2
 221              	.LVL11:
 222              		.thumb
ARM GAS  /tmp/ccCWhezY.s 			page 5


 223              	.LBE40:
 224              		.loc 1 111 0
 225 0008 FFF7FEFF 		bl	chSemResetI
 226              	.LVL12:
 227              		.loc 1 112 0
 228 000c FFF7FEFF 		bl	chSchRescheduleS
 229              	.LBB41:
 230              		.loc 1 113 0
 231 0010 0023     		movs	r3, #0
 232              	.LVL13:
 233              	@ 113 "chibios/os/kernel/src/chsem.c" 1
 234 0012 83F31188 		msr     BASEPRI, r3
 235              	@ 0 "" 2
 236              	.LVL14:
 237              		.thumb
 238              	.LBE41:
 239              		.loc 1 114 0
 240 0016 08BD     		pop	{r3, pc}
 241              		.cfi_endproc
 242              	.LFE8:
 243              		.size	chSemReset, .-chSemReset
 244 0018 AFF30080 		.section	.text.chSemWaitS,"ax",%progbits
 244      AFF30080 
 245              		.align	2
 246              		.p2align 4,,15
 247              		.global	chSemWaitS
 248              		.thumb
 249              		.thumb_func
 250              		.type	chSemWaitS, %function
 251              	chSemWaitS:
 252              	.LFB11:
 253              		.loc 1 184 0
 254              		.cfi_startproc
 255              		@ args = 0, pretend = 0, frame = 0
 256              		@ frame_needed = 0, uses_anonymous_args = 0
 257              	.LVL15:
 258 0000 0346     		mov	r3, r0
 259              		.loc 1 193 0
 260 0002 8068     		ldr	r0, [r0, #8]
 261              	.LVL16:
 262              		.loc 1 184 0
 263 0004 10B5     		push	{r4, lr}
 264              	.LCFI2:
 265              		.cfi_def_cfa_offset 8
 266              		.loc 1 193 0
 267 0006 421E     		subs	r2, r0, #1
 268 0008 002A     		cmp	r2, #0
 269 000a 9A60     		str	r2, [r3, #8]
 270 000c 01DB     		blt	.L19
 271              		.cfi_offset 14, -4
 272              		.cfi_offset 4, -8
 273              		.loc 1 199 0
 274 000e 0020     		movs	r0, #0
 275              		.loc 1 200 0
 276 0010 10BD     		pop	{r4, pc}
 277              	.L19:
 278              		.loc 1 194 0
ARM GAS  /tmp/ccCWhezY.s 			page 6


 279 0012 40F20004 		movw	r4, #:lower16:rlist
 280 0016 C0F20004 		movt	r4, #:upper16:rlist
 281 001a E269     		ldr	r2, [r4, #28]
 282              		.loc 1 196 0
 283 001c 0320     		movs	r0, #3
 284              		.loc 1 194 0
 285 001e 1362     		str	r3, [r2, #32]
 286              	.LVL17:
 287              	.LBB42:
 288              	.LBB43:
 289              		.loc 2 54 0
 290 0020 5968     		ldr	r1, [r3, #4]
 291              		.loc 2 53 0
 292 0022 1360     		str	r3, [r2, #0]
 293              		.loc 2 54 0
 294 0024 5160     		str	r1, [r2, #4]
 295              		.loc 2 55 0
 296 0026 5A60     		str	r2, [r3, #4]
 297 0028 0A60     		str	r2, [r1, #0]
 298              	.LBE43:
 299              	.LBE42:
 300              		.loc 1 196 0
 301 002a FFF7FEFF 		bl	chSchGoSleepS
 302              	.LVL18:
 303              		.loc 1 197 0
 304 002e E369     		ldr	r3, [r4, #28]
 305 0030 186A     		ldr	r0, [r3, #32]
 306 0032 10BD     		pop	{r4, pc}
 307              		.cfi_endproc
 308              	.LFE11:
 309              		.size	chSemWaitS, .-chSemWaitS
 310 0034 AFF30080 		.section	.text.chSemWait,"ax",%progbits
 310      AFF30080 
 310      AFF30080 
 311              		.align	2
 312              		.p2align 4,,15
 313              		.global	chSemWait
 314              		.thumb
 315              		.thumb_func
 316              		.type	chSemWait, %function
 317              	chSemWait:
 318              	.LFB10:
 319              		.loc 1 163 0
 320              		.cfi_startproc
 321              		@ args = 0, pretend = 0, frame = 0
 322              		@ frame_needed = 0, uses_anonymous_args = 0
 323              	.LVL19:
 324 0000 08B5     		push	{r3, lr}
 325              	.LCFI3:
 326              		.cfi_def_cfa_offset 8
 327              	.LBB44:
 328              		.loc 1 166 0
 329 0002 2023     		movs	r3, #32
 330              		.cfi_offset 14, -4
 331              		.cfi_offset 3, -8
 332              	.LVL20:
 333              	@ 166 "chibios/os/kernel/src/chsem.c" 1
ARM GAS  /tmp/ccCWhezY.s 			page 7


 334 0004 83F31188 		msr     BASEPRI, r3
 335              	@ 0 "" 2
 336              	.LVL21:
 337              		.thumb
 338              	.LBE44:
 339              		.loc 1 167 0
 340 0008 FFF7FEFF 		bl	chSemWaitS
 341              	.LVL22:
 342              	.LBB45:
 343              		.loc 1 168 0
 344 000c 0023     		movs	r3, #0
 345              	.LVL23:
 346              	@ 168 "chibios/os/kernel/src/chsem.c" 1
 347 000e 83F31188 		msr     BASEPRI, r3
 348              	@ 0 "" 2
 349              	.LVL24:
 350              		.thumb
 351              	.LBE45:
 352              		.loc 1 170 0
 353 0012 08BD     		pop	{r3, pc}
 354              		.cfi_endproc
 355              	.LFE10:
 356              		.size	chSemWait, .-chSemWait
 357 0014 AFF30080 		.section	.text.chSemWaitTimeoutS,"ax",%progbits
 357      AFF30080 
 357      AFF30080 
 358              		.align	2
 359              		.p2align 4,,15
 360              		.global	chSemWaitTimeoutS
 361              		.thumb
 362              		.thumb_func
 363              		.type	chSemWaitTimeoutS, %function
 364              	chSemWaitTimeoutS:
 365              	.LFB13:
 366              		.loc 1 249 0
 367              		.cfi_startproc
 368              		@ args = 0, pretend = 0, frame = 0
 369              		@ frame_needed = 0, uses_anonymous_args = 0
 370              		@ link register save eliminated.
 371              	.LVL25:
 372 0000 0346     		mov	r3, r0
 373              		.loc 1 258 0
 374 0002 8068     		ldr	r0, [r0, #8]
 375              	.LVL26:
 376              		.loc 1 249 0
 377 0004 10B4     		push	{r4}
 378              	.LCFI4:
 379              		.cfi_def_cfa_offset 4
 380              		.loc 1 258 0
 381 0006 421E     		subs	r2, r0, #1
 382 0008 002A     		cmp	r2, #0
 383              		.loc 1 249 0
 384 000a 0C46     		mov	r4, r1
 385              		.cfi_offset 4, -4
 386              		.loc 1 258 0
 387 000c 9A60     		str	r2, [r3, #8]
 388 000e 02DB     		blt	.L25
ARM GAS  /tmp/ccCWhezY.s 			page 8


 389              		.loc 1 267 0
 390 0010 0020     		movs	r0, #0
 391              	.L22:
 392              		.loc 1 268 0
 393 0012 10BC     		pop	{r4}
 394 0014 7047     		bx	lr
 395              	.L25:
 396              		.loc 1 259 0
 397 0016 71B1     		cbz	r1, .L26
 398              		.loc 1 263 0
 399 0018 40F20000 		movw	r0, #:lower16:rlist
 400 001c C0F20000 		movt	r0, #:upper16:rlist
 401 0020 C269     		ldr	r2, [r0, #28]
 402              		.loc 1 265 0
 403 0022 0320     		movs	r0, #3
 404              		.loc 1 263 0
 405 0024 1362     		str	r3, [r2, #32]
 406              	.LVL27:
 407              	.LBB46:
 408              	.LBB47:
 409              		.loc 2 54 0
 410 0026 5C68     		ldr	r4, [r3, #4]
 411              		.loc 2 53 0
 412 0028 1360     		str	r3, [r2, #0]
 413              		.loc 2 54 0
 414 002a 5460     		str	r4, [r2, #4]
 415              		.loc 2 55 0
 416 002c 5A60     		str	r2, [r3, #4]
 417 002e 2260     		str	r2, [r4, #0]
 418              	.LBE47:
 419              	.LBE46:
 420              		.loc 1 268 0
 421 0030 10BC     		pop	{r4}
 422              		.loc 1 265 0
 423 0032 FFF7FEBF 		b	chSchGoSleepTimeoutS
 424              	.LVL28:
 425              	.L26:
 426              		.loc 1 260 0
 427 0036 9860     		str	r0, [r3, #8]
 428              		.loc 1 261 0
 429 0038 4FF0FF30 		mov	r0, #-1
 430 003c E9E7     		b	.L22
 431              		.cfi_endproc
 432              	.LFE13:
 433              		.size	chSemWaitTimeoutS, .-chSemWaitTimeoutS
 434 003e 00BF     		.section	.text.chSemWaitTimeout,"ax",%progbits
 435              		.align	2
 436              		.p2align 4,,15
 437              		.global	chSemWaitTimeout
 438              		.thumb
 439              		.thumb_func
 440              		.type	chSemWaitTimeout, %function
 441              	chSemWaitTimeout:
 442              	.LFB12:
 443              		.loc 1 221 0
 444              		.cfi_startproc
 445              		@ args = 0, pretend = 0, frame = 0
ARM GAS  /tmp/ccCWhezY.s 			page 9


 446              		@ frame_needed = 0, uses_anonymous_args = 0
 447              	.LVL29:
 448 0000 08B5     		push	{r3, lr}
 449              	.LCFI5:
 450              		.cfi_def_cfa_offset 8
 451              	.LBB48:
 452              		.loc 1 224 0
 453 0002 2023     		movs	r3, #32
 454              		.cfi_offset 14, -4
 455              		.cfi_offset 3, -8
 456              	.LVL30:
 457              	@ 224 "chibios/os/kernel/src/chsem.c" 1
 458 0004 83F31188 		msr     BASEPRI, r3
 459              	@ 0 "" 2
 460              	.LVL31:
 461              		.thumb
 462              	.LBE48:
 463              		.loc 1 225 0
 464 0008 FFF7FEFF 		bl	chSemWaitTimeoutS
 465              	.LVL32:
 466              	.LBB49:
 467              		.loc 1 226 0
 468 000c 0023     		movs	r3, #0
 469              	.LVL33:
 470              	@ 226 "chibios/os/kernel/src/chsem.c" 1
 471 000e 83F31188 		msr     BASEPRI, r3
 472              	@ 0 "" 2
 473              	.LVL34:
 474              		.thumb
 475              	.LBE49:
 476              		.loc 1 228 0
 477 0012 08BD     		pop	{r3, pc}
 478              		.cfi_endproc
 479              	.LFE12:
 480              		.size	chSemWaitTimeout, .-chSemWaitTimeout
 481 0014 AFF30080 		.section	.text.chSemSignal,"ax",%progbits
 481      AFF30080 
 481      AFF30080 
 482              		.align	2
 483              		.p2align 4,,15
 484              		.global	chSemSignal
 485              		.thumb
 486              		.thumb_func
 487              		.type	chSemSignal, %function
 488              	chSemSignal:
 489              	.LFB14:
 490              		.loc 1 277 0
 491              		.cfi_startproc
 492              		@ args = 0, pretend = 0, frame = 0
 493              		@ frame_needed = 0, uses_anonymous_args = 0
 494              	.LVL35:
 495 0000 08B5     		push	{r3, lr}
 496              	.LCFI6:
 497              		.cfi_def_cfa_offset 8
 498              		.loc 1 277 0
 499 0002 0246     		mov	r2, r0
 500              	.LBB50:
ARM GAS  /tmp/ccCWhezY.s 			page 10


 501              		.loc 1 286 0
 502 0004 2023     		movs	r3, #32
 503              		.cfi_offset 14, -4
 504              		.cfi_offset 3, -8
 505              	.LVL36:
 506              	@ 286 "chibios/os/kernel/src/chsem.c" 1
 507 0006 83F31188 		msr     BASEPRI, r3
 508              	@ 0 "" 2
 509              	.LVL37:
 510              		.thumb
 511              	.LBE50:
 512              		.loc 1 287 0
 513 000a 8068     		ldr	r0, [r0, #8]
 514              	.LVL38:
 515 000c 431C     		adds	r3, r0, #1
 516              	.LVL39:
 517 000e 002B     		cmp	r3, #0
 518 0010 9360     		str	r3, [r2, #8]
 519 0012 03DD     		ble	.L30
 520              	.LBB51:
 521              		.loc 1 289 0
 522 0014 0023     		movs	r3, #0
 523              	.LVL40:
 524              	@ 289 "chibios/os/kernel/src/chsem.c" 1
 525 0016 83F31188 		msr     BASEPRI, r3
 526              	@ 0 "" 2
 527              	.LVL41:
 528              		.thumb
 529              	.LBE51:
 530              		.loc 1 290 0
 531 001a 08BD     		pop	{r3, pc}
 532              	.LVL42:
 533              	.L30:
 534              	.LBB52:
 535              	.LBB53:
 536              		.loc 2 59 0
 537 001c 1068     		ldr	r0, [r2, #0]
 538              	.LVL43:
 539              	.LBE53:
 540              	.LBE52:
 541              		.loc 1 288 0
 542 001e 0021     		movs	r1, #0
 543              	.LBB55:
 544              	.LBB54:
 545              		.loc 2 61 0
 546 0020 0368     		ldr	r3, [r0, #0]
 547 0022 1360     		str	r3, [r2, #0]
 548 0024 5A60     		str	r2, [r3, #4]
 549              	.LBE54:
 550              	.LBE55:
 551              		.loc 1 288 0
 552 0026 FFF7FEFF 		bl	chSchWakeupS
 553              	.LVL44:
 554              	.LBB56:
 555              		.loc 1 289 0
 556 002a 0023     		movs	r3, #0
 557              	@ 289 "chibios/os/kernel/src/chsem.c" 1
ARM GAS  /tmp/ccCWhezY.s 			page 11


 558 002c 83F31188 		msr     BASEPRI, r3
 559              	@ 0 "" 2
 560              	.LVL45:
 561              		.thumb
 562              	.LBE56:
 563              		.loc 1 290 0
 564 0030 08BD     		pop	{r3, pc}
 565              		.cfi_endproc
 566              	.LFE14:
 567              		.size	chSemSignal, .-chSemSignal
 568 0032 00BFAFF3 		.section	.text.chSemSignalI,"ax",%progbits
 568      0080AFF3 
 568      0080AFF3 
 568      0080
 569              		.align	2
 570              		.p2align 4,,15
 571              		.global	chSemSignalI
 572              		.thumb
 573              		.thumb_func
 574              		.type	chSemSignalI, %function
 575              	chSemSignalI:
 576              	.LFB15:
 577              		.loc 1 303 0
 578              		.cfi_startproc
 579              		@ args = 0, pretend = 0, frame = 0
 580              		@ frame_needed = 0, uses_anonymous_args = 0
 581              		@ link register save eliminated.
 582              	.LVL46:
 583              		.loc 1 303 0
 584 0000 0346     		mov	r3, r0
 585              		.loc 1 312 0
 586 0002 8068     		ldr	r0, [r0, #8]
 587              	.LVL47:
 588 0004 421C     		adds	r2, r0, #1
 589 0006 002A     		cmp	r2, #0
 590 0008 9A60     		str	r2, [r3, #8]
 591 000a 00DD     		ble	.L33
 592 000c 7047     		bx	lr
 593              	.L33:
 594              	.LVL48:
 595              	.LBB57:
 596              	.LBB59:
 597              	.LBB60:
 598              		.loc 2 59 0
 599 000e 1A68     		ldr	r2, [r3, #0]
 600              	.LVL49:
 601              		.loc 2 61 0
 602 0010 1168     		ldr	r1, [r2, #0]
 603              	.LBE60:
 604              	.LBE59:
 605              		.loc 1 317 0
 606 0012 1046     		mov	r0, r2
 607              	.LBB58:
 608              	.LBB61:
 609              		.loc 2 61 0
 610 0014 1960     		str	r1, [r3, #0]
 611 0016 4B60     		str	r3, [r1, #4]
ARM GAS  /tmp/ccCWhezY.s 			page 12


 612              	.LBE61:
 613              	.LBE58:
 614              		.loc 1 316 0
 615 0018 0023     		movs	r3, #0
 616              	.LVL50:
 617 001a 1362     		str	r3, [r2, #32]
 618              	.LBE57:
 619              		.loc 1 319 0
 620              	.LBB62:
 621              		.loc 1 317 0
 622 001c FFF7FEBF 		b	chSchReadyI
 623              	.LBE62:
 624              		.cfi_endproc
 625              	.LFE15:
 626              		.size	chSemSignalI, .-chSemSignalI
 627              		.section	.text.chSemSetCounterI,"ax",%progbits
 628              		.align	2
 629              		.p2align 4,,15
 630              		.global	chSemSetCounterI
 631              		.thumb
 632              		.thumb_func
 633              		.type	chSemSetCounterI, %function
 634              	chSemSetCounterI:
 635              	.LFB16:
 636              		.loc 1 337 0
 637              		.cfi_startproc
 638              		@ args = 0, pretend = 0, frame = 0
 639              		@ frame_needed = 0, uses_anonymous_args = 0
 640              	.LVL51:
 641 0000 F8B5     		push	{r3, r4, r5, r6, r7, lr}
 642              	.LCFI7:
 643              		.cfi_def_cfa_offset 24
 644              		.loc 1 347 0
 645 0002 8768     		ldr	r7, [r0, #8]
 646              		.cfi_offset 14, -4
 647              		.cfi_offset 7, -8
 648              		.cfi_offset 6, -12
 649              		.cfi_offset 5, -16
 650              		.cfi_offset 4, -20
 651              		.cfi_offset 3, -24
 652              	.LVL52:
 653              		.loc 1 337 0
 654 0004 0446     		mov	r4, r0
 655              		.loc 1 349 0
 656 0006 0137     		adds	r7, r7, #1
 657 0008 002F     		cmp	r7, #0
 658              		.loc 1 348 0
 659 000a 8160     		str	r1, [r0, #8]
 660              	.LVL53:
 661              		.loc 1 349 0
 662 000c 28DC     		bgt	.L34
 663              	.LBB63:
 664              	.LBB67:
 665              		.loc 2 66 0
 666 000e 4068     		ldr	r0, [r0, #4]
 667              	.LVL54:
 668              	.LBE67:
ARM GAS  /tmp/ccCWhezY.s 			page 13


 669              	.LBE63:
 670              		.loc 1 350 0
 671 0010 0026     		movs	r6, #0
 672              	.LBB72:
 673              	.LBB68:
 674              		.loc 2 68 0
 675 0012 4368     		ldr	r3, [r0, #4]
 676              	.LBE68:
 677              	.LBE72:
 678              		.loc 1 349 0
 679 0014 7D1C     		adds	r5, r7, #1
 680              	.LBB73:
 681              	.LBB66:
 682              		.loc 2 68 0
 683 0016 6360     		str	r3, [r4, #4]
 684 0018 1C60     		str	r4, [r3, #0]
 685              	.LBE66:
 686              	.LBE73:
 687              		.loc 1 350 0
 688 001a FFF7FEFF 		bl	chSchReadyI
 689              	.LVL55:
 690              		.loc 1 349 0
 691 001e B542     		cmp	r5, r6
 692              		.loc 1 350 0
 693 0020 0662     		str	r6, [r0, #32]
 694 0022 07F00107 		and	r7, r7, #1
 695              	.LVL56:
 696              		.loc 1 349 0
 697 0026 1CDC     		bgt	.L44
 698 0028 4FB1     		cbz	r7, .L37
 699              	.LBB74:
 700              	.LBB69:
 701              		.loc 2 66 0
 702 002a 6068     		ldr	r0, [r4, #4]
 703              	.LBE69:
 704              	.LBE74:
 705              		.loc 1 349 0
 706 002c 0135     		adds	r5, r5, #1
 707              	.LBB75:
 708              	.LBB65:
 709              		.loc 2 68 0
 710 002e 4368     		ldr	r3, [r0, #4]
 711 0030 6360     		str	r3, [r4, #4]
 712 0032 1C60     		str	r4, [r3, #0]
 713              	.LBE65:
 714              	.LBE75:
 715              		.loc 1 350 0
 716 0034 FFF7FEFF 		bl	chSchReadyI
 717              		.loc 1 349 0
 718 0038 002D     		cmp	r5, #0
 719              		.loc 1 350 0
 720 003a 0662     		str	r6, [r0, #32]
 721              		.loc 1 349 0
 722 003c 12DC     		bgt	.L45
 723              	.L37:
 724              	.LBB76:
 725              	.LBB70:
ARM GAS  /tmp/ccCWhezY.s 			page 14


 726              		.loc 2 66 0
 727 003e 6068     		ldr	r0, [r4, #4]
 728              	.LBE70:
 729              	.LBE76:
 730              		.loc 1 349 0
 731 0040 0235     		adds	r5, r5, #2
 732              	.LBB77:
 733              	.LBB64:
 734              		.loc 2 68 0
 735 0042 4268     		ldr	r2, [r0, #4]
 736 0044 6260     		str	r2, [r4, #4]
 737 0046 1460     		str	r4, [r2, #0]
 738              	.LBE64:
 739              	.LBE77:
 740              		.loc 1 350 0
 741 0048 FFF7FEFF 		bl	chSchReadyI
 742 004c 0662     		str	r6, [r0, #32]
 743              	.LBB78:
 744              	.LBB71:
 745              		.loc 2 66 0
 746 004e 6068     		ldr	r0, [r4, #4]
 747              		.loc 2 68 0
 748 0050 4168     		ldr	r1, [r0, #4]
 749 0052 6160     		str	r1, [r4, #4]
 750 0054 0C60     		str	r4, [r1, #0]
 751              	.LBE71:
 752              	.LBE78:
 753              		.loc 1 350 0
 754 0056 FFF7FEFF 		bl	chSchReadyI
 755              		.loc 1 349 0
 756 005a 002D     		cmp	r5, #0
 757              		.loc 1 350 0
 758 005c 0662     		str	r6, [r0, #32]
 759              		.loc 1 349 0
 760 005e EEDD     		ble	.L37
 761              	.LVL57:
 762              	.L34:
 763 0060 F8BD     		pop	{r3, r4, r5, r6, r7, pc}
 764              	.LVL58:
 765              	.L44:
 766 0062 F8BD     		pop	{r3, r4, r5, r6, r7, pc}
 767              	.L45:
 768 0064 F8BD     		pop	{r3, r4, r5, r6, r7, pc}
 769              		.cfi_endproc
 770              	.LFE16:
 771              		.size	chSemSetCounterI, .-chSemSetCounterI
 772 0066 00BFAFF3 		.section	.text.chSemSignalWait,"ax",%progbits
 772      0080AFF3 
 772      0080
 773              		.align	2
 774              		.p2align 4,,15
 775              		.global	chSemSignalWait
 776              		.thumb
 777              		.thumb_func
 778              		.type	chSemSignalWait, %function
 779              	chSemSignalWait:
 780              	.LFB17:
ARM GAS  /tmp/ccCWhezY.s 			page 15


 781              		.loc 1 369 0
 782              		.cfi_startproc
 783              		@ args = 0, pretend = 0, frame = 8
 784              		@ frame_needed = 0, uses_anonymous_args = 0
 785              	.LVL59:
 786 0000 10B5     		push	{r4, lr}
 787              	.LCFI8:
 788              		.cfi_def_cfa_offset 8
 789 0002 0246     		mov	r2, r0
 790 0004 82B0     		sub	sp, sp, #8
 791              	.LCFI9:
 792              		.cfi_def_cfa_offset 16
 793              	.LBB79:
 794              		.loc 1 384 0
 795 0006 2023     		movs	r3, #32
 796              	.LVL60:
 797              	@ 384 "chibios/os/kernel/src/chsem.c" 1
 798 0008 83F31188 		msr     BASEPRI, r3
 799              	@ 0 "" 2
 800              	.LVL61:
 801              		.thumb
 802              	.LBE79:
 803              		.loc 1 385 0
 804 000c 8068     		ldr	r0, [r0, #8]
 805              	.LVL62:
 806 000e 431C     		adds	r3, r0, #1
 807              	.LVL63:
 808 0010 002B     		cmp	r3, #0
 809 0012 9360     		str	r3, [r2, #8]
 810 0014 1CDD     		ble	.L50
 811              		.cfi_offset 14, -4
 812              		.cfi_offset 4, -8
 813              	.LVL64:
 814              	.L47:
 815              		.loc 1 387 0
 816 0016 8868     		ldr	r0, [r1, #8]
 817 0018 421E     		subs	r2, r0, #1
 818 001a 002A     		cmp	r2, #0
 819 001c 8A60     		str	r2, [r1, #8]
 820 001e 07DB     		blt	.L51
 821              		.loc 1 395 0
 822 0020 FFF7FEFF 		bl	chSchRescheduleS
 823              	.LVL65:
 824              		.loc 1 396 0
 825 0024 0020     		movs	r0, #0
 826              	.LVL66:
 827              	.L49:
 828              	.LBB80:
 829              		.loc 1 398 0
 830 0026 0023     		movs	r3, #0
 831              	.LVL67:
 832              	@ 398 "chibios/os/kernel/src/chsem.c" 1
 833 0028 83F31188 		msr     BASEPRI, r3
 834              	@ 0 "" 2
 835              	.LVL68:
 836              		.thumb
 837              	.LBE80:
ARM GAS  /tmp/ccCWhezY.s 			page 16


 838              		.loc 1 400 0
 839 002c 02B0     		add	sp, sp, #8
 840 002e 10BD     		pop	{r4, pc}
 841              	.LVL69:
 842              	.L51:
 843              	.LBB81:
 844              		.loc 1 388 0
 845 0030 40F20004 		movw	r4, #:lower16:rlist
 846 0034 C0F20004 		movt	r4, #:upper16:rlist
 847 0038 E469     		ldr	r4, [r4, #28]
 848              	.LVL70:
 849              	.LBB82:
 850              	.LBB83:
 851              		.loc 2 54 0
 852 003a 4B68     		ldr	r3, [r1, #4]
 853              	.LBE83:
 854              	.LBE82:
 855              		.loc 1 391 0
 856 003c 0320     		movs	r0, #3
 857              	.LBB85:
 858              	.LBB84:
 859              		.loc 2 53 0
 860 003e 2160     		str	r1, [r4, #0]
 861              		.loc 2 54 0
 862 0040 6360     		str	r3, [r4, #4]
 863              		.loc 2 55 0
 864 0042 4C60     		str	r4, [r1, #4]
 865 0044 1C60     		str	r4, [r3, #0]
 866              	.LBE84:
 867              	.LBE85:
 868              		.loc 1 390 0
 869 0046 2162     		str	r1, [r4, #32]
 870              		.loc 1 391 0
 871 0048 FFF7FEFF 		bl	chSchGoSleepS
 872              	.LVL71:
 873              		.loc 1 392 0
 874 004c 206A     		ldr	r0, [r4, #32]
 875              	.LVL72:
 876 004e EAE7     		b	.L49
 877              	.LVL73:
 878              	.L50:
 879              	.LBE81:
 880              	.LBB86:
 881              	.LBB87:
 882              		.loc 2 59 0
 883 0050 1068     		ldr	r0, [r2, #0]
 884              	.LVL74:
 885              		.loc 2 61 0
 886 0052 0368     		ldr	r3, [r0, #0]
 887 0054 1360     		str	r3, [r2, #0]
 888 0056 5A60     		str	r2, [r3, #4]
 889              	.LBE87:
 890              	.LBE86:
 891              		.loc 1 386 0
 892 0058 0191     		str	r1, [sp, #4]
 893 005a FFF7FEFF 		bl	chSchReadyI
 894              	.LVL75:
ARM GAS  /tmp/ccCWhezY.s 			page 17


 895 005e 0021     		movs	r1, #0
 896 0060 0162     		str	r1, [r0, #32]
 897 0062 0199     		ldr	r1, [sp, #4]
 898 0064 D7E7     		b	.L47
 899              		.cfi_endproc
 900              	.LFE17:
 901              		.size	chSemSignalWait, .-chSemSignalWait
 902 0066 00BFAFF3 		.text
 902      0080AFF3 
 902      0080
 903              	.Letext0: