ARM GAS  /tmp/ccCWhezY.s 			page 1


   1              		.syntax unified
   2              		.cpu cortex-m3
   3              		.fpu softvfp
   4              		.eabi_attribute 20, 1
   5              		.eabi_attribute 21, 1
   6              		.eabi_attribute 23, 3
   7              		.eabi_attribute 24, 1
   8              		.eabi_attribute 25, 1
   9              		.eabi_attribute 26, 1
  10              		.eabi_attribute 30, 2
  11              		.eabi_attribute 18, 4
  12              		.thumb
  13              		.file	"chsem.c"
  14              		.section	.debug_abbrev,"",%progbits
  15              	.Ldebug_abbrev0:
  16              		.section	.debug_info,"",%progbits
  17              	.Ldebug_info0:
  18              		.section	.debug_line,"",%progbits
  19              	.Ldebug_line0:
  20 0000 B0030000 		.text
  20      02004001 
  20      00000201 
  20      FB0E0D00 
  20      01010101 
  21              	.Ltext0:
  22              		.cfi_sections	.debug_frame
  23              		.section	.text.chSemInit,"ax",%progbits
  24              		.align	2
  25              		.p2align 4,,15
  26              		.global	chSemInit
  27              		.thumb
  28              		.thumb_func
  29              		.type	chSemInit, %function
  30              	chSemInit:
  31              	.LFB7:
  32              		.file 1 "chibios/os/kernel/src/chsem.c"
  33              		.loc 1 85 0
  34              		.cfi_startproc
  35              		@ args = 0, pretend = 0, frame = 0
  36              		@ frame_needed = 0, uses_anonymous_args = 0
  37              		@ link register save eliminated.
  38              	.LVL0:
  39              		.loc 1 89 0
  40 0000 4060     		str	r0, [r0, #4]
  41 0002 0060     		str	r0, [r0, #0]
  42              		.loc 1 90 0
  43 0004 8160     		str	r1, [r0, #8]
  44              		.loc 1 91 0
  45 0006 7047     		bx	lr
  46              		.cfi_endproc
  47              	.LFE7:
  48              		.size	chSemInit, .-chSemInit
  49 0008 AFF30080 		.section	.text.chSemResetI,"ax",%progbits
  49      AFF30080 
  50              		.align	2
  51              		.p2align 4,,15
  52              		.global	chSemResetI
ARM GAS  /tmp/ccCWhezY.s 			page 2


  53              		.thumb
  54              		.thumb_func
  55              		.type	chSemResetI, %function
  56              	chSemResetI:
  57              	.LFB9:
  58              		.loc 1 135 0
  59              		.cfi_startproc
  60              		@ args = 0, pretend = 0, frame = 0
  61              		@ frame_needed = 0, uses_anonymous_args = 0
  62              	.LVL1:
  63 0000 F8B5     		push	{r3, r4, r5, r6, r7, lr}
  64              	.LCFI0:
  65              		.cfi_def_cfa_offset 24
  66              		.loc 1 145 0
  67 0002 8768     		ldr	r7, [r0, #8]
  68              		.cfi_offset 14, -4
  69              		.cfi_offset 7, -8
  70              		.cfi_offset 6, -12
  71              		.cfi_offset 5, -16
  72              		.cfi_offset 4, -20
  73              		.cfi_offset 3, -24
  74              	.LVL2:
  75              		.loc 1 135 0
  76 0004 0446     		mov	r4, r0
  77              		.loc 1 147 0
  78 0006 0137     		adds	r7, r7, #1
  79 0008 002F     		cmp	r7, #0
  80              		.loc 1 146 0
  81 000a 8160     		str	r1, [r0, #8]
  82              	.LVL3:
  83              		.loc 1 147 0
  84 000c 29DC     		bgt	.L2
  85              	.LBB24:
  86              	.LBB28:
  87              		.file 2 "chibios/os/kernel/include/chinline.h"
  88              		.loc 2 66 0
  89 000e 4068     		ldr	r0, [r0, #4]
  90              	.LVL4:
  91              	.LBE28:
  92              	.LBE24:
  93              		.loc 1 147 0
  94 0010 7D1C     		adds	r5, r7, #1
  95              	.LBB33:
  96              	.LBB29:
  97              		.loc 2 68 0
  98 0012 4368     		ldr	r3, [r0, #4]
  99              	.LBE29:
 100              	.LBE33:
 101              		.loc 1 148 0
 102 0014 6FF00106 		mvn	r6, #1
 103              	.LBB34:
 104              	.LBB27:
 105              		.loc 2 68 0
 106 0018 6360     		str	r3, [r4, #4]
 107 001a 1C60     		str	r4, [r3, #0]
 108              	.LBE27:
 109              	.LBE34:
ARM GAS  /tmp/ccCWhezY.s 			page 3


 110              		.loc 1 148 0
 111 001c FFF7FEFF 		bl	chSchReadyI
 112              	.LVL5:
 113              		.loc 1 147 0
 114 0020 002D     		cmp	r5, #0
 115              		.loc 1 148 0
 116 0022 0662     		str	r6, [r0, #32]
 117 0024 07F00107 		and	r7, r7, #1
 118              	.LVL6:
 119              		.loc 1 147 0
 120 0028 1CDC     		bgt	.L13
 121 002a 4FB1     		cbz	r7, .L5
 122              	.LBB35:
 123              	.LBB30:
 124              		.loc 2 66 0
 125 002c 6068     		ldr	r0, [r4, #4]
 126              	.LBE30:
 127              	.LBE35:
 128              		.loc 1 147 0
 129 002e 0135     		adds	r5, r5, #1
 130              	.LBB36:
 131              	.LBB26:
 132              		.loc 2 68 0
 133 0030 4368     		ldr	r3, [r0, #4]
 134 0032 6360     		str	r3, [r4, #4]
 135 0034 1C60     		str	r4, [r3, #0]
 136              	.LBE26:
 137              	.LBE36:
 138              		.loc 1 148 0
 139 0036 FFF7FEFF 		bl	chSchReadyI
 140              		.loc 1 147 0
 141 003a 002D     		cmp	r5, #0
 142              		.loc 1 148 0
 143 003c 0662     		str	r6, [r0, #32]
 144              		.loc 1 147 0
 145 003e 12DC     		bgt	.L14
 146              	.L5:
 147              	.LBB37:
 148              	.LBB31:
 149              		.loc 2 66 0
 150 0040 6068     		ldr	r0, [r4, #4]
 151              	.LBE31:
 152              	.LBE37:
 153              		.loc 1 147 0
 154 0042 0235     		adds	r5, r5, #2
 155              	.LBB38:
 156              	.LBB25:
 157              		.loc 2 68 0
 158 0044 4268     		ldr	r2, [r0, #4]
 159 0046 6260     		str	r2, [r4, #4]
 160 0048 1460     		str	r4, [r2, #0]
 161              	.LBE25:
 162              	.LBE38:
 163              		.loc 1 148 0
 164 004a FFF7FEFF 		bl	chSchReadyI
 165 004e 0662     		str	r6, [r0, #32]
 166              	.LBB39:
ARM GAS  /tmp/ccCWhezY.s 			page 4


 167              	.LBB32:
 168              		.loc 2 66 0
 169 0050 6068     		ldr	r0, [r4, #4]
 170              		.loc 2 68 0
 171 0052 4168     		ldr	r1, [r0, #4]
 172 0054 6160     		str	r1, [r4, #4]
 173 0056 0C60     		str	r4, [r1, #0]
 174              	.LBE32:
 175              	.LBE39:
 176              		.loc 1 148 0
 177 0058 FFF7FEFF 		bl	chSchReadyI
 178              		.loc 1 147 0
 179 005c 002D     		cmp	r5, #0
 180              		.loc 1 148 0
 181 005e 0662     		str	r6, [r0, #32]
 182              		.loc 1 147 0
 183 0060 EEDD     		ble	.L5
 184              	.LVL7:
 185              	.L2:
 186 0062 F8BD     		pop	{r3, r4, r5, r6, r7, pc}
 187              	.LVL8:
 188              	.L13:
 189 0064 F8BD     		pop	{r3, r4, r5, r6, r7, pc}
 190              	.L14:
 191 0066 F8BD     		pop	{r3, r4, r5, r6, r7, pc}
 192              		.cfi_endproc
 193              	.LFE9:
 194              		.size	chSemResetI, .-chSemResetI
 195 0068 AFF30080 		.section	.text.chSemReset,"ax",%progbits
 195      AFF30080 
 196              		.align	2
 197              		.p2align 4,,15
 198              		.global	chSemReset
 199              		.thumb
 200              		.thumb_func
 201              		.type	chSemReset, %function
 202              	chSemReset:
 203              	.LFB8:
 204              		.loc 1 108 0
 205              		.cfi_startproc
 206              		@ args = 0, pretend = 0, frame = 0
 207              		@ frame_needed = 0, uses_anonymous_args = 0
 208              	.LVL9:
 209 0000 08B5     		push	{r3, lr}
 210              	.LCFI1:
 211              		.cfi_def_cfa_offset 8
 212              	.LBB40:
 213              		.loc 1 110 0
 214 0002 2023     		movs	r3, #32
 215              		.cfi_offset 14, -4
 216              		.cfi_offset 3, -8
 217              	.LVL10:
 218              	@ 110 "chibios/os/kernel/src/chsem.c" 1
 219 0004 83F31188 		msr     BASEPRI, r3
 220              	@ 0 "" 2
 221              	.LVL11:
 222              		.thumb
ARM GAS  /tmp/ccCWhezY.s 			page 5


 223              	.LBE40:
 224              		.loc 1 111 0
 225 0008 FFF7FEFF 		bl	chSemResetI
 226              	.LVL12:
 227              		.loc 1 112 0
 228 000c FFF7FEFF 		bl	chSchRescheduleS
 229              	.LBB41:
 230              		.loc 1 113 0
 231 0010 0023     		movs	r3, #0
 232              	.LVL13:
 233              	@ 113 "chibios/os/kernel/src/chsem.c" 1
 234 0012 83F31188 		msr     BASEPRI, r3
 235              	@ 0 "" 2
 236              	.LVL14:
 237              		.thumb
 238              	.LBE41:
 239              		.loc 1 114 0
 240 0016 08BD     		pop	{r3, pc}
 241              		.cfi_endproc
 242              	.LFE8:
 243              		.size	chSemReset, .-chSemReset
 244 0018 AFF30080 		.section	.text.chSemWaitS,"ax",%progbits
 244      AFF30080 
 245              		.align	2
 246              		.p2align 4,,15
 247              		.global	chSemWaitS
 248              		.thumb
 249              		.thumb_func
 250              		.type	chSemWaitS, %function
 251              	chSemWaitS:
 252              	.LFB11:
 253              		.loc 1 184 0
 254              		.cfi_startproc
 255              		@ args = 0, pretend = 0, frame = 0
 256              		@ frame_needed = 0, uses_anonymous_args = 0
 257              	.LVL15:
 258 0000 0346     		mov	r3, r0
 259              		.loc 1 193 0
 260 0002 8068     		ldr	r0, [r0, #8]
 261              	.LVL16:
 262              		.loc 1 184 0
 263 0004 10B5     		push	{r4, lr}
 264              	.LCFI2:
 265              		.cfi_def_cfa_offset 8
 266              		.loc 1 193 0
 267 0006 421E     		subs	r2, r0, #1
 268 0008 002A     		cmp	r2, #0
 269 000a 9A60     		str	r2, [r3, #8]
 270 000c 01DB     		blt	.L19
 271              		.cfi_offset 14, -4
 272              		.cfi_offset 4, -8
 273              		.loc 1 199 0
 274 000e 0020     		movs	r0, #0
 275              		.loc 1 200 0
 276 0010 10BD     		pop	{r4, pc}
 277              	.L19:
 278              		.loc 1 194 0
ARM GAS  /tmp/ccCWhezY.s 			page 6


 279 0012 40F20004 		movw	r4, #:lower16:rlist
 280 0016 C0F20004 		movt	r4, #:upper16:rlist
 281 001a E269     		ldr	r2, [r4, #28]
 282              		.loc 1 196 0
 283 001c 0320     		movs	r0, #3
 284              		.loc 1 194 0
 285 001e 1362     		str	r3, [r2, #32]
 286              	.LVL17:
 287              	.LBB42:
 288              	.LBB43:
 289              		.loc 2 54 0
 290 0020 5968     		ldr	r1, [r3, #4]
 291              		.loc 2 53 0
 292 0022 1360     		str	r3, [r2, #0]
 293              		.loc 2 54 0
 294 0024 5160     		str	r1, [r2, #4]
 295              		.loc 2 55 0
 296 0026 5A60     		str	r2, [r3, #4]
 297 0028 0A60     		str	r2, [r1, #0]
 298              	.LBE43:
 299              	.LBE42:
 300              		.loc 1 196 0
 301 002a FFF7FEFF 		bl	chSchGoSleepS
 302              	.LVL18:
 303              		.loc 1 197 0
 304 002e E369     		ldr	r3, [r4, #28]
 305 0030 186A     		ldr	r0, [r3, #32]
 306 0032 10BD     		pop	{r4, pc}
 307              		.cfi_endproc
 308              	.LFE11:
 309              		.size	chSemWaitS, .-chSemWaitS
 310 0034 AFF30080 		.section	.text.chSemWait,"ax",%progbits
 310      AFF30080 
 310      AFF30080 
 311              		.align	2
 312              		.p2align 4,,15
 313              		.global	chSemWait
 314              		.thumb
 315              		.thumb_func
 316              		.type	chSemWait, %function
 317              	chSemWait:
 318              	.LFB10:
 319              		.loc 1 163 0
 320              		.cfi_startproc
 321              		@ args = 0, pretend = 0, frame = 0
 322              		@ frame_needed = 0, uses_anonymous_args = 0
 323              	.LVL19:
 324 0000 08B5     		push	{r3, lr}
 325              	.LCFI3:
 326              		.cfi_def_cfa_offset 8
 327              	.LBB44:
 328              		.loc 1 166 0
 329 0002 2023     		movs	r3, #32
 330              		.cfi_offset 14, -4
 331              		.cfi_offset 3, -8
 332              	.LVL20:
 333              	@ 166 "chibios/os/kernel/src/chsem.c" 1
ARM GAS  /tmp/ccCWhezY.s 			page 7


 334 0004 83F31188 		msr     BASEPRI, r3
 335              	@ 0 "" 2
 336              	.LVL21:
 337              		.thumb
 338              	.LBE44:
 339              		.loc 1 167 0
 340 0008 FFF7FEFF 		bl	chSemWaitS
 341              	.LVL22:
 342              	.LBB45:
 343              		.loc 1 168 0
 344 000c 0023     		movs	r3, #0
 345              	.LVL23:
 346              	@ 168 "chibios/os/kernel/src/chsem.c" 1
 347 000e 83F31188 		msr     BASEPRI, r3
 348              	@ 0 "" 2
 349              	.LVL24:
 350              		.thumb
 351              	.LBE45:
 352              		.loc 1 170 0
 353 0012 08BD     		pop	{r3, pc}
 354              		.cfi_endproc
 355              	.LFE10:
 356              		.size	chSemWait, .-chSemWait
 357 0014 AFF30080 		.section	.text.chSemWaitTimeoutS,"ax",%progbits
 357      AFF30080 
 357      AFF30080 
 358              		.align	2
 359              		.p2align 4,,15
 360              		.global	chSemWaitTimeoutS
 361              		.thumb
 362              		.thumb_func
 363              		.type	chSemWaitTimeoutS, %function
 364              	chSemWaitTimeoutS:
 365              	.LFB13:
 366              		.loc 1 249 0
 367              		.cfi_startproc
 368              		@ args = 0, pretend = 0, frame = 0
 369              		@ frame_needed = 0, uses_anonymous_args = 0
 370              		@ link register save eliminated.
 371              	.LVL25:
 372 0000 0346     		mov	r3, r0
 373              		.loc 1 258 0
 374 0002 8068     		ldr	r0, [r0, #8]
 375              	.LVL26:
 376              		.loc 1 249 0
 377 0004 10B4     		push	{r4}
 378              	.LCFI4:
 379              		.cfi_def_cfa_offset 4
 380              		.loc 1 258 0
 381 0006 421E     		subs	r2, r0, #1
 382 0008 002A     		cmp	r2, #0
 383              		.loc 1 249 0
 384 000a 0C46     		mov	r4, r1
 385              		.cfi_offset 4, -4
 386              		.loc 1 258 0
 387 000c 9A60     		str	r2, [r3, #8]
 388 000e 02DB     		blt	.L25
ARM GAS  /tmp/ccCWhezY.s 			page 8


 389              		.loc 1 267 0
 390 0010 0020     		movs	r0, #0
 391              	.L22:
 392              		.loc 1 268 0
 393 0012 10BC     		pop	{r4}
 394 0014 7047     		bx	lr
 395              	.L25:
 396              		.loc 1 259 0
 397 0016 71B1     		cbz	r1, .L26
 398              		.loc 1 263 0
 399 0018 40F20000 		movw	r0, #:lower16:rlist
 400 001c C0F20000 		movt	r0, #:upper16:rlist
 401 0020 C269     		ldr	r2, [r0, #28]
 402              		.loc 1 265 0
 403 0022 0320     		movs	r0, #3
 404              		.loc 1 263 0
 405 0024 1362     		str	r3, [r2, #32]
 406              	.LVL27:
 407              	.LBB46:
 408              	.LBB47:
 409              		.loc 2 54 0
 410 0026 5C68     		ldr	r4, [r3, #4]
 411              		.loc 2 53 0
 412 0028 1360     		str	r3, [r2, #0]
 413              		.loc 2 54 0
 414 002a 5460     		str	r4, [r2, #4]
 415              		.loc 2 55 0
 416 002c 5A60     		str	r2, [r3, #4]
 417 002e 2260     		str	r2, [r4, #0]
 418              	.LBE47:
 419              	.LBE46:
 420              		.loc 1 268 0
 421 0030 10BC     		pop	{r4}
 422              		.loc 1 265 0
 423 0032 FFF7FEBF 		b	chSchGoSleepTimeoutS
 424              	.LVL28:
 425              	.L26:
 426              		.loc 1 260 0
 427 0036 9860     		str	r0, [r3, #8]
 428              		.loc 1 261 0
 429 0038 4FF0FF30 		mov	r0, #-1
 430 003c E9E7     		b	.L22
 431              		.cfi_endproc
 432              	.LFE13:
 433              		.size	chSemWaitTimeoutS, .-chSemWaitTimeoutS
 434 003e 00BF     		.section	.text.chSemWaitTimeout,"ax",%progbits
 435              		.align	2
 436              		.p2align 4,,15
 437              		.global	chSemWaitTimeout
 438              		.thumb
 439              		.thumb_func
 440              		.type	chSemWaitTimeout, %function
 441              	chSemWaitTimeout:
 442              	.LFB12:
 443              		.loc 1 221 0
 444              		.cfi_startproc
 445              		@ args = 0, pretend = 0, frame = 0
ARM GAS  /tmp/ccCWhezY.s 			page 9


 446              		@ frame_needed = 0, uses_anonymous_args = 0
 447              	.LVL29:
 448 0000 08B5     		push	{r3, lr}
 449              	.LCFI5:
 450              		.cfi_def_cfa_offset 8
 451              	.LBB48:
 452              		.loc 1 224 0
 453 0002 2023     		movs	r3, #32
 454              		.cfi_offset 14, -4
 455              		.cfi_offset 3, -8
 456              	.LVL30:
 457              	@ 224 "chibios/os/kernel/src/chsem.c" 1
 458 0004 83F31188 		msr     BASEPRI, r3
 459              	@ 0 "" 2
 460              	.LVL31:
 461              		.thumb
 462              	.LBE48:
 463              		.loc 1 225 0
 464 0008 FFF7FEFF 		bl	chSemWaitTimeoutS
 465              	.LVL32:
 466              	.LBB49:
 467              		.loc 1 226 0
 468 000c 0023     		movs	r3, #0
 469              	.LVL33:
 470              	@ 226 "chibios/os/kernel/src/chsem.c" 1
 471 000e 83F31188 		msr     BASEPRI, r3
 472              	@ 0 "" 2
 473              	.LVL34:
 474              		.thumb
 475              	.LBE49:
 476              		.loc 1 228 0
 477 0012 08BD     		pop	{r3, pc}
 478              		.cfi_endproc
 479              	.LFE12:
 480              		.size	chSemWaitTimeout, .-chSemWaitTimeout
 481 0014 AFF30080 		.section	.text.chSemSignal,"ax",%progbits
 481      AFF30080 
 481      AFF30080 
 482              		.align	2
 483              		.p2align 4,,15
 484              		.global	chSemSignal
 485              		.thumb
 486              		.thumb_func
 487              		.type	chSemSignal, %function
 488              	chSemSignal:
 489              	.LFB14:
 490              		.loc 1 277 0
 491              		.cfi_startproc
 492              		@ args = 0, pretend = 0, frame = 0
 493              		@ frame_needed = 0, uses_anonymous_args = 0
 494              	.LVL35:
 495 0000 08B5     		push	{r3, lr}
 496              	.LCFI6:
 497              		.cfi_def_cfa_offset 8
 498              		.loc 1 277 0
 499 0002 0246     		mov	r2, r0
 500              	.LBB50:
ARM GAS  /tmp/ccCWhezY.s 			page 10


 501              		.loc 1 286 0
 502 0004 2023     		movs	r3, #32
 503              		.cfi_offset 14, -4
 504              		.cfi_offset 3, -8
 505              	.LVL36:
 506              	@ 286 "chibios/os/kernel/src/chsem.c" 1
 507 0006 83F31188 		msr     BASEPRI, r3
 508              	@ 0 "" 2
 509              	.LVL37:
 510              		.thumb
 511              	.LBE50:
 512              		.loc 1 287 0
 513 000a 8068     		ldr	r0, [r0, #8]
 514              	.LVL38:
 515 000c 431C     		adds	r3, r0, #1
 516              	.LVL39:
 517 000e 002B     		cmp	r3, #0
 518 0010 9360     		str	r3, [r2, #8]
 519 0012 03DD     		ble	.L30
 520              	.LBB51:
 521              		.loc 1 289 0
 522 0014 0023     		movs	r3, #0
 523              	.LVL40:
 524              	@ 289 "chibios/os/kernel/src/chsem.c" 1
 525 0016 83F31188 		msr     BASEPRI, r3
 526              	@ 0 "" 2
 527              	.LVL41:
 528              		.thumb
 529              	.LBE51:
 530              		.loc 1 290 0
 531 001a 08BD     		pop	{r3, pc}
 532              	.LVL42:
 533              	.L30:
 534              	.LBB52:
 535              	.LBB53:
 536              		.loc 2 59 0
 537 001c 1068     		ldr	r0, [r2, #0]
 538              	.LVL43:
 539              	.LBE53:
 540              	.LBE52:
 541              		.loc 1 288 0
 542 001e 0021     		movs	r1, #0
 543              	.LBB55:
 544              	.LBB54:
 545              		.loc 2 61 0
 546 0020 0368     		ldr	r3, [r0, #0]
 547 0022 1360     		str	r3, [r2, #0]
 548 0024 5A60     		str	r2, [r3, #4]
 549              	.LBE54:
 550              	.LBE55:
 551              		.loc 1 288 0
 552 0026 FFF7FEFF 		bl	chSchWakeupS
 553              	.LVL44:
 554              	.LBB56:
 555              		.loc 1 289 0
 556 002a 0023     		movs	r3, #0
 557              	@ 289 "chibios/os/kernel/src/chsem.c" 1
ARM GAS  /tmp/ccCWhezY.s 			page 11


 558 002c 83F31188 		msr     BASEPRI, r3
 559              	@ 0 "" 2
 560              	.LVL45:
 561              		.thumb
 562              	.LBE56:
 563              		.loc 1 290 0
 564 0030 08BD     		pop	{r3, pc}
 565              		.cfi_endproc
 566              	.LFE14:
 567              		.size	chSemSignal, .-chSemSignal
 568 0032 00BFAFF3 		.section	.text.chSemSignalI,"ax",%progbits
 568      0080AFF3 
 568      0080AFF3 
 568      0080
 569              		.align	2
 570              		.p2align 4,,15
 571              		.global	chSemSignalI
 572              		.thumb
 573              		.thumb_func
 574              		.type	chSemSignalI, %function
 575              	chSemSignalI:
 576              	.LFB15:
 577              		.loc 1 303 0
 578              		.cfi_startproc
 579              		@ args = 0, pretend = 0, frame = 0
 580              		@ frame_needed = 0, uses_anonymous_args = 0
 581              		@ link register save eliminated.
 582              	.LVL46:
 583              		.loc 1 303 0
 584 0000 0346     		mov	r3, r0
 585              		.loc 1 312 0
 586 0002 8068     		ldr	r0, [r0, #8]
 587              	.LVL47:
 588 0004 421C     		adds	r2, r0, #1
 589 0006 002A     		cmp	r2, #0
 590 0008 9A60     		str	r2, [r3, #8]
 591 000a 00DD     		ble	.L33
 592 000c 7047     		bx	lr
 593              	.L33:
 594              	.LVL48:
 595              	.LBB57:
 596              	.LBB59:
 597              	.LBB60:
 598              		.loc 2 59 0
 599 000e 1A68     		ldr	r2, [r3, #0]
 600              	.LVL49:
 601              		.loc 2 61 0
 602 0010 1168     		ldr	r1, [r2, #0]
 603              	.LBE60:
 604              	.LBE59:
 605              		.loc 1 317 0
 606 0012 1046     		mov	r0, r2
 607              	.LBB58:
 608              	.LBB61:
 609              		.loc 2 61 0
 610 0014 1960     		str	r1, [r3, #0]
 611 0016 4B60     		str	r3, [r1, #4]
ARM GAS  /tmp/ccCWhezY.s 			page 12


 612              	.LBE61:
 613              	.LBE58:
 614              		.loc 1 316 0
 615 0018 0023     		movs	r3, #0
 616              	.LVL50:
 617 001a 1362     		str	r3, [r2, #32]
 618              	.LBE57:
 619              		.loc 1 319 0
 620              	.LBB62:
 621              		.loc 1 317 0
 622 001c FFF7FEBF 		b	chSchReadyI
 623              	.LBE62:
 624              		.cfi_endproc
 625              	.LFE15:
 626              		.size	chSemSignalI, .-chSemSignalI
 627              		.section	.text.chSemSetCounterI,"ax",%progbits
 628              		.align	2
 629              		.p2align 4,,15
 630              		.global	chSemSetCounterI
 631              		.thumb
 632              		.thumb_func
 633              		.type	chSemSetCounterI, %function
 634              	chSemSetCounterI:
 635              	.LFB16:
 636              		.loc 1 337 0
 637              		.cfi_startproc
 638              		@ args = 0, pretend = 0, frame = 0
 639              		@ frame_needed = 0, uses_anonymous_args = 0
 640              	.LVL51:
 641 0000 F8B5     		push	{r3, r4, r5, r6, r7, lr}
 642              	.LCFI7:
 643              		.cfi_def_cfa_offset 24
 644              		.loc 1 347 0
 645 0002 8768     		ldr	r7, [r0, #8]
 646              		.cfi_offset 14, -4
 647              		.cfi_offset 7, -8
 648              		.cfi_offset 6, -12
 649              		.cfi_offset 5, -16
 650              		.cfi_offset 4, -20
 651              		.cfi_offset 3, -24
 652              	.LVL52:
 653              		.loc 1 337 0
 654 0004 0446     		mov	r4, r0
 655              		.loc 1 349 0
 656 0006 0137     		adds	r7, r7, #1
 657 0008 002F     		cmp	r7, #0
 658              		.loc 1 348 0
 659 000a 8160     		str	r1, [r0, #8]
 660              	.LVL53:
 661              		.loc 1 349 0
 662 000c 28DC     		bgt	.L34
 663              	.LBB63:
 664              	.LBB67:
 665              		.loc 2 66 0
 666 000e 4068     		ldr	r0, [r0, #4]
 667              	.LVL54:
 668              	.LBE67:
ARM GAS  /tmp/ccCWhezY.s 			page 13


 669              	.LBE63:
 670              		.loc 1 350 0
 671 0010 0026     		movs	r6, #0
 672              	.LBB72:
 673              	.LBB68:
 674              		.loc 2 68 0
 675 0012 4368     		ldr	r3, [r0, #4]
 676              	.LBE68:
 677              	.LBE72:
 678              		.loc 1 349 0
 679 0014 7D1C     		adds	r5, r7, #1
 680              	.LBB73:
 681              	.LBB66:
 682              		.loc 2 68 0
 683 0016 6360     		str	r3, [r4, #4]
 684 0018 1C60     		str	r4, [r3, #0]
 685              	.LBE66:
 686              	.LBE73:
 687              		.loc 1 350 0
 688 001a FFF7FEFF 		bl	chSchReadyI
 689              	.LVL55:
 690              		.loc 1 349 0
 691 001e B542     		cmp	r5, r6
 692              		.loc 1 350 0
 693 0020 0662     		str	r6, [r0, #32]
 694 0022 07F00107 		and	r7, r7, #1
 695              	.LVL56:
 696              		.loc 1 349 0
 697 0026 1CDC     		bgt	.L44
 698 0028 4FB1     		cbz	r7, .L37
 699              	.LBB74:
 700              	.LBB69:
 701              		.loc 2 66 0
 702 002a 6068     		ldr	r0, [r4, #4]
 703              	.LBE69:
 704              	.LBE74:
 705              		.loc 1 349 0
 706 002c 0135     		adds	r5, r5, #1
 707              	.LBB75:
 708              	.LBB65:
 709              		.loc 2 68 0
 710 002e 4368     		ldr	r3, [r0, #4]
 711 0030 6360     		str	r3, [r4, #4]
 712 0032 1C60     		str	r4, [r3, #0]
 713              	.LBE65:
 714              	.LBE75:
 715              		.loc 1 350 0
 716 0034 FFF7FEFF 		bl	chSchReadyI
 717              		.loc 1 349 0
 718 0038 002D     		cmp	r5, #0
 719              		.loc 1 350 0
 720 003a 0662     		str	r6, [r0, #32]
 721              		.loc 1 349 0
 722 003c 12DC     		bgt	.L45
 723              	.L37:
 724              	.LBB76:
 725              	.LBB70:
ARM GAS  /tmp/ccCWhezY.s 			page 14


 726              		.loc 2 66 0
 727 003e 6068     		ldr	r0, [r4, #4]
 728              	.LBE70:
 729              	.LBE76:
 730              		.loc 1 349 0
 731 0040 0235     		adds	r5, r5, #2
 732              	.LBB77:
 733              	.LBB64:
 734              		.loc 2 68 0
 735 0042 4268     		ldr	r2, [r0, #4]
 736 0044 6260     		str	r2, [r4, #4]
 737 0046 1460     		str	r4, [r2, #0]
 738              	.LBE64:
 739              	.LBE77:
 740              		.loc 1 350 0
 741 0048 FFF7FEFF 		bl	chSchReadyI
 742 004c 0662     		str	r6, [r0, #32]
 743              	.LBB78:
 744              	.LBB71:
 745              		.loc 2 66 0
 746 004e 6068     		ldr	r0, [r4, #4]
 747              		.loc 2 68 0
 748 0050 4168     		ldr	r1, [r0, #4]
 749 0052 6160     		str	r1, [r4, #4]
 750 0054 0C60     		str	r4, [r1, #0]
 751              	.LBE71:
 752              	.LBE78:
 753              		.loc 1 350 0
 754 0056 FFF7FEFF 		bl	chSchReadyI
 755              		.loc 1 349 0
 756 005a 002D     		cmp	r5, #0
 757              		.loc 1 350 0
 758 005c 0662     		str	r6, [r0, #32]
 759              		.loc 1 349 0
 760 005e EEDD     		ble	.L37
 761              	.LVL57:
 762              	.L34:
 763 0060 F8BD     		pop	{r3, r4, r5, r6, r7, pc}
 764              	.LVL58:
 765              	.L44:
 766 0062 F8BD     		pop	{r3, r4, r5, r6, r7, pc}
 767              	.L45:
 768 0064 F8BD     		pop	{r3, r4, r5, r6, r7, pc}
 769              		.cfi_endproc
 770              	.LFE16:
 771              		.size	chSemSetCounterI, .-chSemSetCounterI
 772 0066 00BFAFF3 		.section	.text.chSemSignalWait,"ax",%progbits
 772      0080AFF3 
 772      0080
 773              		.align	2
 774              		.p2align 4,,15
 775              		.global	chSemSignalWait
 776              		.thumb
 777              		.thumb_func
 778              		.type	chSemSignalWait, %function
 779              	chSemSignalWait:
 780              	.LFB17:
ARM GAS  /tmp/ccCWhezY.s 			page 15


 781              		.loc 1 369 0
 782              		.cfi_startproc
 783              		@ args = 0, pretend = 0, frame = 8
 784              		@ frame_needed = 0, uses_anonymous_args = 0
 785              	.LVL59:
 786 0000 10B5     		push	{r4, lr}
 787              	.LCFI8:
 788              		.cfi_def_cfa_offset 8
 789 0002 0246     		mov	r2, r0
 790 0004 82B0     		sub	sp, sp, #8
 791              	.LCFI9:
 792              		.cfi_def_cfa_offset 16
 793              	.LBB79:
 794              		.loc 1 384 0
 795 0006 2023     		movs	r3, #32
 796              	.LVL60:
 797              	@ 384 "chibios/os/kernel/src/chsem.c" 1
 798 0008 83F31188 		msr     BASEPRI, r3
 799              	@ 0 "" 2
 800              	.LVL61:
 801              		.thumb
 802              	.LBE79:
 803              		.loc 1 385 0
 804 000c 8068     		ldr	r0, [r0, #8]
 805              	.LVL62:
 806 000e 431C     		adds	r3, r0, #1
 807              	.LVL63:
 808 0010 002B     		cmp	r3, #0
 809 0012 9360     		str	r3, [r2, #8]
 810 0014 1CDD     		ble	.L50
 811              		.cfi_offset 14, -4
 812              		.cfi_offset 4, -8
 813              	.LVL64:
 814              	.L47:
 815              		.loc 1 387 0
 816 0016 8868     		ldr	r0, [r1, #8]
 817 0018 421E     		subs	r2, r0, #1
 818 001a 002A     		cmp	r2, #0
 819 001c 8A60     		str	r2, [r1, #8]
 820 001e 07DB     		blt	.L51
 821              		.loc 1 395 0
 822 0020 FFF7FEFF 		bl	chSchRescheduleS
 823              	.LVL65:
 824              		.loc 1 396 0
 825 0024 0020     		movs	r0, #0
 826              	.LVL66:
 827              	.L49:
 828              	.LBB80:
 829              		.loc 1 398 0
 830 0026 0023     		movs	r3, #0
 831              	.LVL67:
 832              	@ 398 "chibios/os/kernel/src/chsem.c" 1
 833 0028 83F31188 		msr     BASEPRI, r3
 834              	@ 0 "" 2
 835              	.LVL68:
 836              		.thumb
 837              	.LBE80:
ARM GAS  /tmp/ccCWhezY.s 			page 16


 838              		.loc 1 400 0
 839 002c 02B0     		add	sp, sp, #8
 840 002e 10BD     		pop	{r4, pc}
 841              	.LVL69:
 842              	.L51:
 843              	.LBB81:
 844              		.loc 1 388 0
 845 0030 40F20004 		movw	r4, #:lower16:rlist
 846 0034 C0F20004 		movt	r4, #:upper16:rlist
 847 0038 E469     		ldr	r4, [r4, #28]
 848              	.LVL70:
 849              	.LBB82:
 850              	.LBB83:
 851              		.loc 2 54 0
 852 003a 4B68     		ldr	r3, [r1, #4]
 853              	.LBE83:
 854              	.LBE82:
 855              		.loc 1 391 0
 856 003c 0320     		movs	r0, #3
 857              	.LBB85:
 858              	.LBB84:
 859              		.loc 2 53 0
 860 003e 2160     		str	r1, [r4, #0]
 861              		.loc 2 54 0
 862 0040 6360     		str	r3, [r4, #4]
 863              		.loc 2 55 0
 864 0042 4C60     		str	r4, [r1, #4]
 865 0044 1C60     		str	r4, [r3, #0]
 866              	.LBE84:
 867              	.LBE85:
 868              		.loc 1 390 0
 869 0046 2162     		str	r1, [r4, #32]
 870              		.loc 1 391 0
 871 0048 FFF7FEFF 		bl	chSchGoSleepS
 872              	.LVL71:
 873              		.loc 1 392 0
 874 004c 206A     		ldr	r0, [r4, #32]
 875              	.LVL72:
 876 004e EAE7     		b	.L49
 877              	.LVL73:
 878              	.L50:
 879              	.LBE81:
 880              	.LBB86:
 881              	.LBB87:
 882              		.loc 2 59 0
 883 0050 1068     		ldr	r0, [r2, #0]
 884              	.LVL74:
 885              		.loc 2 61 0
 886 0052 0368     		ldr	r3, [r0, #0]
 887 0054 1360     		str	r3, [r2, #0]
 888 0056 5A60     		str	r2, [r3, #4]
 889              	.LBE87:
 890              	.LBE86:
 891              		.loc 1 386 0
 892 0058 0191     		str	r1, [sp, #4]
 893 005a FFF7FEFF 		bl	chSchReadyI
 894              	.LVL75:
ARM GAS  /tmp/ccCWhezY.s 			page 17


 895 005e 0021     		movs	r1, #0
 896 0060 0162     		str	r1, [r0, #32]
 897 0062 0199     		ldr	r1, [sp, #4]
 898 0064 D7E7     		b	.L47
 899              		.cfi_endproc
 900              	.LFE17:
 901              		.size	chSemSignalWait, .-chSemSignalWait
 902 0066 00BFAFF3 		.text
 902      0080AFF3 
 902      0080
 903              	.Letext0:
 904              		.section	.debug_loc,"",%progbits
 905              	.Ldebug_loc0:
 906              	.LLST0:
 907 0000 00000000 		.4byte	.LFB9
 908 0004 02000000 		.4byte	.LCFI0
 909 0008 0200     		.2byte	0x2
 910 000a 7D       		.byte	0x7d
 911 000b 00       		.sleb128 0
 912 000c 02000000 		.4byte	.LCFI0
 913 0010 68000000 		.4byte	.LFE9
 914 0014 0200     		.2byte	0x2
 915 0016 7D       		.byte	0x7d
 916 0017 18       		.sleb128 24
 917 0018 00000000 		.4byte	0x0
 918 001c 00000000 		.4byte	0x0
 919              	.LLST1:
 920 0020 00000000 		.4byte	.LVL1
 921 0024 10000000 		.4byte	.LVL4
 922 0028 0100     		.2byte	0x1
 923 002a 50       		.byte	0x50
 924 002b 10000000 		.4byte	.LVL4
 925 002f 68000000 		.4byte	.LFE9
 926 0033 0100     		.2byte	0x1
 927 0035 54       		.byte	0x54
 928 0036 00000000 		.4byte	0x0
 929 003a 00000000 		.4byte	0x0
 930              	.LLST2:
 931 003e 00000000 		.4byte	.LVL1
 932 0042 1F000000 		.4byte	.LVL5-1
 933 0046 0100     		.2byte	0x1
 934 0048 51       		.byte	0x51
 935 0049 00000000 		.4byte	0x0
 936 004d 00000000 		.4byte	0x0
 937              	.LLST3:
 938 0051 04000000 		.4byte	.LVL2
 939 0055 0C000000 		.4byte	.LVL3
 940 0059 0200     		.2byte	0x2
 941 005b 70       		.byte	0x70
 942 005c 08       		.sleb128 8
 943 005d 0C000000 		.4byte	.LVL3
 944 0061 28000000 		.4byte	.LVL6
 945 0065 0100     		.2byte	0x1
 946 0067 57       		.byte	0x57
 947 0068 00000000 		.4byte	0x0
 948 006c 00000000 		.4byte	0x0
 949              	.LLST4:
ARM GAS  /tmp/ccCWhezY.s 			page 18


 950 0070 28000000 		.4byte	.LVL6
 951 0074 62000000 		.4byte	.LVL7
 952 0078 0100     		.2byte	0x1
 953 007a 54       		.byte	0x54
 954 007b 64000000 		.4byte	.LVL8
 955 007f 68000000 		.4byte	.LFE9
 956 0083 0100     		.2byte	0x1
 957 0085 54       		.byte	0x54
 958 0086 00000000 		.4byte	0x0
 959 008a 00000000 		.4byte	0x0
 960              	.LLST5:
 961 008e 00000000 		.4byte	.LFB8
 962 0092 02000000 		.4byte	.LCFI1
 963 0096 0200     		.2byte	0x2
 964 0098 7D       		.byte	0x7d
 965 0099 00       		.sleb128 0
 966 009a 02000000 		.4byte	.LCFI1
 967 009e 18000000 		.4byte	.LFE8
 968 00a2 0200     		.2byte	0x2
 969 00a4 7D       		.byte	0x7d
 970 00a5 08       		.sleb128 8
 971 00a6 00000000 		.4byte	0x0
 972 00aa 00000000 		.4byte	0x0
 973              	.LLST6:
 974 00ae 00000000 		.4byte	.LVL9
 975 00b2 0B000000 		.4byte	.LVL12-1
 976 00b6 0100     		.2byte	0x1
 977 00b8 50       		.byte	0x50
 978 00b9 00000000 		.4byte	0x0
 979 00bd 00000000 		.4byte	0x0
 980              	.LLST7:
 981 00c1 00000000 		.4byte	.LVL9
 982 00c5 0B000000 		.4byte	.LVL12-1
 983 00c9 0100     		.2byte	0x1
 984 00cb 51       		.byte	0x51
 985 00cc 00000000 		.4byte	0x0
 986 00d0 00000000 		.4byte	0x0
 987              	.LLST8:
 988 00d4 08000000 		.4byte	.LVL11
 989 00d8 0B000000 		.4byte	.LVL12-1
 990 00dc 0100     		.2byte	0x1
 991 00de 53       		.byte	0x53
 992 00df 00000000 		.4byte	0x0
 993 00e3 00000000 		.4byte	0x0
 994              	.LLST9:
 995 00e7 16000000 		.4byte	.LVL14
 996 00eb 18000000 		.4byte	.LFE8
 997 00ef 0100     		.2byte	0x1
 998 00f1 53       		.byte	0x53
 999 00f2 00000000 		.4byte	0x0
 1000 00f6 00000000 		.4byte	0x0
 1001              	.LLST10:
 1002 00fa 00000000 		.4byte	.LFB11
 1003 00fe 06000000 		.4byte	.LCFI2
 1004 0102 0200     		.2byte	0x2
 1005 0104 7D       		.byte	0x7d
 1006 0105 00       		.sleb128 0
ARM GAS  /tmp/ccCWhezY.s 			page 19


 1007 0106 06000000 		.4byte	.LCFI2
 1008 010a 34000000 		.4byte	.LFE11
 1009 010e 0200     		.2byte	0x2
 1010 0110 7D       		.byte	0x7d
 1011 0111 08       		.sleb128 8
 1012 0112 00000000 		.4byte	0x0
 1013 0116 00000000 		.4byte	0x0
 1014              	.LLST11:
 1015 011a 00000000 		.4byte	.LVL15
 1016 011e 04000000 		.4byte	.LVL16
 1017 0122 0100     		.2byte	0x1
 1018 0124 50       		.byte	0x50
 1019 0125 04000000 		.4byte	.LVL16
 1020 0129 2D000000 		.4byte	.LVL18-1
 1021 012d 0100     		.2byte	0x1
 1022 012f 53       		.byte	0x53
 1023 0130 00000000 		.4byte	0x0
 1024 0134 00000000 		.4byte	0x0
 1025              	.LLST12:
 1026 0138 20000000 		.4byte	.LVL17
 1027 013c 2D000000 		.4byte	.LVL18-1
 1028 0140 0100     		.2byte	0x1
 1029 0142 53       		.byte	0x53
 1030 0143 00000000 		.4byte	0x0
 1031 0147 00000000 		.4byte	0x0
 1032              	.LLST13:
 1033 014b 20000000 		.4byte	.LVL17
 1034 014f 2D000000 		.4byte	.LVL18-1
 1035 0153 0200     		.2byte	0x2
 1036 0155 74       		.byte	0x74
 1037 0156 1C       		.sleb128 28
 1038 0157 00000000 		.4byte	0x0
 1039 015b 00000000 		.4byte	0x0
 1040              	.LLST14:
 1041 015f 00000000 		.4byte	.LFB10
 1042 0163 02000000 		.4byte	.LCFI3
 1043 0167 0200     		.2byte	0x2
 1044 0169 7D       		.byte	0x7d
 1045 016a 00       		.sleb128 0
 1046 016b 02000000 		.4byte	.LCFI3
 1047 016f 14000000 		.4byte	.LFE10
 1048 0173 0200     		.2byte	0x2
 1049 0175 7D       		.byte	0x7d
 1050 0176 08       		.sleb128 8
 1051 0177 00000000 		.4byte	0x0
 1052 017b 00000000 		.4byte	0x0
 1053              	.LLST15:
 1054 017f 00000000 		.4byte	.LVL19
 1055 0183 0B000000 		.4byte	.LVL22-1
 1056 0187 0100     		.2byte	0x1
 1057 0189 50       		.byte	0x50
 1058 018a 00000000 		.4byte	0x0
 1059 018e 00000000 		.4byte	0x0
 1060              	.LLST16:
 1061 0192 08000000 		.4byte	.LVL21
 1062 0196 0B000000 		.4byte	.LVL22-1
 1063 019a 0100     		.2byte	0x1
ARM GAS  /tmp/ccCWhezY.s 			page 20


 1064 019c 53       		.byte	0x53
 1065 019d 00000000 		.4byte	0x0
 1066 01a1 00000000 		.4byte	0x0
 1067              	.LLST17:
 1068 01a5 12000000 		.4byte	.LVL24
 1069 01a9 14000000 		.4byte	.LFE10
 1070 01ad 0100     		.2byte	0x1
 1071 01af 53       		.byte	0x53
 1072 01b0 00000000 		.4byte	0x0
 1073 01b4 00000000 		.4byte	0x0
 1074              	.LLST18:
 1075 01b8 00000000 		.4byte	.LFB13
 1076 01bc 06000000 		.4byte	.LCFI4
 1077 01c0 0200     		.2byte	0x2
 1078 01c2 7D       		.byte	0x7d
 1079 01c3 00       		.sleb128 0
 1080 01c4 06000000 		.4byte	.LCFI4
 1081 01c8 3E000000 		.4byte	.LFE13
 1082 01cc 0200     		.2byte	0x2
 1083 01ce 7D       		.byte	0x7d
 1084 01cf 04       		.sleb128 4
 1085 01d0 00000000 		.4byte	0x0
 1086 01d4 00000000 		.4byte	0x0
 1087              	.LLST19:
 1088 01d8 00000000 		.4byte	.LVL25
 1089 01dc 04000000 		.4byte	.LVL26
 1090 01e0 0100     		.2byte	0x1
 1091 01e2 50       		.byte	0x50
 1092 01e3 04000000 		.4byte	.LVL26
 1093 01e7 35000000 		.4byte	.LVL28-1
 1094 01eb 0100     		.2byte	0x1
 1095 01ed 53       		.byte	0x53
 1096 01ee 36000000 		.4byte	.LVL28
 1097 01f2 3E000000 		.4byte	.LFE13
 1098 01f6 0100     		.2byte	0x1
 1099 01f8 53       		.byte	0x53
 1100 01f9 00000000 		.4byte	0x0
 1101 01fd 00000000 		.4byte	0x0
 1102              	.LLST20:
 1103 0201 00000000 		.4byte	.LVL25
 1104 0205 35000000 		.4byte	.LVL28-1
 1105 0209 0100     		.2byte	0x1
 1106 020b 51       		.byte	0x51
 1107 020c 36000000 		.4byte	.LVL28
 1108 0210 3E000000 		.4byte	.LFE13
 1109 0214 0100     		.2byte	0x1
 1110 0216 51       		.byte	0x51
 1111 0217 00000000 		.4byte	0x0
 1112 021b 00000000 		.4byte	0x0
 1113              	.LLST21:
 1114 021f 26000000 		.4byte	.LVL27
 1115 0223 35000000 		.4byte	.LVL28-1
 1116 0227 0100     		.2byte	0x1
 1117 0229 53       		.byte	0x53
 1118 022a 00000000 		.4byte	0x0
 1119 022e 00000000 		.4byte	0x0
 1120              	.LLST22:
ARM GAS  /tmp/ccCWhezY.s 			page 21


 1121 0232 00000000 		.4byte	.LFB12
 1122 0236 02000000 		.4byte	.LCFI5
 1123 023a 0200     		.2byte	0x2
 1124 023c 7D       		.byte	0x7d
 1125 023d 00       		.sleb128 0
 1126 023e 02000000 		.4byte	.LCFI5
 1127 0242 14000000 		.4byte	.LFE12
 1128 0246 0200     		.2byte	0x2
 1129 0248 7D       		.byte	0x7d
 1130 0249 08       		.sleb128 8
 1131 024a 00000000 		.4byte	0x0
 1132 024e 00000000 		.4byte	0x0
 1133              	.LLST23:
 1134 0252 00000000 		.4byte	.LVL29
 1135 0256 0B000000 		.4byte	.LVL32-1
 1136 025a 0100     		.2byte	0x1
 1137 025c 50       		.byte	0x50
 1138 025d 00000000 		.4byte	0x0
 1139 0261 00000000 		.4byte	0x0
 1140              	.LLST24:
 1141 0265 00000000 		.4byte	.LVL29
 1142 0269 0B000000 		.4byte	.LVL32-1
 1143 026d 0100     		.2byte	0x1
 1144 026f 51       		.byte	0x51
 1145 0270 00000000 		.4byte	0x0
 1146 0274 00000000 		.4byte	0x0
 1147              	.LLST25:
 1148 0278 08000000 		.4byte	.LVL31
 1149 027c 0B000000 		.4byte	.LVL32-1
 1150 0280 0100     		.2byte	0x1
 1151 0282 53       		.byte	0x53
 1152 0283 00000000 		.4byte	0x0
 1153 0287 00000000 		.4byte	0x0
 1154              	.LLST26:
 1155 028b 12000000 		.4byte	.LVL34
 1156 028f 14000000 		.4byte	.LFE12
 1157 0293 0100     		.2byte	0x1
 1158 0295 53       		.byte	0x53
 1159 0296 00000000 		.4byte	0x0
 1160 029a 00000000 		.4byte	0x0
 1161              	.LLST27:
 1162 029e 00000000 		.4byte	.LFB14
 1163 02a2 02000000 		.4byte	.LCFI6
 1164 02a6 0200     		.2byte	0x2
 1165 02a8 7D       		.byte	0x7d
 1166 02a9 00       		.sleb128 0
 1167 02aa 02000000 		.4byte	.LCFI6
 1168 02ae 32000000 		.4byte	.LFE14
 1169 02b2 0200     		.2byte	0x2
 1170 02b4 7D       		.byte	0x7d
 1171 02b5 08       		.sleb128 8
 1172 02b6 00000000 		.4byte	0x0
 1173 02ba 00000000 		.4byte	0x0
 1174              	.LLST28:
 1175 02be 00000000 		.4byte	.LVL35
 1176 02c2 0C000000 		.4byte	.LVL38
 1177 02c6 0100     		.2byte	0x1
ARM GAS  /tmp/ccCWhezY.s 			page 22


 1178 02c8 50       		.byte	0x50
 1179 02c9 0C000000 		.4byte	.LVL38
 1180 02cd 29000000 		.4byte	.LVL44-1
 1181 02d1 0100     		.2byte	0x1
 1182 02d3 52       		.byte	0x52
 1183 02d4 00000000 		.4byte	0x0
 1184 02d8 00000000 		.4byte	0x0
 1185              	.LLST29:
 1186 02dc 0A000000 		.4byte	.LVL37
 1187 02e0 0E000000 		.4byte	.LVL39
 1188 02e4 0100     		.2byte	0x1
 1189 02e6 53       		.byte	0x53
 1190 02e7 00000000 		.4byte	0x0
 1191 02eb 00000000 		.4byte	0x0
 1192              	.LLST30:
 1193 02ef 1A000000 		.4byte	.LVL41
 1194 02f3 1C000000 		.4byte	.LVL42
 1195 02f7 0100     		.2byte	0x1
 1196 02f9 53       		.byte	0x53
 1197 02fa 30000000 		.4byte	.LVL45
 1198 02fe 32000000 		.4byte	.LFE14
 1199 0302 0100     		.2byte	0x1
 1200 0304 53       		.byte	0x53
 1201 0305 00000000 		.4byte	0x0
 1202 0309 00000000 		.4byte	0x0
 1203              	.LLST31:
 1204 030d 1C000000 		.4byte	.LVL42
 1205 0311 29000000 		.4byte	.LVL44-1
 1206 0315 0100     		.2byte	0x1
 1207 0317 52       		.byte	0x52
 1208 0318 00000000 		.4byte	0x0
 1209 031c 00000000 		.4byte	0x0
 1210              	.LLST32:
 1211 0320 1E000000 		.4byte	.LVL43
 1212 0324 29000000 		.4byte	.LVL44-1
 1213 0328 0200     		.2byte	0x2
 1214 032a 72       		.byte	0x72
 1215 032b 00       		.sleb128 0
 1216 032c 00000000 		.4byte	0x0
 1217 0330 00000000 		.4byte	0x0
 1218              	.LLST33:
 1219 0334 00000000 		.4byte	.LVL46
 1220 0338 04000000 		.4byte	.LVL47
 1221 033c 0100     		.2byte	0x1
 1222 033e 50       		.byte	0x50
 1223 033f 04000000 		.4byte	.LVL47
 1224 0343 1A000000 		.4byte	.LVL50
 1225 0347 0100     		.2byte	0x1
 1226 0349 53       		.byte	0x53
 1227 034a 00000000 		.4byte	0x0
 1228 034e 00000000 		.4byte	0x0
 1229              	.LLST34:
 1230 0352 0E000000 		.4byte	.LVL48
 1231 0356 1A000000 		.4byte	.LVL50
 1232 035a 0100     		.2byte	0x1
 1233 035c 53       		.byte	0x53
 1234 035d 1A000000 		.4byte	.LVL50
ARM GAS  /tmp/ccCWhezY.s 			page 23


 1235 0361 20000000 		.4byte	.LFE15
 1236 0365 0200     		.2byte	0x2
 1237 0367 71       		.byte	0x71
 1238 0368 04       		.sleb128 4
 1239 0369 00000000 		.4byte	0x0
 1240 036d 00000000 		.4byte	0x0
 1241              	.LLST35:
 1242 0371 10000000 		.4byte	.LVL49
 1243 0375 1A000000 		.4byte	.LVL50
 1244 0379 0200     		.2byte	0x2
 1245 037b 73       		.byte	0x73
 1246 037c 00       		.sleb128 0
 1247 037d 1A000000 		.4byte	.LVL50
 1248 0381 20000000 		.4byte	.LFE15
 1249 0385 0300     		.2byte	0x3
 1250 0387 71       		.byte	0x71
 1251 0388 04       		.sleb128 4
 1252 0389 06       		.byte	0x6
 1253 038a 00000000 		.4byte	0x0
 1254 038e 00000000 		.4byte	0x0
 1255              	.LLST36:
 1256 0392 00000000 		.4byte	.LFB16
 1257 0396 02000000 		.4byte	.LCFI7
 1258 039a 0200     		.2byte	0x2
 1259 039c 7D       		.byte	0x7d
 1260 039d 00       		.sleb128 0
 1261 039e 02000000 		.4byte	.LCFI7
 1262 03a2 66000000 		.4byte	.LFE16
 1263 03a6 0200     		.2byte	0x2
 1264 03a8 7D       		.byte	0x7d
 1265 03a9 18       		.sleb128 24
 1266 03aa 00000000 		.4byte	0x0
 1267 03ae 00000000 		.4byte	0x0
 1268              	.LLST37:
 1269 03b2 00000000 		.4byte	.LVL51
 1270 03b6 10000000 		.4byte	.LVL54
 1271 03ba 0100     		.2byte	0x1
 1272 03bc 50       		.byte	0x50
 1273 03bd 10000000 		.4byte	.LVL54
 1274 03c1 66000000 		.4byte	.LFE16
 1275 03c5 0100     		.2byte	0x1
 1276 03c7 54       		.byte	0x54
 1277 03c8 00000000 		.4byte	0x0
 1278 03cc 00000000 		.4byte	0x0
 1279              	.LLST38:
 1280 03d0 00000000 		.4byte	.LVL51
 1281 03d4 1D000000 		.4byte	.LVL55-1
 1282 03d8 0100     		.2byte	0x1
 1283 03da 51       		.byte	0x51
 1284 03db 00000000 		.4byte	0x0
 1285 03df 00000000 		.4byte	0x0
 1286              	.LLST39:
 1287 03e3 04000000 		.4byte	.LVL52
 1288 03e7 0C000000 		.4byte	.LVL53
 1289 03eb 0200     		.2byte	0x2
 1290 03ed 70       		.byte	0x70
 1291 03ee 08       		.sleb128 8
ARM GAS  /tmp/ccCWhezY.s 			page 24


 1292 03ef 0C000000 		.4byte	.LVL53
 1293 03f3 26000000 		.4byte	.LVL56
 1294 03f7 0100     		.2byte	0x1
 1295 03f9 57       		.byte	0x57
 1296 03fa 00000000 		.4byte	0x0
 1297 03fe 00000000 		.4byte	0x0
 1298              	.LLST40:
 1299 0402 26000000 		.4byte	.LVL56
 1300 0406 60000000 		.4byte	.LVL57
 1301 040a 0100     		.2byte	0x1
 1302 040c 54       		.byte	0x54
 1303 040d 62000000 		.4byte	.LVL58
 1304 0411 66000000 		.4byte	.LFE16
 1305 0415 0100     		.2byte	0x1
 1306 0417 54       		.byte	0x54
 1307 0418 00000000 		.4byte	0x0
 1308 041c 00000000 		.4byte	0x0
 1309              	.LLST41:
 1310 0420 00000000 		.4byte	.LFB17
 1311 0424 02000000 		.4byte	.LCFI8
 1312 0428 0200     		.2byte	0x2
 1313 042a 7D       		.byte	0x7d
 1314 042b 00       		.sleb128 0
 1315 042c 02000000 		.4byte	.LCFI8
 1316 0430 06000000 		.4byte	.LCFI9
 1317 0434 0200     		.2byte	0x2
 1318 0436 7D       		.byte	0x7d
 1319 0437 08       		.sleb128 8
 1320 0438 06000000 		.4byte	.LCFI9
 1321 043c 66000000 		.4byte	.LFE17
 1322 0440 0200     		.2byte	0x2
 1323 0442 7D       		.byte	0x7d
 1324 0443 10       		.sleb128 16
 1325 0444 00000000 		.4byte	0x0
 1326 0448 00000000 		.4byte	0x0
 1327              	.LLST42:
 1328 044c 00000000 		.4byte	.LVL59
 1329 0450 0E000000 		.4byte	.LVL62
 1330 0454 0100     		.2byte	0x1
 1331 0456 50       		.byte	0x50
 1332 0457 0E000000 		.4byte	.LVL62
 1333 045b 16000000 		.4byte	.LVL64
 1334 045f 0100     		.2byte	0x1
 1335 0461 52       		.byte	0x52
 1336 0462 50000000 		.4byte	.LVL73
 1337 0466 5D000000 		.4byte	.LVL75-1
 1338 046a 0100     		.2byte	0x1
 1339 046c 52       		.byte	0x52
 1340 046d 00000000 		.4byte	0x0
 1341 0471 00000000 		.4byte	0x0
 1342              	.LLST43:
 1343 0475 00000000 		.4byte	.LVL59
 1344 0479 16000000 		.4byte	.LVL64
 1345 047d 0100     		.2byte	0x1
 1346 047f 51       		.byte	0x51
 1347 0480 50000000 		.4byte	.LVL73
 1348 0484 5D000000 		.4byte	.LVL75-1
ARM GAS  /tmp/ccCWhezY.s 			page 25


 1349 0488 0100     		.2byte	0x1
 1350 048a 51       		.byte	0x51
 1351 048b 00000000 		.4byte	0x0
 1352 048f 00000000 		.4byte	0x0
 1353              	.LLST44:
 1354 0493 24000000 		.4byte	.LVL65
 1355 0497 26000000 		.4byte	.LVL66
 1356 049b 0200     		.2byte	0x2
 1357 049d 30       		.byte	0x30
 1358 049e 9F       		.byte	0x9f
 1359 049f 26000000 		.4byte	.LVL66
 1360 04a3 30000000 		.4byte	.LVL69
 1361 04a7 0100     		.2byte	0x1
 1362 04a9 50       		.byte	0x50
 1363 04aa 4E000000 		.4byte	.LVL72
 1364 04ae 50000000 		.4byte	.LVL73
 1365 04b2 0200     		.2byte	0x2
 1366 04b4 74       		.byte	0x74
 1367 04b5 20       		.sleb128 32
 1368 04b6 00000000 		.4byte	0x0
 1369 04ba 00000000 		.4byte	0x0
 1370              	.LLST45:
 1371 04be 0C000000 		.4byte	.LVL61
 1372 04c2 10000000 		.4byte	.LVL63
 1373 04c6 0100     		.2byte	0x1
 1374 04c8 53       		.byte	0x53
 1375 04c9 00000000 		.4byte	0x0
 1376 04cd 00000000 		.4byte	0x0
 1377              	.LLST46:
 1378 04d1 2C000000 		.4byte	.LVL68
 1379 04d5 30000000 		.4byte	.LVL69
 1380 04d9 0100     		.2byte	0x1
 1381 04db 53       		.byte	0x53
 1382 04dc 00000000 		.4byte	0x0
 1383 04e0 00000000 		.4byte	0x0
 1384              	.LLST47:
 1385 04e4 4B000000 		.4byte	.LVL71-1
 1386 04e8 50000000 		.4byte	.LVL73
 1387 04ec 0100     		.2byte	0x1
 1388 04ee 54       		.byte	0x54
 1389 04ef 00000000 		.4byte	0x0
 1390 04f3 00000000 		.4byte	0x0
 1391              	.LLST48:
 1392 04f7 3A000000 		.4byte	.LVL70
 1393 04fb 4B000000 		.4byte	.LVL71-1
 1394 04ff 0100     		.2byte	0x1
 1395 0501 51       		.byte	0x51
 1396 0502 00000000 		.4byte	0x0
 1397 0506 00000000 		.4byte	0x0
 1398              	.LLST49:
 1399 050a 4B000000 		.4byte	.LVL71-1
 1400 050e 50000000 		.4byte	.LVL73
 1401 0512 0100     		.2byte	0x1
 1402 0514 54       		.byte	0x54
 1403 0515 00000000 		.4byte	0x0
 1404 0519 00000000 		.4byte	0x0
 1405              	.LLST50:
ARM GAS  /tmp/ccCWhezY.s 			page 26


 1406 051d 50000000 		.4byte	.LVL73
 1407 0521 5D000000 		.4byte	.LVL75-1
 1408 0525 0100     		.2byte	0x1
 1409 0527 52       		.byte	0x52
 1410 0528 00000000 		.4byte	0x0
 1411 052c 00000000 		.4byte	0x0
 1412              	.LLST51:
 1413 0530 52000000 		.4byte	.LVL74
 1414 0534 5D000000 		.4byte	.LVL75-1
 1415 0538 0200     		.2byte	0x2
 1416 053a 72       		.byte	0x72
 1417 053b 00       		.sleb128 0
 1418 053c 00000000 		.4byte	0x0
 1419 0540 00000000 		.4byte	0x0
 1420              		.file 3 "/home/dan/arm-cs-tools/lib/gcc/arm-none-eabi/4.5.1/../../../../arm-none-eabi/include/stdi
 1421              		.file 4 "chibios/os/ports/GCC/ARMCMx/chtypes.h"
 1422              		.file 5 "chibios/os/kernel/include/chlists.h"
 1423              		.file 6 "chibios/os/kernel/include/chthreads.h"
 1424              		.file 7 "chibios/os/ports/GCC/ARMCMx/chcore.h"
 1425              		.file 8 "chibios/os/ports/GCC/ARMCMx/chcore_v7m.h"
 1426              		.file 9 "chibios/os/kernel/include/chschd.h"
 1427              		.file 10 "chibios/os/kernel/include/chsem.h"
 1428              		.file 11 "chibios/os/kernel/include/chmtx.h"
 1429              		.section	.debug_info
 1430 0000 BD090000 		.4byte	0x9bd
 1431 0004 0200     		.2byte	0x2
 1432 0006 00000000 		.4byte	.Ldebug_abbrev0
 1433 000a 04       		.byte	0x4
 1434 000b 01       		.uleb128 0x1
 1435 000c 25030000 		.4byte	.LASF77
 1436 0010 01       		.byte	0x1
 1437 0011 CE000000 		.4byte	.LASF78
 1438 0015 8B010000 		.4byte	.LASF79
 1439 0019 00000000 		.4byte	0x0
 1440 001d 00000000 		.4byte	0x0
 1441 0021 C8010000 		.4byte	.Ldebug_ranges0+0x1c8
 1442 0025 00000000 		.4byte	.Ldebug_line0
 1443 0029 02       		.uleb128 0x2
 1444 002a 04       		.byte	0x4
 1445 002b 05       		.byte	0x5
 1446 002c 696E7400 		.ascii	"int\000"
 1447 0030 03       		.uleb128 0x3
 1448 0031 04       		.byte	0x4
 1449 0032 07       		.byte	0x7
 1450 0033 03010000 		.4byte	.LASF0
 1451 0037 03       		.uleb128 0x3
 1452 0038 01       		.byte	0x1
 1453 0039 06       		.byte	0x6
 1454 003a 6D000000 		.4byte	.LASF1
 1455 003e 04       		.uleb128 0x4
 1456 003f 1D030000 		.4byte	.LASF5
 1457 0043 03       		.byte	0x3
 1458 0044 2A       		.byte	0x2a
 1459 0045 49000000 		.4byte	0x49
 1460 0049 03       		.uleb128 0x3
 1461 004a 01       		.byte	0x1
 1462 004b 08       		.byte	0x8
ARM GAS  /tmp/ccCWhezY.s 			page 27


 1463 004c 12020000 		.4byte	.LASF2
 1464 0050 03       		.uleb128 0x3
 1465 0051 02       		.byte	0x2
 1466 0052 05       		.byte	0x5
 1467 0053 2A020000 		.4byte	.LASF3
 1468 0057 03       		.uleb128 0x3
 1469 0058 02       		.byte	0x2
 1470 0059 07       		.byte	0x7
 1471 005a 41010000 		.4byte	.LASF4
 1472 005e 04       		.uleb128 0x4
 1473 005f 0A020000 		.4byte	.LASF6
 1474 0063 03       		.byte	0x3
 1475 0064 4F       		.byte	0x4f
 1476 0065 69000000 		.4byte	0x69
 1477 0069 03       		.uleb128 0x3
 1478 006a 04       		.byte	0x4
 1479 006b 05       		.byte	0x5
 1480 006c A0000000 		.4byte	.LASF7
 1481 0070 04       		.uleb128 0x4
 1482 0071 76020000 		.4byte	.LASF8
 1483 0075 03       		.byte	0x3
 1484 0076 50       		.byte	0x50
 1485 0077 7B000000 		.4byte	0x7b
 1486 007b 03       		.uleb128 0x3
 1487 007c 04       		.byte	0x4
 1488 007d 07       		.byte	0x7
 1489 007e 21010000 		.4byte	.LASF9
 1490 0082 03       		.uleb128 0x3
 1491 0083 08       		.byte	0x8
 1492 0084 05       		.byte	0x5
 1493 0085 5F000000 		.4byte	.LASF10
 1494 0089 03       		.uleb128 0x3
 1495 008a 08       		.byte	0x8
 1496 008b 07       		.byte	0x7
 1497 008c 38000000 		.4byte	.LASF11
 1498 0090 04       		.uleb128 0x4
 1499 0091 65010000 		.4byte	.LASF12
 1500 0095 04       		.byte	0x4
 1501 0096 2E       		.byte	0x2e
 1502 0097 3E000000 		.4byte	0x3e
 1503 009b 04       		.uleb128 0x4
 1504 009c A9000000 		.4byte	.LASF13
 1505 00a0 04       		.byte	0x4
 1506 00a1 2F       		.byte	0x2f
 1507 00a2 3E000000 		.4byte	0x3e
 1508 00a6 04       		.uleb128 0x4
 1509 00a7 F3010000 		.4byte	.LASF14
 1510 00ab 04       		.byte	0x4
 1511 00ac 30       		.byte	0x30
 1512 00ad 3E000000 		.4byte	0x3e
 1513 00b1 04       		.uleb128 0x4
 1514 00b2 02020000 		.4byte	.LASF15
 1515 00b6 04       		.byte	0x4
 1516 00b7 31       		.byte	0x31
 1517 00b8 70000000 		.4byte	0x70
 1518 00bc 04       		.uleb128 0x4
 1519 00bd 5F010000 		.4byte	.LASF16
ARM GAS  /tmp/ccCWhezY.s 			page 28


 1520 00c1 04       		.byte	0x4
 1521 00c2 32       		.byte	0x32
 1522 00c3 5E000000 		.4byte	0x5e
 1523 00c7 04       		.uleb128 0x4
 1524 00c8 79010000 		.4byte	.LASF17
 1525 00cc 04       		.byte	0x4
 1526 00cd 34       		.byte	0x34
 1527 00ce 70000000 		.4byte	0x70
 1528 00d2 04       		.uleb128 0x4
 1529 00d3 AC020000 		.4byte	.LASF18
 1530 00d7 04       		.byte	0x4
 1531 00d8 35       		.byte	0x35
 1532 00d9 70000000 		.4byte	0x70
 1533 00dd 04       		.uleb128 0x4
 1534 00de FD000000 		.4byte	.LASF19
 1535 00e2 04       		.byte	0x4
 1536 00e3 36       		.byte	0x36
 1537 00e4 5E000000 		.4byte	0x5e
 1538 00e8 04       		.uleb128 0x4
 1539 00e9 64020000 		.4byte	.LASF20
 1540 00ed 05       		.byte	0x5
 1541 00ee 29       		.byte	0x29
 1542 00ef F3000000 		.4byte	0xf3
 1543 00f3 05       		.uleb128 0x5
 1544 00f4 64020000 		.4byte	.LASF20
 1545 00f8 44       		.byte	0x44
 1546 00f9 06       		.byte	0x6
 1547 00fa 2E       		.byte	0x2e
 1548 00fb FC010000 		.4byte	0x1fc
 1549 00ff 06       		.uleb128 0x6
 1550 0100 4A020000 		.4byte	.LASF21
 1551 0104 06       		.byte	0x6
 1552 0105 2F       		.byte	0x2f
 1553 0106 21020000 		.4byte	0x221
 1554 010a 02       		.byte	0x2
 1555 010b 23       		.byte	0x23
 1556 010c 00       		.uleb128 0x0
 1557 010d 06       		.uleb128 0x6
 1558 010e FB010000 		.4byte	.LASF22
 1559 0112 06       		.byte	0x6
 1560 0113 31       		.byte	0x31
 1561 0114 21020000 		.4byte	0x221
 1562 0118 02       		.byte	0x2
 1563 0119 23       		.byte	0x23
 1564 011a 04       		.uleb128 0x4
 1565 011b 06       		.uleb128 0x6
 1566 011c 58000000 		.4byte	.LASF23
 1567 0120 06       		.byte	0x6
 1568 0121 33       		.byte	0x33
 1569 0122 B1000000 		.4byte	0xb1
 1570 0126 02       		.byte	0x2
 1571 0127 23       		.byte	0x23
 1572 0128 08       		.uleb128 0x8
 1573 0129 06       		.uleb128 0x6
 1574 012a 43030000 		.4byte	.LASF24
 1575 012e 06       		.byte	0x6
 1576 012f 34       		.byte	0x34
ARM GAS  /tmp/ccCWhezY.s 			page 29


 1577 0130 62020000 		.4byte	0x262
 1578 0134 02       		.byte	0x2
 1579 0135 23       		.byte	0x23
 1580 0136 0C       		.uleb128 0xc
 1581 0137 06       		.uleb128 0x6
 1582 0138 BE000000 		.4byte	.LASF25
 1583 013c 06       		.byte	0x6
 1584 013d 36       		.byte	0x36
 1585 013e 21020000 		.4byte	0x221
 1586 0142 02       		.byte	0x2
 1587 0143 23       		.byte	0x23
 1588 0144 10       		.uleb128 0x10
 1589 0145 06       		.uleb128 0x6
 1590 0146 C1010000 		.4byte	.LASF26
 1591 014a 06       		.byte	0x6
 1592 014b 37       		.byte	0x37
 1593 014c 21020000 		.4byte	0x221
 1594 0150 02       		.byte	0x2
 1595 0151 23       		.byte	0x23
 1596 0152 14       		.uleb128 0x14
 1597 0153 06       		.uleb128 0x6
 1598 0154 34020000 		.4byte	.LASF27
 1599 0158 06       		.byte	0x6
 1600 0159 3D       		.byte	0x3d
 1601 015a 9B000000 		.4byte	0x9b
 1602 015e 02       		.byte	0x2
 1603 015f 23       		.byte	0x23
 1604 0160 18       		.uleb128 0x18
 1605 0161 06       		.uleb128 0x6
 1606 0162 51020000 		.4byte	.LASF28
 1607 0166 06       		.byte	0x6
 1608 0167 41       		.byte	0x41
 1609 0168 90000000 		.4byte	0x90
 1610 016c 02       		.byte	0x2
 1611 016d 23       		.byte	0x23
 1612 016e 19       		.uleb128 0x19
 1613 016f 06       		.uleb128 0x6
 1614 0170 FA020000 		.4byte	.LASF29
 1615 0174 06       		.byte	0x6
 1616 0175 46       		.byte	0x46
 1617 0176 A6000000 		.4byte	0xa6
 1618 017a 02       		.byte	0x2
 1619 017b 23       		.byte	0x23
 1620 017c 1A       		.uleb128 0x1a
 1621 017d 06       		.uleb128 0x6
 1622 017e CB020000 		.4byte	.LASF30
 1623 0182 06       		.byte	0x6
 1624 0183 53       		.byte	0x53
 1625 0184 09030000 		.4byte	0x309
 1626 0188 02       		.byte	0x2
 1627 0189 23       		.byte	0x23
 1628 018a 1C       		.uleb128 0x1c
 1629 018b 07       		.uleb128 0x7
 1630 018c 705F7500 		.ascii	"p_u\000"
 1631 0190 06       		.byte	0x6
 1632 0191 78       		.byte	0x78
 1633 0192 00040000 		.4byte	0x400
ARM GAS  /tmp/ccCWhezY.s 			page 30


 1634 0196 02       		.byte	0x2
 1635 0197 23       		.byte	0x23
 1636 0198 20       		.uleb128 0x20
 1637 0199 06       		.uleb128 0x6
 1638 019a 49030000 		.4byte	.LASF31
 1639 019e 06       		.byte	0x6
 1640 019f 7D       		.byte	0x7d
 1641 01a0 49020000 		.4byte	0x249
 1642 01a4 02       		.byte	0x2
 1643 01a5 23       		.byte	0x23
 1644 01a6 24       		.uleb128 0x24
 1645 01a7 06       		.uleb128 0x6
 1646 01a8 E5020000 		.4byte	.LASF32
 1647 01ac 06       		.byte	0x6
 1648 01ad 83       		.byte	0x83
 1649 01ae 27020000 		.4byte	0x227
 1650 01b2 02       		.byte	0x2
 1651 01b3 23       		.byte	0x23
 1652 01b4 28       		.uleb128 0x28
 1653 01b5 06       		.uleb128 0x6
 1654 01b6 00000000 		.4byte	.LASF33
 1655 01ba 06       		.byte	0x6
 1656 01bb 87       		.byte	0x87
 1657 01bc BC000000 		.4byte	0xbc
 1658 01c0 02       		.byte	0x2
 1659 01c1 23       		.byte	0x23
 1660 01c2 30       		.uleb128 0x30
 1661 01c3 06       		.uleb128 0x6
 1662 01c4 6B020000 		.4byte	.LASF34
 1663 01c8 06       		.byte	0x6
 1664 01c9 8D       		.byte	0x8d
 1665 01ca C7000000 		.4byte	0xc7
 1666 01ce 02       		.byte	0x2
 1667 01cf 23       		.byte	0x23
 1668 01d0 34       		.uleb128 0x34
 1669 01d1 06       		.uleb128 0x6
 1670 01d2 20020000 		.4byte	.LASF35
 1671 01d6 06       		.byte	0x6
 1672 01d7 94       		.byte	0x94
 1673 01d8 35040000 		.4byte	0x435
 1674 01dc 02       		.byte	0x2
 1675 01dd 23       		.byte	0x23
 1676 01de 38       		.uleb128 0x38
 1677 01df 06       		.uleb128 0x6
 1678 01e0 B6020000 		.4byte	.LASF36
 1679 01e4 06       		.byte	0x6
 1680 01e5 98       		.byte	0x98
 1681 01e6 B1000000 		.4byte	0xb1
 1682 01ea 02       		.byte	0x2
 1683 01eb 23       		.byte	0x23
 1684 01ec 3C       		.uleb128 0x3c
 1685 01ed 06       		.uleb128 0x6
 1686 01ee 89000000 		.4byte	.LASF37
 1687 01f2 06       		.byte	0x6
 1688 01f3 9E       		.byte	0x9e
 1689 01f4 60020000 		.4byte	0x260
 1690 01f8 02       		.byte	0x2
ARM GAS  /tmp/ccCWhezY.s 			page 31


 1691 01f9 23       		.byte	0x23
 1692 01fa 40       		.uleb128 0x40
 1693 01fb 00       		.byte	0x0
 1694 01fc 08       		.uleb128 0x8
 1695 01fd 08       		.byte	0x8
 1696 01fe 05       		.byte	0x5
 1697 01ff 60       		.byte	0x60
 1698 0200 21020000 		.4byte	0x221
 1699 0204 06       		.uleb128 0x6
 1700 0205 4A020000 		.4byte	.LASF21
 1701 0209 05       		.byte	0x5
 1702 020a 61       		.byte	0x61
 1703 020b 21020000 		.4byte	0x221
 1704 020f 02       		.byte	0x2
 1705 0210 23       		.byte	0x23
 1706 0211 00       		.uleb128 0x0
 1707 0212 06       		.uleb128 0x6
 1708 0213 FB010000 		.4byte	.LASF22
 1709 0217 05       		.byte	0x5
 1710 0218 63       		.byte	0x63
 1711 0219 21020000 		.4byte	0x221
 1712 021d 02       		.byte	0x2
 1713 021e 23       		.byte	0x23
 1714 021f 04       		.uleb128 0x4
 1715 0220 00       		.byte	0x0
 1716 0221 09       		.uleb128 0x9
 1717 0222 04       		.byte	0x4
 1718 0223 E8000000 		.4byte	0xe8
 1719 0227 04       		.uleb128 0x4
 1720 0228 CF010000 		.4byte	.LASF38
 1721 022c 05       		.byte	0x5
 1722 022d 65       		.byte	0x65
 1723 022e FC010000 		.4byte	0x1fc
 1724 0232 08       		.uleb128 0x8
 1725 0233 04       		.byte	0x4
 1726 0234 05       		.byte	0x5
 1727 0235 6A       		.byte	0x6a
 1728 0236 49020000 		.4byte	0x249
 1729 023a 06       		.uleb128 0x6
 1730 023b 4A020000 		.4byte	.LASF21
 1731 023f 05       		.byte	0x5
 1732 0240 6C       		.byte	0x6c
 1733 0241 21020000 		.4byte	0x221
 1734 0245 02       		.byte	0x2
 1735 0246 23       		.byte	0x23
 1736 0247 00       		.uleb128 0x0
 1737 0248 00       		.byte	0x0
 1738 0249 04       		.uleb128 0x4
 1739 024a 6D010000 		.4byte	.LASF39
 1740 024e 05       		.byte	0x5
 1741 024f 6F       		.byte	0x6f
 1742 0250 32020000 		.4byte	0x232
 1743 0254 0A       		.uleb128 0xa
 1744 0255 F4000000 		.4byte	.LASF40
 1745 0259 07       		.byte	0x7
 1746 025a 0F01     		.2byte	0x10f
 1747 025c 60020000 		.4byte	0x260
ARM GAS  /tmp/ccCWhezY.s 			page 32


 1748 0260 0B       		.uleb128 0xb
 1749 0261 04       		.byte	0x4
 1750 0262 0C       		.uleb128 0xc
 1751 0263 39010000 		.4byte	.LASF41
 1752 0267 04       		.byte	0x4
 1753 0268 07       		.byte	0x7
 1754 0269 2B01     		.2byte	0x12b
 1755 026b 7F020000 		.4byte	0x27f
 1756 026f 0D       		.uleb128 0xd
 1757 0270 72313300 		.ascii	"r13\000"
 1758 0274 07       		.byte	0x7
 1759 0275 2C01     		.2byte	0x12c
 1760 0277 03030000 		.4byte	0x303
 1761 027b 02       		.byte	0x2
 1762 027c 23       		.byte	0x23
 1763 027d 00       		.uleb128 0x0
 1764 027e 00       		.byte	0x0
 1765 027f 05       		.uleb128 0x5
 1766 0280 DE020000 		.4byte	.LASF42
 1767 0284 24       		.byte	0x24
 1768 0285 08       		.byte	0x8
 1769 0286 36       		.byte	0x36
 1770 0287 03030000 		.4byte	0x303
 1771 028b 07       		.uleb128 0x7
 1772 028c 723400   		.ascii	"r4\000"
 1773 028f 08       		.byte	0x8
 1774 0290 37       		.byte	0x37
 1775 0291 54020000 		.4byte	0x254
 1776 0295 02       		.byte	0x2
 1777 0296 23       		.byte	0x23
 1778 0297 00       		.uleb128 0x0
 1779 0298 07       		.uleb128 0x7
 1780 0299 723500   		.ascii	"r5\000"
 1781 029c 08       		.byte	0x8
 1782 029d 38       		.byte	0x38
 1783 029e 54020000 		.4byte	0x254
 1784 02a2 02       		.byte	0x2
 1785 02a3 23       		.byte	0x23
 1786 02a4 04       		.uleb128 0x4
 1787 02a5 07       		.uleb128 0x7
 1788 02a6 723600   		.ascii	"r6\000"
 1789 02a9 08       		.byte	0x8
 1790 02aa 39       		.byte	0x39
 1791 02ab 54020000 		.4byte	0x254
 1792 02af 02       		.byte	0x2
 1793 02b0 23       		.byte	0x23
 1794 02b1 08       		.uleb128 0x8
 1795 02b2 07       		.uleb128 0x7
 1796 02b3 723700   		.ascii	"r7\000"
 1797 02b6 08       		.byte	0x8
 1798 02b7 3B       		.byte	0x3b
 1799 02b8 54020000 		.4byte	0x254
 1800 02bc 02       		.byte	0x2
 1801 02bd 23       		.byte	0x23
 1802 02be 0C       		.uleb128 0xc
 1803 02bf 07       		.uleb128 0x7
 1804 02c0 723800   		.ascii	"r8\000"
ARM GAS  /tmp/ccCWhezY.s 			page 33


 1805 02c3 08       		.byte	0x8
 1806 02c4 3D       		.byte	0x3d
 1807 02c5 54020000 		.4byte	0x254
 1808 02c9 02       		.byte	0x2
 1809 02ca 23       		.byte	0x23
 1810 02cb 10       		.uleb128 0x10
 1811 02cc 07       		.uleb128 0x7
 1812 02cd 723900   		.ascii	"r9\000"
 1813 02d0 08       		.byte	0x8
 1814 02d1 3E       		.byte	0x3e
 1815 02d2 54020000 		.4byte	0x254
 1816 02d6 02       		.byte	0x2
 1817 02d7 23       		.byte	0x23
 1818 02d8 14       		.uleb128 0x14
 1819 02d9 07       		.uleb128 0x7
 1820 02da 72313000 		.ascii	"r10\000"
 1821 02de 08       		.byte	0x8
 1822 02df 3F       		.byte	0x3f
 1823 02e0 54020000 		.4byte	0x254
 1824 02e4 02       		.byte	0x2
 1825 02e5 23       		.byte	0x23
 1826 02e6 18       		.uleb128 0x18
 1827 02e7 07       		.uleb128 0x7
 1828 02e8 72313100 		.ascii	"r11\000"
 1829 02ec 08       		.byte	0x8
 1830 02ed 40       		.byte	0x40
 1831 02ee 54020000 		.4byte	0x254
 1832 02f2 02       		.byte	0x2
 1833 02f3 23       		.byte	0x23
 1834 02f4 1C       		.uleb128 0x1c
 1835 02f5 07       		.uleb128 0x7
 1836 02f6 6C7200   		.ascii	"lr\000"
 1837 02f9 08       		.byte	0x8
 1838 02fa 41       		.byte	0x41
 1839 02fb 54020000 		.4byte	0x254
 1840 02ff 02       		.byte	0x2
 1841 0300 23       		.byte	0x23
 1842 0301 20       		.uleb128 0x20
 1843 0302 00       		.byte	0x0
 1844 0303 09       		.uleb128 0x9
 1845 0304 04       		.byte	0x4
 1846 0305 7F020000 		.4byte	0x27f
 1847 0309 0E       		.uleb128 0xe
 1848 030a D2000000 		.4byte	0xd2
 1849 030e 08       		.uleb128 0x8
 1850 030f 20       		.byte	0x20
 1851 0310 09       		.byte	0x9
 1852 0311 4F       		.byte	0x4f
 1853 0312 79030000 		.4byte	0x379
 1854 0316 06       		.uleb128 0x6
 1855 0317 7F020000 		.4byte	.LASF43
 1856 031b 09       		.byte	0x9
 1857 031c 50       		.byte	0x50
 1858 031d 27020000 		.4byte	0x227
 1859 0321 02       		.byte	0x2
 1860 0322 23       		.byte	0x23
 1861 0323 00       		.uleb128 0x0
ARM GAS  /tmp/ccCWhezY.s 			page 34


 1862 0324 06       		.uleb128 0x6
 1863 0325 3C020000 		.4byte	.LASF44
 1864 0329 09       		.byte	0x9
 1865 032a 51       		.byte	0x51
 1866 032b B1000000 		.4byte	0xb1
 1867 032f 02       		.byte	0x2
 1868 0330 23       		.byte	0x23
 1869 0331 08       		.uleb128 0x8
 1870 0332 06       		.uleb128 0x6
 1871 0333 C9010000 		.4byte	.LASF45
 1872 0337 09       		.byte	0x9
 1873 0338 53       		.byte	0x53
 1874 0339 62020000 		.4byte	0x262
 1875 033d 02       		.byte	0x2
 1876 033e 23       		.byte	0x23
 1877 033f 0C       		.uleb128 0xc
 1878 0340 06       		.uleb128 0x6
 1879 0341 EC000000 		.4byte	.LASF46
 1880 0345 09       		.byte	0x9
 1881 0346 56       		.byte	0x56
 1882 0347 21020000 		.4byte	0x221
 1883 034b 02       		.byte	0x2
 1884 034c 23       		.byte	0x23
 1885 034d 10       		.uleb128 0x10
 1886 034e 06       		.uleb128 0x6
 1887 034f EB010000 		.4byte	.LASF47
 1888 0353 09       		.byte	0x9
 1889 0354 57       		.byte	0x57
 1890 0355 21020000 		.4byte	0x221
 1891 0359 02       		.byte	0x2
 1892 035a 23       		.byte	0x23
 1893 035b 14       		.uleb128 0x14
 1894 035c 06       		.uleb128 0x6
 1895 035d 31030000 		.4byte	.LASF48
 1896 0361 09       		.byte	0x9
 1897 0362 5B       		.byte	0x5b
 1898 0363 DD000000 		.4byte	0xdd
 1899 0367 02       		.byte	0x2
 1900 0368 23       		.byte	0x23
 1901 0369 18       		.uleb128 0x18
 1902 036a 06       		.uleb128 0x6
 1903 036b E1010000 		.4byte	.LASF49
 1904 036f 09       		.byte	0x9
 1905 0370 5E       		.byte	0x5e
 1906 0371 21020000 		.4byte	0x221
 1907 0375 02       		.byte	0x2
 1908 0376 23       		.byte	0x23
 1909 0377 1C       		.uleb128 0x1c
 1910 0378 00       		.byte	0x0
 1911 0379 04       		.uleb128 0x4
 1912 037a 01030000 		.4byte	.LASF50
 1913 037e 09       		.byte	0x9
 1914 037f 61       		.byte	0x61
 1915 0380 0E030000 		.4byte	0x30e
 1916 0384 05       		.uleb128 0x5
 1917 0385 F0020000 		.4byte	.LASF51
 1918 0389 0C       		.byte	0xc
ARM GAS  /tmp/ccCWhezY.s 			page 35


 1919 038a 0A       		.byte	0xa
 1920 038b 2B       		.byte	0x2b
 1921 038c AD030000 		.4byte	0x3ad
 1922 0390 06       		.uleb128 0x6
 1923 0391 C6000000 		.4byte	.LASF52
 1924 0395 0A       		.byte	0xa
 1925 0396 2C       		.byte	0x2c
 1926 0397 27020000 		.4byte	0x227
 1927 039b 02       		.byte	0x2
 1928 039c 23       		.byte	0x23
 1929 039d 00       		.uleb128 0x0
 1930 039e 06       		.uleb128 0x6
 1931 039f 33010000 		.4byte	.LASF53
 1932 03a3 0A       		.byte	0xa
 1933 03a4 2E       		.byte	0x2e
 1934 03a5 DD000000 		.4byte	0xdd
 1935 03a9 02       		.byte	0x2
 1936 03aa 23       		.byte	0x23
 1937 03ab 08       		.uleb128 0x8
 1938 03ac 00       		.byte	0x0
 1939 03ad 04       		.uleb128 0x4
 1940 03ae F0020000 		.4byte	.LASF51
 1941 03b2 0A       		.byte	0xa
 1942 03b3 2F       		.byte	0x2f
 1943 03b4 84030000 		.4byte	0x384
 1944 03b8 05       		.uleb128 0x5
 1945 03b9 85010000 		.4byte	.LASF54
 1946 03bd 10       		.byte	0x10
 1947 03be 0B       		.byte	0xb
 1948 03bf 2B       		.byte	0x2b
 1949 03c0 EF030000 		.4byte	0x3ef
 1950 03c4 06       		.uleb128 0x6
 1951 03c5 91000000 		.4byte	.LASF55
 1952 03c9 0B       		.byte	0xb
 1953 03ca 2C       		.byte	0x2c
 1954 03cb 27020000 		.4byte	0x227
 1955 03cf 02       		.byte	0x2
 1956 03d0 23       		.byte	0x23
 1957 03d1 00       		.uleb128 0x0
 1958 03d2 06       		.uleb128 0x6
 1959 03d3 3B030000 		.4byte	.LASF56
 1960 03d7 0B       		.byte	0xb
 1961 03d8 2E       		.byte	0x2e
 1962 03d9 21020000 		.4byte	0x221
 1963 03dd 02       		.byte	0x2
 1964 03de 23       		.byte	0x23
 1965 03df 08       		.uleb128 0x8
 1966 03e0 06       		.uleb128 0x6
 1967 03e1 A5020000 		.4byte	.LASF57
 1968 03e5 0B       		.byte	0xb
 1969 03e6 30       		.byte	0x30
 1970 03e7 EF030000 		.4byte	0x3ef
 1971 03eb 02       		.byte	0x2
 1972 03ec 23       		.byte	0x23
 1973 03ed 0C       		.uleb128 0xc
 1974 03ee 00       		.byte	0x0
 1975 03ef 09       		.uleb128 0x9
ARM GAS  /tmp/ccCWhezY.s 			page 36


 1976 03f0 04       		.byte	0x4
 1977 03f1 B8030000 		.4byte	0x3b8
 1978 03f5 04       		.uleb128 0x4
 1979 03f6 85010000 		.4byte	.LASF54
 1980 03fa 0B       		.byte	0xb
 1981 03fb 32       		.byte	0x32
 1982 03fc B8030000 		.4byte	0x3b8
 1983 0400 0F       		.uleb128 0xf
 1984 0401 04       		.byte	0x4
 1985 0402 06       		.byte	0x6
 1986 0403 5A       		.byte	0x5a
 1987 0404 35040000 		.4byte	0x435
 1988 0408 10       		.uleb128 0x10
 1989 0409 20000000 		.4byte	.LASF58
 1990 040d 06       		.byte	0x6
 1991 040e 61       		.byte	0x61
 1992 040f BC000000 		.4byte	0xbc
 1993 0413 10       		.uleb128 0x10
 1994 0414 4F000000 		.4byte	.LASF59
 1995 0418 06       		.byte	0x6
 1996 0419 68       		.byte	0x68
 1997 041a BC000000 		.4byte	0xbc
 1998 041e 10       		.uleb128 0x10
 1999 041f 99000000 		.4byte	.LASF60
 2000 0423 06       		.byte	0x6
 2001 0424 6F       		.byte	0x6f
 2002 0425 60020000 		.4byte	0x260
 2003 0429 10       		.uleb128 0x10
 2004 042a 43020000 		.4byte	.LASF61
 2005 042e 06       		.byte	0x6
 2006 042f 76       		.byte	0x76
 2007 0430 C7000000 		.4byte	0xc7
 2008 0434 00       		.byte	0x0
 2009 0435 09       		.uleb128 0x9
 2010 0436 04       		.byte	0x4
 2011 0437 F5030000 		.4byte	0x3f5
 2012 043b 11       		.uleb128 0x11
 2013 043c D2020000 		.4byte	.LASF62
 2014 0440 02       		.byte	0x2
 2015 0441 41       		.byte	0x41
 2016 0442 01       		.byte	0x1
 2017 0443 21020000 		.4byte	0x221
 2018 0447 03       		.byte	0x3
 2019 0448 62040000 		.4byte	0x462
 2020 044c 12       		.uleb128 0x12
 2021 044d 74717000 		.ascii	"tqp\000"
 2022 0451 02       		.byte	0x2
 2023 0452 41       		.byte	0x41
 2024 0453 62040000 		.4byte	0x462
 2025 0457 13       		.uleb128 0x13
 2026 0458 747000   		.ascii	"tp\000"
 2027 045b 02       		.byte	0x2
 2028 045c 42       		.byte	0x42
 2029 045d 21020000 		.4byte	0x221
 2030 0461 00       		.byte	0x0
 2031 0462 09       		.uleb128 0x9
 2032 0463 04       		.byte	0x4
ARM GAS  /tmp/ccCWhezY.s 			page 37


 2033 0464 27020000 		.4byte	0x227
 2034 0468 14       		.uleb128 0x14
 2035 0469 06000000 		.4byte	.LASF80
 2036 046d 02       		.byte	0x2
 2037 046e 33       		.byte	0x33
 2038 046f 01       		.byte	0x1
 2039 0470 03       		.byte	0x3
 2040 0471 8B040000 		.4byte	0x48b
 2041 0475 12       		.uleb128 0x12
 2042 0476 747000   		.ascii	"tp\000"
 2043 0479 02       		.byte	0x2
 2044 047a 33       		.byte	0x33
 2045 047b 21020000 		.4byte	0x221
 2046 047f 12       		.uleb128 0x12
 2047 0480 74717000 		.ascii	"tqp\000"
 2048 0484 02       		.byte	0x2
 2049 0485 33       		.byte	0x33
 2050 0486 62040000 		.4byte	0x462
 2051 048a 00       		.byte	0x0
 2052 048b 11       		.uleb128 0x11
 2053 048c 87020000 		.4byte	.LASF63
 2054 0490 02       		.byte	0x2
 2055 0491 3A       		.byte	0x3a
 2056 0492 01       		.byte	0x1
 2057 0493 21020000 		.4byte	0x221
 2058 0497 03       		.byte	0x3
 2059 0498 B2040000 		.4byte	0x4b2
 2060 049c 12       		.uleb128 0x12
 2061 049d 74717000 		.ascii	"tqp\000"
 2062 04a1 02       		.byte	0x2
 2063 04a2 3A       		.byte	0x3a
 2064 04a3 62040000 		.4byte	0x462
 2065 04a7 13       		.uleb128 0x13
 2066 04a8 747000   		.ascii	"tp\000"
 2067 04ab 02       		.byte	0x2
 2068 04ac 3B       		.byte	0x3b
 2069 04ad 21020000 		.4byte	0x221
 2070 04b1 00       		.byte	0x0
 2071 04b2 15       		.uleb128 0x15
 2072 04b3 01       		.byte	0x1
 2073 04b4 53030000 		.4byte	.LASF64
 2074 04b8 01       		.byte	0x1
 2075 04b9 55       		.byte	0x55
 2076 04ba 01       		.byte	0x1
 2077 04bb 00000000 		.4byte	.LFB7
 2078 04bf 08000000 		.4byte	.LFE7
 2079 04c3 02       		.byte	0x2
 2080 04c4 7D       		.byte	0x7d
 2081 04c5 00       		.sleb128 0
 2082 04c6 E2040000 		.4byte	0x4e2
 2083 04ca 16       		.uleb128 0x16
 2084 04cb 737000   		.ascii	"sp\000"
 2085 04ce 01       		.byte	0x1
 2086 04cf 55       		.byte	0x55
 2087 04d0 E2040000 		.4byte	0x4e2
 2088 04d4 01       		.byte	0x1
 2089 04d5 50       		.byte	0x50
ARM GAS  /tmp/ccCWhezY.s 			page 38


 2090 04d6 16       		.uleb128 0x16
 2091 04d7 6E00     		.ascii	"n\000"
 2092 04d9 01       		.byte	0x1
 2093 04da 55       		.byte	0x55
 2094 04db DD000000 		.4byte	0xdd
 2095 04df 01       		.byte	0x1
 2096 04e0 51       		.byte	0x51
 2097 04e1 00       		.byte	0x0
 2098 04e2 09       		.uleb128 0x9
 2099 04e3 04       		.byte	0x4
 2100 04e4 AD030000 		.4byte	0x3ad
 2101 04e8 17       		.uleb128 0x17
 2102 04e9 01       		.byte	0x1
 2103 04ea 0B030000 		.4byte	.LASF65
 2104 04ee 01       		.byte	0x1
 2105 04ef 87       		.byte	0x87
 2106 04f0 01       		.byte	0x1
 2107 04f1 00000000 		.4byte	.LFB9
 2108 04f5 68000000 		.4byte	.LFE9
 2109 04f9 00000000 		.4byte	.LLST0
 2110 04fd 52050000 		.4byte	0x552
 2111 0501 18       		.uleb128 0x18
 2112 0502 737000   		.ascii	"sp\000"
 2113 0505 01       		.byte	0x1
 2114 0506 87       		.byte	0x87
 2115 0507 E2040000 		.4byte	0x4e2
 2116 050b 20000000 		.4byte	.LLST1
 2117 050f 18       		.uleb128 0x18
 2118 0510 6E00     		.ascii	"n\000"
 2119 0512 01       		.byte	0x1
 2120 0513 87       		.byte	0x87
 2121 0514 DD000000 		.4byte	0xdd
 2122 0518 3E000000 		.4byte	.LLST2
 2123 051c 19       		.uleb128 0x19
 2124 051d 636E7400 		.ascii	"cnt\000"
 2125 0521 01       		.byte	0x1
 2126 0522 88       		.byte	0x88
 2127 0523 DD000000 		.4byte	0xdd
 2128 0527 51000000 		.4byte	.LLST3
 2129 052b 1A       		.uleb128 0x1a
 2130 052c 3B040000 		.4byte	0x43b
 2131 0530 0E000000 		.4byte	.LBB24
 2132 0534 00000000 		.4byte	.Ldebug_ranges0+0x0
 2133 0538 01       		.byte	0x1
 2134 0539 94       		.byte	0x94
 2135 053a 1B       		.uleb128 0x1b
 2136 053b 4C040000 		.4byte	0x44c
 2137 053f 70000000 		.4byte	.LLST4
 2138 0543 1C       		.uleb128 0x1c
 2139 0544 48000000 		.4byte	.Ldebug_ranges0+0x48
 2140 0548 1D       		.uleb128 0x1d
 2141 0549 57040000 		.4byte	0x457
 2142 054d 01       		.byte	0x1
 2143 054e 50       		.byte	0x50
 2144 054f 00       		.byte	0x0
 2145 0550 00       		.byte	0x0
 2146 0551 00       		.byte	0x0
ARM GAS  /tmp/ccCWhezY.s 			page 39


 2147 0552 17       		.uleb128 0x17
 2148 0553 01       		.byte	0x1
 2149 0554 54010000 		.4byte	.LASF66
 2150 0558 01       		.byte	0x1
 2151 0559 6C       		.byte	0x6c
 2152 055a 01       		.byte	0x1
 2153 055b 00000000 		.4byte	.LFB8
 2154 055f 18000000 		.4byte	.LFE8
 2155 0563 8E000000 		.4byte	.LLST5
 2156 0567 BD050000 		.4byte	0x5bd
 2157 056b 18       		.uleb128 0x18
 2158 056c 737000   		.ascii	"sp\000"
 2159 056f 01       		.byte	0x1
 2160 0570 6C       		.byte	0x6c
 2161 0571 E2040000 		.4byte	0x4e2
 2162 0575 AE000000 		.4byte	.LLST6
 2163 0579 18       		.uleb128 0x18
 2164 057a 6E00     		.ascii	"n\000"
 2165 057c 01       		.byte	0x1
 2166 057d 6C       		.byte	0x6c
 2167 057e DD000000 		.4byte	0xdd
 2168 0582 C1000000 		.4byte	.LLST7
 2169 0586 1E       		.uleb128 0x1e
 2170 0587 02000000 		.4byte	.LBB40
 2171 058b 08000000 		.4byte	.LBE40
 2172 058f A3050000 		.4byte	0x5a3
 2173 0593 19       		.uleb128 0x19
 2174 0594 746D7000 		.ascii	"tmp\000"
 2175 0598 01       		.byte	0x1
 2176 0599 6E       		.byte	0x6e
 2177 059a 70000000 		.4byte	0x70
 2178 059e D4000000 		.4byte	.LLST8
 2179 05a2 00       		.byte	0x0
 2180 05a3 1F       		.uleb128 0x1f
 2181 05a4 10000000 		.4byte	.LBB41
 2182 05a8 16000000 		.4byte	.LBE41
 2183 05ac 19       		.uleb128 0x19
 2184 05ad 746D7000 		.ascii	"tmp\000"
 2185 05b1 01       		.byte	0x1
 2186 05b2 71       		.byte	0x71
 2187 05b3 70000000 		.4byte	0x70
 2188 05b7 E7000000 		.4byte	.LLST9
 2189 05bb 00       		.byte	0x0
 2190 05bc 00       		.byte	0x0
 2191 05bd 20       		.uleb128 0x20
 2192 05be 01       		.byte	0x1
 2193 05bf 59020000 		.4byte	.LASF67
 2194 05c3 01       		.byte	0x1
 2195 05c4 B8       		.byte	0xb8
 2196 05c5 01       		.byte	0x1
 2197 05c6 BC000000 		.4byte	0xbc
 2198 05ca 00000000 		.4byte	.LFB11
 2199 05ce 34000000 		.4byte	.LFE11
 2200 05d2 FA000000 		.4byte	.LLST10
 2201 05d6 0B060000 		.4byte	0x60b
 2202 05da 18       		.uleb128 0x18
 2203 05db 737000   		.ascii	"sp\000"
ARM GAS  /tmp/ccCWhezY.s 			page 40


 2204 05de 01       		.byte	0x1
 2205 05df B8       		.byte	0xb8
 2206 05e0 E2040000 		.4byte	0x4e2
 2207 05e4 1A010000 		.4byte	.LLST11
 2208 05e8 21       		.uleb128 0x21
 2209 05e9 68040000 		.4byte	0x468
 2210 05ed 20000000 		.4byte	.LBB42
 2211 05f1 2A000000 		.4byte	.LBE42
 2212 05f5 01       		.byte	0x1
 2213 05f6 C3       		.byte	0xc3
 2214 05f7 1B       		.uleb128 0x1b
 2215 05f8 7F040000 		.4byte	0x47f
 2216 05fc 38010000 		.4byte	.LLST12
 2217 0600 1B       		.uleb128 0x1b
 2218 0601 75040000 		.4byte	0x475
 2219 0605 4B010000 		.4byte	.LLST13
 2220 0609 00       		.byte	0x0
 2221 060a 00       		.byte	0x0
 2222 060b 20       		.uleb128 0x20
 2223 060c 01       		.byte	0x1
 2224 060d C1020000 		.4byte	.LASF68
 2225 0611 01       		.byte	0x1
 2226 0612 A3       		.byte	0xa3
 2227 0613 01       		.byte	0x1
 2228 0614 BC000000 		.4byte	0xbc
 2229 0618 00000000 		.4byte	.LFB10
 2230 061c 14000000 		.4byte	.LFE10
 2231 0620 5F010000 		.4byte	.LLST14
 2232 0624 78060000 		.4byte	0x678
 2233 0628 18       		.uleb128 0x18
 2234 0629 737000   		.ascii	"sp\000"
 2235 062c 01       		.byte	0x1
 2236 062d A3       		.byte	0xa3
 2237 062e E2040000 		.4byte	0x4e2
 2238 0632 7F010000 		.4byte	.LLST15
 2239 0636 13       		.uleb128 0x13
 2240 0637 6D736700 		.ascii	"msg\000"
 2241 063b 01       		.byte	0x1
 2242 063c A4       		.byte	0xa4
 2243 063d BC000000 		.4byte	0xbc
 2244 0641 1E       		.uleb128 0x1e
 2245 0642 02000000 		.4byte	.LBB44
 2246 0646 08000000 		.4byte	.LBE44
 2247 064a 5E060000 		.4byte	0x65e
 2248 064e 19       		.uleb128 0x19
 2249 064f 746D7000 		.ascii	"tmp\000"
 2250 0653 01       		.byte	0x1
 2251 0654 A6       		.byte	0xa6
 2252 0655 70000000 		.4byte	0x70
 2253 0659 92010000 		.4byte	.LLST16
 2254 065d 00       		.byte	0x0
 2255 065e 1F       		.uleb128 0x1f
 2256 065f 0C000000 		.4byte	.LBB45
 2257 0663 12000000 		.4byte	.LBE45
 2258 0667 19       		.uleb128 0x19
 2259 0668 746D7000 		.ascii	"tmp\000"
 2260 066c 01       		.byte	0x1
ARM GAS  /tmp/ccCWhezY.s 			page 41


 2261 066d A8       		.byte	0xa8
 2262 066e 70000000 		.4byte	0x70
 2263 0672 A5010000 		.4byte	.LLST17
 2264 0676 00       		.byte	0x0
 2265 0677 00       		.byte	0x0
 2266 0678 20       		.uleb128 0x20
 2267 0679 01       		.byte	0x1
 2268 067a 93020000 		.4byte	.LASF69
 2269 067e 01       		.byte	0x1
 2270 067f F9       		.byte	0xf9
 2271 0680 01       		.byte	0x1
 2272 0681 BC000000 		.4byte	0xbc
 2273 0685 00000000 		.4byte	.LFB13
 2274 0689 3E000000 		.4byte	.LFE13
 2275 068d B8010000 		.4byte	.LLST18
 2276 0691 D2060000 		.4byte	0x6d2
 2277 0695 18       		.uleb128 0x18
 2278 0696 737000   		.ascii	"sp\000"
 2279 0699 01       		.byte	0x1
 2280 069a F9       		.byte	0xf9
 2281 069b E2040000 		.4byte	0x4e2
 2282 069f D8010000 		.4byte	.LLST19
 2283 06a3 22       		.uleb128 0x22
 2284 06a4 DC010000 		.4byte	.LASF70
 2285 06a8 01       		.byte	0x1
 2286 06a9 F9       		.byte	0xf9
 2287 06aa D2000000 		.4byte	0xd2
 2288 06ae 01020000 		.4byte	.LLST20
 2289 06b2 23       		.uleb128 0x23
 2290 06b3 68040000 		.4byte	0x468
 2291 06b7 26000000 		.4byte	.LBB46
 2292 06bb 30000000 		.4byte	.LBE46
 2293 06bf 01       		.byte	0x1
 2294 06c0 0801     		.2byte	0x108
 2295 06c2 1B       		.uleb128 0x1b
 2296 06c3 7F040000 		.4byte	0x47f
 2297 06c7 1F020000 		.4byte	.LLST21
 2298 06cb 24       		.uleb128 0x24
 2299 06cc 75040000 		.4byte	0x475
 2300 06d0 00       		.byte	0x0
 2301 06d1 00       		.byte	0x0
 2302 06d2 20       		.uleb128 0x20
 2303 06d3 01       		.byte	0x1
 2304 06d4 10010000 		.4byte	.LASF71
 2305 06d8 01       		.byte	0x1
 2306 06d9 DD       		.byte	0xdd
 2307 06da 01       		.byte	0x1
 2308 06db BC000000 		.4byte	0xbc
 2309 06df 00000000 		.4byte	.LFB12
 2310 06e3 14000000 		.4byte	.LFE12
 2311 06e7 32020000 		.4byte	.LLST22
 2312 06eb 4E070000 		.4byte	0x74e
 2313 06ef 18       		.uleb128 0x18
 2314 06f0 737000   		.ascii	"sp\000"
 2315 06f3 01       		.byte	0x1
 2316 06f4 DD       		.byte	0xdd
 2317 06f5 E2040000 		.4byte	0x4e2
ARM GAS  /tmp/ccCWhezY.s 			page 42


 2318 06f9 52020000 		.4byte	.LLST23
 2319 06fd 22       		.uleb128 0x22
 2320 06fe DC010000 		.4byte	.LASF70
 2321 0702 01       		.byte	0x1
 2322 0703 DD       		.byte	0xdd
 2323 0704 D2000000 		.4byte	0xd2
 2324 0708 65020000 		.4byte	.LLST24
 2325 070c 13       		.uleb128 0x13
 2326 070d 6D736700 		.ascii	"msg\000"
 2327 0711 01       		.byte	0x1
 2328 0712 DE       		.byte	0xde
 2329 0713 BC000000 		.4byte	0xbc
 2330 0717 1E       		.uleb128 0x1e
 2331 0718 02000000 		.4byte	.LBB48
 2332 071c 08000000 		.4byte	.LBE48
 2333 0720 34070000 		.4byte	0x734
 2334 0724 19       		.uleb128 0x19
 2335 0725 746D7000 		.ascii	"tmp\000"
 2336 0729 01       		.byte	0x1
 2337 072a E0       		.byte	0xe0
 2338 072b 70000000 		.4byte	0x70
 2339 072f 78020000 		.4byte	.LLST25
 2340 0733 00       		.byte	0x0
 2341 0734 1F       		.uleb128 0x1f
 2342 0735 0C000000 		.4byte	.LBB49
 2343 0739 12000000 		.4byte	.LBE49
 2344 073d 19       		.uleb128 0x19
 2345 073e 746D7000 		.ascii	"tmp\000"
 2346 0742 01       		.byte	0x1
 2347 0743 E2       		.byte	0xe2
 2348 0744 70000000 		.4byte	0x70
 2349 0748 8B020000 		.4byte	.LLST26
 2350 074c 00       		.byte	0x0
 2351 074d 00       		.byte	0x0
 2352 074e 25       		.uleb128 0x25
 2353 074f 01       		.byte	0x1
 2354 0750 B2000000 		.4byte	.LASF72
 2355 0754 01       		.byte	0x1
 2356 0755 1501     		.2byte	0x115
 2357 0757 01       		.byte	0x1
 2358 0758 00000000 		.4byte	.LFB14
 2359 075c 32000000 		.4byte	.LFE14
 2360 0760 9E020000 		.4byte	.LLST27
 2361 0764 D9070000 		.4byte	0x7d9
 2362 0768 26       		.uleb128 0x26
 2363 0769 737000   		.ascii	"sp\000"
 2364 076c 01       		.byte	0x1
 2365 076d 1501     		.2byte	0x115
 2366 076f E2040000 		.4byte	0x4e2
 2367 0773 BE020000 		.4byte	.LLST28
 2368 0777 1E       		.uleb128 0x1e
 2369 0778 04000000 		.4byte	.LBB50
 2370 077c 0A000000 		.4byte	.LBE50
 2371 0780 95070000 		.4byte	0x795
 2372 0784 27       		.uleb128 0x27
 2373 0785 746D7000 		.ascii	"tmp\000"
 2374 0789 01       		.byte	0x1
ARM GAS  /tmp/ccCWhezY.s 			page 43


 2375 078a 1E01     		.2byte	0x11e
 2376 078c 70000000 		.4byte	0x70
 2377 0790 DC020000 		.4byte	.LLST29
 2378 0794 00       		.byte	0x0
 2379 0795 28       		.uleb128 0x28
 2380 0796 90000000 		.4byte	.Ldebug_ranges0+0x90
 2381 079a AF070000 		.4byte	0x7af
 2382 079e 27       		.uleb128 0x27
 2383 079f 746D7000 		.ascii	"tmp\000"
 2384 07a3 01       		.byte	0x1
 2385 07a4 2101     		.2byte	0x121
 2386 07a6 70000000 		.4byte	0x70
 2387 07aa EF020000 		.4byte	.LLST30
 2388 07ae 00       		.byte	0x0
 2389 07af 29       		.uleb128 0x29
 2390 07b0 8B040000 		.4byte	0x48b
 2391 07b4 1C000000 		.4byte	.LBB52
 2392 07b8 A8000000 		.4byte	.Ldebug_ranges0+0xa8
 2393 07bc 01       		.byte	0x1
 2394 07bd 2001     		.2byte	0x120
 2395 07bf 1B       		.uleb128 0x1b
 2396 07c0 9C040000 		.4byte	0x49c
 2397 07c4 0D030000 		.4byte	.LLST31
 2398 07c8 1C       		.uleb128 0x1c
 2399 07c9 C0000000 		.4byte	.Ldebug_ranges0+0xc0
 2400 07cd 2A       		.uleb128 0x2a
 2401 07ce A7040000 		.4byte	0x4a7
 2402 07d2 20030000 		.4byte	.LLST32
 2403 07d6 00       		.byte	0x0
 2404 07d7 00       		.byte	0x0
 2405 07d8 00       		.byte	0x0
 2406 07d9 2B       		.uleb128 0x2b
 2407 07da 01       		.byte	0x1
 2408 07db 13000000 		.4byte	.LASF73
 2409 07df 01       		.byte	0x1
 2410 07e0 2F01     		.2byte	0x12f
 2411 07e2 01       		.byte	0x1
 2412 07e3 00000000 		.4byte	.LFB15
 2413 07e7 20000000 		.4byte	.LFE15
 2414 07eb 02       		.byte	0x2
 2415 07ec 7D       		.byte	0x7d
 2416 07ed 00       		.sleb128 0
 2417 07ee 3E080000 		.4byte	0x83e
 2418 07f2 26       		.uleb128 0x26
 2419 07f3 737000   		.ascii	"sp\000"
 2420 07f6 01       		.byte	0x1
 2421 07f7 2F01     		.2byte	0x12f
 2422 07f9 E2040000 		.4byte	0x4e2
 2423 07fd 34030000 		.4byte	.LLST33
 2424 0801 1C       		.uleb128 0x1c
 2425 0802 D8000000 		.4byte	.Ldebug_ranges0+0xd8
 2426 0806 2C       		.uleb128 0x2c
 2427 0807 747000   		.ascii	"tp\000"
 2428 080a 01       		.byte	0x1
 2429 080b 3B01     		.2byte	0x13b
 2430 080d 21020000 		.4byte	0x221
 2431 0811 01       		.byte	0x1
ARM GAS  /tmp/ccCWhezY.s 			page 44


 2432 0812 52       		.byte	0x52
 2433 0813 29       		.uleb128 0x29
 2434 0814 8B040000 		.4byte	0x48b
 2435 0818 0E000000 		.4byte	.LBB59
 2436 081c F0000000 		.4byte	.Ldebug_ranges0+0xf0
 2437 0820 01       		.byte	0x1
 2438 0821 3B01     		.2byte	0x13b
 2439 0823 1B       		.uleb128 0x1b
 2440 0824 9C040000 		.4byte	0x49c
 2441 0828 52030000 		.4byte	.LLST34
 2442 082c 1C       		.uleb128 0x1c
 2443 082d 08010000 		.4byte	.Ldebug_ranges0+0x108
 2444 0831 2A       		.uleb128 0x2a
 2445 0832 A7040000 		.4byte	0x4a7
 2446 0836 71030000 		.4byte	.LLST35
 2447 083a 00       		.byte	0x0
 2448 083b 00       		.byte	0x0
 2449 083c 00       		.byte	0x0
 2450 083d 00       		.byte	0x0
 2451 083e 25       		.uleb128 0x25
 2452 083f 01       		.byte	0x1
 2453 0840 27000000 		.4byte	.LASF74
 2454 0844 01       		.byte	0x1
 2455 0845 5101     		.2byte	0x151
 2456 0847 01       		.byte	0x1
 2457 0848 00000000 		.4byte	.LFB16
 2458 084c 66000000 		.4byte	.LFE16
 2459 0850 92030000 		.4byte	.LLST36
 2460 0854 AD080000 		.4byte	0x8ad
 2461 0858 26       		.uleb128 0x26
 2462 0859 737000   		.ascii	"sp\000"
 2463 085c 01       		.byte	0x1
 2464 085d 5101     		.2byte	0x151
 2465 085f E2040000 		.4byte	0x4e2
 2466 0863 B2030000 		.4byte	.LLST37
 2467 0867 26       		.uleb128 0x26
 2468 0868 6E00     		.ascii	"n\000"
 2469 086a 01       		.byte	0x1
 2470 086b 5101     		.2byte	0x151
 2471 086d DD000000 		.4byte	0xdd
 2472 0871 D0030000 		.4byte	.LLST38
 2473 0875 27       		.uleb128 0x27
 2474 0876 636E7400 		.ascii	"cnt\000"
 2475 087a 01       		.byte	0x1
 2476 087b 5201     		.2byte	0x152
 2477 087d DD000000 		.4byte	0xdd
 2478 0881 E3030000 		.4byte	.LLST39
 2479 0885 29       		.uleb128 0x29
 2480 0886 3B040000 		.4byte	0x43b
 2481 088a 0E000000 		.4byte	.LBB63
 2482 088e 20010000 		.4byte	.Ldebug_ranges0+0x120
 2483 0892 01       		.byte	0x1
 2484 0893 5E01     		.2byte	0x15e
 2485 0895 1B       		.uleb128 0x1b
 2486 0896 4C040000 		.4byte	0x44c
 2487 089a 02040000 		.4byte	.LLST40
 2488 089e 1C       		.uleb128 0x1c
ARM GAS  /tmp/ccCWhezY.s 			page 45


 2489 089f 68010000 		.4byte	.Ldebug_ranges0+0x168
 2490 08a3 1D       		.uleb128 0x1d
 2491 08a4 57040000 		.4byte	0x457
 2492 08a8 01       		.byte	0x1
 2493 08a9 50       		.byte	0x50
 2494 08aa 00       		.byte	0x0
 2495 08ab 00       		.byte	0x0
 2496 08ac 00       		.byte	0x0
 2497 08ad 2D       		.uleb128 0x2d
 2498 08ae 01       		.byte	0x1
 2499 08af 79000000 		.4byte	.LASF75
 2500 08b3 01       		.byte	0x1
 2501 08b4 7101     		.2byte	0x171
 2502 08b6 01       		.byte	0x1
 2503 08b7 BC000000 		.4byte	0xbc
 2504 08bb 00000000 		.4byte	.LFB17
 2505 08bf 66000000 		.4byte	.LFE17
 2506 08c3 20040000 		.4byte	.LLST41
 2507 08c7 A6090000 		.4byte	0x9a6
 2508 08cb 26       		.uleb128 0x26
 2509 08cc 73707300 		.ascii	"sps\000"
 2510 08d0 01       		.byte	0x1
 2511 08d1 7101     		.2byte	0x171
 2512 08d3 E2040000 		.4byte	0x4e2
 2513 08d7 4C040000 		.4byte	.LLST42
 2514 08db 26       		.uleb128 0x26
 2515 08dc 73707700 		.ascii	"spw\000"
 2516 08e0 01       		.byte	0x1
 2517 08e1 7101     		.2byte	0x171
 2518 08e3 E2040000 		.4byte	0x4e2
 2519 08e7 75040000 		.4byte	.LLST43
 2520 08eb 27       		.uleb128 0x27
 2521 08ec 6D736700 		.ascii	"msg\000"
 2522 08f0 01       		.byte	0x1
 2523 08f1 7201     		.2byte	0x172
 2524 08f3 BC000000 		.4byte	0xbc
 2525 08f7 93040000 		.4byte	.LLST44
 2526 08fb 1E       		.uleb128 0x1e
 2527 08fc 06000000 		.4byte	.LBB79
 2528 0900 0C000000 		.4byte	.LBE79
 2529 0904 19090000 		.4byte	0x919
 2530 0908 27       		.uleb128 0x27
 2531 0909 746D7000 		.ascii	"tmp\000"
 2532 090d 01       		.byte	0x1
 2533 090e 8001     		.2byte	0x180
 2534 0910 70000000 		.4byte	0x70
 2535 0914 BE040000 		.4byte	.LLST45
 2536 0918 00       		.byte	0x0
 2537 0919 1E       		.uleb128 0x1e
 2538 091a 26000000 		.4byte	.LBB80
 2539 091e 2C000000 		.4byte	.LBE80
 2540 0922 37090000 		.4byte	0x937
 2541 0926 27       		.uleb128 0x27
 2542 0927 746D7000 		.ascii	"tmp\000"
 2543 092b 01       		.byte	0x1
 2544 092c 8E01     		.2byte	0x18e
 2545 092e 70000000 		.4byte	0x70
ARM GAS  /tmp/ccCWhezY.s 			page 46


 2546 0932 D1040000 		.4byte	.LLST46
 2547 0936 00       		.byte	0x0
 2548 0937 1E       		.uleb128 0x1e
 2549 0938 30000000 		.4byte	.LBB81
 2550 093c 50000000 		.4byte	.LBE81
 2551 0940 78090000 		.4byte	0x978
 2552 0944 27       		.uleb128 0x27
 2553 0945 63747000 		.ascii	"ctp\000"
 2554 0949 01       		.byte	0x1
 2555 094a 8401     		.2byte	0x184
 2556 094c 21020000 		.4byte	0x221
 2557 0950 E4040000 		.4byte	.LLST47
 2558 0954 29       		.uleb128 0x29
 2559 0955 68040000 		.4byte	0x468
 2560 0959 3A000000 		.4byte	.LBB82
 2561 095d B0010000 		.4byte	.Ldebug_ranges0+0x1b0
 2562 0961 01       		.byte	0x1
 2563 0962 8501     		.2byte	0x185
 2564 0964 1B       		.uleb128 0x1b
 2565 0965 7F040000 		.4byte	0x47f
 2566 0969 F7040000 		.4byte	.LLST48
 2567 096d 1B       		.uleb128 0x1b
 2568 096e 75040000 		.4byte	0x475
 2569 0972 0A050000 		.4byte	.LLST49
 2570 0976 00       		.byte	0x0
 2571 0977 00       		.byte	0x0
 2572 0978 23       		.uleb128 0x23
 2573 0979 8B040000 		.4byte	0x48b
 2574 097d 50000000 		.4byte	.LBB86
 2575 0981 58000000 		.4byte	.LBE86
 2576 0985 01       		.byte	0x1
 2577 0986 8201     		.2byte	0x182
 2578 0988 1B       		.uleb128 0x1b
 2579 0989 9C040000 		.4byte	0x49c
 2580 098d 1D050000 		.4byte	.LLST50
 2581 0991 1F       		.uleb128 0x1f
 2582 0992 50000000 		.4byte	.LBB87
 2583 0996 58000000 		.4byte	.LBE87
 2584 099a 2A       		.uleb128 0x2a
 2585 099b A7040000 		.4byte	0x4a7
 2586 099f 30050000 		.4byte	.LLST51
 2587 09a3 00       		.byte	0x0
 2588 09a4 00       		.byte	0x0
 2589 09a5 00       		.byte	0x0
 2590 09a6 2E       		.uleb128 0x2e
 2591 09a7 17030000 		.4byte	.LASF76
 2592 09ab 09       		.byte	0x9
 2593 09ac 65       		.byte	0x65
 2594 09ad 79030000 		.4byte	0x379
 2595 09b1 01       		.byte	0x1
 2596 09b2 01       		.byte	0x1
 2597 09b3 2E       		.uleb128 0x2e
 2598 09b4 17030000 		.4byte	.LASF76
 2599 09b8 09       		.byte	0x9
 2600 09b9 65       		.byte	0x65
 2601 09ba 79030000 		.4byte	0x379
 2602 09be 01       		.byte	0x1
ARM GAS  /tmp/ccCWhezY.s 			page 47


 2603 09bf 01       		.byte	0x1
 2604 09c0 00       		.byte	0x0
 2605              		.section	.debug_abbrev
 2606 0000 01       		.uleb128 0x1
 2607 0001 11       		.uleb128 0x11
 2608 0002 01       		.byte	0x1
 2609 0003 25       		.uleb128 0x25
 2610 0004 0E       		.uleb128 0xe
 2611 0005 13       		.uleb128 0x13
 2612 0006 0B       		.uleb128 0xb
 2613 0007 03       		.uleb128 0x3
 2614 0008 0E       		.uleb128 0xe
 2615 0009 1B       		.uleb128 0x1b
 2616 000a 0E       		.uleb128 0xe
 2617 000b 11       		.uleb128 0x11
 2618 000c 01       		.uleb128 0x1
 2619 000d 52       		.uleb128 0x52
 2620 000e 01       		.uleb128 0x1
 2621 000f 55       		.uleb128 0x55
 2622 0010 06       		.uleb128 0x6
 2623 0011 10       		.uleb128 0x10
 2624 0012 06       		.uleb128 0x6
 2625 0013 00       		.byte	0x0
 2626 0014 00       		.byte	0x0
 2627 0015 02       		.uleb128 0x2
 2628 0016 24       		.uleb128 0x24
 2629 0017 00       		.byte	0x0
 2630 0018 0B       		.uleb128 0xb
 2631 0019 0B       		.uleb128 0xb
 2632 001a 3E       		.uleb128 0x3e
 2633 001b 0B       		.uleb128 0xb
 2634 001c 03       		.uleb128 0x3
 2635 001d 08       		.uleb128 0x8
 2636 001e 00       		.byte	0x0
 2637 001f 00       		.byte	0x0
 2638 0020 03       		.uleb128 0x3
 2639 0021 24       		.uleb128 0x24
 2640 0022 00       		.byte	0x0
 2641 0023 0B       		.uleb128 0xb
 2642 0024 0B       		.uleb128 0xb
 2643 0025 3E       		.uleb128 0x3e
 2644 0026 0B       		.uleb128 0xb
 2645 0027 03       		.uleb128 0x3
 2646 0028 0E       		.uleb128 0xe
 2647 0029 00       		.byte	0x0
 2648 002a 00       		.byte	0x0
 2649 002b 04       		.uleb128 0x4
 2650 002c 16       		.uleb128 0x16
 2651 002d 00       		.byte	0x0
 2652 002e 03       		.uleb128 0x3
 2653 002f 0E       		.uleb128 0xe
 2654 0030 3A       		.uleb128 0x3a
 2655 0031 0B       		.uleb128 0xb
 2656 0032 3B       		.uleb128 0x3b
 2657 0033 0B       		.uleb128 0xb
 2658 0034 49       		.uleb128 0x49
 2659 0035 13       		.uleb128 0x13
ARM GAS  /tmp/ccCWhezY.s 			page 48


 2660 0036 00       		.byte	0x0
 2661 0037 00       		.byte	0x0
 2662 0038 05       		.uleb128 0x5
 2663 0039 13       		.uleb128 0x13
 2664 003a 01       		.byte	0x1
 2665 003b 03       		.uleb128 0x3
 2666 003c 0E       		.uleb128 0xe
 2667 003d 0B       		.uleb128 0xb
 2668 003e 0B       		.uleb128 0xb
 2669 003f 3A       		.uleb128 0x3a
 2670 0040 0B       		.uleb128 0xb
 2671 0041 3B       		.uleb128 0x3b
 2672 0042 0B       		.uleb128 0xb
 2673 0043 01       		.uleb128 0x1
 2674 0044 13       		.uleb128 0x13
 2675 0045 00       		.byte	0x0
 2676 0046 00       		.byte	0x0
 2677 0047 06       		.uleb128 0x6
 2678 0048 0D       		.uleb128 0xd
 2679 0049 00       		.byte	0x0
 2680 004a 03       		.uleb128 0x3
 2681 004b 0E       		.uleb128 0xe
 2682 004c 3A       		.uleb128 0x3a
 2683 004d 0B       		.uleb128 0xb
 2684 004e 3B       		.uleb128 0x3b
 2685 004f 0B       		.uleb128 0xb
 2686 0050 49       		.uleb128 0x49
 2687 0051 13       		.uleb128 0x13
 2688 0052 38       		.uleb128 0x38
 2689 0053 0A       		.uleb128 0xa
 2690 0054 00       		.byte	0x0
 2691 0055 00       		.byte	0x0
 2692 0056 07       		.uleb128 0x7
 2693 0057 0D       		.uleb128 0xd
 2694 0058 00       		.byte	0x0
 2695 0059 03       		.uleb128 0x3
 2696 005a 08       		.uleb128 0x8
 2697 005b 3A       		.uleb128 0x3a
 2698 005c 0B       		.uleb128 0xb
 2699 005d 3B       		.uleb128 0x3b
 2700 005e 0B       		.uleb128 0xb
 2701 005f 49       		.uleb128 0x49
 2702 0060 13       		.uleb128 0x13
 2703 0061 38       		.uleb128 0x38
 2704 0062 0A       		.uleb128 0xa
 2705 0063 00       		.byte	0x0
 2706 0064 00       		.byte	0x0
 2707 0065 08       		.uleb128 0x8
 2708 0066 13       		.uleb128 0x13
 2709 0067 01       		.byte	0x1
 2710 0068 0B       		.uleb128 0xb
 2711 0069 0B       		.uleb128 0xb
 2712 006a 3A       		.uleb128 0x3a
 2713 006b 0B       		.uleb128 0xb
 2714 006c 3B       		.uleb128 0x3b
 2715 006d 0B       		.uleb128 0xb
 2716 006e 01       		.uleb128 0x1
ARM GAS  /tmp/ccCWhezY.s 			page 49


 2717 006f 13       		.uleb128 0x13
 2718 0070 00       		.byte	0x0
 2719 0071 00       		.byte	0x0
 2720 0072 09       		.uleb128 0x9
 2721 0073 0F       		.uleb128 0xf
 2722 0074 00       		.byte	0x0
 2723 0075 0B       		.uleb128 0xb
 2724 0076 0B       		.uleb128 0xb
 2725 0077 49       		.uleb128 0x49
 2726 0078 13       		.uleb128 0x13
 2727 0079 00       		.byte	0x0
 2728 007a 00       		.byte	0x0
 2729 007b 0A       		.uleb128 0xa
 2730 007c 16       		.uleb128 0x16
 2731 007d 00       		.byte	0x0
 2732 007e 03       		.uleb128 0x3
 2733 007f 0E       		.uleb128 0xe
 2734 0080 3A       		.uleb128 0x3a
 2735 0081 0B       		.uleb128 0xb
 2736 0082 3B       		.uleb128 0x3b
 2737 0083 05       		.uleb128 0x5
 2738 0084 49       		.uleb128 0x49
 2739 0085 13       		.uleb128 0x13
 2740 0086 00       		.byte	0x0
 2741 0087 00       		.byte	0x0
 2742 0088 0B       		.uleb128 0xb
 2743 0089 0F       		.uleb128 0xf
 2744 008a 00       		.byte	0x0
 2745 008b 0B       		.uleb128 0xb
 2746 008c 0B       		.uleb128 0xb
 2747 008d 00       		.byte	0x0
 2748 008e 00       		.byte	0x0
 2749 008f 0C       		.uleb128 0xc
 2750 0090 13       		.uleb128 0x13
 2751 0091 01       		.byte	0x1
 2752 0092 03       		.uleb128 0x3
 2753 0093 0E       		.uleb128 0xe
 2754 0094 0B       		.uleb128 0xb
 2755 0095 0B       		.uleb128 0xb
 2756 0096 3A       		.uleb128 0x3a
 2757 0097 0B       		.uleb128 0xb
 2758 0098 3B       		.uleb128 0x3b
 2759 0099 05       		.uleb128 0x5
 2760 009a 01       		.uleb128 0x1
 2761 009b 13       		.uleb128 0x13
 2762 009c 00       		.byte	0x0
 2763 009d 00       		.byte	0x0
 2764 009e 0D       		.uleb128 0xd
 2765 009f 0D       		.uleb128 0xd
 2766 00a0 00       		.byte	0x0
 2767 00a1 03       		.uleb128 0x3
 2768 00a2 08       		.uleb128 0x8
 2769 00a3 3A       		.uleb128 0x3a
 2770 00a4 0B       		.uleb128 0xb
 2771 00a5 3B       		.uleb128 0x3b
 2772 00a6 05       		.uleb128 0x5
 2773 00a7 49       		.uleb128 0x49
ARM GAS  /tmp/ccCWhezY.s 			page 50


 2774 00a8 13       		.uleb128 0x13
 2775 00a9 38       		.uleb128 0x38
 2776 00aa 0A       		.uleb128 0xa
 2777 00ab 00       		.byte	0x0
 2778 00ac 00       		.byte	0x0
 2779 00ad 0E       		.uleb128 0xe
 2780 00ae 35       		.uleb128 0x35
 2781 00af 00       		.byte	0x0
 2782 00b0 49       		.uleb128 0x49
 2783 00b1 13       		.uleb128 0x13
 2784 00b2 00       		.byte	0x0
 2785 00b3 00       		.byte	0x0
 2786 00b4 0F       		.uleb128 0xf
 2787 00b5 17       		.uleb128 0x17
 2788 00b6 01       		.byte	0x1
 2789 00b7 0B       		.uleb128 0xb
 2790 00b8 0B       		.uleb128 0xb
 2791 00b9 3A       		.uleb128 0x3a
 2792 00ba 0B       		.uleb128 0xb
 2793 00bb 3B       		.uleb128 0x3b
 2794 00bc 0B       		.uleb128 0xb
 2795 00bd 01       		.uleb128 0x1
 2796 00be 13       		.uleb128 0x13
 2797 00bf 00       		.byte	0x0
 2798 00c0 00       		.byte	0x0
 2799 00c1 10       		.uleb128 0x10
 2800 00c2 0D       		.uleb128 0xd
 2801 00c3 00       		.byte	0x0
 2802 00c4 03       		.uleb128 0x3
 2803 00c5 0E       		.uleb128 0xe
 2804 00c6 3A       		.uleb128 0x3a
 2805 00c7 0B       		.uleb128 0xb
 2806 00c8 3B       		.uleb128 0x3b
 2807 00c9 0B       		.uleb128 0xb
 2808 00ca 49       		.uleb128 0x49
 2809 00cb 13       		.uleb128 0x13
 2810 00cc 00       		.byte	0x0
 2811 00cd 00       		.byte	0x0
 2812 00ce 11       		.uleb128 0x11
 2813 00cf 2E       		.uleb128 0x2e
 2814 00d0 01       		.byte	0x1
 2815 00d1 03       		.uleb128 0x3
 2816 00d2 0E       		.uleb128 0xe
 2817 00d3 3A       		.uleb128 0x3a
 2818 00d4 0B       		.uleb128 0xb
 2819 00d5 3B       		.uleb128 0x3b
 2820 00d6 0B       		.uleb128 0xb
 2821 00d7 27       		.uleb128 0x27
 2822 00d8 0C       		.uleb128 0xc
 2823 00d9 49       		.uleb128 0x49
 2824 00da 13       		.uleb128 0x13
 2825 00db 20       		.uleb128 0x20
 2826 00dc 0B       		.uleb128 0xb
 2827 00dd 01       		.uleb128 0x1
 2828 00de 13       		.uleb128 0x13
 2829 00df 00       		.byte	0x0
 2830 00e0 00       		.byte	0x0
ARM GAS  /tmp/ccCWhezY.s 			page 51


 2831 00e1 12       		.uleb128 0x12
 2832 00e2 05       		.uleb128 0x5
 2833 00e3 00       		.byte	0x0
 2834 00e4 03       		.uleb128 0x3
 2835 00e5 08       		.uleb128 0x8
 2836 00e6 3A       		.uleb128 0x3a
 2837 00e7 0B       		.uleb128 0xb
 2838 00e8 3B       		.uleb128 0x3b
 2839 00e9 0B       		.uleb128 0xb
 2840 00ea 49       		.uleb128 0x49
 2841 00eb 13       		.uleb128 0x13
 2842 00ec 00       		.byte	0x0
 2843 00ed 00       		.byte	0x0
 2844 00ee 13       		.uleb128 0x13
 2845 00ef 34       		.uleb128 0x34
 2846 00f0 00       		.byte	0x0
 2847 00f1 03       		.uleb128 0x3
 2848 00f2 08       		.uleb128 0x8
 2849 00f3 3A       		.uleb128 0x3a
 2850 00f4 0B       		.uleb128 0xb
 2851 00f5 3B       		.uleb128 0x3b
 2852 00f6 0B       		.uleb128 0xb
 2853 00f7 49       		.uleb128 0x49
 2854 00f8 13       		.uleb128 0x13
 2855 00f9 00       		.byte	0x0
 2856 00fa 00       		.byte	0x0
 2857 00fb 14       		.uleb128 0x14
 2858 00fc 2E       		.uleb128 0x2e
 2859 00fd 01       		.byte	0x1
 2860 00fe 03       		.uleb128 0x3
 2861 00ff 0E       		.uleb128 0xe
 2862 0100 3A       		.uleb128 0x3a
 2863 0101 0B       		.uleb128 0xb
 2864 0102 3B       		.uleb128 0x3b
 2865 0103 0B       		.uleb128 0xb
 2866 0104 27       		.uleb128 0x27
 2867 0105 0C       		.uleb128 0xc
 2868 0106 20       		.uleb128 0x20
 2869 0107 0B       		.uleb128 0xb
 2870 0108 01       		.uleb128 0x1
 2871 0109 13       		.uleb128 0x13
 2872 010a 00       		.byte	0x0
 2873 010b 00       		.byte	0x0
 2874 010c 15       		.uleb128 0x15
 2875 010d 2E       		.uleb128 0x2e
 2876 010e 01       		.byte	0x1
 2877 010f 3F       		.uleb128 0x3f
 2878 0110 0C       		.uleb128 0xc
 2879 0111 03       		.uleb128 0x3
 2880 0112 0E       		.uleb128 0xe
 2881 0113 3A       		.uleb128 0x3a
 2882 0114 0B       		.uleb128 0xb
 2883 0115 3B       		.uleb128 0x3b
 2884 0116 0B       		.uleb128 0xb
 2885 0117 27       		.uleb128 0x27
 2886 0118 0C       		.uleb128 0xc
 2887 0119 11       		.uleb128 0x11
ARM GAS  /tmp/ccCWhezY.s 			page 52


 2888 011a 01       		.uleb128 0x1
 2889 011b 12       		.uleb128 0x12
 2890 011c 01       		.uleb128 0x1
 2891 011d 40       		.uleb128 0x40
 2892 011e 0A       		.uleb128 0xa
 2893 011f 01       		.uleb128 0x1
 2894 0120 13       		.uleb128 0x13
 2895 0121 00       		.byte	0x0
 2896 0122 00       		.byte	0x0
 2897 0123 16       		.uleb128 0x16
 2898 0124 05       		.uleb128 0x5
 2899 0125 00       		.byte	0x0
 2900 0126 03       		.uleb128 0x3
 2901 0127 08       		.uleb128 0x8
 2902 0128 3A       		.uleb128 0x3a
 2903 0129 0B       		.uleb128 0xb
 2904 012a 3B       		.uleb128 0x3b
 2905 012b 0B       		.uleb128 0xb
 2906 012c 49       		.uleb128 0x49
 2907 012d 13       		.uleb128 0x13
 2908 012e 02       		.uleb128 0x2
 2909 012f 0A       		.uleb128 0xa
 2910 0130 00       		.byte	0x0
 2911 0131 00       		.byte	0x0
 2912 0132 17       		.uleb128 0x17
 2913 0133 2E       		.uleb128 0x2e
 2914 0134 01       		.byte	0x1
 2915 0135 3F       		.uleb128 0x3f
 2916 0136 0C       		.uleb128 0xc
 2917 0137 03       		.uleb128 0x3
 2918 0138 0E       		.uleb128 0xe
 2919 0139 3A       		.uleb128 0x3a
 2920 013a 0B       		.uleb128 0xb
 2921 013b 3B       		.uleb128 0x3b
 2922 013c 0B       		.uleb128 0xb
 2923 013d 27       		.uleb128 0x27
 2924 013e 0C       		.uleb128 0xc
 2925 013f 11       		.uleb128 0x11
 2926 0140 01       		.uleb128 0x1
 2927 0141 12       		.uleb128 0x12
 2928 0142 01       		.uleb128 0x1
 2929 0143 40       		.uleb128 0x40
 2930 0144 06       		.uleb128 0x6
 2931 0145 01       		.uleb128 0x1
 2932 0146 13       		.uleb128 0x13
 2933 0147 00       		.byte	0x0
 2934 0148 00       		.byte	0x0
 2935 0149 18       		.uleb128 0x18
 2936 014a 05       		.uleb128 0x5
 2937 014b 00       		.byte	0x0
 2938 014c 03       		.uleb128 0x3
 2939 014d 08       		.uleb128 0x8
 2940 014e 3A       		.uleb128 0x3a
 2941 014f 0B       		.uleb128 0xb
 2942 0150 3B       		.uleb128 0x3b
 2943 0151 0B       		.uleb128 0xb
 2944 0152 49       		.uleb128 0x49
ARM GAS  /tmp/ccCWhezY.s 			page 53


 2945 0153 13       		.uleb128 0x13
 2946 0154 02       		.uleb128 0x2
 2947 0155 06       		.uleb128 0x6
 2948 0156 00       		.byte	0x0
 2949 0157 00       		.byte	0x0
 2950 0158 19       		.uleb128 0x19
 2951 0159 34       		.uleb128 0x34
 2952 015a 00       		.byte	0x0
 2953 015b 03       		.uleb128 0x3
 2954 015c 08       		.uleb128 0x8
 2955 015d 3A       		.uleb128 0x3a
 2956 015e 0B       		.uleb128 0xb
 2957 015f 3B       		.uleb128 0x3b
 2958 0160 0B       		.uleb128 0xb
 2959 0161 49       		.uleb128 0x49
 2960 0162 13       		.uleb128 0x13
 2961 0163 02       		.uleb128 0x2
 2962 0164 06       		.uleb128 0x6
 2963 0165 00       		.byte	0x0
 2964 0166 00       		.byte	0x0
 2965 0167 1A       		.uleb128 0x1a
 2966 0168 1D       		.uleb128 0x1d
 2967 0169 01       		.byte	0x1
 2968 016a 31       		.uleb128 0x31
 2969 016b 13       		.uleb128 0x13
 2970 016c 52       		.uleb128 0x52
 2971 016d 01       		.uleb128 0x1
 2972 016e 55       		.uleb128 0x55
 2973 016f 06       		.uleb128 0x6
 2974 0170 58       		.uleb128 0x58
 2975 0171 0B       		.uleb128 0xb
 2976 0172 59       		.uleb128 0x59
 2977 0173 0B       		.uleb128 0xb
 2978 0174 00       		.byte	0x0
 2979 0175 00       		.byte	0x0
 2980 0176 1B       		.uleb128 0x1b
 2981 0177 05       		.uleb128 0x5
 2982 0178 00       		.byte	0x0
 2983 0179 31       		.uleb128 0x31
 2984 017a 13       		.uleb128 0x13
 2985 017b 02       		.uleb128 0x2
 2986 017c 06       		.uleb128 0x6
 2987 017d 00       		.byte	0x0
 2988 017e 00       		.byte	0x0
 2989 017f 1C       		.uleb128 0x1c
 2990 0180 0B       		.uleb128 0xb
 2991 0181 01       		.byte	0x1
 2992 0182 55       		.uleb128 0x55
 2993 0183 06       		.uleb128 0x6
 2994 0184 00       		.byte	0x0
 2995 0185 00       		.byte	0x0
 2996 0186 1D       		.uleb128 0x1d
 2997 0187 34       		.uleb128 0x34
 2998 0188 00       		.byte	0x0
 2999 0189 31       		.uleb128 0x31
 3000 018a 13       		.uleb128 0x13
 3001 018b 02       		.uleb128 0x2
ARM GAS  /tmp/ccCWhezY.s 			page 54


 3002 018c 0A       		.uleb128 0xa
 3003 018d 00       		.byte	0x0
 3004 018e 00       		.byte	0x0
 3005 018f 1E       		.uleb128 0x1e
 3006 0190 0B       		.uleb128 0xb
 3007 0191 01       		.byte	0x1
 3008 0192 11       		.uleb128 0x11
 3009 0193 01       		.uleb128 0x1
 3010 0194 12       		.uleb128 0x12
 3011 0195 01       		.uleb128 0x1
 3012 0196 01       		.uleb128 0x1
 3013 0197 13       		.uleb128 0x13
 3014 0198 00       		.byte	0x0
 3015 0199 00       		.byte	0x0
 3016 019a 1F       		.uleb128 0x1f
 3017 019b 0B       		.uleb128 0xb
 3018 019c 01       		.byte	0x1
 3019 019d 11       		.uleb128 0x11
 3020 019e 01       		.uleb128 0x1
 3021 019f 12       		.uleb128 0x12
 3022 01a0 01       		.uleb128 0x1
 3023 01a1 00       		.byte	0x0
 3024 01a2 00       		.byte	0x0
 3025 01a3 20       		.uleb128 0x20
 3026 01a4 2E       		.uleb128 0x2e
 3027 01a5 01       		.byte	0x1
 3028 01a6 3F       		.uleb128 0x3f
 3029 01a7 0C       		.uleb128 0xc
 3030 01a8 03       		.uleb128 0x3
 3031 01a9 0E       		.uleb128 0xe
 3032 01aa 3A       		.uleb128 0x3a
 3033 01ab 0B       		.uleb128 0xb
 3034 01ac 3B       		.uleb128 0x3b
 3035 01ad 0B       		.uleb128 0xb
 3036 01ae 27       		.uleb128 0x27
 3037 01af 0C       		.uleb128 0xc
 3038 01b0 49       		.uleb128 0x49
 3039 01b1 13       		.uleb128 0x13
 3040 01b2 11       		.uleb128 0x11
 3041 01b3 01       		.uleb128 0x1
 3042 01b4 12       		.uleb128 0x12
 3043 01b5 01       		.uleb128 0x1
 3044 01b6 40       		.uleb128 0x40
 3045 01b7 06       		.uleb128 0x6
 3046 01b8 01       		.uleb128 0x1
 3047 01b9 13       		.uleb128 0x13
 3048 01ba 00       		.byte	0x0
 3049 01bb 00       		.byte	0x0
 3050 01bc 21       		.uleb128 0x21
 3051 01bd 1D       		.uleb128 0x1d
 3052 01be 01       		.byte	0x1
 3053 01bf 31       		.uleb128 0x31
 3054 01c0 13       		.uleb128 0x13
 3055 01c1 11       		.uleb128 0x11
 3056 01c2 01       		.uleb128 0x1
 3057 01c3 12       		.uleb128 0x12
 3058 01c4 01       		.uleb128 0x1
ARM GAS  /tmp/ccCWhezY.s 			page 55


 3059 01c5 58       		.uleb128 0x58
 3060 01c6 0B       		.uleb128 0xb
 3061 01c7 59       		.uleb128 0x59
 3062 01c8 0B       		.uleb128 0xb
 3063 01c9 00       		.byte	0x0
 3064 01ca 00       		.byte	0x0
 3065 01cb 22       		.uleb128 0x22
 3066 01cc 05       		.uleb128 0x5
 3067 01cd 00       		.byte	0x0
 3068 01ce 03       		.uleb128 0x3
 3069 01cf 0E       		.uleb128 0xe
 3070 01d0 3A       		.uleb128 0x3a
 3071 01d1 0B       		.uleb128 0xb
 3072 01d2 3B       		.uleb128 0x3b
 3073 01d3 0B       		.uleb128 0xb
 3074 01d4 49       		.uleb128 0x49
 3075 01d5 13       		.uleb128 0x13
 3076 01d6 02       		.uleb128 0x2
 3077 01d7 06       		.uleb128 0x6
 3078 01d8 00       		.byte	0x0
 3079 01d9 00       		.byte	0x0
 3080 01da 23       		.uleb128 0x23
 3081 01db 1D       		.uleb128 0x1d
 3082 01dc 01       		.byte	0x1
 3083 01dd 31       		.uleb128 0x31
 3084 01de 13       		.uleb128 0x13
 3085 01df 11       		.uleb128 0x11
 3086 01e0 01       		.uleb128 0x1
 3087 01e1 12       		.uleb128 0x12
 3088 01e2 01       		.uleb128 0x1
 3089 01e3 58       		.uleb128 0x58
 3090 01e4 0B       		.uleb128 0xb
 3091 01e5 59       		.uleb128 0x59
 3092 01e6 05       		.uleb128 0x5
 3093 01e7 00       		.byte	0x0
 3094 01e8 00       		.byte	0x0
 3095 01e9 24       		.uleb128 0x24
 3096 01ea 05       		.uleb128 0x5
 3097 01eb 00       		.byte	0x0
 3098 01ec 31       		.uleb128 0x31
 3099 01ed 13       		.uleb128 0x13
 3100 01ee 00       		.byte	0x0
 3101 01ef 00       		.byte	0x0
 3102 01f0 25       		.uleb128 0x25
 3103 01f1 2E       		.uleb128 0x2e
 3104 01f2 01       		.byte	0x1
 3105 01f3 3F       		.uleb128 0x3f
 3106 01f4 0C       		.uleb128 0xc
 3107 01f5 03       		.uleb128 0x3
 3108 01f6 0E       		.uleb128 0xe
 3109 01f7 3A       		.uleb128 0x3a
 3110 01f8 0B       		.uleb128 0xb
 3111 01f9 3B       		.uleb128 0x3b
 3112 01fa 05       		.uleb128 0x5
 3113 01fb 27       		.uleb128 0x27
 3114 01fc 0C       		.uleb128 0xc
 3115 01fd 11       		.uleb128 0x11
ARM GAS  /tmp/ccCWhezY.s 			page 56


 3116 01fe 01       		.uleb128 0x1
 3117 01ff 12       		.uleb128 0x12
 3118 0200 01       		.uleb128 0x1
 3119 0201 40       		.uleb128 0x40
 3120 0202 06       		.uleb128 0x6
 3121 0203 01       		.uleb128 0x1
 3122 0204 13       		.uleb128 0x13
 3123 0205 00       		.byte	0x0
 3124 0206 00       		.byte	0x0
 3125 0207 26       		.uleb128 0x26
 3126 0208 05       		.uleb128 0x5
 3127 0209 00       		.byte	0x0
 3128 020a 03       		.uleb128 0x3
 3129 020b 08       		.uleb128 0x8
 3130 020c 3A       		.uleb128 0x3a
 3131 020d 0B       		.uleb128 0xb
 3132 020e 3B       		.uleb128 0x3b
 3133 020f 05       		.uleb128 0x5
 3134 0210 49       		.uleb128 0x49
 3135 0211 13       		.uleb128 0x13
 3136 0212 02       		.uleb128 0x2
 3137 0213 06       		.uleb128 0x6
 3138 0214 00       		.byte	0x0
 3139 0215 00       		.byte	0x0
 3140 0216 27       		.uleb128 0x27
 3141 0217 34       		.uleb128 0x34
 3142 0218 00       		.byte	0x0
 3143 0219 03       		.uleb128 0x3
 3144 021a 08       		.uleb128 0x8
 3145 021b 3A       		.uleb128 0x3a
 3146 021c 0B       		.uleb128 0xb
 3147 021d 3B       		.uleb128 0x3b
 3148 021e 05       		.uleb128 0x5
 3149 021f 49       		.uleb128 0x49
 3150 0220 13       		.uleb128 0x13
 3151 0221 02       		.uleb128 0x2
 3152 0222 06       		.uleb128 0x6
 3153 0223 00       		.byte	0x0
 3154 0224 00       		.byte	0x0
 3155 0225 28       		.uleb128 0x28
 3156 0226 0B       		.uleb128 0xb
 3157 0227 01       		.byte	0x1
 3158 0228 55       		.uleb128 0x55
 3159 0229 06       		.uleb128 0x6
 3160 022a 01       		.uleb128 0x1
 3161 022b 13       		.uleb128 0x13
 3162 022c 00       		.byte	0x0
 3163 022d 00       		.byte	0x0
 3164 022e 29       		.uleb128 0x29
 3165 022f 1D       		.uleb128 0x1d
 3166 0230 01       		.byte	0x1
 3167 0231 31       		.uleb128 0x31
 3168 0232 13       		.uleb128 0x13
 3169 0233 52       		.uleb128 0x52
 3170 0234 01       		.uleb128 0x1
 3171 0235 55       		.uleb128 0x55
 3172 0236 06       		.uleb128 0x6
ARM GAS  /tmp/ccCWhezY.s 			page 57


 3173 0237 58       		.uleb128 0x58
 3174 0238 0B       		.uleb128 0xb
 3175 0239 59       		.uleb128 0x59
 3176 023a 05       		.uleb128 0x5
 3177 023b 00       		.byte	0x0
 3178 023c 00       		.byte	0x0
 3179 023d 2A       		.uleb128 0x2a
 3180 023e 34       		.uleb128 0x34
 3181 023f 00       		.byte	0x0
 3182 0240 31       		.uleb128 0x31
 3183 0241 13       		.uleb128 0x13
 3184 0242 02       		.uleb128 0x2
 3185 0243 06       		.uleb128 0x6
 3186 0244 00       		.byte	0x0
 3187 0245 00       		.byte	0x0
 3188 0246 2B       		.uleb128 0x2b
 3189 0247 2E       		.uleb128 0x2e
 3190 0248 01       		.byte	0x1
 3191 0249 3F       		.uleb128 0x3f
 3192 024a 0C       		.uleb128 0xc
 3193 024b 03       		.uleb128 0x3
 3194 024c 0E       		.uleb128 0xe
 3195 024d 3A       		.uleb128 0x3a
 3196 024e 0B       		.uleb128 0xb
 3197 024f 3B       		.uleb128 0x3b
 3198 0250 05       		.uleb128 0x5
 3199 0251 27       		.uleb128 0x27
 3200 0252 0C       		.uleb128 0xc
 3201 0253 11       		.uleb128 0x11
 3202 0254 01       		.uleb128 0x1
 3203 0255 12       		.uleb128 0x12
 3204 0256 01       		.uleb128 0x1
 3205 0257 40       		.uleb128 0x40
 3206 0258 0A       		.uleb128 0xa
 3207 0259 01       		.uleb128 0x1
 3208 025a 13       		.uleb128 0x13
 3209 025b 00       		.byte	0x0
 3210 025c 00       		.byte	0x0
 3211 025d 2C       		.uleb128 0x2c
 3212 025e 34       		.uleb128 0x34
 3213 025f 00       		.byte	0x0
 3214 0260 03       		.uleb128 0x3
 3215 0261 08       		.uleb128 0x8
 3216 0262 3A       		.uleb128 0x3a
 3217 0263 0B       		.uleb128 0xb
 3218 0264 3B       		.uleb128 0x3b
 3219 0265 05       		.uleb128 0x5
 3220 0266 49       		.uleb128 0x49
 3221 0267 13       		.uleb128 0x13
 3222 0268 02       		.uleb128 0x2
 3223 0269 0A       		.uleb128 0xa
 3224 026a 00       		.byte	0x0
 3225 026b 00       		.byte	0x0
 3226 026c 2D       		.uleb128 0x2d
 3227 026d 2E       		.uleb128 0x2e
 3228 026e 01       		.byte	0x1
 3229 026f 3F       		.uleb128 0x3f
ARM GAS  /tmp/ccCWhezY.s 			page 58


 3230 0270 0C       		.uleb128 0xc
 3231 0271 03       		.uleb128 0x3
 3232 0272 0E       		.uleb128 0xe
 3233 0273 3A       		.uleb128 0x3a
 3234 0274 0B       		.uleb128 0xb
 3235 0275 3B       		.uleb128 0x3b
 3236 0276 05       		.uleb128 0x5
 3237 0277 27       		.uleb128 0x27
 3238 0278 0C       		.uleb128 0xc
 3239 0279 49       		.uleb128 0x49
 3240 027a 13       		.uleb128 0x13
 3241 027b 11       		.uleb128 0x11
 3242 027c 01       		.uleb128 0x1
 3243 027d 12       		.uleb128 0x12
 3244 027e 01       		.uleb128 0x1
 3245 027f 40       		.uleb128 0x40
 3246 0280 06       		.uleb128 0x6
 3247 0281 01       		.uleb128 0x1
 3248 0282 13       		.uleb128 0x13
 3249 0283 00       		.byte	0x0
 3250 0284 00       		.byte	0x0
 3251 0285 2E       		.uleb128 0x2e
 3252 0286 34       		.uleb128 0x34
 3253 0287 00       		.byte	0x0
 3254 0288 03       		.uleb128 0x3
 3255 0289 0E       		.uleb128 0xe
 3256 028a 3A       		.uleb128 0x3a
 3257 028b 0B       		.uleb128 0xb
 3258 028c 3B       		.uleb128 0x3b
 3259 028d 0B       		.uleb128 0xb
 3260 028e 49       		.uleb128 0x49
 3261 028f 13       		.uleb128 0x13
 3262 0290 3F       		.uleb128 0x3f
 3263 0291 0C       		.uleb128 0xc
 3264 0292 3C       		.uleb128 0x3c
 3265 0293 0C       		.uleb128 0xc
 3266 0294 00       		.byte	0x0
 3267 0295 00       		.byte	0x0
 3268 0296 00       		.byte	0x0
 3269              		.section	.debug_pubnames,"",%progbits
 3270 0000 CD000000 		.4byte	0xcd
 3271 0004 0200     		.2byte	0x2
 3272 0006 00000000 		.4byte	.Ldebug_info0
 3273 000a C1090000 		.4byte	0x9c1
 3274 000e B2040000 		.4byte	0x4b2
 3275 0012 63685365 		.ascii	"chSemInit\000"
 3275      6D496E69 
 3275      7400
 3276 001c E8040000 		.4byte	0x4e8
 3277 0020 63685365 		.ascii	"chSemResetI\000"
 3277      6D526573 
 3277      65744900 
 3278 002c 52050000 		.4byte	0x552
 3279 0030 63685365 		.ascii	"chSemReset\000"
 3279      6D526573 
 3279      657400
 3280 003b BD050000 		.4byte	0x5bd
ARM GAS  /tmp/ccCWhezY.s 			page 59


 3281 003f 63685365 		.ascii	"chSemWaitS\000"
 3281      6D576169 
 3281      745300
 3282 004a 0B060000 		.4byte	0x60b
 3283 004e 63685365 		.ascii	"chSemWait\000"
 3283      6D576169 
 3283      7400
 3284 0058 78060000 		.4byte	0x678
 3285 005c 63685365 		.ascii	"chSemWaitTimeoutS\000"
 3285      6D576169 
 3285      7454696D 
 3285      656F7574 
 3285      5300
 3286 006e D2060000 		.4byte	0x6d2
 3287 0072 63685365 		.ascii	"chSemWaitTimeout\000"
 3287      6D576169 
 3287      7454696D 
 3287      656F7574 
 3287      00
 3288 0083 4E070000 		.4byte	0x74e
 3289 0087 63685365 		.ascii	"chSemSignal\000"
 3289      6D536967 
 3289      6E616C00 
 3290 0093 D9070000 		.4byte	0x7d9
 3291 0097 63685365 		.ascii	"chSemSignalI\000"
 3291      6D536967 
 3291      6E616C49 
 3291      00
 3292 00a4 3E080000 		.4byte	0x83e
 3293 00a8 63685365 		.ascii	"chSemSetCounterI\000"
 3293      6D536574 
 3293      436F756E 
 3293      74657249 
 3293      00
 3294 00b9 AD080000 		.4byte	0x8ad
 3295 00bd 63685365 		.ascii	"chSemSignalWait\000"
 3295      6D536967 
 3295      6E616C57 
 3295      61697400 
 3296 00cd 00000000 		.4byte	0x0
 3297              		.section	.debug_pubtypes,"",%progbits
 3298 0000 2F010000 		.4byte	0x12f
 3299 0004 0200     		.2byte	0x2
 3300 0006 00000000 		.4byte	.Ldebug_info0
 3301 000a C1090000 		.4byte	0x9c1
 3302 000e 3E000000 		.4byte	0x3e
 3303 0012 75696E74 		.ascii	"uint8_t\000"
 3303      385F7400 
 3304 001a 5E000000 		.4byte	0x5e
 3305 001e 696E7433 		.ascii	"int32_t\000"
 3305      325F7400 
 3306 0026 70000000 		.4byte	0x70
 3307 002a 75696E74 		.ascii	"uint32_t\000"
 3307      33325F74 
 3307      00
 3308 0033 90000000 		.4byte	0x90
 3309 0037 746D6F64 		.ascii	"tmode_t\000"
ARM GAS  /tmp/ccCWhezY.s 			page 60


 3309      655F7400 
 3310 003f 9B000000 		.4byte	0x9b
 3311 0043 74737461 		.ascii	"tstate_t\000"
 3311      74655F74 
 3311      00
 3312 004c A6000000 		.4byte	0xa6
 3313 0050 74726566 		.ascii	"trefs_t\000"
 3313      735F7400 
 3314 0058 B1000000 		.4byte	0xb1
 3315 005c 74707269 		.ascii	"tprio_t\000"
 3315      6F5F7400 
 3316 0064 BC000000 		.4byte	0xbc
 3317 0068 6D73675F 		.ascii	"msg_t\000"
 3317      7400
 3318 006e C7000000 		.4byte	0xc7
 3319 0072 6576656E 		.ascii	"eventmask_t\000"
 3319      746D6173 
 3319      6B5F7400 
 3320 007e D2000000 		.4byte	0xd2
 3321 0082 73797374 		.ascii	"systime_t\000"
 3321      696D655F 
 3321      7400
 3322 008c DD000000 		.4byte	0xdd
 3323 0090 636E745F 		.ascii	"cnt_t\000"
 3323      7400
 3324 0096 E8000000 		.4byte	0xe8
 3325 009a 54687265 		.ascii	"Thread\000"
 3325      616400
 3326 00a1 27020000 		.4byte	0x227
 3327 00a5 54687265 		.ascii	"ThreadsQueue\000"
 3327      61647351 
 3327      75657565 
 3327      00
 3328 00b2 49020000 		.4byte	0x249
 3329 00b6 54687265 		.ascii	"ThreadsList\000"
 3329      6164734C 
 3329      69737400 
 3330 00c2 54020000 		.4byte	0x254
 3331 00c6 72656761 		.ascii	"regarm_t\000"
 3331      726D5F74 
 3331      00
 3332 00cf 62020000 		.4byte	0x262
 3333 00d3 636F6E74 		.ascii	"context\000"
 3333      65787400 
 3334 00db 7F020000 		.4byte	0x27f
 3335 00df 696E7463 		.ascii	"intctx\000"
 3335      747800
 3336 00e6 79030000 		.4byte	0x379
 3337 00ea 52656164 		.ascii	"ReadyList\000"
 3337      794C6973 
 3337      7400
 3338 00f4 84030000 		.4byte	0x384
 3339 00f8 53656D61 		.ascii	"Semaphore\000"
 3339      70686F72 
 3339      6500
 3340 0102 AD030000 		.4byte	0x3ad
 3341 0106 53656D61 		.ascii	"Semaphore\000"
ARM GAS  /tmp/ccCWhezY.s 			page 61


 3341      70686F72 
 3341      6500
 3342 0110 B8030000 		.4byte	0x3b8
 3343 0114 4D757465 		.ascii	"Mutex\000"
 3343      7800
 3344 011a F5030000 		.4byte	0x3f5
 3345 011e 4D757465 		.ascii	"Mutex\000"
 3345      7800
 3346 0124 F3000000 		.4byte	0xf3
 3347 0128 54687265 		.ascii	"Thread\000"
 3347      616400
 3348 012f 00000000 		.4byte	0x0
 3349              		.section	.debug_aranges,"",%progbits
 3350 0000 6C000000 		.4byte	0x6c
 3351 0004 0200     		.2byte	0x2
 3352 0006 00000000 		.4byte	.Ldebug_info0
 3353 000a 04       		.byte	0x4
 3354 000b 00       		.byte	0x0
 3355 000c 0000     		.2byte	0x0
 3356 000e 0000     		.2byte	0x0
 3357 0010 00000000 		.4byte	.LFB7
 3358 0014 08000000 		.4byte	.LFE7-.LFB7
 3359 0018 00000000 		.4byte	.LFB9
 3360 001c 68000000 		.4byte	.LFE9-.LFB9
 3361 0020 00000000 		.4byte	.LFB8
 3362 0024 18000000 		.4byte	.LFE8-.LFB8
 3363 0028 00000000 		.4byte	.LFB11
 3364 002c 34000000 		.4byte	.LFE11-.LFB11
 3365 0030 00000000 		.4byte	.LFB10
 3366 0034 14000000 		.4byte	.LFE10-.LFB10
 3367 0038 00000000 		.4byte	.LFB13
 3368 003c 3E000000 		.4byte	.LFE13-.LFB13
 3369 0040 00000000 		.4byte	.LFB12
 3370 0044 14000000 		.4byte	.LFE12-.LFB12
 3371 0048 00000000 		.4byte	.LFB14
 3372 004c 32000000 		.4byte	.LFE14-.LFB14
 3373 0050 00000000 		.4byte	.LFB15
 3374 0054 20000000 		.4byte	.LFE15-.LFB15
 3375 0058 00000000 		.4byte	.LFB16
 3376 005c 66000000 		.4byte	.LFE16-.LFB16
 3377 0060 00000000 		.4byte	.LFB17
 3378 0064 66000000 		.4byte	.LFE17-.LFB17
 3379 0068 00000000 		.4byte	0x0
 3380 006c 00000000 		.4byte	0x0
 3381              		.section	.debug_ranges,"",%progbits
 3382              	.Ldebug_ranges0:
 3383 0000 0E000000 		.4byte	.LBB24
 3384 0004 10000000 		.4byte	.LBE24
 3385 0008 50000000 		.4byte	.LBB39
 3386 000c 58000000 		.4byte	.LBE39
 3387 0010 44000000 		.4byte	.LBB38
 3388 0014 4A000000 		.4byte	.LBE38
 3389 0018 40000000 		.4byte	.LBB37
 3390 001c 42000000 		.4byte	.LBE37
 3391 0020 30000000 		.4byte	.LBB36
 3392 0024 36000000 		.4byte	.LBE36
 3393 0028 2C000000 		.4byte	.LBB35
ARM GAS  /tmp/ccCWhezY.s 			page 62


 3394 002c 2E000000 		.4byte	.LBE35
 3395 0030 18000000 		.4byte	.LBB34
 3396 0034 1C000000 		.4byte	.LBE34
 3397 0038 12000000 		.4byte	.LBB33
 3398 003c 14000000 		.4byte	.LBE33
 3399 0040 00000000 		.4byte	0x0
 3400 0044 00000000 		.4byte	0x0
 3401 0048 0E000000 		.4byte	.LBB28
 3402 004c 10000000 		.4byte	.LBE28
 3403 0050 50000000 		.4byte	.LBB32
 3404 0054 58000000 		.4byte	.LBE32
 3405 0058 44000000 		.4byte	.LBB25
 3406 005c 4A000000 		.4byte	.LBE25
 3407 0060 40000000 		.4byte	.LBB31
 3408 0064 42000000 		.4byte	.LBE31
 3409 0068 30000000 		.4byte	.LBB26
 3410 006c 36000000 		.4byte	.LBE26
 3411 0070 2C000000 		.4byte	.LBB30
 3412 0074 2E000000 		.4byte	.LBE30
 3413 0078 18000000 		.4byte	.LBB27
 3414 007c 1C000000 		.4byte	.LBE27
 3415 0080 12000000 		.4byte	.LBB29
 3416 0084 14000000 		.4byte	.LBE29
 3417 0088 00000000 		.4byte	0x0
 3418 008c 00000000 		.4byte	0x0
 3419 0090 14000000 		.4byte	.LBB51
 3420 0094 1A000000 		.4byte	.LBE51
 3421 0098 2A000000 		.4byte	.LBB56
 3422 009c 30000000 		.4byte	.LBE56
 3423 00a0 00000000 		.4byte	0x0
 3424 00a4 00000000 		.4byte	0x0
 3425 00a8 1C000000 		.4byte	.LBB52
 3426 00ac 1E000000 		.4byte	.LBE52
 3427 00b0 20000000 		.4byte	.LBB55
 3428 00b4 26000000 		.4byte	.LBE55
 3429 00b8 00000000 		.4byte	0x0
 3430 00bc 00000000 		.4byte	0x0
 3431 00c0 1C000000 		.4byte	.LBB53
 3432 00c4 1E000000 		.4byte	.LBE53
 3433 00c8 20000000 		.4byte	.LBB54
 3434 00cc 26000000 		.4byte	.LBE54
 3435 00d0 00000000 		.4byte	0x0
 3436 00d4 00000000 		.4byte	0x0
 3437 00d8 0E000000 		.4byte	.LBB57
 3438 00dc 1C000000 		.4byte	.LBE57
 3439 00e0 1C000000 		.4byte	.LBB62
 3440 00e4 20000000 		.4byte	.LBE62
 3441 00e8 00000000 		.4byte	0x0
 3442 00ec 00000000 		.4byte	0x0
 3443 00f0 0E000000 		.4byte	.LBB59
 3444 00f4 12000000 		.4byte	.LBE59
 3445 00f8 14000000 		.4byte	.LBB58
 3446 00fc 18000000 		.4byte	.LBE58
 3447 0100 00000000 		.4byte	0x0
 3448 0104 00000000 		.4byte	0x0
 3449 0108 0E000000 		.4byte	.LBB60
 3450 010c 12000000 		.4byte	.LBE60
ARM GAS  /tmp/ccCWhezY.s 			page 63


 3451 0110 14000000 		.4byte	.LBB61
 3452 0114 18000000 		.4byte	.LBE61
 3453 0118 00000000 		.4byte	0x0
 3454 011c 00000000 		.4byte	0x0
 3455 0120 0E000000 		.4byte	.LBB63
 3456 0124 10000000 		.4byte	.LBE63
 3457 0128 4E000000 		.4byte	.LBB78
 3458 012c 56000000 		.4byte	.LBE78
 3459 0130 42000000 		.4byte	.LBB77
 3460 0134 48000000 		.4byte	.LBE77
 3461 0138 3E000000 		.4byte	.LBB76
 3462 013c 40000000 		.4byte	.LBE76
 3463 0140 2E000000 		.4byte	.LBB75
 3464 0144 34000000 		.4byte	.LBE75
 3465 0148 2A000000 		.4byte	.LBB74
 3466 014c 2C000000 		.4byte	.LBE74
 3467 0150 16000000 		.4byte	.LBB73
 3468 0154 1A000000 		.4byte	.LBE73
 3469 0158 12000000 		.4byte	.LBB72
 3470 015c 14000000 		.4byte	.LBE72
 3471 0160 00000000 		.4byte	0x0
 3472 0164 00000000 		.4byte	0x0
 3473 0168 0E000000 		.4byte	.LBB67
 3474 016c 10000000 		.4byte	.LBE67
 3475 0170 4E000000 		.4byte	.LBB71
 3476 0174 56000000 		.4byte	.LBE71
 3477 0178 42000000 		.4byte	.LBB64
 3478 017c 48000000 		.4byte	.LBE64
 3479 0180 3E000000 		.4byte	.LBB70
 3480 0184 40000000 		.4byte	.LBE70
 3481 0188 2E000000 		.4byte	.LBB65
 3482 018c 34000000 		.4byte	.LBE65
 3483 0190 2A000000 		.4byte	.LBB69
 3484 0194 2C000000 		.4byte	.LBE69
 3485 0198 16000000 		.4byte	.LBB66
 3486 019c 1A000000 		.4byte	.LBE66
 3487 01a0 12000000 		.4byte	.LBB68
 3488 01a4 14000000 		.4byte	.LBE68
 3489 01a8 00000000 		.4byte	0x0
 3490 01ac 00000000 		.4byte	0x0
 3491 01b0 3A000000 		.4byte	.LBB82
 3492 01b4 3C000000 		.4byte	.LBE82
 3493 01b8 3E000000 		.4byte	.LBB85
 3494 01bc 46000000 		.4byte	.LBE85
 3495 01c0 00000000 		.4byte	0x0
 3496 01c4 00000000 		.4byte	0x0
 3497 01c8 00000000 		.4byte	.LFB7
 3498 01cc 08000000 		.4byte	.LFE7
 3499 01d0 00000000 		.4byte	.LFB9
 3500 01d4 68000000 		.4byte	.LFE9
 3501 01d8 00000000 		.4byte	.LFB8
 3502 01dc 18000000 		.4byte	.LFE8
 3503 01e0 00000000 		.4byte	.LFB11
 3504 01e4 34000000 		.4byte	.LFE11
 3505 01e8 00000000 		.4byte	.LFB10
 3506 01ec 14000000 		.4byte	.LFE10
 3507 01f0 00000000 		.4byte	.LFB13
ARM GAS  /tmp/ccCWhezY.s 			page 64


 3508 01f4 3E000000 		.4byte	.LFE13
 3509 01f8 00000000 		.4byte	.LFB12
 3510 01fc 14000000 		.4byte	.LFE12
 3511 0200 00000000 		.4byte	.LFB14
 3512 0204 32000000 		.4byte	.LFE14
 3513 0208 00000000 		.4byte	.LFB15
 3514 020c 20000000 		.4byte	.LFE15
 3515 0210 00000000 		.4byte	.LFB16
 3516 0214 66000000 		.4byte	.LFE16
 3517 0218 00000000 		.4byte	.LFB17
 3518 021c 66000000 		.4byte	.LFE17
 3519 0220 00000000 		.4byte	0x0
 3520 0224 00000000 		.4byte	0x0
 3521              		.section	.debug_str,"MS",%progbits,1
 3522              	.LASF33:
 3523 0000 705F6D73 		.ascii	"p_msg\000"
 3523      6700
 3524              	.LASF80:
 3525 0006 71756575 		.ascii	"queue_insert\000"
 3525      655F696E 
 3525      73657274 
 3525      00
 3526              	.LASF73:
 3527 0013 63685365 		.ascii	"chSemSignalI\000"
 3527      6D536967 
 3527      6E616C49 
 3527      00
 3528              	.LASF58:
 3529 0020 7264796D 		.ascii	"rdymsg\000"
 3529      736700
 3530              	.LASF74:
 3531 0027 63685365 		.ascii	"chSemSetCounterI\000"
 3531      6D536574 
 3531      436F756E 
 3531      74657249 
 3531      00
 3532              	.LASF11:
 3533 0038 6C6F6E67 		.ascii	"long long unsigned int\000"
 3533      206C6F6E 
 3533      6720756E 
 3533      7369676E 
 3533      65642069 
 3534              	.LASF59:
 3535 004f 65786974 		.ascii	"exitcode\000"
 3535      636F6465 
 3535      00
 3536              	.LASF23:
 3537 0058 705F7072 		.ascii	"p_prio\000"
 3537      696F00
 3538              	.LASF10:
 3539 005f 6C6F6E67 		.ascii	"long long int\000"
 3539      206C6F6E 
 3539      6720696E 
 3539      7400
 3540              	.LASF1:
 3541 006d 7369676E 		.ascii	"signed char\000"
 3541      65642063 
ARM GAS  /tmp/ccCWhezY.s 			page 65


 3541      68617200 
 3542              	.LASF75:
 3543 0079 63685365 		.ascii	"chSemSignalWait\000"
 3543      6D536967 
 3543      6E616C57 
 3543      61697400 
 3544              	.LASF37:
 3545 0089 705F6D70 		.ascii	"p_mpool\000"
 3545      6F6F6C00 
 3546              	.LASF55:
 3547 0091 6D5F7175 		.ascii	"m_queue\000"
 3547      65756500 
 3548              	.LASF60:
 3549 0099 77746F62 		.ascii	"wtobjp\000"
 3549      6A7000
 3550              	.LASF7:
 3551 00a0 6C6F6E67 		.ascii	"long int\000"
 3551      20696E74 
 3551      00
 3552              	.LASF13:
 3553 00a9 74737461 		.ascii	"tstate_t\000"
 3553      74655F74 
 3553      00
 3554              	.LASF72:
 3555 00b2 63685365 		.ascii	"chSemSignal\000"
 3555      6D536967 
 3555      6E616C00 
 3556              	.LASF25:
 3557 00be 705F6E65 		.ascii	"p_newer\000"
 3557      77657200 
 3558              	.LASF52:
 3559 00c6 735F7175 		.ascii	"s_queue\000"
 3559      65756500 
 3560              	.LASF78:
 3561 00ce 63686962 		.ascii	"chibios/os/kernel/src/chsem.c\000"
 3561      696F732F 
 3561      6F732F6B 
 3561      65726E65 
 3561      6C2F7372 
 3562              	.LASF46:
 3563 00ec 725F6E65 		.ascii	"r_newer\000"
 3563      77657200 
 3564              	.LASF40:
 3565 00f4 72656761 		.ascii	"regarm_t\000"
 3565      726D5F74 
 3565      00
 3566              	.LASF19:
 3567 00fd 636E745F 		.ascii	"cnt_t\000"
 3567      7400
 3568              	.LASF0:
 3569 0103 756E7369 		.ascii	"unsigned int\000"
 3569      676E6564 
 3569      20696E74 
 3569      00
 3570              	.LASF71:
 3571 0110 63685365 		.ascii	"chSemWaitTimeout\000"
 3571      6D576169 
ARM GAS  /tmp/ccCWhezY.s 			page 66


 3571      7454696D 
 3571      656F7574 
 3571      00
 3572              	.LASF9:
 3573 0121 6C6F6E67 		.ascii	"long unsigned int\000"
 3573      20756E73 
 3573      69676E65 
 3573      6420696E 
 3573      7400
 3574              	.LASF53:
 3575 0133 735F636E 		.ascii	"s_cnt\000"
 3575      7400
 3576              	.LASF41:
 3577 0139 636F6E74 		.ascii	"context\000"
 3577      65787400 
 3578              	.LASF4:
 3579 0141 73686F72 		.ascii	"short unsigned int\000"
 3579      7420756E 
 3579      7369676E 
 3579      65642069 
 3579      6E7400
 3580              	.LASF66:
 3581 0154 63685365 		.ascii	"chSemReset\000"
 3581      6D526573 
 3581      657400
 3582              	.LASF16:
 3583 015f 6D73675F 		.ascii	"msg_t\000"
 3583      7400
 3584              	.LASF12:
 3585 0165 746D6F64 		.ascii	"tmode_t\000"
 3585      655F7400 
 3586              	.LASF39:
 3587 016d 54687265 		.ascii	"ThreadsList\000"
 3587      6164734C 
 3587      69737400 
 3588              	.LASF17:
 3589 0179 6576656E 		.ascii	"eventmask_t\000"
 3589      746D6173 
 3589      6B5F7400 
 3590              	.LASF54:
 3591 0185 4D757465 		.ascii	"Mutex\000"
 3591      7800
 3592              	.LASF79:
 3593 018b 2F686F6D 		.ascii	"/home/dan/github/github-projects/Quad-Rotor/QuadRot"
 3593      652F6461 
 3593      6E2F6769 
 3593      74687562 
 3593      2F676974 
 3594 01be 6F7200   		.ascii	"or\000"
 3595              	.LASF26:
 3596 01c1 705F6F6C 		.ascii	"p_older\000"
 3596      64657200 
 3597              	.LASF45:
 3598 01c9 725F6374 		.ascii	"r_ctx\000"
 3598      7800
 3599              	.LASF38:
 3600 01cf 54687265 		.ascii	"ThreadsQueue\000"
ARM GAS  /tmp/ccCWhezY.s 			page 67


 3600      61647351 
 3600      75657565 
 3600      00
 3601              	.LASF70:
 3602 01dc 74696D65 		.ascii	"time\000"
 3602      00
 3603              	.LASF49:
 3604 01e1 725F6375 		.ascii	"r_current\000"
 3604      7272656E 
 3604      7400
 3605              	.LASF47:
 3606 01eb 725F6F6C 		.ascii	"r_older\000"
 3606      64657200 
 3607              	.LASF14:
 3608 01f3 74726566 		.ascii	"trefs_t\000"
 3608      735F7400 
 3609              	.LASF22:
 3610 01fb 705F7072 		.ascii	"p_prev\000"
 3610      657600
 3611              	.LASF15:
 3612 0202 74707269 		.ascii	"tprio_t\000"
 3612      6F5F7400 
 3613              	.LASF6:
 3614 020a 696E7433 		.ascii	"int32_t\000"
 3614      325F7400 
 3615              	.LASF2:
 3616 0212 756E7369 		.ascii	"unsigned char\000"
 3616      676E6564 
 3616      20636861 
 3616      7200
 3617              	.LASF35:
 3618 0220 705F6D74 		.ascii	"p_mtxlist\000"
 3618      786C6973 
 3618      7400
 3619              	.LASF3:
 3620 022a 73686F72 		.ascii	"short int\000"
 3620      7420696E 
 3620      7400
 3621              	.LASF27:
 3622 0234 705F7374 		.ascii	"p_state\000"
 3622      61746500 
 3623              	.LASF44:
 3624 023c 725F7072 		.ascii	"r_prio\000"
 3624      696F00
 3625              	.LASF61:
 3626 0243 65776D61 		.ascii	"ewmask\000"
 3626      736B00
 3627              	.LASF21:
 3628 024a 705F6E65 		.ascii	"p_next\000"
 3628      787400
 3629              	.LASF28:
 3630 0251 705F666C 		.ascii	"p_flags\000"
 3630      61677300 
 3631              	.LASF67:
 3632 0259 63685365 		.ascii	"chSemWaitS\000"
 3632      6D576169 
 3632      745300
ARM GAS  /tmp/ccCWhezY.s 			page 68


 3633              	.LASF20:
 3634 0264 54687265 		.ascii	"Thread\000"
 3634      616400
 3635              	.LASF34:
 3636 026b 705F6570 		.ascii	"p_epending\000"
 3636      656E6469 
 3636      6E6700
 3637              	.LASF8:
 3638 0276 75696E74 		.ascii	"uint32_t\000"
 3638      33325F74 
 3638      00
 3639              	.LASF43:
 3640 027f 725F7175 		.ascii	"r_queue\000"
 3640      65756500 
 3641              	.LASF63:
 3642 0287 6669666F 		.ascii	"fifo_remove\000"
 3642      5F72656D 
 3642      6F766500 
 3643              	.LASF69:
 3644 0293 63685365 		.ascii	"chSemWaitTimeoutS\000"
 3644      6D576169 
 3644      7454696D 
 3644      656F7574 
 3644      5300
 3645              	.LASF57:
 3646 02a5 6D5F6E65 		.ascii	"m_next\000"
 3646      787400
 3647              	.LASF18:
 3648 02ac 73797374 		.ascii	"systime_t\000"
 3648      696D655F 
 3648      7400
 3649              	.LASF36:
 3650 02b6 705F7265 		.ascii	"p_realprio\000"
 3650      616C7072 
 3650      696F00
 3651              	.LASF68:
 3652 02c1 63685365 		.ascii	"chSemWait\000"
 3652      6D576169 
 3652      7400
 3653              	.LASF30:
 3654 02cb 705F7469 		.ascii	"p_time\000"
 3654      6D6500
 3655              	.LASF62:
 3656 02d2 6C69666F 		.ascii	"lifo_remove\000"
 3656      5F72656D 
 3656      6F766500 
 3657              	.LASF42:
 3658 02de 696E7463 		.ascii	"intctx\000"
 3658      747800
 3659              	.LASF32:
 3660 02e5 705F6D73 		.ascii	"p_msgqueue\000"
 3660      67717565 
 3660      756500
 3661              	.LASF51:
 3662 02f0 53656D61 		.ascii	"Semaphore\000"
 3662      70686F72 
 3662      6500
ARM GAS  /tmp/ccCWhezY.s 			page 69


 3663              	.LASF29:
 3664 02fa 705F7265 		.ascii	"p_refs\000"
 3664      667300
 3665              	.LASF50:
 3666 0301 52656164 		.ascii	"ReadyList\000"
 3666      794C6973 
 3666      7400
 3667              	.LASF65:
 3668 030b 63685365 		.ascii	"chSemResetI\000"
 3668      6D526573 
 3668      65744900 
 3669              	.LASF76:
 3670 0317 726C6973 		.ascii	"rlist\000"
 3670      7400
 3671              	.LASF5:
 3672 031d 75696E74 		.ascii	"uint8_t\000"
 3672      385F7400 
 3673              	.LASF77:
 3674 0325 474E5520 		.ascii	"GNU C 4.5.1\000"
 3674      4320342E 
 3674      352E3100 
 3675              	.LASF48:
 3676 0331 725F7072 		.ascii	"r_preempt\000"
 3676      65656D70 
 3676      7400
 3677              	.LASF56:
 3678 033b 6D5F6F77 		.ascii	"m_owner\000"
 3678      6E657200 
 3679              	.LASF24:
 3680 0343 705F6374 		.ascii	"p_ctx\000"
 3680      7800
 3681              	.LASF31:
 3682 0349 705F7761 		.ascii	"p_waiting\000"
 3682      6974696E 
 3682      6700
 3683              	.LASF64:
 3684 0353 63685365 		.ascii	"chSemInit\000"
 3684      6D496E69 
 3684      7400
 3685              		.ident	"GCC: (GNU) 4.5.1"
ARM GAS  /tmp/ccCWhezY.s 			page 70


DEFINED SYMBOLS
                            *ABS*:0000000000000000 chsem.c
     /tmp/ccCWhezY.s:24     .text.chSemInit:0000000000000000 $t
     /tmp/ccCWhezY.s:30     .text.chSemInit:0000000000000000 chSemInit
     /tmp/ccCWhezY.s:50     .text.chSemResetI:0000000000000000 $t
     /tmp/ccCWhezY.s:56     .text.chSemResetI:0000000000000000 chSemResetI
     /tmp/ccCWhezY.s:196    .text.chSemReset:0000000000000000 $t
     /tmp/ccCWhezY.s:202    .text.chSemReset:0000000000000000 chSemReset
     /tmp/ccCWhezY.s:245    .text.chSemWaitS:0000000000000000 $t
     /tmp/ccCWhezY.s:251    .text.chSemWaitS:0000000000000000 chSemWaitS
     /tmp/ccCWhezY.s:311    .text.chSemWait:0000000000000000 $t
     /tmp/ccCWhezY.s:317    .text.chSemWait:0000000000000000 chSemWait
     /tmp/ccCWhezY.s:358    .text.chSemWaitTimeoutS:0000000000000000 $t
     /tmp/ccCWhezY.s:364    .text.chSemWaitTimeoutS:0000000000000000 chSemWaitTimeoutS
     /tmp/ccCWhezY.s:435    .text.chSemWaitTimeout:0000000000000000 $t
     /tmp/ccCWhezY.s:441    .text.chSemWaitTimeout:0000000000000000 chSemWaitTimeout
     /tmp/ccCWhezY.s:482    .text.chSemSignal:0000000000000000 $t
     /tmp/ccCWhezY.s:488    .text.chSemSignal:0000000000000000 chSemSignal
     /tmp/ccCWhezY.s:569    .text.chSemSignalI:0000000000000000 $t
     /tmp/ccCWhezY.s:575    .text.chSemSignalI:0000000000000000 chSemSignalI
     /tmp/ccCWhezY.s:628    .text.chSemSetCounterI:0000000000000000 $t
     /tmp/ccCWhezY.s:634    .text.chSemSetCounterI:0000000000000000 chSemSetCounterI
     /tmp/ccCWhezY.s:773    .text.chSemSignalWait:0000000000000000 $t
     /tmp/ccCWhezY.s:779    .text.chSemSignalWait:0000000000000000 chSemSignalWait
                     .debug_frame:0000000000000010 $d

UNDEFINED SYMBOLS
chSchReadyI
chSchRescheduleS
rlist
chSchGoSleepS
chSchGoSleepTimeoutS
chSchWakeupS
