ARM GAS  /tmp/ccUzcCcp.s 			page 1


   1              		.syntax unified
   2              		.cpu cortex-m3
   3              		.fpu softvfp
   4              		.eabi_attribute 20, 1
   5              		.eabi_attribute 21, 1
   6              		.eabi_attribute 23, 3
   7              		.eabi_attribute 24, 1
   8              		.eabi_attribute 25, 1
   9              		.eabi_attribute 26, 1
  10              		.eabi_attribute 30, 2
  11              		.eabi_attribute 18, 4
  12              		.thumb
  13              		.file	"chsys.c"
  14              		.section	.debug_abbrev,"",%progbits
  15              	.Ldebug_abbrev0:
  16              		.section	.debug_info,"",%progbits
  17              	.Ldebug_info0:
  18              		.section	.debug_line,"",%progbits
  19              	.Ldebug_line0:
  20 0000 9D010000 		.text
  20      02004301 
  20      00000201 
  20      FB0E0D00 
  20      01010101 
  21              	.Ltext0:
  22              		.cfi_sections	.debug_frame
  23              		.section	.text._idle_thread,"ax",%progbits
  24              		.align	2
  25              		.p2align 4,,15
  26              		.global	_idle_thread
  27              		.thumb
  28              		.thumb_func
  29              		.type	_idle_thread, %function
  30              	_idle_thread:
  31              	.LFB7:
  32              		.file 1 "chibios/os/kernel/src/chsys.c"
  33              		.loc 1 60 0
  34              		.cfi_startproc
  35              		@ args = 0, pretend = 0, frame = 0
  36              		@ frame_needed = 0, uses_anonymous_args = 0
  37              		@ link register save eliminated.
  38              	.LVL0:
  39              	.L2:
  40 0000 FEE7     		b	.L2
  41              		.cfi_endproc
  42              	.LFE7:
  43              		.size	_idle_thread, .-_idle_thread
  44 0002 00BFAFF3 		.section	.text.chSysInit,"ax",%progbits
  44      0080AFF3 
  44      0080AFF3 
  44      0080
  45              		.align	2
  46              		.p2align 4,,15
  47              		.global	chSysInit
  48              		.thumb
  49              		.thumb_func
  50              		.type	chSysInit, %function
ARM GAS  /tmp/ccUzcCcp.s 			page 2


  51              	chSysInit:
  52              	.LFB8:
  53              		.loc 1 81 0
  54              		.cfi_startproc
  55              		@ args = 0, pretend = 0, frame = 0
  56              		@ frame_needed = 0, uses_anonymous_args = 0
  57              		.loc 1 81 0
  58 0000 10B5     		push	{r4, lr}
  59              	.LCFI0:
  60              		.cfi_def_cfa_offset 8
  61              		.loc 1 84 0
  62 0002 0022     		movs	r2, #0
  63 0004 4FF46D40 		mov	r0, #60672
  64 0008 C0F2FA52 		movt	r2, 1530
  65 000c CEF20000 		movt	r0, 57344
  66 0010 C260     		str	r2, [r0, #12]
  67              		.loc 1 81 0
  68 0012 82B0     		sub	sp, sp, #8
  69              	.LCFI1:
  70              		.cfi_def_cfa_offset 16
  71              		.loc 1 84 0
  72 0014 0720     		movs	r0, #7
  73 0016 1021     		movs	r1, #16
  74              		.cfi_offset 14, -4
  75              		.cfi_offset 4, -8
  76 0018 FFF7FEFF 		bl	NVICSetSystemHandlerPriority
  77 001c 0B20     		movs	r0, #11
  78 001e 8021     		movs	r1, #128
  79 0020 FFF7FEFF 		bl	NVICSetSystemHandlerPriority
  80              		.loc 1 85 0
  81 0024 FFF7FEFF 		bl	scheduler_init
  82              		.loc 1 86 0
  83 0028 FFF7FEFF 		bl	vt_init
  84              		.loc 1 88 0
  85 002c FFF7FEFF 		bl	core_init
  86              		.loc 1 91 0
  87 0030 FFF7FEFF 		bl	heap_init
  88              		.loc 1 98 0
  89 0034 40F20000 		movw	r0, #:lower16:.LANCHOR0
  90 0038 4021     		movs	r1, #64
  91 003a C0F20000 		movt	r0, #:upper16:.LANCHOR0
  92 003e FFF7FEFF 		bl	_thread_init
  93 0042 40F20003 		movw	r3, #:lower16:rlist
  94 0046 C0F20003 		movt	r3, #:upper16:rlist
  95              		.loc 1 99 0
  96 004a 0122     		movs	r2, #1
  97              		.loc 1 98 0
  98 004c D861     		str	r0, [r3, #28]
  99              		.loc 1 99 0
 100 004e 0276     		strb	r2, [r0, #24]
 101              	.LBB2:
 102              		.loc 1 100 0
 103 0050 0023     		movs	r3, #0
 104              	.LVL1:
 105              	@ 100 "chibios/os/kernel/src/chsys.c" 1
 106 0052 83F31188 		msr     BASEPRI, r3                    
 107 0056 62B6     		cpsie   i
ARM GAS  /tmp/ccUzcCcp.s 			page 3


 108              	@ 0 "" 2
 109              	.LVL2:
 110              		.thumb
 111              	.LBE2:
 112              		.loc 1 105 0
 113 0058 40F20000 		movw	r0, #:lower16:_idle_thread_wa
 114 005c 1C46     		mov	r4, r3
 115 005e 40F20003 		movw	r3, #:lower16:_idle_thread
 116              	.LVL3:
 117 0062 A021     		movs	r1, #160
 118 0064 C0F20003 		movt	r3, #:upper16:_idle_thread
 119 0068 C0F20000 		movt	r0, #:upper16:_idle_thread_wa
 120 006c 0094     		str	r4, [sp, #0]
 121              	.LVL4:
 122 006e FFF7FEFF 		bl	chThdCreateStatic
 123              		.loc 1 107 0
 124 0072 02B0     		add	sp, sp, #8
 125 0074 10BD     		pop	{r4, pc}
 126              		.cfi_endproc
 127              	.LFE8:
 128              		.size	chSysInit, .-chSysInit
 129 0076 00BFAFF3 		.section	.text.chSysTimerHandlerI,"ax",%progbits
 129      0080AFF3 
 129      0080
 130              		.align	2
 131              		.p2align 4,,15
 132              		.global	chSysTimerHandlerI
 133              		.thumb
 134              		.thumb_func
 135              		.type	chSysTimerHandlerI, %function
 136              	chSysTimerHandlerI:
 137              	.LFB9:
 138              		.loc 1 120 0
 139              		.cfi_startproc
 140              		@ args = 0, pretend = 0, frame = 0
 141              		@ frame_needed = 0, uses_anonymous_args = 0
 142              		.loc 1 124 0
 143 0000 40F20003 		movw	r3, #:lower16:rlist
 144 0004 C0F20003 		movt	r3, #:upper16:rlist
 145 0008 9A69     		ldr	r2, [r3, #24]
 146              		.loc 1 120 0
 147 000a 70B5     		push	{r4, r5, r6, lr}
 148              	.LCFI2:
 149              		.cfi_def_cfa_offset 16
 150              		.loc 1 124 0
 151 000c 002A     		cmp	r2, #0
 152 000e 01DD     		ble	.L5
 153              		.cfi_offset 14, -4
 154              		.cfi_offset 6, -8
 155              		.cfi_offset 5, -12
 156              		.cfi_offset 4, -16
 157              		.loc 1 126 0
 158 0010 013A     		subs	r2, r2, #1
 159 0012 9A61     		str	r2, [r3, #24]
 160              	.L5:
 161              		.loc 1 129 0
 162 0014 DB69     		ldr	r3, [r3, #28]
ARM GAS  /tmp/ccUzcCcp.s 			page 4


 163              		.loc 1 131 0
 164 0016 40F20004 		movw	r4, #:lower16:vtlist
 165              		.loc 1 129 0
 166 001a D869     		ldr	r0, [r3, #28]
 167              		.loc 1 131 0
 168 001c C0F20004 		movt	r4, #:upper16:vtlist
 169              		.loc 1 129 0
 170 0020 421C     		adds	r2, r0, #1
 171 0022 DA61     		str	r2, [r3, #28]
 172              		.loc 1 131 0
 173 0024 E168     		ldr	r1, [r4, #12]
 174 0026 2368     		ldr	r3, [r4, #0]
 175 0028 481C     		adds	r0, r1, #1
 176 002a A342     		cmp	r3, r4
 177 002c E060     		str	r0, [r4, #12]
 178 002e 0FD0     		beq	.L4
 179              	.LBB3:
 180              		.loc 1 131 0 is_stmt 0 discriminator 1
 181 0030 9D68     		ldr	r5, [r3, #8]
 182 0032 013D     		subs	r5, r5, #1
 183 0034 9D60     		str	r5, [r3, #8]
 184              	.LVL5:
 185 0036 5DB9     		cbnz	r5, .L4
 186              		.loc 1 131 0
 187 0038 2646     		mov	r6, r4
 188              	.LVL6:
 189              	.L7:
 190              	.LBB4:
 191              		.loc 1 131 0 discriminator 3
 192 003a 1968     		ldr	r1, [r3, #0]
 193 003c DA68     		ldr	r2, [r3, #12]
 194              	.LVL7:
 195 003e 1869     		ldr	r0, [r3, #16]
 196 0040 DD60     		str	r5, [r3, #12]
 197 0042 4E60     		str	r6, [r1, #4]
 198 0044 2160     		str	r1, [r4, #0]
 199 0046 9047     		blx	r2
 200              	.LVL8:
 201              	.LBE4:
 202 0048 2368     		ldr	r3, [r4, #0]
 203              	.LVL9:
 204 004a 9968     		ldr	r1, [r3, #8]
 205 004c 0029     		cmp	r1, #0
 206 004e F4D0     		beq	.L7
 207              	.LVL10:
 208              	.L4:
 209 0050 70BD     		pop	{r4, r5, r6, pc}
 210              	.LBE3:
 211              		.cfi_endproc
 212              	.LFE9:
 213              		.size	chSysTimerHandlerI, .-chSysTimerHandlerI
 214              		.comm	_idle_thread_wa,160,8
 215 0052 00BFAFF3 		.section	.bss.mainthread.1971,"aw",%nobits
 215      0080AFF3 
 215      0080AFF3 
 215      0080
 216              		.align	2
ARM GAS  /tmp/ccUzcCcp.s 			page 5


 217              		.set	.LANCHOR0,. + 0
 218              		.type	mainthread.1971, %object
 219              		.size	mainthread.1971, 68
 220              	mainthread.1971:
 221 0000 00000000 		.space	68
 221      00000000 
 221      00000000 
 221      00000000 
 221      00000000 
 222              		.text
 223              	.Letext0:
 224              		.section	.debug_loc,"",%progbits
 225              	.Ldebug_loc0:
 226              	.LLST0:
 227 0000 00000000 		.4byte	.LFB8
 228 0004 02000000 		.4byte	.LCFI0
 229 0008 0200     		.2byte	0x2
 230 000a 7D       		.byte	0x7d
 231 000b 00       		.sleb128 0
 232 000c 02000000 		.4byte	.LCFI0
 233 0010 14000000 		.4byte	.LCFI1
 234 0014 0200     		.2byte	0x2
 235 0016 7D       		.byte	0x7d
 236 0017 08       		.sleb128 8
 237 0018 14000000 		.4byte	.LCFI1
 238 001c 76000000 		.4byte	.LFE8
 239 0020 0200     		.2byte	0x2
 240 0022 7D       		.byte	0x7d
 241 0023 10       		.sleb128 16
 242 0024 00000000 		.4byte	0x0
 243 0028 00000000 		.4byte	0x0
 244              	.LLST1:
 245 002c 58000000 		.4byte	.LVL2
 246 0030 62000000 		.4byte	.LVL3
 247 0034 0100     		.2byte	0x1
 248 0036 53       		.byte	0x53
 249 0037 6E000000 		.4byte	.LVL4
 250 003b 76000000 		.4byte	.LFE8
 251 003f 0100     		.2byte	0x1
 252 0041 54       		.byte	0x54
 253 0042 00000000 		.4byte	0x0
 254 0046 00000000 		.4byte	0x0
 255              	.LLST2:
 256 004a 00000000 		.4byte	.LFB9
 257 004e 0C000000 		.4byte	.LCFI2
 258 0052 0200     		.2byte	0x2
 259 0054 7D       		.byte	0x7d
 260 0055 00       		.sleb128 0
 261 0056 0C000000 		.4byte	.LCFI2
 262 005a 52000000 		.4byte	.LFE9
 263 005e 0200     		.2byte	0x2
 264 0060 7D       		.byte	0x7d
 265 0061 10       		.sleb128 16
 266 0062 00000000 		.4byte	0x0
 267 0066 00000000 		.4byte	0x0
 268              	.LLST3:
 269 006a 36000000 		.4byte	.LVL5
ARM GAS  /tmp/ccUzcCcp.s 			page 6


 270 006e 3A000000 		.4byte	.LVL6
 271 0072 0200     		.2byte	0x2
 272 0074 74       		.byte	0x74
 273 0075 00       		.sleb128 0
 274 0076 3A000000 		.4byte	.LVL6
 275 007a 47000000 		.4byte	.LVL8-1
 276 007e 0100     		.2byte	0x1
 277 0080 53       		.byte	0x53
 278 0081 4A000000 		.4byte	.LVL9
 279 0085 50000000 		.4byte	.LVL10
 280 0089 0200     		.2byte	0x2
 281 008b 74       		.byte	0x74
 282 008c 00       		.sleb128 0
 283 008d 00000000 		.4byte	0x0
 284 0091 00000000 		.4byte	0x0
 285              	.LLST4:
 286 0095 3E000000 		.4byte	.LVL7
 287 0099 47000000 		.4byte	.LVL8-1
 288 009d 0200     		.2byte	0x2
 289 009f 73       		.byte	0x73
 290 00a0 0C       		.sleb128 12
 291 00a1 00000000 		.4byte	0x0
 292 00a5 00000000 		.4byte	0x0
 293              		.file 2 "/home/dan/arm-cs-tools/lib/gcc/arm-none-eabi/4.5.1/../../../../arm-none-eabi/include/stdi
 294              		.file 3 "chibios/os/ports/GCC/ARMCMx/chtypes.h"
 295              		.file 4 "chibios/os/kernel/include/chlists.h"
 296              		.file 5 "chibios/os/kernel/include/chthreads.h"
 297              		.file 6 "chibios/os/ports/GCC/ARMCMx/nvic.h"
 298              		.file 7 "chibios/os/ports/GCC/ARMCMx/chcore.h"
 299              		.file 8 "chibios/os/ports/GCC/ARMCMx/chcore_v7m.h"
 300              		.file 9 "chibios/os/kernel/include/chvt.h"
 301              		.file 10 "chibios/os/kernel/include/chschd.h"
 302              		.file 11 "chibios/os/kernel/include/chmtx.h"
 303              		.file 12 "chibios/os/kernel/include/ch.h"
 304              		.section	.debug_info
 305 0000 11070000 		.4byte	0x711
 306 0004 0200     		.2byte	0x2
 307 0006 00000000 		.4byte	.Ldebug_abbrev0
 308 000a 04       		.byte	0x4
 309 000b 01       		.uleb128 0x1
 310 000c 38030000 		.4byte	.LASF91
 311 0010 01       		.byte	0x1
 312 0011 69030000 		.4byte	.LASF92
 313 0015 B9010000 		.4byte	.LASF93
 314 0019 00000000 		.4byte	0x0
 315 001d 00000000 		.4byte	0x0
 316 0021 00000000 		.4byte	.Ldebug_ranges0+0x0
 317 0025 00000000 		.4byte	.Ldebug_line0
 318 0029 02       		.uleb128 0x2
 319 002a 04       		.byte	0x4
 320 002b 05       		.byte	0x5
 321 002c 696E7400 		.ascii	"int\000"
 322 0030 03       		.uleb128 0x3
 323 0031 04       		.byte	0x4
 324 0032 07       		.byte	0x7
 325 0033 F9000000 		.4byte	.LASF0
 326 0037 03       		.uleb128 0x3
ARM GAS  /tmp/ccUzcCcp.s 			page 7


 327 0038 01       		.byte	0x1
 328 0039 06       		.byte	0x6
 329 003a 7E000000 		.4byte	.LASF1
 330 003e 04       		.uleb128 0x4
 331 003f 30030000 		.4byte	.LASF5
 332 0043 02       		.byte	0x2
 333 0044 2A       		.byte	0x2a
 334 0045 49000000 		.4byte	0x49
 335 0049 03       		.uleb128 0x3
 336 004a 01       		.byte	0x1
 337 004b 08       		.byte	0x8
 338 004c 48020000 		.4byte	.LASF2
 339 0050 03       		.uleb128 0x3
 340 0051 02       		.byte	0x2
 341 0052 05       		.byte	0x5
 342 0053 66020000 		.4byte	.LASF3
 343 0057 03       		.uleb128 0x3
 344 0058 02       		.byte	0x2
 345 0059 07       		.byte	0x7
 346 005a 3A010000 		.4byte	.LASF4
 347 005e 04       		.uleb128 0x4
 348 005f 40020000 		.4byte	.LASF6
 349 0063 02       		.byte	0x2
 350 0064 4F       		.byte	0x4f
 351 0065 69000000 		.4byte	0x69
 352 0069 03       		.uleb128 0x3
 353 006a 04       		.byte	0x4
 354 006b 05       		.byte	0x5
 355 006c AB000000 		.4byte	.LASF7
 356 0070 04       		.uleb128 0x4
 357 0071 AF020000 		.4byte	.LASF8
 358 0075 02       		.byte	0x2
 359 0076 50       		.byte	0x50
 360 0077 7B000000 		.4byte	0x7b
 361 007b 03       		.uleb128 0x3
 362 007c 04       		.byte	0x4
 363 007d 07       		.byte	0x7
 364 007e 0E010000 		.4byte	.LASF9
 365 0082 03       		.uleb128 0x3
 366 0083 08       		.byte	0x8
 367 0084 05       		.byte	0x5
 368 0085 70000000 		.4byte	.LASF10
 369 0089 04       		.uleb128 0x4
 370 008a 15000000 		.4byte	.LASF11
 371 008e 02       		.byte	0x2
 372 008f 78       		.byte	0x78
 373 0090 94000000 		.4byte	0x94
 374 0094 03       		.uleb128 0x3
 375 0095 08       		.byte	0x8
 376 0096 07       		.byte	0x7
 377 0097 38000000 		.4byte	.LASF12
 378 009b 04       		.uleb128 0x4
 379 009c 69010000 		.4byte	.LASF13
 380 00a0 03       		.byte	0x3
 381 00a1 2E       		.byte	0x2e
 382 00a2 3E000000 		.4byte	0x3e
 383 00a6 04       		.uleb128 0x4
ARM GAS  /tmp/ccUzcCcp.s 			page 8


 384 00a7 B4000000 		.4byte	.LASF14
 385 00ab 03       		.byte	0x3
 386 00ac 2F       		.byte	0x2f
 387 00ad 3E000000 		.4byte	0x3e
 388 00b1 04       		.uleb128 0x4
 389 00b2 29020000 		.4byte	.LASF15
 390 00b6 03       		.byte	0x3
 391 00b7 30       		.byte	0x30
 392 00b8 3E000000 		.4byte	0x3e
 393 00bc 04       		.uleb128 0x4
 394 00bd 38020000 		.4byte	.LASF16
 395 00c1 03       		.byte	0x3
 396 00c2 31       		.byte	0x31
 397 00c3 70000000 		.4byte	0x70
 398 00c7 04       		.uleb128 0x4
 399 00c8 52010000 		.4byte	.LASF17
 400 00cc 03       		.byte	0x3
 401 00cd 32       		.byte	0x32
 402 00ce 5E000000 		.4byte	0x5e
 403 00d2 04       		.uleb128 0x4
 404 00d3 7D010000 		.4byte	.LASF18
 405 00d7 03       		.byte	0x3
 406 00d8 34       		.byte	0x34
 407 00d9 70000000 		.4byte	0x70
 408 00dd 04       		.uleb128 0x4
 409 00de CC020000 		.4byte	.LASF19
 410 00e2 03       		.byte	0x3
 411 00e3 35       		.byte	0x35
 412 00e4 70000000 		.4byte	0x70
 413 00e8 04       		.uleb128 0x4
 414 00e9 F3000000 		.4byte	.LASF20
 415 00ed 03       		.byte	0x3
 416 00ee 36       		.byte	0x36
 417 00ef 5E000000 		.4byte	0x5e
 418 00f3 04       		.uleb128 0x4
 419 00f4 9D020000 		.4byte	.LASF21
 420 00f8 04       		.byte	0x4
 421 00f9 29       		.byte	0x29
 422 00fa FE000000 		.4byte	0xfe
 423 00fe 05       		.uleb128 0x5
 424 00ff 9D020000 		.4byte	.LASF21
 425 0103 44       		.byte	0x44
 426 0104 05       		.byte	0x5
 427 0105 2E       		.byte	0x2e
 428 0106 07020000 		.4byte	0x207
 429 010a 06       		.uleb128 0x6
 430 010b 8E020000 		.4byte	.LASF22
 431 010f 05       		.byte	0x5
 432 0110 2F       		.byte	0x2f
 433 0111 2C020000 		.4byte	0x22c
 434 0115 02       		.byte	0x2
 435 0116 23       		.byte	0x23
 436 0117 00       		.uleb128 0x0
 437 0118 06       		.uleb128 0x6
 438 0119 31020000 		.4byte	.LASF23
 439 011d 05       		.byte	0x5
 440 011e 31       		.byte	0x31
ARM GAS  /tmp/ccUzcCcp.s 			page 9


 441 011f 2C020000 		.4byte	0x22c
 442 0123 02       		.byte	0x2
 443 0124 23       		.byte	0x23
 444 0125 04       		.uleb128 0x4
 445 0126 06       		.uleb128 0x6
 446 0127 69000000 		.4byte	.LASF24
 447 012b 05       		.byte	0x5
 448 012c 33       		.byte	0x33
 449 012d BC000000 		.4byte	0xbc
 450 0131 02       		.byte	0x2
 451 0132 23       		.byte	0x23
 452 0133 08       		.uleb128 0x8
 453 0134 06       		.uleb128 0x6
 454 0135 63030000 		.4byte	.LASF25
 455 0139 05       		.byte	0x5
 456 013a 34       		.byte	0x34
 457 013b 6B030000 		.4byte	0x36b
 458 013f 02       		.byte	0x2
 459 0140 23       		.byte	0x23
 460 0141 0C       		.uleb128 0xc
 461 0142 06       		.uleb128 0x6
 462 0143 BD000000 		.4byte	.LASF26
 463 0147 05       		.byte	0x5
 464 0148 36       		.byte	0x36
 465 0149 2C020000 		.4byte	0x22c
 466 014d 02       		.byte	0x2
 467 014e 23       		.byte	0x23
 468 014f 10       		.uleb128 0x10
 469 0150 06       		.uleb128 0x6
 470 0151 EF010000 		.4byte	.LASF27
 471 0155 05       		.byte	0x5
 472 0156 37       		.byte	0x37
 473 0157 2C020000 		.4byte	0x22c
 474 015b 02       		.byte	0x2
 475 015c 23       		.byte	0x23
 476 015d 14       		.uleb128 0x14
 477 015e 06       		.uleb128 0x6
 478 015f 70020000 		.4byte	.LASF28
 479 0163 05       		.byte	0x5
 480 0164 3D       		.byte	0x3d
 481 0165 A6000000 		.4byte	0xa6
 482 0169 02       		.byte	0x2
 483 016a 23       		.byte	0x23
 484 016b 18       		.uleb128 0x18
 485 016c 06       		.uleb128 0x6
 486 016d 95020000 		.4byte	.LASF29
 487 0171 05       		.byte	0x5
 488 0172 41       		.byte	0x41
 489 0173 9B000000 		.4byte	0x9b
 490 0177 02       		.byte	0x2
 491 0178 23       		.byte	0x23
 492 0179 19       		.uleb128 0x19
 493 017a 06       		.uleb128 0x6
 494 017b 19030000 		.4byte	.LASF30
 495 017f 05       		.byte	0x5
 496 0180 46       		.byte	0x46
 497 0181 B1000000 		.4byte	0xb1
ARM GAS  /tmp/ccUzcCcp.s 			page 10


 498 0185 02       		.byte	0x2
 499 0186 23       		.byte	0x23
 500 0187 1A       		.uleb128 0x1a
 501 0188 06       		.uleb128 0x6
 502 0189 F4020000 		.4byte	.LASF31
 503 018d 05       		.byte	0x5
 504 018e 53       		.byte	0x53
 505 018f D4040000 		.4byte	0x4d4
 506 0193 02       		.byte	0x2
 507 0194 23       		.byte	0x23
 508 0195 1C       		.uleb128 0x1c
 509 0196 07       		.uleb128 0x7
 510 0197 705F7500 		.ascii	"p_u\000"
 511 019b 05       		.byte	0x5
 512 019c 78       		.byte	0x78
 513 019d A2050000 		.4byte	0x5a2
 514 01a1 02       		.byte	0x2
 515 01a2 23       		.byte	0x23
 516 01a3 20       		.uleb128 0x20
 517 01a4 06       		.uleb128 0x6
 518 01a5 A2010000 		.4byte	.LASF32
 519 01a9 05       		.byte	0x5
 520 01aa 7D       		.byte	0x7d
 521 01ab 54020000 		.4byte	0x254
 522 01af 02       		.byte	0x2
 523 01b0 23       		.byte	0x23
 524 01b1 24       		.uleb128 0x24
 525 01b2 06       		.uleb128 0x6
 526 01b3 07030000 		.4byte	.LASF33
 527 01b7 05       		.byte	0x5
 528 01b8 83       		.byte	0x83
 529 01b9 32020000 		.4byte	0x232
 530 01bd 02       		.byte	0x2
 531 01be 23       		.byte	0x23
 532 01bf 28       		.uleb128 0x28
 533 01c0 06       		.uleb128 0x6
 534 01c1 08000000 		.4byte	.LASF34
 535 01c5 05       		.byte	0x5
 536 01c6 87       		.byte	0x87
 537 01c7 C7000000 		.4byte	0xc7
 538 01cb 02       		.byte	0x2
 539 01cc 23       		.byte	0x23
 540 01cd 30       		.uleb128 0x30
 541 01ce 06       		.uleb128 0x6
 542 01cf A4020000 		.4byte	.LASF35
 543 01d3 05       		.byte	0x5
 544 01d4 8D       		.byte	0x8d
 545 01d5 D2000000 		.4byte	0xd2
 546 01d9 02       		.byte	0x2
 547 01da 23       		.byte	0x23
 548 01db 34       		.uleb128 0x34
 549 01dc 06       		.uleb128 0x6
 550 01dd 5C020000 		.4byte	.LASF36
 551 01e1 05       		.byte	0x5
 552 01e2 94       		.byte	0x94
 553 01e3 D7050000 		.4byte	0x5d7
 554 01e7 02       		.byte	0x2
ARM GAS  /tmp/ccUzcCcp.s 			page 11


 555 01e8 23       		.byte	0x23
 556 01e9 38       		.uleb128 0x38
 557 01ea 06       		.uleb128 0x6
 558 01eb D6020000 		.4byte	.LASF37
 559 01ef 05       		.byte	0x5
 560 01f0 98       		.byte	0x98
 561 01f1 BC000000 		.4byte	0xbc
 562 01f5 02       		.byte	0x2
 563 01f6 23       		.byte	0x23
 564 01f7 3C       		.uleb128 0x3c
 565 01f8 06       		.uleb128 0x6
 566 01f9 94000000 		.4byte	.LASF38
 567 01fd 05       		.byte	0x5
 568 01fe 9E       		.byte	0x9e
 569 01ff 69030000 		.4byte	0x369
 570 0203 02       		.byte	0x2
 571 0204 23       		.byte	0x23
 572 0205 40       		.uleb128 0x40
 573 0206 00       		.byte	0x0
 574 0207 08       		.uleb128 0x8
 575 0208 08       		.byte	0x8
 576 0209 04       		.byte	0x4
 577 020a 60       		.byte	0x60
 578 020b 2C020000 		.4byte	0x22c
 579 020f 06       		.uleb128 0x6
 580 0210 8E020000 		.4byte	.LASF22
 581 0214 04       		.byte	0x4
 582 0215 61       		.byte	0x61
 583 0216 2C020000 		.4byte	0x22c
 584 021a 02       		.byte	0x2
 585 021b 23       		.byte	0x23
 586 021c 00       		.uleb128 0x0
 587 021d 06       		.uleb128 0x6
 588 021e 31020000 		.4byte	.LASF23
 589 0222 04       		.byte	0x4
 590 0223 63       		.byte	0x63
 591 0224 2C020000 		.4byte	0x22c
 592 0228 02       		.byte	0x2
 593 0229 23       		.byte	0x23
 594 022a 04       		.uleb128 0x4
 595 022b 00       		.byte	0x0
 596 022c 09       		.uleb128 0x9
 597 022d 04       		.byte	0x4
 598 022e F3000000 		.4byte	0xf3
 599 0232 04       		.uleb128 0x4
 600 0233 FD010000 		.4byte	.LASF39
 601 0237 04       		.byte	0x4
 602 0238 65       		.byte	0x65
 603 0239 07020000 		.4byte	0x207
 604 023d 08       		.uleb128 0x8
 605 023e 04       		.byte	0x4
 606 023f 04       		.byte	0x4
 607 0240 6A       		.byte	0x6a
 608 0241 54020000 		.4byte	0x254
 609 0245 06       		.uleb128 0x6
 610 0246 8E020000 		.4byte	.LASF22
 611 024a 04       		.byte	0x4
ARM GAS  /tmp/ccUzcCcp.s 			page 12


 612 024b 6C       		.byte	0x6c
 613 024c 2C020000 		.4byte	0x22c
 614 0250 02       		.byte	0x2
 615 0251 23       		.byte	0x23
 616 0252 00       		.uleb128 0x0
 617 0253 00       		.byte	0x0
 618 0254 04       		.uleb128 0x4
 619 0255 71010000 		.4byte	.LASF40
 620 0259 04       		.byte	0x4
 621 025a 6F       		.byte	0x6f
 622 025b 3D020000 		.4byte	0x23d
 623 025f 0A       		.uleb128 0xa
 624 0260 7B000000 		.4byte	0x7b
 625 0264 08       		.uleb128 0x8
 626 0265 40       		.byte	0x40
 627 0266 06       		.byte	0x6
 628 0267 88       		.byte	0x88
 629 0268 31030000 		.4byte	0x331
 630 026c 06       		.uleb128 0x6
 631 026d 63000000 		.4byte	.LASF41
 632 0271 06       		.byte	0x6
 633 0272 89       		.byte	0x89
 634 0273 5F020000 		.4byte	0x25f
 635 0277 02       		.byte	0x2
 636 0278 23       		.byte	0x23
 637 0279 00       		.uleb128 0x0
 638 027a 06       		.uleb128 0x6
 639 027b 4D010000 		.4byte	.LASF42
 640 027f 06       		.byte	0x6
 641 0280 8A       		.byte	0x8a
 642 0281 5F020000 		.4byte	0x25f
 643 0285 02       		.byte	0x2
 644 0286 23       		.byte	0x23
 645 0287 04       		.uleb128 0x4
 646 0288 06       		.uleb128 0x6
 647 0289 20010000 		.4byte	.LASF43
 648 028d 06       		.byte	0x6
 649 028e 8B       		.byte	0x8b
 650 028f 5F020000 		.4byte	0x25f
 651 0293 02       		.byte	0x2
 652 0294 23       		.byte	0x23
 653 0295 08       		.uleb128 0x8
 654 0296 06       		.uleb128 0x6
 655 0297 58010000 		.4byte	.LASF44
 656 029b 06       		.byte	0x6
 657 029c 8C       		.byte	0x8c
 658 029d 5F020000 		.4byte	0x25f
 659 02a1 02       		.byte	0x2
 660 02a2 23       		.byte	0x23
 661 02a3 0C       		.uleb128 0xc
 662 02a4 07       		.uleb128 0x7
 663 02a5 53435200 		.ascii	"SCR\000"
 664 02a9 06       		.byte	0x6
 665 02aa 8D       		.byte	0x8d
 666 02ab 5F020000 		.4byte	0x25f
 667 02af 02       		.byte	0x2
 668 02b0 23       		.byte	0x23
ARM GAS  /tmp/ccUzcCcp.s 			page 13


 669 02b1 10       		.uleb128 0x10
 670 02b2 07       		.uleb128 0x7
 671 02b3 43435200 		.ascii	"CCR\000"
 672 02b7 06       		.byte	0x6
 673 02b8 8E       		.byte	0x8e
 674 02b9 5F020000 		.4byte	0x25f
 675 02bd 02       		.byte	0x2
 676 02be 23       		.byte	0x23
 677 02bf 14       		.uleb128 0x14
 678 02c0 06       		.uleb128 0x6
 679 02c1 FB020000 		.4byte	.LASF45
 680 02c5 06       		.byte	0x6
 681 02c6 8F       		.byte	0x8f
 682 02c7 41030000 		.4byte	0x341
 683 02cb 02       		.byte	0x2
 684 02cc 23       		.byte	0x23
 685 02cd 18       		.uleb128 0x18
 686 02ce 06       		.uleb128 0x6
 687 02cf 56020000 		.4byte	.LASF46
 688 02d3 06       		.byte	0x6
 689 02d4 90       		.byte	0x90
 690 02d5 5F020000 		.4byte	0x25f
 691 02d9 02       		.byte	0x2
 692 02da 23       		.byte	0x23
 693 02db 24       		.uleb128 0x24
 694 02dc 06       		.uleb128 0x6
 695 02dd B4010000 		.4byte	.LASF47
 696 02e1 06       		.byte	0x6
 697 02e2 91       		.byte	0x91
 698 02e3 5F020000 		.4byte	0x25f
 699 02e7 02       		.byte	0x2
 700 02e8 23       		.byte	0x23
 701 02e9 28       		.uleb128 0x28
 702 02ea 06       		.uleb128 0x6
 703 02eb 56030000 		.4byte	.LASF48
 704 02ef 06       		.byte	0x6
 705 02f0 92       		.byte	0x92
 706 02f1 5F020000 		.4byte	0x25f
 707 02f5 02       		.byte	0x2
 708 02f6 23       		.byte	0x23
 709 02f7 2C       		.uleb128 0x2c
 710 02f8 06       		.uleb128 0x6
 711 02f9 5E010000 		.4byte	.LASF49
 712 02fd 06       		.byte	0x6
 713 02fe 93       		.byte	0x93
 714 02ff 5F020000 		.4byte	0x25f
 715 0303 02       		.byte	0x2
 716 0304 23       		.byte	0x23
 717 0305 30       		.uleb128 0x30
 718 0306 06       		.uleb128 0x6
 719 0307 63010000 		.4byte	.LASF50
 720 030b 06       		.byte	0x6
 721 030c 94       		.byte	0x94
 722 030d 5F020000 		.4byte	0x25f
 723 0311 02       		.byte	0x2
 724 0312 23       		.byte	0x23
 725 0313 34       		.uleb128 0x34
ARM GAS  /tmp/ccUzcCcp.s 			page 14


 726 0314 06       		.uleb128 0x6
 727 0315 D5000000 		.4byte	.LASF51
 728 0319 06       		.byte	0x6
 729 031a 95       		.byte	0x95
 730 031b 5F020000 		.4byte	0x25f
 731 031f 02       		.byte	0x2
 732 0320 23       		.byte	0x23
 733 0321 38       		.uleb128 0x38
 734 0322 06       		.uleb128 0x6
 735 0323 C0020000 		.4byte	.LASF52
 736 0327 06       		.byte	0x6
 737 0328 96       		.byte	0x96
 738 0329 5F020000 		.4byte	0x25f
 739 032d 02       		.byte	0x2
 740 032e 23       		.byte	0x23
 741 032f 3C       		.uleb128 0x3c
 742 0330 00       		.byte	0x0
 743 0331 0B       		.uleb128 0xb
 744 0332 7B000000 		.4byte	0x7b
 745 0336 41030000 		.4byte	0x341
 746 033a 0C       		.uleb128 0xc
 747 033b 30000000 		.4byte	0x30
 748 033f 02       		.byte	0x2
 749 0340 00       		.byte	0x0
 750 0341 0A       		.uleb128 0xa
 751 0342 31030000 		.4byte	0x331
 752 0346 04       		.uleb128 0x4
 753 0347 78020000 		.4byte	.LASF53
 754 034b 06       		.byte	0x6
 755 034c 97       		.byte	0x97
 756 034d 64020000 		.4byte	0x264
 757 0351 0D       		.uleb128 0xd
 758 0352 8F010000 		.4byte	.LASF54
 759 0356 07       		.byte	0x7
 760 0357 0401     		.2byte	0x104
 761 0359 89000000 		.4byte	0x89
 762 035d 0D       		.uleb128 0xd
 763 035e E2000000 		.4byte	.LASF55
 764 0362 07       		.byte	0x7
 765 0363 0F01     		.2byte	0x10f
 766 0365 69030000 		.4byte	0x369
 767 0369 0E       		.uleb128 0xe
 768 036a 04       		.byte	0x4
 769 036b 0F       		.uleb128 0xf
 770 036c 32010000 		.4byte	.LASF56
 771 0370 04       		.byte	0x4
 772 0371 07       		.byte	0x7
 773 0372 2B01     		.2byte	0x12b
 774 0374 88030000 		.4byte	0x388
 775 0378 10       		.uleb128 0x10
 776 0379 72313300 		.ascii	"r13\000"
 777 037d 07       		.byte	0x7
 778 037e 2C01     		.2byte	0x12c
 779 0380 0C040000 		.4byte	0x40c
 780 0384 02       		.byte	0x2
 781 0385 23       		.byte	0x23
 782 0386 00       		.uleb128 0x0
ARM GAS  /tmp/ccUzcCcp.s 			page 15


 783 0387 00       		.byte	0x0
 784 0388 05       		.uleb128 0x5
 785 0389 00030000 		.4byte	.LASF57
 786 038d 24       		.byte	0x24
 787 038e 08       		.byte	0x8
 788 038f 36       		.byte	0x36
 789 0390 0C040000 		.4byte	0x40c
 790 0394 07       		.uleb128 0x7
 791 0395 723400   		.ascii	"r4\000"
 792 0398 08       		.byte	0x8
 793 0399 37       		.byte	0x37
 794 039a 5D030000 		.4byte	0x35d
 795 039e 02       		.byte	0x2
 796 039f 23       		.byte	0x23
 797 03a0 00       		.uleb128 0x0
 798 03a1 07       		.uleb128 0x7
 799 03a2 723500   		.ascii	"r5\000"
 800 03a5 08       		.byte	0x8
 801 03a6 38       		.byte	0x38
 802 03a7 5D030000 		.4byte	0x35d
 803 03ab 02       		.byte	0x2
 804 03ac 23       		.byte	0x23
 805 03ad 04       		.uleb128 0x4
 806 03ae 07       		.uleb128 0x7
 807 03af 723600   		.ascii	"r6\000"
 808 03b2 08       		.byte	0x8
 809 03b3 39       		.byte	0x39
 810 03b4 5D030000 		.4byte	0x35d
 811 03b8 02       		.byte	0x2
 812 03b9 23       		.byte	0x23
 813 03ba 08       		.uleb128 0x8
 814 03bb 07       		.uleb128 0x7
 815 03bc 723700   		.ascii	"r7\000"
 816 03bf 08       		.byte	0x8
 817 03c0 3B       		.byte	0x3b
 818 03c1 5D030000 		.4byte	0x35d
 819 03c5 02       		.byte	0x2
 820 03c6 23       		.byte	0x23
 821 03c7 0C       		.uleb128 0xc
 822 03c8 07       		.uleb128 0x7
 823 03c9 723800   		.ascii	"r8\000"
 824 03cc 08       		.byte	0x8
 825 03cd 3D       		.byte	0x3d
 826 03ce 5D030000 		.4byte	0x35d
 827 03d2 02       		.byte	0x2
 828 03d3 23       		.byte	0x23
 829 03d4 10       		.uleb128 0x10
 830 03d5 07       		.uleb128 0x7
 831 03d6 723900   		.ascii	"r9\000"
 832 03d9 08       		.byte	0x8
 833 03da 3E       		.byte	0x3e
 834 03db 5D030000 		.4byte	0x35d
 835 03df 02       		.byte	0x2
 836 03e0 23       		.byte	0x23
 837 03e1 14       		.uleb128 0x14
 838 03e2 07       		.uleb128 0x7
 839 03e3 72313000 		.ascii	"r10\000"
ARM GAS  /tmp/ccUzcCcp.s 			page 16


 840 03e7 08       		.byte	0x8
 841 03e8 3F       		.byte	0x3f
 842 03e9 5D030000 		.4byte	0x35d
 843 03ed 02       		.byte	0x2
 844 03ee 23       		.byte	0x23
 845 03ef 18       		.uleb128 0x18
 846 03f0 07       		.uleb128 0x7
 847 03f1 72313100 		.ascii	"r11\000"
 848 03f5 08       		.byte	0x8
 849 03f6 40       		.byte	0x40
 850 03f7 5D030000 		.4byte	0x35d
 851 03fb 02       		.byte	0x2
 852 03fc 23       		.byte	0x23
 853 03fd 1C       		.uleb128 0x1c
 854 03fe 07       		.uleb128 0x7
 855 03ff 6C7200   		.ascii	"lr\000"
 856 0402 08       		.byte	0x8
 857 0403 41       		.byte	0x41
 858 0404 5D030000 		.4byte	0x35d
 859 0408 02       		.byte	0x2
 860 0409 23       		.byte	0x23
 861 040a 20       		.uleb128 0x20
 862 040b 00       		.byte	0x0
 863 040c 09       		.uleb128 0x9
 864 040d 04       		.byte	0x4
 865 040e 88030000 		.4byte	0x388
 866 0412 04       		.uleb128 0x4
 867 0413 E1020000 		.4byte	.LASF58
 868 0417 09       		.byte	0x9
 869 0418 3E       		.byte	0x3e
 870 0419 1D040000 		.4byte	0x41d
 871 041d 09       		.uleb128 0x9
 872 041e 04       		.byte	0x4
 873 041f 23040000 		.4byte	0x423
 874 0423 11       		.uleb128 0x11
 875 0424 01       		.byte	0x1
 876 0425 2F040000 		.4byte	0x42f
 877 0429 12       		.uleb128 0x12
 878 042a 69030000 		.4byte	0x369
 879 042e 00       		.byte	0x0
 880 042f 04       		.uleb128 0x4
 881 0430 25010000 		.4byte	.LASF59
 882 0434 09       		.byte	0x9
 883 0435 43       		.byte	0x43
 884 0436 3A040000 		.4byte	0x43a
 885 043a 05       		.uleb128 0x5
 886 043b 25010000 		.4byte	.LASF59
 887 043f 14       		.byte	0x14
 888 0440 09       		.byte	0x9
 889 0441 4A       		.byte	0x4a
 890 0442 8D040000 		.4byte	0x48d
 891 0446 06       		.uleb128 0x6
 892 0447 06010000 		.4byte	.LASF60
 893 044b 09       		.byte	0x9
 894 044c 4B       		.byte	0x4b
 895 044d 8D040000 		.4byte	0x48d
 896 0451 02       		.byte	0x2
ARM GAS  /tmp/ccUzcCcp.s 			page 17


 897 0452 23       		.byte	0x23
 898 0453 00       		.uleb128 0x0
 899 0454 06       		.uleb128 0x6
 900 0455 EB000000 		.4byte	.LASF61
 901 0459 09       		.byte	0x9
 902 045a 4D       		.byte	0x4d
 903 045b 8D040000 		.4byte	0x48d
 904 045f 02       		.byte	0x2
 905 0460 23       		.byte	0x23
 906 0461 04       		.uleb128 0x4
 907 0462 06       		.uleb128 0x6
 908 0463 9A010000 		.4byte	.LASF62
 909 0467 09       		.byte	0x9
 910 0468 4F       		.byte	0x4f
 911 0469 DD000000 		.4byte	0xdd
 912 046d 02       		.byte	0x2
 913 046e 23       		.byte	0x23
 914 046f 08       		.uleb128 0x8
 915 0470 06       		.uleb128 0x6
 916 0471 AC010000 		.4byte	.LASF63
 917 0475 09       		.byte	0x9
 918 0476 50       		.byte	0x50
 919 0477 12040000 		.4byte	0x412
 920 047b 02       		.byte	0x2
 921 047c 23       		.byte	0x23
 922 047d 0C       		.uleb128 0xc
 923 047e 06       		.uleb128 0x6
 924 047f 12030000 		.4byte	.LASF64
 925 0483 09       		.byte	0x9
 926 0484 52       		.byte	0x52
 927 0485 69030000 		.4byte	0x369
 928 0489 02       		.byte	0x2
 929 048a 23       		.byte	0x23
 930 048b 10       		.uleb128 0x10
 931 048c 00       		.byte	0x0
 932 048d 09       		.uleb128 0x9
 933 048e 04       		.byte	0x4
 934 048f 2F040000 		.4byte	0x42f
 935 0493 08       		.uleb128 0x8
 936 0494 10       		.byte	0x10
 937 0495 09       		.byte	0x9
 938 0496 5C       		.byte	0x5c
 939 0497 D4040000 		.4byte	0x4d4
 940 049b 06       		.uleb128 0x6
 941 049c 06010000 		.4byte	.LASF60
 942 04a0 09       		.byte	0x9
 943 04a1 5D       		.byte	0x5d
 944 04a2 8D040000 		.4byte	0x48d
 945 04a6 02       		.byte	0x2
 946 04a7 23       		.byte	0x23
 947 04a8 00       		.uleb128 0x0
 948 04a9 06       		.uleb128 0x6
 949 04aa EB000000 		.4byte	.LASF61
 950 04ae 09       		.byte	0x9
 951 04af 5F       		.byte	0x5f
 952 04b0 8D040000 		.4byte	0x48d
 953 04b4 02       		.byte	0x2
ARM GAS  /tmp/ccUzcCcp.s 			page 18


 954 04b5 23       		.byte	0x23
 955 04b6 04       		.uleb128 0x4
 956 04b7 06       		.uleb128 0x6
 957 04b8 9A010000 		.4byte	.LASF62
 958 04bc 09       		.byte	0x9
 959 04bd 61       		.byte	0x61
 960 04be DD000000 		.4byte	0xdd
 961 04c2 02       		.byte	0x2
 962 04c3 23       		.byte	0x23
 963 04c4 08       		.uleb128 0x8
 964 04c5 06       		.uleb128 0x6
 965 04c6 44030000 		.4byte	.LASF65
 966 04ca 09       		.byte	0x9
 967 04cb 62       		.byte	0x62
 968 04cc D4040000 		.4byte	0x4d4
 969 04d0 02       		.byte	0x2
 970 04d1 23       		.byte	0x23
 971 04d2 0C       		.uleb128 0xc
 972 04d3 00       		.byte	0x0
 973 04d4 0A       		.uleb128 0xa
 974 04d5 DD000000 		.4byte	0xdd
 975 04d9 04       		.uleb128 0x4
 976 04da 4F030000 		.4byte	.LASF66
 977 04de 09       		.byte	0x9
 978 04df 63       		.byte	0x63
 979 04e0 93040000 		.4byte	0x493
 980 04e4 08       		.uleb128 0x8
 981 04e5 20       		.byte	0x20
 982 04e6 0A       		.byte	0xa
 983 04e7 4F       		.byte	0x4f
 984 04e8 4F050000 		.4byte	0x54f
 985 04ec 06       		.uleb128 0x6
 986 04ed B8020000 		.4byte	.LASF67
 987 04f1 0A       		.byte	0xa
 988 04f2 50       		.byte	0x50
 989 04f3 32020000 		.4byte	0x232
 990 04f7 02       		.byte	0x2
 991 04f8 23       		.byte	0x23
 992 04f9 00       		.uleb128 0x0
 993 04fa 06       		.uleb128 0x6
 994 04fb 80020000 		.4byte	.LASF68
 995 04ff 0A       		.byte	0xa
 996 0500 51       		.byte	0x51
 997 0501 BC000000 		.4byte	0xbc
 998 0505 02       		.byte	0x2
 999 0506 23       		.byte	0x23
 1000 0507 08       		.uleb128 0x8
 1001 0508 06       		.uleb128 0x6
 1002 0509 F7010000 		.4byte	.LASF69
 1003 050d 0A       		.byte	0xa
 1004 050e 53       		.byte	0x53
 1005 050f 6B030000 		.4byte	0x36b
 1006 0513 02       		.byte	0x2
 1007 0514 23       		.byte	0x23
 1008 0515 0C       		.uleb128 0xc
 1009 0516 06       		.uleb128 0x6
 1010 0517 DA000000 		.4byte	.LASF70
ARM GAS  /tmp/ccUzcCcp.s 			page 19


 1011 051b 0A       		.byte	0xa
 1012 051c 56       		.byte	0x56
 1013 051d 2C020000 		.4byte	0x22c
 1014 0521 02       		.byte	0x2
 1015 0522 23       		.byte	0x23
 1016 0523 10       		.uleb128 0x10
 1017 0524 06       		.uleb128 0x6
 1018 0525 14020000 		.4byte	.LASF71
 1019 0529 0A       		.byte	0xa
 1020 052a 57       		.byte	0x57
 1021 052b 2C020000 		.4byte	0x22c
 1022 052f 02       		.byte	0x2
 1023 0530 23       		.byte	0x23
 1024 0531 14       		.uleb128 0x14
 1025 0532 06       		.uleb128 0x6
 1026 0533 EA020000 		.4byte	.LASF72
 1027 0537 0A       		.byte	0xa
 1028 0538 5B       		.byte	0x5b
 1029 0539 E8000000 		.4byte	0xe8
 1030 053d 02       		.byte	0x2
 1031 053e 23       		.byte	0x23
 1032 053f 18       		.uleb128 0x18
 1033 0540 06       		.uleb128 0x6
 1034 0541 0A020000 		.4byte	.LASF73
 1035 0545 0A       		.byte	0xa
 1036 0546 5E       		.byte	0x5e
 1037 0547 2C020000 		.4byte	0x22c
 1038 054b 02       		.byte	0x2
 1039 054c 23       		.byte	0x23
 1040 054d 1C       		.uleb128 0x1c
 1041 054e 00       		.byte	0x0
 1042 054f 04       		.uleb128 0x4
 1043 0550 20030000 		.4byte	.LASF74
 1044 0554 0A       		.byte	0xa
 1045 0555 61       		.byte	0x61
 1046 0556 E4040000 		.4byte	0x4e4
 1047 055a 05       		.uleb128 0x5
 1048 055b 89010000 		.4byte	.LASF75
 1049 055f 10       		.byte	0x10
 1050 0560 0B       		.byte	0xb
 1051 0561 2B       		.byte	0x2b
 1052 0562 91050000 		.4byte	0x591
 1053 0566 06       		.uleb128 0x6
 1054 0567 9C000000 		.4byte	.LASF76
 1055 056b 0B       		.byte	0xb
 1056 056c 2C       		.byte	0x2c
 1057 056d 32020000 		.4byte	0x232
 1058 0571 02       		.byte	0x2
 1059 0572 23       		.byte	0x23
 1060 0573 00       		.uleb128 0x0
 1061 0574 06       		.uleb128 0x6
 1062 0575 5B030000 		.4byte	.LASF77
 1063 0579 0B       		.byte	0xb
 1064 057a 2E       		.byte	0x2e
 1065 057b 2C020000 		.4byte	0x22c
 1066 057f 02       		.byte	0x2
 1067 0580 23       		.byte	0x23
ARM GAS  /tmp/ccUzcCcp.s 			page 20


 1068 0581 08       		.uleb128 0x8
 1069 0582 06       		.uleb128 0x6
 1070 0583 C5020000 		.4byte	.LASF78
 1071 0587 0B       		.byte	0xb
 1072 0588 30       		.byte	0x30
 1073 0589 91050000 		.4byte	0x591
 1074 058d 02       		.byte	0x2
 1075 058e 23       		.byte	0x23
 1076 058f 0C       		.uleb128 0xc
 1077 0590 00       		.byte	0x0
 1078 0591 09       		.uleb128 0x9
 1079 0592 04       		.byte	0x4
 1080 0593 5A050000 		.4byte	0x55a
 1081 0597 04       		.uleb128 0x4
 1082 0598 89010000 		.4byte	.LASF75
 1083 059c 0B       		.byte	0xb
 1084 059d 32       		.byte	0x32
 1085 059e 5A050000 		.4byte	0x55a
 1086 05a2 13       		.uleb128 0x13
 1087 05a3 04       		.byte	0x4
 1088 05a4 05       		.byte	0x5
 1089 05a5 5A       		.byte	0x5a
 1090 05a6 D7050000 		.4byte	0x5d7
 1091 05aa 14       		.uleb128 0x14
 1092 05ab 0E000000 		.4byte	.LASF79
 1093 05af 05       		.byte	0x5
 1094 05b0 61       		.byte	0x61
 1095 05b1 C7000000 		.4byte	0xc7
 1096 05b5 14       		.uleb128 0x14
 1097 05b6 4F000000 		.4byte	.LASF80
 1098 05ba 05       		.byte	0x5
 1099 05bb 68       		.byte	0x68
 1100 05bc C7000000 		.4byte	0xc7
 1101 05c0 14       		.uleb128 0x14
 1102 05c1 A4000000 		.4byte	.LASF81
 1103 05c5 05       		.byte	0x5
 1104 05c6 6F       		.byte	0x6f
 1105 05c7 69030000 		.4byte	0x369
 1106 05cb 14       		.uleb128 0x14
 1107 05cc 87020000 		.4byte	.LASF82
 1108 05d0 05       		.byte	0x5
 1109 05d1 76       		.byte	0x76
 1110 05d2 D2000000 		.4byte	0xd2
 1111 05d6 00       		.byte	0x0
 1112 05d7 09       		.uleb128 0x9
 1113 05d8 04       		.byte	0x4
 1114 05d9 97050000 		.4byte	0x597
 1115 05dd 04       		.uleb128 0x4
 1116 05de 00000000 		.4byte	.LASF83
 1117 05e2 05       		.byte	0x5
 1118 05e3 CB       		.byte	0xcb
 1119 05e4 E8050000 		.4byte	0x5e8
 1120 05e8 09       		.uleb128 0x9
 1121 05e9 04       		.byte	0x4
 1122 05ea EE050000 		.4byte	0x5ee
 1123 05ee 15       		.uleb128 0x15
 1124 05ef 01       		.byte	0x1
ARM GAS  /tmp/ccUzcCcp.s 			page 21


 1125 05f0 C7000000 		.4byte	0xc7
 1126 05f4 FE050000 		.4byte	0x5fe
 1127 05f8 12       		.uleb128 0x12
 1128 05f9 69030000 		.4byte	0x369
 1129 05fd 00       		.byte	0x0
 1130 05fe 16       		.uleb128 0x16
 1131 05ff 01       		.byte	0x1
 1132 0600 1C020000 		.4byte	.LASF84
 1133 0604 01       		.byte	0x1
 1134 0605 3C       		.byte	0x3c
 1135 0606 01       		.byte	0x1
 1136 0607 00000000 		.4byte	.LFB7
 1137 060b 02000000 		.4byte	.LFE7
 1138 060f 02       		.byte	0x2
 1139 0610 7D       		.byte	0x7d
 1140 0611 00       		.sleb128 0
 1141 0612 22060000 		.4byte	0x622
 1142 0616 17       		.uleb128 0x17
 1143 0617 7000     		.ascii	"p\000"
 1144 0619 01       		.byte	0x1
 1145 061a 3C       		.byte	0x3c
 1146 061b 69030000 		.4byte	0x369
 1147 061f 01       		.byte	0x1
 1148 0620 50       		.byte	0x50
 1149 0621 00       		.byte	0x0
 1150 0622 18       		.uleb128 0x18
 1151 0623 01       		.byte	0x1
 1152 0624 8A000000 		.4byte	.LASF85
 1153 0628 01       		.byte	0x1
 1154 0629 51       		.byte	0x51
 1155 062a 01       		.byte	0x1
 1156 062b 00000000 		.4byte	.LFB8
 1157 062f 76000000 		.4byte	.LFE8
 1158 0633 00000000 		.4byte	.LLST0
 1159 0637 66060000 		.4byte	0x666
 1160 063b 19       		.uleb128 0x19
 1161 063c 58000000 		.4byte	.LASF86
 1162 0640 01       		.byte	0x1
 1163 0641 52       		.byte	0x52
 1164 0642 F3000000 		.4byte	0xf3
 1165 0646 05       		.byte	0x5
 1166 0647 03       		.byte	0x3
 1167 0648 00000000 		.4byte	mainthread.1971
 1168 064c 1A       		.uleb128 0x1a
 1169 064d 50000000 		.4byte	.LBB2
 1170 0651 58000000 		.4byte	.LBE2
 1171 0655 1B       		.uleb128 0x1b
 1172 0656 746D7000 		.ascii	"tmp\000"
 1173 065a 01       		.byte	0x1
 1174 065b 64       		.byte	0x64
 1175 065c 70000000 		.4byte	0x70
 1176 0660 2C000000 		.4byte	.LLST1
 1177 0664 00       		.byte	0x0
 1178 0665 00       		.byte	0x0
 1179 0666 18       		.uleb128 0x18
 1180 0667 01       		.byte	0x1
 1181 0668 25000000 		.4byte	.LASF87
ARM GAS  /tmp/ccUzcCcp.s 			page 22


 1182 066c 01       		.byte	0x1
 1183 066d 78       		.byte	0x78
 1184 066e 01       		.byte	0x1
 1185 066f 00000000 		.4byte	.LFB9
 1186 0673 52000000 		.4byte	.LFE9
 1187 0677 4A000000 		.4byte	.LLST2
 1188 067b B1060000 		.4byte	0x6b1
 1189 067f 1A       		.uleb128 0x1a
 1190 0680 30000000 		.4byte	.LBB3
 1191 0684 52000000 		.4byte	.LBE3
 1192 0688 1B       		.uleb128 0x1b
 1193 0689 76747000 		.ascii	"vtp\000"
 1194 068d 01       		.byte	0x1
 1195 068e 83       		.byte	0x83
 1196 068f 8D040000 		.4byte	0x48d
 1197 0693 6A000000 		.4byte	.LLST3
 1198 0697 1A       		.uleb128 0x1a
 1199 0698 3A000000 		.4byte	.LBB4
 1200 069c 48000000 		.4byte	.LBE4
 1201 06a0 1B       		.uleb128 0x1b
 1202 06a1 666E00   		.ascii	"fn\000"
 1203 06a4 01       		.byte	0x1
 1204 06a5 83       		.byte	0x83
 1205 06a6 12040000 		.4byte	0x412
 1206 06aa 95000000 		.4byte	.LLST4
 1207 06ae 00       		.byte	0x0
 1208 06af 00       		.byte	0x0
 1209 06b0 00       		.byte	0x0
 1210 06b1 1C       		.uleb128 0x1c
 1211 06b2 1E000000 		.4byte	.LASF88
 1212 06b6 09       		.byte	0x9
 1213 06b7 65       		.byte	0x65
 1214 06b8 D9040000 		.4byte	0x4d9
 1215 06bc 01       		.byte	0x1
 1216 06bd 01       		.byte	0x1
 1217 06be 1C       		.uleb128 0x1c
 1218 06bf 2A030000 		.4byte	.LASF89
 1219 06c3 0A       		.byte	0xa
 1220 06c4 65       		.byte	0x65
 1221 06c5 4F050000 		.4byte	0x54f
 1222 06c9 01       		.byte	0x1
 1223 06ca 01       		.byte	0x1
 1224 06cb 0B       		.uleb128 0xb
 1225 06cc 51030000 		.4byte	0x351
 1226 06d0 DB060000 		.4byte	0x6db
 1227 06d4 0C       		.uleb128 0xc
 1228 06d5 30000000 		.4byte	0x30
 1229 06d9 13       		.byte	0x13
 1230 06da 00       		.byte	0x0
 1231 06db 1C       		.uleb128 0x1c
 1232 06dc C5000000 		.4byte	.LASF90
 1233 06e0 0C       		.byte	0xc
 1234 06e1 68       		.byte	0x68
 1235 06e2 CB060000 		.4byte	0x6cb
 1236 06e6 01       		.byte	0x1
 1237 06e7 01       		.byte	0x1
 1238 06e8 1C       		.uleb128 0x1c
ARM GAS  /tmp/ccUzcCcp.s 			page 23


 1239 06e9 1E000000 		.4byte	.LASF88
 1240 06ed 09       		.byte	0x9
 1241 06ee 65       		.byte	0x65
 1242 06ef D9040000 		.4byte	0x4d9
 1243 06f3 01       		.byte	0x1
 1244 06f4 01       		.byte	0x1
 1245 06f5 1C       		.uleb128 0x1c
 1246 06f6 2A030000 		.4byte	.LASF89
 1247 06fa 0A       		.byte	0xa
 1248 06fb 65       		.byte	0x65
 1249 06fc 4F050000 		.4byte	0x54f
 1250 0700 01       		.byte	0x1
 1251 0701 01       		.byte	0x1
 1252 0702 1D       		.uleb128 0x1d
 1253 0703 C5000000 		.4byte	.LASF90
 1254 0707 01       		.byte	0x1
 1255 0708 30       		.byte	0x30
 1256 0709 CB060000 		.4byte	0x6cb
 1257 070d 01       		.byte	0x1
 1258 070e 05       		.byte	0x5
 1259 070f 03       		.byte	0x3
 1260 0710 00000000 		.4byte	_idle_thread_wa
 1261 0714 00       		.byte	0x0
 1262              		.section	.debug_abbrev
 1263 0000 01       		.uleb128 0x1
 1264 0001 11       		.uleb128 0x11
 1265 0002 01       		.byte	0x1
 1266 0003 25       		.uleb128 0x25
 1267 0004 0E       		.uleb128 0xe
 1268 0005 13       		.uleb128 0x13
 1269 0006 0B       		.uleb128 0xb
 1270 0007 03       		.uleb128 0x3
 1271 0008 0E       		.uleb128 0xe
 1272 0009 1B       		.uleb128 0x1b
 1273 000a 0E       		.uleb128 0xe
 1274 000b 11       		.uleb128 0x11
 1275 000c 01       		.uleb128 0x1
 1276 000d 52       		.uleb128 0x52
 1277 000e 01       		.uleb128 0x1
 1278 000f 55       		.uleb128 0x55
 1279 0010 06       		.uleb128 0x6
 1280 0011 10       		.uleb128 0x10
 1281 0012 06       		.uleb128 0x6
 1282 0013 00       		.byte	0x0
 1283 0014 00       		.byte	0x0
 1284 0015 02       		.uleb128 0x2
 1285 0016 24       		.uleb128 0x24
 1286 0017 00       		.byte	0x0
 1287 0018 0B       		.uleb128 0xb
 1288 0019 0B       		.uleb128 0xb
 1289 001a 3E       		.uleb128 0x3e
 1290 001b 0B       		.uleb128 0xb
 1291 001c 03       		.uleb128 0x3
 1292 001d 08       		.uleb128 0x8
 1293 001e 00       		.byte	0x0
 1294 001f 00       		.byte	0x0
 1295 0020 03       		.uleb128 0x3
ARM GAS  /tmp/ccUzcCcp.s 			page 24


 1296 0021 24       		.uleb128 0x24
 1297 0022 00       		.byte	0x0
 1298 0023 0B       		.uleb128 0xb
 1299 0024 0B       		.uleb128 0xb
 1300 0025 3E       		.uleb128 0x3e
 1301 0026 0B       		.uleb128 0xb
 1302 0027 03       		.uleb128 0x3
 1303 0028 0E       		.uleb128 0xe
 1304 0029 00       		.byte	0x0
 1305 002a 00       		.byte	0x0
 1306 002b 04       		.uleb128 0x4
 1307 002c 16       		.uleb128 0x16
 1308 002d 00       		.byte	0x0
 1309 002e 03       		.uleb128 0x3
 1310 002f 0E       		.uleb128 0xe
 1311 0030 3A       		.uleb128 0x3a
 1312 0031 0B       		.uleb128 0xb
 1313 0032 3B       		.uleb128 0x3b
 1314 0033 0B       		.uleb128 0xb
 1315 0034 49       		.uleb128 0x49
 1316 0035 13       		.uleb128 0x13
 1317 0036 00       		.byte	0x0
 1318 0037 00       		.byte	0x0
 1319 0038 05       		.uleb128 0x5
 1320 0039 13       		.uleb128 0x13
 1321 003a 01       		.byte	0x1
 1322 003b 03       		.uleb128 0x3
 1323 003c 0E       		.uleb128 0xe
 1324 003d 0B       		.uleb128 0xb
 1325 003e 0B       		.uleb128 0xb
 1326 003f 3A       		.uleb128 0x3a
 1327 0040 0B       		.uleb128 0xb
 1328 0041 3B       		.uleb128 0x3b
 1329 0042 0B       		.uleb128 0xb
 1330 0043 01       		.uleb128 0x1
 1331 0044 13       		.uleb128 0x13
 1332 0045 00       		.byte	0x0
 1333 0046 00       		.byte	0x0
 1334 0047 06       		.uleb128 0x6
 1335 0048 0D       		.uleb128 0xd
 1336 0049 00       		.byte	0x0
 1337 004a 03       		.uleb128 0x3
 1338 004b 0E       		.uleb128 0xe
 1339 004c 3A       		.uleb128 0x3a
 1340 004d 0B       		.uleb128 0xb
 1341 004e 3B       		.uleb128 0x3b
 1342 004f 0B       		.uleb128 0xb
 1343 0050 49       		.uleb128 0x49
 1344 0051 13       		.uleb128 0x13
 1345 0052 38       		.uleb128 0x38
 1346 0053 0A       		.uleb128 0xa
 1347 0054 00       		.byte	0x0
 1348 0055 00       		.byte	0x0
 1349 0056 07       		.uleb128 0x7
 1350 0057 0D       		.uleb128 0xd
 1351 0058 00       		.byte	0x0
 1352 0059 03       		.uleb128 0x3
ARM GAS  /tmp/ccUzcCcp.s 			page 25


 1353 005a 08       		.uleb128 0x8
 1354 005b 3A       		.uleb128 0x3a
 1355 005c 0B       		.uleb128 0xb
 1356 005d 3B       		.uleb128 0x3b
 1357 005e 0B       		.uleb128 0xb
 1358 005f 49       		.uleb128 0x49
 1359 0060 13       		.uleb128 0x13
 1360 0061 38       		.uleb128 0x38
 1361 0062 0A       		.uleb128 0xa
 1362 0063 00       		.byte	0x0
 1363 0064 00       		.byte	0x0
 1364 0065 08       		.uleb128 0x8
 1365 0066 13       		.uleb128 0x13
 1366 0067 01       		.byte	0x1
 1367 0068 0B       		.uleb128 0xb
 1368 0069 0B       		.uleb128 0xb
 1369 006a 3A       		.uleb128 0x3a
 1370 006b 0B       		.uleb128 0xb
 1371 006c 3B       		.uleb128 0x3b
 1372 006d 0B       		.uleb128 0xb
 1373 006e 01       		.uleb128 0x1
 1374 006f 13       		.uleb128 0x13
 1375 0070 00       		.byte	0x0
 1376 0071 00       		.byte	0x0
 1377 0072 09       		.uleb128 0x9
 1378 0073 0F       		.uleb128 0xf
 1379 0074 00       		.byte	0x0
 1380 0075 0B       		.uleb128 0xb
 1381 0076 0B       		.uleb128 0xb
 1382 0077 49       		.uleb128 0x49
 1383 0078 13       		.uleb128 0x13
 1384 0079 00       		.byte	0x0
 1385 007a 00       		.byte	0x0
 1386 007b 0A       		.uleb128 0xa
 1387 007c 35       		.uleb128 0x35
 1388 007d 00       		.byte	0x0
 1389 007e 49       		.uleb128 0x49
 1390 007f 13       		.uleb128 0x13
 1391 0080 00       		.byte	0x0
 1392 0081 00       		.byte	0x0
 1393 0082 0B       		.uleb128 0xb
 1394 0083 01       		.uleb128 0x1
 1395 0084 01       		.byte	0x1
 1396 0085 49       		.uleb128 0x49
 1397 0086 13       		.uleb128 0x13
 1398 0087 01       		.uleb128 0x1
 1399 0088 13       		.uleb128 0x13
 1400 0089 00       		.byte	0x0
 1401 008a 00       		.byte	0x0
 1402 008b 0C       		.uleb128 0xc
 1403 008c 21       		.uleb128 0x21
 1404 008d 00       		.byte	0x0
 1405 008e 49       		.uleb128 0x49
 1406 008f 13       		.uleb128 0x13
 1407 0090 2F       		.uleb128 0x2f
 1408 0091 0B       		.uleb128 0xb
 1409 0092 00       		.byte	0x0
ARM GAS  /tmp/ccUzcCcp.s 			page 26


 1410 0093 00       		.byte	0x0
 1411 0094 0D       		.uleb128 0xd
 1412 0095 16       		.uleb128 0x16
 1413 0096 00       		.byte	0x0
 1414 0097 03       		.uleb128 0x3
 1415 0098 0E       		.uleb128 0xe
 1416 0099 3A       		.uleb128 0x3a
 1417 009a 0B       		.uleb128 0xb
 1418 009b 3B       		.uleb128 0x3b
 1419 009c 05       		.uleb128 0x5
 1420 009d 49       		.uleb128 0x49
 1421 009e 13       		.uleb128 0x13
 1422 009f 00       		.byte	0x0
 1423 00a0 00       		.byte	0x0
 1424 00a1 0E       		.uleb128 0xe
 1425 00a2 0F       		.uleb128 0xf
 1426 00a3 00       		.byte	0x0
 1427 00a4 0B       		.uleb128 0xb
 1428 00a5 0B       		.uleb128 0xb
 1429 00a6 00       		.byte	0x0
 1430 00a7 00       		.byte	0x0
 1431 00a8 0F       		.uleb128 0xf
 1432 00a9 13       		.uleb128 0x13
 1433 00aa 01       		.byte	0x1
 1434 00ab 03       		.uleb128 0x3
 1435 00ac 0E       		.uleb128 0xe
 1436 00ad 0B       		.uleb128 0xb
 1437 00ae 0B       		.uleb128 0xb
 1438 00af 3A       		.uleb128 0x3a
 1439 00b0 0B       		.uleb128 0xb
 1440 00b1 3B       		.uleb128 0x3b
 1441 00b2 05       		.uleb128 0x5
 1442 00b3 01       		.uleb128 0x1
 1443 00b4 13       		.uleb128 0x13
 1444 00b5 00       		.byte	0x0
 1445 00b6 00       		.byte	0x0
 1446 00b7 10       		.uleb128 0x10
 1447 00b8 0D       		.uleb128 0xd
 1448 00b9 00       		.byte	0x0
 1449 00ba 03       		.uleb128 0x3
 1450 00bb 08       		.uleb128 0x8
 1451 00bc 3A       		.uleb128 0x3a
 1452 00bd 0B       		.uleb128 0xb
 1453 00be 3B       		.uleb128 0x3b
 1454 00bf 05       		.uleb128 0x5
 1455 00c0 49       		.uleb128 0x49
 1456 00c1 13       		.uleb128 0x13
 1457 00c2 38       		.uleb128 0x38
 1458 00c3 0A       		.uleb128 0xa
 1459 00c4 00       		.byte	0x0
 1460 00c5 00       		.byte	0x0
 1461 00c6 11       		.uleb128 0x11
 1462 00c7 15       		.uleb128 0x15
 1463 00c8 01       		.byte	0x1
 1464 00c9 27       		.uleb128 0x27
 1465 00ca 0C       		.uleb128 0xc
 1466 00cb 01       		.uleb128 0x1
ARM GAS  /tmp/ccUzcCcp.s 			page 27


 1467 00cc 13       		.uleb128 0x13
 1468 00cd 00       		.byte	0x0
 1469 00ce 00       		.byte	0x0
 1470 00cf 12       		.uleb128 0x12
 1471 00d0 05       		.uleb128 0x5
 1472 00d1 00       		.byte	0x0
 1473 00d2 49       		.uleb128 0x49
 1474 00d3 13       		.uleb128 0x13
 1475 00d4 00       		.byte	0x0
 1476 00d5 00       		.byte	0x0
 1477 00d6 13       		.uleb128 0x13
 1478 00d7 17       		.uleb128 0x17
 1479 00d8 01       		.byte	0x1
 1480 00d9 0B       		.uleb128 0xb
 1481 00da 0B       		.uleb128 0xb
 1482 00db 3A       		.uleb128 0x3a
 1483 00dc 0B       		.uleb128 0xb
 1484 00dd 3B       		.uleb128 0x3b
 1485 00de 0B       		.uleb128 0xb
 1486 00df 01       		.uleb128 0x1
 1487 00e0 13       		.uleb128 0x13
 1488 00e1 00       		.byte	0x0
 1489 00e2 00       		.byte	0x0
 1490 00e3 14       		.uleb128 0x14
 1491 00e4 0D       		.uleb128 0xd
 1492 00e5 00       		.byte	0x0
 1493 00e6 03       		.uleb128 0x3
 1494 00e7 0E       		.uleb128 0xe
 1495 00e8 3A       		.uleb128 0x3a
 1496 00e9 0B       		.uleb128 0xb
 1497 00ea 3B       		.uleb128 0x3b
 1498 00eb 0B       		.uleb128 0xb
 1499 00ec 49       		.uleb128 0x49
 1500 00ed 13       		.uleb128 0x13
 1501 00ee 00       		.byte	0x0
 1502 00ef 00       		.byte	0x0
 1503 00f0 15       		.uleb128 0x15
 1504 00f1 15       		.uleb128 0x15
 1505 00f2 01       		.byte	0x1
 1506 00f3 27       		.uleb128 0x27
 1507 00f4 0C       		.uleb128 0xc
 1508 00f5 49       		.uleb128 0x49
 1509 00f6 13       		.uleb128 0x13
 1510 00f7 01       		.uleb128 0x1
 1511 00f8 13       		.uleb128 0x13
 1512 00f9 00       		.byte	0x0
 1513 00fa 00       		.byte	0x0
 1514 00fb 16       		.uleb128 0x16
 1515 00fc 2E       		.uleb128 0x2e
 1516 00fd 01       		.byte	0x1
 1517 00fe 3F       		.uleb128 0x3f
 1518 00ff 0C       		.uleb128 0xc
 1519 0100 03       		.uleb128 0x3
 1520 0101 0E       		.uleb128 0xe
 1521 0102 3A       		.uleb128 0x3a
 1522 0103 0B       		.uleb128 0xb
 1523 0104 3B       		.uleb128 0x3b
ARM GAS  /tmp/ccUzcCcp.s 			page 28


 1524 0105 0B       		.uleb128 0xb
 1525 0106 27       		.uleb128 0x27
 1526 0107 0C       		.uleb128 0xc
 1527 0108 11       		.uleb128 0x11
 1528 0109 01       		.uleb128 0x1
 1529 010a 12       		.uleb128 0x12
 1530 010b 01       		.uleb128 0x1
 1531 010c 40       		.uleb128 0x40
 1532 010d 0A       		.uleb128 0xa
 1533 010e 01       		.uleb128 0x1
 1534 010f 13       		.uleb128 0x13
 1535 0110 00       		.byte	0x0
 1536 0111 00       		.byte	0x0
 1537 0112 17       		.uleb128 0x17
 1538 0113 05       		.uleb128 0x5
 1539 0114 00       		.byte	0x0
 1540 0115 03       		.uleb128 0x3
 1541 0116 08       		.uleb128 0x8
 1542 0117 3A       		.uleb128 0x3a
 1543 0118 0B       		.uleb128 0xb
 1544 0119 3B       		.uleb128 0x3b
 1545 011a 0B       		.uleb128 0xb
 1546 011b 49       		.uleb128 0x49
 1547 011c 13       		.uleb128 0x13
 1548 011d 02       		.uleb128 0x2
 1549 011e 0A       		.uleb128 0xa
 1550 011f 00       		.byte	0x0
 1551 0120 00       		.byte	0x0
 1552 0121 18       		.uleb128 0x18
 1553 0122 2E       		.uleb128 0x2e
 1554 0123 01       		.byte	0x1
 1555 0124 3F       		.uleb128 0x3f
 1556 0125 0C       		.uleb128 0xc
 1557 0126 03       		.uleb128 0x3
 1558 0127 0E       		.uleb128 0xe
 1559 0128 3A       		.uleb128 0x3a
 1560 0129 0B       		.uleb128 0xb
 1561 012a 3B       		.uleb128 0x3b
 1562 012b 0B       		.uleb128 0xb
 1563 012c 27       		.uleb128 0x27
 1564 012d 0C       		.uleb128 0xc
 1565 012e 11       		.uleb128 0x11
 1566 012f 01       		.uleb128 0x1
 1567 0130 12       		.uleb128 0x12
 1568 0131 01       		.uleb128 0x1
 1569 0132 40       		.uleb128 0x40
 1570 0133 06       		.uleb128 0x6
 1571 0134 01       		.uleb128 0x1
 1572 0135 13       		.uleb128 0x13
 1573 0136 00       		.byte	0x0
 1574 0137 00       		.byte	0x0
 1575 0138 19       		.uleb128 0x19
 1576 0139 34       		.uleb128 0x34
 1577 013a 00       		.byte	0x0
 1578 013b 03       		.uleb128 0x3
 1579 013c 0E       		.uleb128 0xe
 1580 013d 3A       		.uleb128 0x3a
ARM GAS  /tmp/ccUzcCcp.s 			page 29


 1581 013e 0B       		.uleb128 0xb
 1582 013f 3B       		.uleb128 0x3b
 1583 0140 0B       		.uleb128 0xb
 1584 0141 49       		.uleb128 0x49
 1585 0142 13       		.uleb128 0x13
 1586 0143 02       		.uleb128 0x2
 1587 0144 0A       		.uleb128 0xa
 1588 0145 00       		.byte	0x0
 1589 0146 00       		.byte	0x0
 1590 0147 1A       		.uleb128 0x1a
 1591 0148 0B       		.uleb128 0xb
 1592 0149 01       		.byte	0x1
 1593 014a 11       		.uleb128 0x11
 1594 014b 01       		.uleb128 0x1
 1595 014c 12       		.uleb128 0x12
 1596 014d 01       		.uleb128 0x1
 1597 014e 00       		.byte	0x0
 1598 014f 00       		.byte	0x0
 1599 0150 1B       		.uleb128 0x1b
 1600 0151 34       		.uleb128 0x34
 1601 0152 00       		.byte	0x0
 1602 0153 03       		.uleb128 0x3
 1603 0154 08       		.uleb128 0x8
 1604 0155 3A       		.uleb128 0x3a
 1605 0156 0B       		.uleb128 0xb
 1606 0157 3B       		.uleb128 0x3b
 1607 0158 0B       		.uleb128 0xb
 1608 0159 49       		.uleb128 0x49
 1609 015a 13       		.uleb128 0x13
 1610 015b 02       		.uleb128 0x2
 1611 015c 06       		.uleb128 0x6
 1612 015d 00       		.byte	0x0
 1613 015e 00       		.byte	0x0
 1614 015f 1C       		.uleb128 0x1c
 1615 0160 34       		.uleb128 0x34
 1616 0161 00       		.byte	0x0
 1617 0162 03       		.uleb128 0x3
 1618 0163 0E       		.uleb128 0xe
 1619 0164 3A       		.uleb128 0x3a
 1620 0165 0B       		.uleb128 0xb
 1621 0166 3B       		.uleb128 0x3b
 1622 0167 0B       		.uleb128 0xb
 1623 0168 49       		.uleb128 0x49
 1624 0169 13       		.uleb128 0x13
 1625 016a 3F       		.uleb128 0x3f
 1626 016b 0C       		.uleb128 0xc
 1627 016c 3C       		.uleb128 0x3c
 1628 016d 0C       		.uleb128 0xc
 1629 016e 00       		.byte	0x0
 1630 016f 00       		.byte	0x0
 1631 0170 1D       		.uleb128 0x1d
 1632 0171 34       		.uleb128 0x34
 1633 0172 00       		.byte	0x0
 1634 0173 03       		.uleb128 0x3
 1635 0174 0E       		.uleb128 0xe
 1636 0175 3A       		.uleb128 0x3a
 1637 0176 0B       		.uleb128 0xb
ARM GAS  /tmp/ccUzcCcp.s 			page 30


 1638 0177 3B       		.uleb128 0x3b
 1639 0178 0B       		.uleb128 0xb
 1640 0179 49       		.uleb128 0x49
 1641 017a 13       		.uleb128 0x13
 1642 017b 3F       		.uleb128 0x3f
 1643 017c 0C       		.uleb128 0xc
 1644 017d 02       		.uleb128 0x2
 1645 017e 0A       		.uleb128 0xa
 1646 017f 00       		.byte	0x0
 1647 0180 00       		.byte	0x0
 1648 0181 00       		.byte	0x0
 1649              		.section	.debug_pubnames,"",%progbits
 1650 0000 58000000 		.4byte	0x58
 1651 0004 0200     		.2byte	0x2
 1652 0006 00000000 		.4byte	.Ldebug_info0
 1653 000a 15070000 		.4byte	0x715
 1654 000e FE050000 		.4byte	0x5fe
 1655 0012 5F69646C 		.ascii	"_idle_thread\000"
 1655      655F7468 
 1655      72656164 
 1655      00
 1656 001f 22060000 		.4byte	0x622
 1657 0023 63685379 		.ascii	"chSysInit\000"
 1657      73496E69 
 1657      7400
 1658 002d 66060000 		.4byte	0x666
 1659 0031 63685379 		.ascii	"chSysTimerHandlerI\000"
 1659      7354696D 
 1659      65724861 
 1659      6E646C65 
 1659      724900
 1660 0044 02070000 		.4byte	0x702
 1661 0048 5F69646C 		.ascii	"_idle_thread_wa\000"
 1661      655F7468 
 1661      72656164 
 1661      5F776100 
 1662 0058 00000000 		.4byte	0x0
 1663              		.section	.debug_pubtypes,"",%progbits
 1664 0000 81010000 		.4byte	0x181
 1665 0004 0200     		.2byte	0x2
 1666 0006 00000000 		.4byte	.Ldebug_info0
 1667 000a 15070000 		.4byte	0x715
 1668 000e 3E000000 		.4byte	0x3e
 1669 0012 75696E74 		.ascii	"uint8_t\000"
 1669      385F7400 
 1670 001a 5E000000 		.4byte	0x5e
 1671 001e 696E7433 		.ascii	"int32_t\000"
 1671      325F7400 
 1672 0026 70000000 		.4byte	0x70
 1673 002a 75696E74 		.ascii	"uint32_t\000"
 1673      33325F74 
 1673      00
 1674 0033 89000000 		.4byte	0x89
 1675 0037 75696E74 		.ascii	"uint64_t\000"
 1675      36345F74 
 1675      00
 1676 0040 9B000000 		.4byte	0x9b
ARM GAS  /tmp/ccUzcCcp.s 			page 31


 1677 0044 746D6F64 		.ascii	"tmode_t\000"
 1677      655F7400 
 1678 004c A6000000 		.4byte	0xa6
 1679 0050 74737461 		.ascii	"tstate_t\000"
 1679      74655F74 
 1679      00
 1680 0059 B1000000 		.4byte	0xb1
 1681 005d 74726566 		.ascii	"trefs_t\000"
 1681      735F7400 
 1682 0065 BC000000 		.4byte	0xbc
 1683 0069 74707269 		.ascii	"tprio_t\000"
 1683      6F5F7400 
 1684 0071 C7000000 		.4byte	0xc7
 1685 0075 6D73675F 		.ascii	"msg_t\000"
 1685      7400
 1686 007b D2000000 		.4byte	0xd2
 1687 007f 6576656E 		.ascii	"eventmask_t\000"
 1687      746D6173 
 1687      6B5F7400 
 1688 008b DD000000 		.4byte	0xdd
 1689 008f 73797374 		.ascii	"systime_t\000"
 1689      696D655F 
 1689      7400
 1690 0099 E8000000 		.4byte	0xe8
 1691 009d 636E745F 		.ascii	"cnt_t\000"
 1691      7400
 1692 00a3 F3000000 		.4byte	0xf3
 1693 00a7 54687265 		.ascii	"Thread\000"
 1693      616400
 1694 00ae 32020000 		.4byte	0x232
 1695 00b2 54687265 		.ascii	"ThreadsQueue\000"
 1695      61647351 
 1695      75657565 
 1695      00
 1696 00bf 54020000 		.4byte	0x254
 1697 00c3 54687265 		.ascii	"ThreadsList\000"
 1697      6164734C 
 1697      69737400 
 1698 00cf 46030000 		.4byte	0x346
 1699 00d3 434D335F 		.ascii	"CM3_SCB\000"
 1699      53434200 
 1700 00db 51030000 		.4byte	0x351
 1701 00df 73746B61 		.ascii	"stkalign_t\000"
 1701      6C69676E 
 1701      5F7400
 1702 00ea 5D030000 		.4byte	0x35d
 1703 00ee 72656761 		.ascii	"regarm_t\000"
 1703      726D5F74 
 1703      00
 1704 00f7 6B030000 		.4byte	0x36b
 1705 00fb 636F6E74 		.ascii	"context\000"
 1705      65787400 
 1706 0103 88030000 		.4byte	0x388
 1707 0107 696E7463 		.ascii	"intctx\000"
 1707      747800
 1708 010e 12040000 		.4byte	0x412
 1709 0112 76746675 		.ascii	"vtfunc_t\000"
ARM GAS  /tmp/ccUzcCcp.s 			page 32


 1709      6E635F74 
 1709      00
 1710 011b 2F040000 		.4byte	0x42f
 1711 011f 56697274 		.ascii	"VirtualTimer\000"
 1711      75616C54 
 1711      696D6572 
 1711      00
 1712 012c 3A040000 		.4byte	0x43a
 1713 0130 56697274 		.ascii	"VirtualTimer\000"
 1713      75616C54 
 1713      696D6572 
 1713      00
 1714 013d D9040000 		.4byte	0x4d9
 1715 0141 56544C69 		.ascii	"VTList\000"
 1715      737400
 1716 0148 4F050000 		.4byte	0x54f
 1717 014c 52656164 		.ascii	"ReadyList\000"
 1717      794C6973 
 1717      7400
 1718 0156 5A050000 		.4byte	0x55a
 1719 015a 4D757465 		.ascii	"Mutex\000"
 1719      7800
 1720 0160 97050000 		.4byte	0x597
 1721 0164 4D757465 		.ascii	"Mutex\000"
 1721      7800
 1722 016a FE000000 		.4byte	0xfe
 1723 016e 54687265 		.ascii	"Thread\000"
 1723      616400
 1724 0175 DD050000 		.4byte	0x5dd
 1725 0179 7466756E 		.ascii	"tfunc_t\000"
 1725      635F7400 
 1726 0181 00000000 		.4byte	0x0
 1727              		.section	.debug_aranges,"",%progbits
 1728 0000 2C000000 		.4byte	0x2c
 1729 0004 0200     		.2byte	0x2
 1730 0006 00000000 		.4byte	.Ldebug_info0
 1731 000a 04       		.byte	0x4
 1732 000b 00       		.byte	0x0
 1733 000c 0000     		.2byte	0x0
 1734 000e 0000     		.2byte	0x0
 1735 0010 00000000 		.4byte	.LFB7
 1736 0014 02000000 		.4byte	.LFE7-.LFB7
 1737 0018 00000000 		.4byte	.LFB8
 1738 001c 76000000 		.4byte	.LFE8-.LFB8
 1739 0020 00000000 		.4byte	.LFB9
 1740 0024 52000000 		.4byte	.LFE9-.LFB9
 1741 0028 00000000 		.4byte	0x0
 1742 002c 00000000 		.4byte	0x0
 1743              		.section	.debug_ranges,"",%progbits
 1744              	.Ldebug_ranges0:
 1745 0000 00000000 		.4byte	.LFB7
 1746 0004 02000000 		.4byte	.LFE7
 1747 0008 00000000 		.4byte	.LFB8
 1748 000c 76000000 		.4byte	.LFE8
 1749 0010 00000000 		.4byte	.LFB9
 1750 0014 52000000 		.4byte	.LFE9
 1751 0018 00000000 		.4byte	0x0
ARM GAS  /tmp/ccUzcCcp.s 			page 33


 1752 001c 00000000 		.4byte	0x0
 1753              		.section	.debug_str,"MS",%progbits,1
 1754              	.LASF83:
 1755 0000 7466756E 		.ascii	"tfunc_t\000"
 1755      635F7400 
 1756              	.LASF34:
 1757 0008 705F6D73 		.ascii	"p_msg\000"
 1757      6700
 1758              	.LASF79:
 1759 000e 7264796D 		.ascii	"rdymsg\000"
 1759      736700
 1760              	.LASF11:
 1761 0015 75696E74 		.ascii	"uint64_t\000"
 1761      36345F74 
 1761      00
 1762              	.LASF88:
 1763 001e 76746C69 		.ascii	"vtlist\000"
 1763      737400
 1764              	.LASF87:
 1765 0025 63685379 		.ascii	"chSysTimerHandlerI\000"
 1765      7354696D 
 1765      65724861 
 1765      6E646C65 
 1765      724900
 1766              	.LASF12:
 1767 0038 6C6F6E67 		.ascii	"long long unsigned int\000"
 1767      206C6F6E 
 1767      6720756E 
 1767      7369676E 
 1767      65642069 
 1768              	.LASF80:
 1769 004f 65786974 		.ascii	"exitcode\000"
 1769      636F6465 
 1769      00
 1770              	.LASF86:
 1771 0058 6D61696E 		.ascii	"mainthread\000"
 1771      74687265 
 1771      616400
 1772              	.LASF41:
 1773 0063 43505549 		.ascii	"CPUID\000"
 1773      4400
 1774              	.LASF24:
 1775 0069 705F7072 		.ascii	"p_prio\000"
 1775      696F00
 1776              	.LASF10:
 1777 0070 6C6F6E67 		.ascii	"long long int\000"
 1777      206C6F6E 
 1777      6720696E 
 1777      7400
 1778              	.LASF1:
 1779 007e 7369676E 		.ascii	"signed char\000"
 1779      65642063 
 1779      68617200 
 1780              	.LASF85:
 1781 008a 63685379 		.ascii	"chSysInit\000"
 1781      73496E69 
 1781      7400
ARM GAS  /tmp/ccUzcCcp.s 			page 34


 1782              	.LASF38:
 1783 0094 705F6D70 		.ascii	"p_mpool\000"
 1783      6F6F6C00 
 1784              	.LASF76:
 1785 009c 6D5F7175 		.ascii	"m_queue\000"
 1785      65756500 
 1786              	.LASF81:
 1787 00a4 77746F62 		.ascii	"wtobjp\000"
 1787      6A7000
 1788              	.LASF7:
 1789 00ab 6C6F6E67 		.ascii	"long int\000"
 1789      20696E74 
 1789      00
 1790              	.LASF14:
 1791 00b4 74737461 		.ascii	"tstate_t\000"
 1791      74655F74 
 1791      00
 1792              	.LASF26:
 1793 00bd 705F6E65 		.ascii	"p_newer\000"
 1793      77657200 
 1794              	.LASF90:
 1795 00c5 5F69646C 		.ascii	"_idle_thread_wa\000"
 1795      655F7468 
 1795      72656164 
 1795      5F776100 
 1796              	.LASF51:
 1797 00d5 42464152 		.ascii	"BFAR\000"
 1797      00
 1798              	.LASF70:
 1799 00da 725F6E65 		.ascii	"r_newer\000"
 1799      77657200 
 1800              	.LASF55:
 1801 00e2 72656761 		.ascii	"regarm_t\000"
 1801      726D5F74 
 1801      00
 1802              	.LASF61:
 1803 00eb 76745F70 		.ascii	"vt_prev\000"
 1803      72657600 
 1804              	.LASF20:
 1805 00f3 636E745F 		.ascii	"cnt_t\000"
 1805      7400
 1806              	.LASF0:
 1807 00f9 756E7369 		.ascii	"unsigned int\000"
 1807      676E6564 
 1807      20696E74 
 1807      00
 1808              	.LASF60:
 1809 0106 76745F6E 		.ascii	"vt_next\000"
 1809      65787400 
 1810              	.LASF9:
 1811 010e 6C6F6E67 		.ascii	"long unsigned int\000"
 1811      20756E73 
 1811      69676E65 
 1811      6420696E 
 1811      7400
 1812              	.LASF43:
 1813 0120 56544F52 		.ascii	"VTOR\000"
ARM GAS  /tmp/ccUzcCcp.s 			page 35


 1813      00
 1814              	.LASF59:
 1815 0125 56697274 		.ascii	"VirtualTimer\000"
 1815      75616C54 
 1815      696D6572 
 1815      00
 1816              	.LASF56:
 1817 0132 636F6E74 		.ascii	"context\000"
 1817      65787400 
 1818              	.LASF4:
 1819 013a 73686F72 		.ascii	"short unsigned int\000"
 1819      7420756E 
 1819      7369676E 
 1819      65642069 
 1819      6E7400
 1820              	.LASF42:
 1821 014d 49435352 		.ascii	"ICSR\000"
 1821      00
 1822              	.LASF17:
 1823 0152 6D73675F 		.ascii	"msg_t\000"
 1823      7400
 1824              	.LASF44:
 1825 0158 41495243 		.ascii	"AIRCR\000"
 1825      5200
 1826              	.LASF49:
 1827 015e 44465352 		.ascii	"DFSR\000"
 1827      00
 1828              	.LASF50:
 1829 0163 4D4D4641 		.ascii	"MMFAR\000"
 1829      5200
 1830              	.LASF13:
 1831 0169 746D6F64 		.ascii	"tmode_t\000"
 1831      655F7400 
 1832              	.LASF40:
 1833 0171 54687265 		.ascii	"ThreadsList\000"
 1833      6164734C 
 1833      69737400 
 1834              	.LASF18:
 1835 017d 6576656E 		.ascii	"eventmask_t\000"
 1835      746D6173 
 1835      6B5F7400 
 1836              	.LASF75:
 1837 0189 4D757465 		.ascii	"Mutex\000"
 1837      7800
 1838              	.LASF54:
 1839 018f 73746B61 		.ascii	"stkalign_t\000"
 1839      6C69676E 
 1839      5F7400
 1840              	.LASF62:
 1841 019a 76745F74 		.ascii	"vt_time\000"
 1841      696D6500 
 1842              	.LASF32:
 1843 01a2 705F7761 		.ascii	"p_waiting\000"
 1843      6974696E 
 1843      6700
 1844              	.LASF63:
 1845 01ac 76745F66 		.ascii	"vt_func\000"
ARM GAS  /tmp/ccUzcCcp.s 			page 36


 1845      756E6300 
 1846              	.LASF47:
 1847 01b4 43465352 		.ascii	"CFSR\000"
 1847      00
 1848              	.LASF93:
 1849 01b9 2F686F6D 		.ascii	"/home/dan/github/github-projects/Quad-Rotor/QuadRot"
 1849      652F6461 
 1849      6E2F6769 
 1849      74687562 
 1849      2F676974 
 1850 01ec 6F7200   		.ascii	"or\000"
 1851              	.LASF27:
 1852 01ef 705F6F6C 		.ascii	"p_older\000"
 1852      64657200 
 1853              	.LASF69:
 1854 01f7 725F6374 		.ascii	"r_ctx\000"
 1854      7800
 1855              	.LASF39:
 1856 01fd 54687265 		.ascii	"ThreadsQueue\000"
 1856      61647351 
 1856      75657565 
 1856      00
 1857              	.LASF73:
 1858 020a 725F6375 		.ascii	"r_current\000"
 1858      7272656E 
 1858      7400
 1859              	.LASF71:
 1860 0214 725F6F6C 		.ascii	"r_older\000"
 1860      64657200 
 1861              	.LASF84:
 1862 021c 5F69646C 		.ascii	"_idle_thread\000"
 1862      655F7468 
 1862      72656164 
 1862      00
 1863              	.LASF15:
 1864 0229 74726566 		.ascii	"trefs_t\000"
 1864      735F7400 
 1865              	.LASF23:
 1866 0231 705F7072 		.ascii	"p_prev\000"
 1866      657600
 1867              	.LASF16:
 1868 0238 74707269 		.ascii	"tprio_t\000"
 1868      6F5F7400 
 1869              	.LASF6:
 1870 0240 696E7433 		.ascii	"int32_t\000"
 1870      325F7400 
 1871              	.LASF2:
 1872 0248 756E7369 		.ascii	"unsigned char\000"
 1872      676E6564 
 1872      20636861 
 1872      7200
 1873              	.LASF46:
 1874 0256 53484353 		.ascii	"SHCSR\000"
 1874      5200
 1875              	.LASF36:
 1876 025c 705F6D74 		.ascii	"p_mtxlist\000"
 1876      786C6973 
ARM GAS  /tmp/ccUzcCcp.s 			page 37


 1876      7400
 1877              	.LASF3:
 1878 0266 73686F72 		.ascii	"short int\000"
 1878      7420696E 
 1878      7400
 1879              	.LASF28:
 1880 0270 705F7374 		.ascii	"p_state\000"
 1880      61746500 
 1881              	.LASF53:
 1882 0278 434D335F 		.ascii	"CM3_SCB\000"
 1882      53434200 
 1883              	.LASF68:
 1884 0280 725F7072 		.ascii	"r_prio\000"
 1884      696F00
 1885              	.LASF82:
 1886 0287 65776D61 		.ascii	"ewmask\000"
 1886      736B00
 1887              	.LASF22:
 1888 028e 705F6E65 		.ascii	"p_next\000"
 1888      787400
 1889              	.LASF29:
 1890 0295 705F666C 		.ascii	"p_flags\000"
 1890      61677300 
 1891              	.LASF21:
 1892 029d 54687265 		.ascii	"Thread\000"
 1892      616400
 1893              	.LASF35:
 1894 02a4 705F6570 		.ascii	"p_epending\000"
 1894      656E6469 
 1894      6E6700
 1895              	.LASF8:
 1896 02af 75696E74 		.ascii	"uint32_t\000"
 1896      33325F74 
 1896      00
 1897              	.LASF67:
 1898 02b8 725F7175 		.ascii	"r_queue\000"
 1898      65756500 
 1899              	.LASF52:
 1900 02c0 41465352 		.ascii	"AFSR\000"
 1900      00
 1901              	.LASF78:
 1902 02c5 6D5F6E65 		.ascii	"m_next\000"
 1902      787400
 1903              	.LASF19:
 1904 02cc 73797374 		.ascii	"systime_t\000"
 1904      696D655F 
 1904      7400
 1905              	.LASF37:
 1906 02d6 705F7265 		.ascii	"p_realprio\000"
 1906      616C7072 
 1906      696F00
 1907              	.LASF58:
 1908 02e1 76746675 		.ascii	"vtfunc_t\000"
 1908      6E635F74 
 1908      00
 1909              	.LASF72:
 1910 02ea 725F7072 		.ascii	"r_preempt\000"
ARM GAS  /tmp/ccUzcCcp.s 			page 38


 1910      65656D70 
 1910      7400
 1911              	.LASF31:
 1912 02f4 705F7469 		.ascii	"p_time\000"
 1912      6D6500
 1913              	.LASF45:
 1914 02fb 53485052 		.ascii	"SHPR\000"
 1914      00
 1915              	.LASF57:
 1916 0300 696E7463 		.ascii	"intctx\000"
 1916      747800
 1917              	.LASF33:
 1918 0307 705F6D73 		.ascii	"p_msgqueue\000"
 1918      67717565 
 1918      756500
 1919              	.LASF64:
 1920 0312 76745F70 		.ascii	"vt_par\000"
 1920      617200
 1921              	.LASF30:
 1922 0319 705F7265 		.ascii	"p_refs\000"
 1922      667300
 1923              	.LASF74:
 1924 0320 52656164 		.ascii	"ReadyList\000"
 1924      794C6973 
 1924      7400
 1925              	.LASF89:
 1926 032a 726C6973 		.ascii	"rlist\000"
 1926      7400
 1927              	.LASF5:
 1928 0330 75696E74 		.ascii	"uint8_t\000"
 1928      385F7400 
 1929              	.LASF91:
 1930 0338 474E5520 		.ascii	"GNU C 4.5.1\000"
 1930      4320342E 
 1930      352E3100 
 1931              	.LASF65:
 1932 0344 76745F73 		.ascii	"vt_systime\000"
 1932      79737469 
 1932      6D6500
 1933              	.LASF66:
 1934 034f 56544C69 		.ascii	"VTList\000"
 1934      737400
 1935              	.LASF48:
 1936 0356 48465352 		.ascii	"HFSR\000"
 1936      00
 1937              	.LASF77:
 1938 035b 6D5F6F77 		.ascii	"m_owner\000"
 1938      6E657200 
 1939              	.LASF25:
 1940 0363 705F6374 		.ascii	"p_ctx\000"
 1940      7800
 1941              	.LASF92:
 1942 0369 63686962 		.ascii	"chibios/os/kernel/src/chsys.c\000"
 1942      696F732F 
 1942      6F732F6B 
 1942      65726E65 
 1942      6C2F7372 
ARM GAS  /tmp/ccUzcCcp.s 			page 39


 1943              		.ident	"GCC: (GNU) 4.5.1"
ARM GAS  /tmp/ccUzcCcp.s 			page 40


DEFINED SYMBOLS
                            *ABS*:0000000000000000 chsys.c
     /tmp/ccUzcCcp.s:24     .text._idle_thread:0000000000000000 $t
     /tmp/ccUzcCcp.s:30     .text._idle_thread:0000000000000000 _idle_thread
     /tmp/ccUzcCcp.s:45     .text.chSysInit:0000000000000000 $t
     /tmp/ccUzcCcp.s:51     .text.chSysInit:0000000000000000 chSysInit
     /tmp/ccUzcCcp.s:217    .bss.mainthread.1971:0000000000000000 .LANCHOR0
                            *COM*:00000000000000a0 _idle_thread_wa
     /tmp/ccUzcCcp.s:130    .text.chSysTimerHandlerI:0000000000000000 $t
     /tmp/ccUzcCcp.s:136    .text.chSysTimerHandlerI:0000000000000000 chSysTimerHandlerI
     /tmp/ccUzcCcp.s:216    .bss.mainthread.1971:0000000000000000 $d
     /tmp/ccUzcCcp.s:220    .bss.mainthread.1971:0000000000000000 mainthread.1971
                     .debug_frame:0000000000000010 $d

UNDEFINED SYMBOLS
NVICSetSystemHandlerPriority
scheduler_init
vt_init
core_init
heap_init
_thread_init
rlist
chThdCreateStatic
vtlist
