ARM GAS  /tmp/ccUzcCcp.s 			page 1


   1              		.syntax unified
   2              		.cpu cortex-m3
   3              		.fpu softvfp
   4              		.eabi_attribute 20, 1
   5              		.eabi_attribute 21, 1
   6              		.eabi_attribute 23, 3
   7              		.eabi_attribute 24, 1
   8              		.eabi_attribute 25, 1
   9              		.eabi_attribute 26, 1
  10              		.eabi_attribute 30, 2
  11              		.eabi_attribute 18, 4
  12              		.thumb
  13              		.file	"chsys.c"
  20 0000 9D010000 		.text
  20      02004301 
  20      00000201 
  20      FB0E0D00 
  20      01010101 
  21              	.Ltext0:
  22              		.cfi_sections	.debug_frame
  23              		.section	.text._idle_thread,"ax",%progbits
  24              		.align	2
  25              		.p2align 4,,15
  26              		.global	_idle_thread
  27              		.thumb
  28              		.thumb_func
  29              		.type	_idle_thread, %function
  30              	_idle_thread:
  31              	.LFB7:
  32              		.file 1 "chibios/os/kernel/src/chsys.c"
  33              		.loc 1 60 0
  34              		.cfi_startproc
  35              		@ args = 0, pretend = 0, frame = 0
  36              		@ frame_needed = 0, uses_anonymous_args = 0
  37              		@ link register save eliminated.
  38              	.LVL0:
  39              	.L2:
  40 0000 FEE7     		b	.L2
  41              		.cfi_endproc
  42              	.LFE7:
  43              		.size	_idle_thread, .-_idle_thread
  44 0002 00BFAFF3 		.section	.text.chSysInit,"ax",%progbits
  44      0080AFF3 
  44      0080AFF3 
  44      0080
  45              		.align	2
  46              		.p2align 4,,15
  47              		.global	chSysInit
  48              		.thumb
  49              		.thumb_func
  50              		.type	chSysInit, %function
ARM GAS  /tmp/ccUzcCcp.s 			page 2


  51              	chSysInit:
  52              	.LFB8:
  53              		.loc 1 81 0
  54              		.cfi_startproc
  55              		@ args = 0, pretend = 0, frame = 0
  56              		@ frame_needed = 0, uses_anonymous_args = 0
  57              		.loc 1 81 0
  58 0000 10B5     		push	{r4, lr}
  59              	.LCFI0:
  60              		.cfi_def_cfa_offset 8
  61              		.loc 1 84 0
  62 0002 0022     		movs	r2, #0
  63 0004 4FF46D40 		mov	r0, #60672
  64 0008 C0F2FA52 		movt	r2, 1530
  65 000c CEF20000 		movt	r0, 57344
  66 0010 C260     		str	r2, [r0, #12]
  67              		.loc 1 81 0
  68 0012 82B0     		sub	sp, sp, #8
  69              	.LCFI1:
  70              		.cfi_def_cfa_offset 16
  71              		.loc 1 84 0
  72 0014 0720     		movs	r0, #7
  73 0016 1021     		movs	r1, #16
  74              		.cfi_offset 14, -4
  75              		.cfi_offset 4, -8
  76 0018 FFF7FEFF 		bl	NVICSetSystemHandlerPriority
  77 001c 0B20     		movs	r0, #11
  78 001e 8021     		movs	r1, #128
  79 0020 FFF7FEFF 		bl	NVICSetSystemHandlerPriority
  80              		.loc 1 85 0
  81 0024 FFF7FEFF 		bl	scheduler_init
  82              		.loc 1 86 0
  83 0028 FFF7FEFF 		bl	vt_init
  84              		.loc 1 88 0
  85 002c FFF7FEFF 		bl	core_init
  86              		.loc 1 91 0
  87 0030 FFF7FEFF 		bl	heap_init
  88              		.loc 1 98 0
  89 0034 40F20000 		movw	r0, #:lower16:.LANCHOR0
  90 0038 4021     		movs	r1, #64
  91 003a C0F20000 		movt	r0, #:upper16:.LANCHOR0
  92 003e FFF7FEFF 		bl	_thread_init
  93 0042 40F20003 		movw	r3, #:lower16:rlist
  94 0046 C0F20003 		movt	r3, #:upper16:rlist
  95              		.loc 1 99 0
  96 004a 0122     		movs	r2, #1
  97              		.loc 1 98 0
  98 004c D861     		str	r0, [r3, #28]
  99              		.loc 1 99 0
 100 004e 0276     		strb	r2, [r0, #24]
 101              	.LBB2:
 102              		.loc 1 100 0
 103 0050 0023     		movs	r3, #0
 104              	.LVL1:
 105              	@ 100 "chibios/os/kernel/src/chsys.c" 1
 106 0052 83F31188 		msr     BASEPRI, r3                    
 107 0056 62B6     		cpsie   i
ARM GAS  /tmp/ccUzcCcp.s 			page 3


 108              	@ 0 "" 2
 109              	.LVL2:
 110              		.thumb
 111              	.LBE2:
 112              		.loc 1 105 0
 113 0058 40F20000 		movw	r0, #:lower16:_idle_thread_wa
 114 005c 1C46     		mov	r4, r3
 115 005e 40F20003 		movw	r3, #:lower16:_idle_thread
 116              	.LVL3:
 117 0062 A021     		movs	r1, #160
 118 0064 C0F20003 		movt	r3, #:upper16:_idle_thread
 119 0068 C0F20000 		movt	r0, #:upper16:_idle_thread_wa
 120 006c 0094     		str	r4, [sp, #0]
 121              	.LVL4:
 122 006e FFF7FEFF 		bl	chThdCreateStatic
 123              		.loc 1 107 0
 124 0072 02B0     		add	sp, sp, #8
 125 0074 10BD     		pop	{r4, pc}
 126              		.cfi_endproc
 127              	.LFE8:
 128              		.size	chSysInit, .-chSysInit
 129 0076 00BFAFF3 		.section	.text.chSysTimerHandlerI,"ax",%progbits
 129      0080AFF3 
 129      0080
 130              		.align	2
 131              		.p2align 4,,15
 132              		.global	chSysTimerHandlerI
 133              		.thumb
 134              		.thumb_func
 135              		.type	chSysTimerHandlerI, %function
 136              	chSysTimerHandlerI:
 137              	.LFB9:
 138              		.loc 1 120 0
 139              		.cfi_startproc
 140              		@ args = 0, pretend = 0, frame = 0
 141              		@ frame_needed = 0, uses_anonymous_args = 0
 142              		.loc 1 124 0
 143 0000 40F20003 		movw	r3, #:lower16:rlist
 144 0004 C0F20003 		movt	r3, #:upper16:rlist
 145 0008 9A69     		ldr	r2, [r3, #24]
 146              		.loc 1 120 0
 147 000a 70B5     		push	{r4, r5, r6, lr}
 148              	.LCFI2:
 149              		.cfi_def_cfa_offset 16
 150              		.loc 1 124 0
 151 000c 002A     		cmp	r2, #0
 152 000e 01DD     		ble	.L5
 153              		.cfi_offset 14, -4
 154              		.cfi_offset 6, -8
 155              		.cfi_offset 5, -12
 156              		.cfi_offset 4, -16
 157              		.loc 1 126 0
 158 0010 013A     		subs	r2, r2, #1
 159 0012 9A61     		str	r2, [r3, #24]
 160              	.L5:
 161              		.loc 1 129 0
 162 0014 DB69     		ldr	r3, [r3, #28]
ARM GAS  /tmp/ccUzcCcp.s 			page 4


 163              		.loc 1 131 0
 164 0016 40F20004 		movw	r4, #:lower16:vtlist
 165              		.loc 1 129 0
 166 001a D869     		ldr	r0, [r3, #28]
 167              		.loc 1 131 0
 168 001c C0F20004 		movt	r4, #:upper16:vtlist
 169              		.loc 1 129 0
 170 0020 421C     		adds	r2, r0, #1
 171 0022 DA61     		str	r2, [r3, #28]
 172              		.loc 1 131 0
 173 0024 E168     		ldr	r1, [r4, #12]
 174 0026 2368     		ldr	r3, [r4, #0]
 175 0028 481C     		adds	r0, r1, #1
 176 002a A342     		cmp	r3, r4
 177 002c E060     		str	r0, [r4, #12]
 178 002e 0FD0     		beq	.L4
 179              	.LBB3:
 180              		.loc 1 131 0 is_stmt 0 discriminator 1
 181 0030 9D68     		ldr	r5, [r3, #8]
 182 0032 013D     		subs	r5, r5, #1
 183 0034 9D60     		str	r5, [r3, #8]
 184              	.LVL5:
 185 0036 5DB9     		cbnz	r5, .L4
 186              		.loc 1 131 0
 187 0038 2646     		mov	r6, r4
 188              	.LVL6:
 189              	.L7:
 190              	.LBB4:
 191              		.loc 1 131 0 discriminator 3
 192 003a 1968     		ldr	r1, [r3, #0]
 193 003c DA68     		ldr	r2, [r3, #12]
 194              	.LVL7:
 195 003e 1869     		ldr	r0, [r3, #16]
 196 0040 DD60     		str	r5, [r3, #12]
 197 0042 4E60     		str	r6, [r1, #4]
 198 0044 2160     		str	r1, [r4, #0]
 199 0046 9047     		blx	r2
 200              	.LVL8:
 201              	.LBE4:
 202 0048 2368     		ldr	r3, [r4, #0]
 203              	.LVL9:
 204 004a 9968     		ldr	r1, [r3, #8]
 205 004c 0029     		cmp	r1, #0
 206 004e F4D0     		beq	.L7
 207              	.LVL10:
 208              	.L4:
 209 0050 70BD     		pop	{r4, r5, r6, pc}
 210              	.LBE3:
 211              		.cfi_endproc
 212              	.LFE9:
 213              		.size	chSysTimerHandlerI, .-chSysTimerHandlerI
 214              		.comm	_idle_thread_wa,160,8
 215 0052 00BFAFF3 		.section	.bss.mainthread.1971,"aw",%nobits
 215      0080AFF3 
 215      0080AFF3 
 215      0080
 216              		.align	2
ARM GAS  /tmp/ccUzcCcp.s 			page 5


 217              		.set	.LANCHOR0,. + 0
 218              		.type	mainthread.1971, %object
 219              		.size	mainthread.1971, 68
 220              	mainthread.1971:
 221 0000 00000000 		.space	68
 221      00000000 
 221      00000000 
 221      00000000 
 221      00000000 
 222              		.text
 223              	.Letext0: