ARM GAS  /tmp/ccKPFSR2.s 			page 1


   1              		.syntax unified
   2              		.cpu cortex-m3
   3              		.fpu softvfp
   4              		.eabi_attribute 20, 1
   5              		.eabi_attribute 21, 1
   6              		.eabi_attribute 23, 3
   7              		.eabi_attribute 24, 1
   8              		.eabi_attribute 25, 1
   9              		.eabi_attribute 26, 1
  10              		.eabi_attribute 30, 2
  11              		.eabi_attribute 18, 4
  12              		.thumb
  13              		.file	"chthreads.c"
  14              		.section	.debug_abbrev,"",%progbits
  15              	.Ldebug_abbrev0:
  16              		.section	.debug_info,"",%progbits
  17              	.Ldebug_info0:
  18              		.section	.debug_line,"",%progbits
  19              	.Ldebug_line0:
  20 0000 FF020000 		.text
  20      0200AA01 
  20      00000201 
  20      FB0E0D00 
  20      01010101 
  21              	.Ltext0:
  22              		.cfi_sections	.debug_frame
  23              		.section	.text._thread_init,"ax",%progbits
  24              		.align	2
  25              		.p2align 4,,15
  26              		.global	_thread_init
  27              		.thumb
  28              		.thumb_func
  29              		.type	_thread_init, %function
  30              	_thread_init:
  31              	.LFB7:
  32              		.file 1 "../../os/kernel/src/chthreads.c"
  33              		.loc 1 77 0
  34              		.cfi_startproc
  35              		@ args = 0, pretend = 0, frame = 0
  36              		@ frame_needed = 0, uses_anonymous_args = 0
  37              		@ link register save eliminated.
  38              	.LVL0:
  39              		.loc 1 80 0
  40 0000 4FF0020C 		mov	ip, #2
  41              		.loc 1 105 0
  42 0004 40F20002 		movw	r2, #:lower16:rlist
  43              		.loc 1 77 0
  44 0008 70B4     		push	{r4, r5, r6}
  45              	.LCFI0:
  46              		.cfi_def_cfa_offset 12
  47              		.loc 1 105 0
  48 000a C0F20002 		movt	r2, #:upper16:rlist
  49              		.loc 1 81 0
  50 000e 0024     		movs	r4, #0
  51              		.cfi_offset 6, -4
  52              		.cfi_offset 5, -8
  53              		.cfi_offset 4, -12
ARM GAS  /tmp/ccKPFSR2.s 			page 2


  54              		.loc 1 102 0
  55 0010 00F12805 		add	r5, r0, #40
  56              		.loc 1 80 0
  57 0014 80F818C0 		strb	ip, [r0, #24]
  58              		.loc 1 99 0
  59 0018 00F12406 		add	r6, r0, #36
  60              		.loc 1 96 0
  61 001c 4FF0010C 		mov	ip, #1
  62              		.loc 1 105 0
  63 0020 0261     		str	r2, [r0, #16]
  64              		.loc 1 96 0
  65 0022 80F81AC0 		strb	ip, [r0, #26]
  66              		.loc 1 99 0
  67 0026 4662     		str	r6, [r0, #36]
  68              		.loc 1 102 0
  69 0028 8562     		str	r5, [r0, #40]
  70              		.loc 1 81 0
  71 002a 4476     		strb	r4, [r0, #25]
  72              		.loc 1 102 0
  73 002c C562     		str	r5, [r0, #44]
  74              		.loc 1 105 0
  75 002e 5569     		ldr	r5, [r2, #20]
  76              		.loc 1 83 0
  77 0030 C163     		str	r1, [r0, #60]
  78              		.loc 1 105 0
  79 0032 4561     		str	r5, [r0, #20]
  80              		.loc 1 93 0
  81 0034 C461     		str	r4, [r0, #28]
  82              		.loc 1 105 0
  83 0036 5061     		str	r0, [r2, #20]
  84              		.loc 1 79 0
  85 0038 8160     		str	r1, [r0, #8]
  86              		.loc 1 105 0
  87 003a 2861     		str	r0, [r5, #16]
  88              		.loc 1 84 0
  89 003c 8463     		str	r4, [r0, #56]
  90              		.loc 1 87 0
  91 003e 4463     		str	r4, [r0, #52]
  92              	.LVL1:
  93              		.loc 1 111 0
  94 0040 70BC     		pop	{r4, r5, r6}
  95 0042 7047     		bx	lr
  96              		.cfi_endproc
  97              	.LFE7:
  98              		.size	_thread_init, .-_thread_init
  99 0044 AFF30080 		.section	.text.chThdCreateI,"ax",%progbits
  99      AFF30080 
  99      AFF30080 
 100              		.align	2
 101              		.p2align 4,,15
 102              		.global	chThdCreateI
 103              		.thumb
 104              		.thumb_func
 105              		.type	chThdCreateI, %function
 106              	chThdCreateI:
 107              	.LFB8:
 108              		.loc 1 155 0
ARM GAS  /tmp/ccKPFSR2.s 			page 3


 109              		.cfi_startproc
 110              		@ args = 4, pretend = 0, frame = 0
 111              		@ frame_needed = 0, uses_anonymous_args = 0
 112              		@ link register save eliminated.
 113              	.LVL2:
 114 0000 70B4     		push	{r4, r5, r6}
 115              	.LCFI1:
 116              		.cfi_def_cfa_offset 12
 117              		.loc 1 162 0
 118 0002 2439     		subs	r1, r1, #36
 119              	.LVL3:
 120 0004 40F20006 		movw	r6, #:lower16:_port_thread_start
 121              		.cfi_offset 6, -4
 122              		.cfi_offset 5, -8
 123              		.cfi_offset 4, -12
 124 0008 4518     		adds	r5, r0, r1
 125 000a C0F20006 		movt	r6, #:upper16:_port_thread_start
 126 000e 4350     		str	r3, [r0, r1]
 127 0010 2E62     		str	r6, [r5, #32]
 128 0012 039B     		ldr	r3, [sp, #12]
 129              	.LVL4:
 130              		.loc 1 155 0
 131 0014 0446     		mov	r4, r0
 132              		.loc 1 163 0
 133 0016 1146     		mov	r1, r2
 134              		.loc 1 162 0
 135 0018 6B60     		str	r3, [r5, #4]
 136 001a C560     		str	r5, [r0, #12]
 137              		.loc 1 164 0
 138 001c 70BC     		pop	{r4, r5, r6}
 139              		.loc 1 163 0
 140 001e FFF7FEBF 		b	_thread_init
 141              	.LVL5:
 142              		.cfi_endproc
 143              	.LFE8:
 144              		.size	chThdCreateI, .-chThdCreateI
 145 0022 00BFAFF3 		.section	.text.chThdTerminate,"ax",%progbits
 145      0080AFF3 
 145      0080AFF3 
 145      0080
 146              		.align	2
 147              		.p2align 4,,15
 148              		.global	chThdTerminate
 149              		.thumb
 150              		.thumb_func
 151              		.type	chThdTerminate, %function
 152              	chThdTerminate:
 153              	.LFB12:
 154              		.loc 1 269 0
 155              		.cfi_startproc
 156              		@ args = 0, pretend = 0, frame = 0
 157              		@ frame_needed = 0, uses_anonymous_args = 0
 158              		@ link register save eliminated.
 159              	.LVL6:
 160              	.LBB9:
 161              		.loc 1 271 0
 162 0000 2023     		movs	r3, #32
ARM GAS  /tmp/ccKPFSR2.s 			page 4


 163              	.LVL7:
 164              	@ 271 "../../os/kernel/src/chthreads.c" 1
 165 0002 83F31188 		msr     BASEPRI, r3
 166              	@ 0 "" 2
 167              		.thumb
 168              	.LBE9:
 169              		.loc 1 272 0
 170 0006 417E     		ldrb	r1, [r0, #25]	@ zero_extendqisi2
 171              	.LBB10:
 172              		.loc 1 273 0
 173 0008 0023     		movs	r3, #0
 174              	.LVL8:
 175              	.LBE10:
 176              		.loc 1 272 0
 177 000a 41F00402 		orr	r2, r1, #4
 178 000e 4276     		strb	r2, [r0, #25]
 179              	.LBB11:
 180              		.loc 1 273 0
 181              	@ 273 "../../os/kernel/src/chthreads.c" 1
 182 0010 83F31188 		msr     BASEPRI, r3
 183              	@ 0 "" 2
 184              		.thumb
 185              	.LBE11:
 186              		.loc 1 274 0
 187 0014 7047     		bx	lr
 188              		.cfi_endproc
 189              	.LFE12:
 190              		.size	chThdTerminate, .-chThdTerminate
 191 0016 00BFAFF3 		.section	.text.chThdWait,"ax",%progbits
 191      0080AFF3 
 191      0080
 192              		.align	2
 193              		.p2align 4,,15
 194              		.global	chThdWait
 195              		.thumb
 196              		.thumb_func
 197              		.type	chThdWait, %function
 198              	chThdWait:
 199              	.LFB17:
 200              		.loc 1 394 0
 201              		.cfi_startproc
 202              		@ args = 0, pretend = 0, frame = 0
 203              		@ frame_needed = 0, uses_anonymous_args = 0
 204              	.LVL9:
 205 0000 38B5     		push	{r3, r4, r5, lr}
 206              	.LCFI2:
 207              		.cfi_def_cfa_offset 16
 208              		.loc 1 394 0
 209 0002 0446     		mov	r4, r0
 210              		.cfi_offset 14, -4
 211              		.cfi_offset 5, -8
 212              		.cfi_offset 4, -12
 213              		.cfi_offset 3, -16
 214              	.LBB12:
 215              		.loc 1 399 0
 216 0004 2023     		movs	r3, #32
 217              	.LVL10:
ARM GAS  /tmp/ccKPFSR2.s 			page 5


 218              	@ 399 "../../os/kernel/src/chthreads.c" 1
 219 0006 83F31188 		msr     BASEPRI, r3
 220              	@ 0 "" 2
 221              		.thumb
 222              	.LBE12:
 223              		.loc 1 404 0
 224 000a 037E     		ldrb	r3, [r0, #24]	@ zero_extendqisi2
 225              	.LVL11:
 226 000c 0C2B     		cmp	r3, #12
 227 000e 0AD0     		beq	.L8
 228              		.loc 1 405 0
 229 0010 40F20001 		movw	r1, #:lower16:rlist
 230 0014 C0F20001 		movt	r1, #:upper16:rlist
 231 0018 C869     		ldr	r0, [r1, #28]
 232              	.LVL12:
 233              	.LBB13:
 234              	.LBB14:
 235              		.file 2 "../../os/kernel/include/chinline.h"
 236              		.loc 2 81 0
 237 001a 626A     		ldr	r2, [r4, #36]
 238              		.loc 2 82 0
 239 001c 6062     		str	r0, [r4, #36]
 240              		.loc 2 81 0
 241 001e 0260     		str	r2, [r0, #0]
 242              	.LBE14:
 243              	.LBE13:
 244              		.loc 1 406 0
 245 0020 0720     		movs	r0, #7
 246 0022 FFF7FEFF 		bl	chSchGoSleepS
 247              	.LVL13:
 248              	.L8:
 249              		.loc 1 408 0
 250 0026 256A     		ldr	r5, [r4, #32]
 251              	.LVL14:
 252              	.LBB15:
 253              		.loc 1 409 0
 254 0028 0023     		movs	r3, #0
 255              	.LVL15:
 256              	@ 409 "../../os/kernel/src/chthreads.c" 1
 257 002a 83F31188 		msr     BASEPRI, r3
 258              	@ 0 "" 2
 259              		.thumb
 260              	.LBE15:
 261              		.loc 1 411 0
 262 002e 2046     		mov	r0, r4
 263 0030 FFF7FEFF 		bl	chThdRelease
 264              	.LVL16:
 265              		.loc 1 414 0
 266 0034 2846     		mov	r0, r5
 267 0036 38BD     		pop	{r3, r4, r5, pc}
 268              		.cfi_endproc
 269              	.LFE17:
 270              		.size	chThdWait, .-chThdWait
 271 0038 AFF30080 		.section	.text.chThdExit,"ax",%progbits
 271      AFF30080 
 272              		.align	2
 273              		.p2align 4,,15
ARM GAS  /tmp/ccKPFSR2.s 			page 6


 274              		.global	chThdExit
 275              		.thumb
 276              		.thumb_func
 277              		.type	chThdExit, %function
 278              	chThdExit:
 279              	.LFB16:
 280              		.loc 1 341 0
 281              		.cfi_startproc
 282              		@ args = 0, pretend = 0, frame = 0
 283              		@ frame_needed = 0, uses_anonymous_args = 0
 284              	.LVL17:
 285              		.loc 1 342 0
 286 0000 40F20003 		movw	r3, #:lower16:rlist
 287 0004 C0F20003 		movt	r3, #:upper16:rlist
 288              		.loc 1 341 0
 289 0008 70B5     		push	{r4, r5, r6, lr}
 290              	.LCFI3:
 291              		.cfi_def_cfa_offset 16
 292              		.loc 1 341 0
 293 000a 0246     		mov	r2, r0
 294              		.loc 1 342 0
 295 000c DC69     		ldr	r4, [r3, #28]
 296              		.cfi_offset 14, -4
 297              		.cfi_offset 6, -8
 298              		.cfi_offset 5, -12
 299              		.cfi_offset 4, -16
 300              	.LVL18:
 301              	.LBB16:
 302              		.loc 1 344 0
 303 000e 2023     		movs	r3, #32
 304              	.LVL19:
 305              	@ 344 "../../os/kernel/src/chthreads.c" 1
 306 0010 83F31188 		msr     BASEPRI, r3
 307              	@ 0 "" 2
 308              		.thumb
 309              	.LBE16:
 310              		.loc 1 350 0
 311 0014 2546     		mov	r5, r4
 312 0016 55F8240F 		ldr	r0, [r5, #36]!
 313              	.LVL20:
 314              		.loc 1 345 0
 315 001a 2262     		str	r2, [r4, #32]
 316              		.loc 1 350 0
 317 001c A842     		cmp	r0, r5
 318 001e 06D0     		beq	.L12
 319              	.L16:
 320              	.LBB17:
 321              	.LBB18:
 322              		.loc 2 88 0
 323 0020 0168     		ldr	r1, [r0, #0]
 324 0022 6162     		str	r1, [r4, #36]
 325              	.LBE18:
 326              	.LBE17:
 327              		.loc 1 351 0
 328 0024 FFF7FEFF 		bl	chSchReadyI
 329              	.LVL21:
 330              		.loc 1 350 0
ARM GAS  /tmp/ccKPFSR2.s 			page 7


 331 0028 606A     		ldr	r0, [r4, #36]
 332 002a A842     		cmp	r0, r5
 333 002c F8D1     		bne	.L16
 334              	.LVL22:
 335              	.L12:
 336              		.loc 1 356 0
 337 002e 607E     		ldrb	r0, [r4, #25]	@ zero_extendqisi2
 338 0030 10F0030F 		tst	r0, #3
 339              		.loc 1 357 0
 340 0034 01BF     		itttt	eq
 341 0036 2269     		ldreq	r2, [r4, #16]
 342              	.LVL23:
 343 0038 6069     		ldreq	r0, [r4, #20]
 344 003a 0261     		streq	r2, [r0, #16]
 345 003c 2269     		ldreq	r2, [r4, #16]
 346 003e 08BF     		it	eq
 347 0040 5061     		streq	r0, [r2, #20]
 348              		.loc 1 359 0
 349 0042 0C20     		movs	r0, #12
 350              		.loc 1 360 0
 351 0044 BDE87040 		pop	{r4, r5, r6, lr}
 352              		.loc 1 359 0
 353 0048 FFF7FEBF 		b	chSchGoSleepS
 354              	.LVL24:
 355              		.cfi_endproc
 356              	.LFE16:
 357              		.size	chThdExit, .-chThdExit
 358 004c AFF30080 		.section	.text.chThdYield,"ax",%progbits
 359              		.align	2
 360              		.p2align 4,,15
 361              		.global	chThdYield
 362              		.thumb
 363              		.thumb_func
 364              		.type	chThdYield, %function
 365              	chThdYield:
 366              	.LFB15:
 367              		.loc 1 320 0
 368              		.cfi_startproc
 369              		@ args = 0, pretend = 0, frame = 0
 370              		@ frame_needed = 0, uses_anonymous_args = 0
 371 0000 08B5     		push	{r3, lr}
 372              	.LCFI4:
 373              		.cfi_def_cfa_offset 8
 374              	.LBB19:
 375              		.loc 1 322 0
 376 0002 2023     		movs	r3, #32
 377              		.cfi_offset 14, -4
 378              		.cfi_offset 3, -8
 379              	.LVL25:
 380              	@ 322 "../../os/kernel/src/chthreads.c" 1
 381 0004 83F31188 		msr     BASEPRI, r3
 382              	@ 0 "" 2
 383              		.thumb
 384              	.LBE19:
 385              		.loc 1 323 0
 386 0008 40F20002 		movw	r2, #:lower16:rlist
 387 000c C0F20002 		movt	r2, #:upper16:rlist
ARM GAS  /tmp/ccKPFSR2.s 			page 8


 388 0010 D169     		ldr	r1, [r2, #28]
 389 0012 1068     		ldr	r0, [r2, #0]
 390 0014 8B68     		ldr	r3, [r1, #8]
 391              	.LVL26:
 392 0016 8268     		ldr	r2, [r0, #8]
 393 0018 9A42     		cmp	r2, r3
 394 001a 01D3     		bcc	.L19
 395 001c FFF7FEFF 		bl	chSchDoRescheduleI
 396              	.L19:
 397              	.LBB20:
 398              		.loc 1 324 0
 399 0020 0023     		movs	r3, #0
 400              	.LVL27:
 401              	@ 324 "../../os/kernel/src/chthreads.c" 1
 402 0022 83F31188 		msr     BASEPRI, r3
 403              	@ 0 "" 2
 404              		.thumb
 405              	.LBE20:
 406              		.loc 1 325 0
 407 0026 08BD     		pop	{r3, pc}
 408              		.cfi_endproc
 409              	.LFE15:
 410              		.size	chThdYield, .-chThdYield
 411 0028 AFF30080 		.section	.text.chThdSleepUntil,"ax",%progbits
 411      AFF30080 
 412              		.align	2
 413              		.p2align 4,,15
 414              		.global	chThdSleepUntil
 415              		.thumb
 416              		.thumb_func
 417              		.type	chThdSleepUntil, %function
 418              	chThdSleepUntil:
 419              	.LFB14:
 420              		.loc 1 305 0
 421              		.cfi_startproc
 422              		@ args = 0, pretend = 0, frame = 0
 423              		@ frame_needed = 0, uses_anonymous_args = 0
 424              	.LVL28:
 425 0000 08B5     		push	{r3, lr}
 426              	.LCFI5:
 427              		.cfi_def_cfa_offset 8
 428              	.LBB21:
 429              		.loc 1 307 0
 430 0002 2023     		movs	r3, #32
 431              		.cfi_offset 14, -4
 432              		.cfi_offset 3, -8
 433              	.LVL29:
 434              	@ 307 "../../os/kernel/src/chthreads.c" 1
 435 0004 83F31188 		msr     BASEPRI, r3
 436              	@ 0 "" 2
 437              		.thumb
 438              	.LBE21:
 439              		.loc 1 308 0
 440 0008 40F20003 		movw	r3, #:lower16:vtlist
 441              	.LVL30:
 442 000c C0F20003 		movt	r3, #:upper16:vtlist
 443 0010 D968     		ldr	r1, [r3, #12]
ARM GAS  /tmp/ccKPFSR2.s 			page 9


 444 0012 411A     		subs	r1, r0, r1
 445              	.LVL31:
 446 0014 02D0     		beq	.L22
 447              		.loc 1 309 0
 448 0016 0620     		movs	r0, #6
 449 0018 FFF7FEFF 		bl	chSchGoSleepTimeoutS
 450              	.LVL32:
 451              	.L22:
 452              	.LBB22:
 453              		.loc 1 310 0
 454 001c 0023     		movs	r3, #0
 455              	.LVL33:
 456              	@ 310 "../../os/kernel/src/chthreads.c" 1
 457 001e 83F31188 		msr     BASEPRI, r3
 458              	@ 0 "" 2
 459              		.thumb
 460              	.LBE22:
 461              		.loc 1 311 0
 462 0022 08BD     		pop	{r3, pc}
 463              		.cfi_endproc
 464              	.LFE14:
 465              		.size	chThdSleepUntil, .-chThdSleepUntil
 466 0024 AFF30080 		.section	.text.chThdSleep,"ax",%progbits
 466      AFF30080 
 466      AFF30080 
 467              		.align	2
 468              		.p2align 4,,15
 469              		.global	chThdSleep
 470              		.thumb
 471              		.thumb_func
 472              		.type	chThdSleep, %function
 473              	chThdSleep:
 474              	.LFB13:
 475              		.loc 1 288 0
 476              		.cfi_startproc
 477              		@ args = 0, pretend = 0, frame = 0
 478              		@ frame_needed = 0, uses_anonymous_args = 0
 479              	.LVL34:
 480 0000 08B5     		push	{r3, lr}
 481              	.LCFI6:
 482              		.cfi_def_cfa_offset 8
 483              		.loc 1 288 0
 484 0002 0146     		mov	r1, r0
 485              	.LBB23:
 486              		.loc 1 292 0
 487 0004 2023     		movs	r3, #32
 488              		.cfi_offset 14, -4
 489              		.cfi_offset 3, -8
 490              	.LVL35:
 491              	@ 292 "../../os/kernel/src/chthreads.c" 1
 492 0006 83F31188 		msr     BASEPRI, r3
 493              	@ 0 "" 2
 494              		.thumb
 495              	.LBE23:
 496              		.loc 1 293 0
 497 000a 0620     		movs	r0, #6
 498              	.LVL36:
ARM GAS  /tmp/ccKPFSR2.s 			page 10


 499 000c FFF7FEFF 		bl	chSchGoSleepTimeoutS
 500              	.LVL37:
 501              	.LBB24:
 502              		.loc 1 294 0
 503 0010 0023     		movs	r3, #0
 504              	.LVL38:
 505              	@ 294 "../../os/kernel/src/chthreads.c" 1
 506 0012 83F31188 		msr     BASEPRI, r3
 507              	@ 0 "" 2
 508              		.thumb
 509              	.LBE24:
 510              		.loc 1 295 0
 511 0016 08BD     		pop	{r3, pc}
 512              		.cfi_endproc
 513              	.LFE13:
 514              		.size	chThdSleep, .-chThdSleep
 515              		.section	.text.chThdResume,"ax",%progbits
 516              		.align	2
 517              		.p2align 4,,15
 518              		.global	chThdResume
 519              		.thumb
 520              		.thumb_func
 521              		.type	chThdResume, %function
 522              	chThdResume:
 523              	.LFB11:
 524              		.loc 1 246 0
 525              		.cfi_startproc
 526              		@ args = 0, pretend = 0, frame = 0
 527              		@ frame_needed = 0, uses_anonymous_args = 0
 528              	.LVL39:
 529 0000 10B5     		push	{r4, lr}
 530              	.LCFI7:
 531              		.cfi_def_cfa_offset 8
 532              	.LBB25:
 533              		.loc 1 248 0
 534 0002 2023     		movs	r3, #32
 535              	.LVL40:
 536              	.LBE25:
 537              		.loc 1 246 0
 538 0004 0446     		mov	r4, r0
 539              		.cfi_offset 14, -4
 540              		.cfi_offset 4, -8
 541              	.LBB26:
 542              		.loc 1 248 0
 543              	@ 248 "../../os/kernel/src/chthreads.c" 1
 544 0006 83F31188 		msr     BASEPRI, r3
 545              	@ 0 "" 2
 546              		.thumb
 547              	.LBE26:
 548              		.loc 1 252 0
 549 000a 0021     		movs	r1, #0
 550 000c FFF7FEFF 		bl	chSchWakeupS
 551              	.LVL41:
 552              	.LBB27:
 553              		.loc 1 253 0
 554 0010 0023     		movs	r3, #0
 555              	.LVL42:
ARM GAS  /tmp/ccKPFSR2.s 			page 11


 556              	@ 253 "../../os/kernel/src/chthreads.c" 1
 557 0012 83F31188 		msr     BASEPRI, r3
 558              	@ 0 "" 2
 559              		.thumb
 560              	.LBE27:
 561              		.loc 1 255 0
 562 0016 2046     		mov	r0, r4
 563 0018 10BD     		pop	{r4, pc}
 564              		.cfi_endproc
 565              	.LFE11:
 566              		.size	chThdResume, .-chThdResume
 567 001a 00BFAFF3 		.section	.text.chThdCreateStatic,"ax",%progbits
 567      0080
 568              		.align	2
 569              		.p2align 4,,15
 570              		.global	chThdCreateStatic
 571              		.thumb
 572              		.thumb_func
 573              		.type	chThdCreateStatic, %function
 574              	chThdCreateStatic:
 575              	.LFB9:
 576              		.loc 1 183 0
 577              		.cfi_startproc
 578              		@ args = 4, pretend = 0, frame = 0
 579              		@ frame_needed = 0, uses_anonymous_args = 0
 580              	.LVL43:
 581 0000 10B5     		push	{r4, lr}
 582              	.LCFI8:
 583              		.cfi_def_cfa_offset 8
 584 0002 9C46     		mov	ip, r3
 585 0004 82B0     		sub	sp, sp, #8
 586              	.LCFI9:
 587              		.cfi_def_cfa_offset 16
 588              	.LBB28:
 589              		.loc 1 194 0
 590 0006 2023     		movs	r3, #32
 591              	.LVL44:
 592              	@ 194 "../../os/kernel/src/chthreads.c" 1
 593 0008 83F31188 		msr     BASEPRI, r3
 594              	@ 0 "" 2
 595              		.thumb
 596              	.LBE28:
 597              		.loc 1 195 0
 598 000c 049C     		ldr	r4, [sp, #16]
 599              		.cfi_offset 14, -4
 600              		.cfi_offset 4, -8
 601 000e 6346     		mov	r3, ip
 602              	.LVL45:
 603 0010 0094     		str	r4, [sp, #0]
 604 0012 FFF7FEFF 		bl	chThdCreateI
 605              	.LVL46:
 606 0016 0021     		movs	r1, #0
 607 0018 0446     		mov	r4, r0
 608              	.LVL47:
 609 001a FFF7FEFF 		bl	chSchWakeupS
 610              	.LBB29:
 611              		.loc 1 196 0
ARM GAS  /tmp/ccKPFSR2.s 			page 12


 612 001e 0023     		movs	r3, #0
 613              	.LVL48:
 614              	@ 196 "../../os/kernel/src/chthreads.c" 1
 615 0020 83F31188 		msr     BASEPRI, r3
 616              	@ 0 "" 2
 617              		.thumb
 618              	.LBE29:
 619              		.loc 1 198 0
 620 0024 2046     		mov	r0, r4
 621 0026 02B0     		add	sp, sp, #8
 622 0028 10BD     		pop	{r4, pc}
 623              		.cfi_endproc
 624              	.LFE9:
 625              		.size	chThdCreateStatic, .-chThdCreateStatic
 626 002a 00BFAFF3 		.section	.text.chThdSetPriority,"ax",%progbits
 626      0080
 627              		.align	2
 628              		.p2align 4,,15
 629              		.global	chThdSetPriority
 630              		.thumb
 631              		.thumb_func
 632              		.type	chThdSetPriority, %function
 633              	chThdSetPriority:
 634              	.LFB10:
 635              		.loc 1 212 0
 636              		.cfi_startproc
 637              		@ args = 0, pretend = 0, frame = 0
 638              		@ frame_needed = 0, uses_anonymous_args = 0
 639              	.LVL49:
 640 0000 10B5     		push	{r4, lr}
 641              	.LCFI10:
 642              		.cfi_def_cfa_offset 8
 643              	.LBB30:
 644              		.loc 1 218 0
 645 0002 2023     		movs	r3, #32
 646              	.LVL50:
 647              	@ 218 "../../os/kernel/src/chthreads.c" 1
 648 0004 83F31188 		msr     BASEPRI, r3
 649              	@ 0 "" 2
 650              		.thumb
 651              	.LBE30:
 652              		.loc 1 220 0
 653 0008 40F20003 		movw	r3, #:lower16:rlist
 654              	.LVL51:
 655 000c C0F20003 		movt	r3, #:upper16:rlist
 656 0010 DB69     		ldr	r3, [r3, #28]
 657 0012 DC6B     		ldr	r4, [r3, #60]
 658              		.cfi_offset 14, -4
 659              		.cfi_offset 4, -8
 660              	.LVL52:
 661              		.loc 1 221 0
 662 0014 9A68     		ldr	r2, [r3, #8]
 663 0016 9442     		cmp	r4, r2
 664 0018 01D0     		beq	.L31
 665 001a 9042     		cmp	r0, r2
 666 001c 00D9     		bls	.L32
 667              	.L31:
ARM GAS  /tmp/ccKPFSR2.s 			page 13


 668              		.loc 1 222 0
 669 001e 9860     		str	r0, [r3, #8]
 670              	.L32:
 671              		.loc 1 223 0
 672 0020 D863     		str	r0, [r3, #60]
 673              		.loc 1 228 0
 674 0022 FFF7FEFF 		bl	chSchRescheduleS
 675              	.LVL53:
 676              	.LBB31:
 677              		.loc 1 229 0
 678 0026 0023     		movs	r3, #0
 679              	.LVL54:
 680              	@ 229 "../../os/kernel/src/chthreads.c" 1
 681 0028 83F31188 		msr     BASEPRI, r3
 682              	@ 0 "" 2
 683              		.thumb
 684              	.LBE31:
 685              		.loc 1 231 0
 686 002c 2046     		mov	r0, r4
 687 002e 10BD     		pop	{r4, pc}
 688              		.cfi_endproc
 689              	.LFE10:
 690              		.size	chThdSetPriority, .-chThdSetPriority
 691              		.text
 692              	.Letext0:
 693              		.section	.debug_loc,"",%progbits
 694              	.Ldebug_loc0:
 695              	.LLST0:
 696 0000 00000000 		.4byte	.LFB7
 697 0004 0A000000 		.4byte	.LCFI0
 698 0008 0100     		.2byte	0x1
 699 000a 5D       		.byte	0x5d
 700 000b 0A000000 		.4byte	.LCFI0
 701 000f 44000000 		.4byte	.LFE7
 702 0013 0200     		.2byte	0x2
 703 0015 7D       		.byte	0x7d
 704 0016 0C       		.sleb128 12
 705 0017 00000000 		.4byte	0x0
 706 001b 00000000 		.4byte	0x0
 707              	.LLST1:
 708 001f 00000000 		.4byte	.LVL0
 709 0023 40000000 		.4byte	.LVL1
 710 0027 0100     		.2byte	0x1
 711 0029 50       		.byte	0x50
 712 002a 00000000 		.4byte	0x0
 713 002e 00000000 		.4byte	0x0
 714              	.LLST2:
 715 0032 00000000 		.4byte	.LFB8
 716 0036 02000000 		.4byte	.LCFI1
 717 003a 0100     		.2byte	0x1
 718 003c 5D       		.byte	0x5d
 719 003d 02000000 		.4byte	.LCFI1
 720 0041 22000000 		.4byte	.LFE8
 721 0045 0200     		.2byte	0x2
 722 0047 7D       		.byte	0x7d
 723 0048 0C       		.sleb128 12
 724 0049 00000000 		.4byte	0x0
ARM GAS  /tmp/ccKPFSR2.s 			page 14


 725 004d 00000000 		.4byte	0x0
 726              	.LLST3:
 727 0051 00000000 		.4byte	.LVL2
 728 0055 22000000 		.4byte	.LVL5
 729 0059 0100     		.2byte	0x1
 730 005b 50       		.byte	0x50
 731 005c 22000000 		.4byte	.LVL5
 732 0060 22000000 		.4byte	.LFE8
 733 0064 0100     		.2byte	0x1
 734 0066 54       		.byte	0x54
 735 0067 00000000 		.4byte	0x0
 736 006b 00000000 		.4byte	0x0
 737              	.LLST4:
 738 006f 00000000 		.4byte	.LVL2
 739 0073 04000000 		.4byte	.LVL3
 740 0077 0100     		.2byte	0x1
 741 0079 51       		.byte	0x51
 742 007a 00000000 		.4byte	0x0
 743 007e 00000000 		.4byte	0x0
 744              	.LLST5:
 745 0082 00000000 		.4byte	.LVL2
 746 0086 22000000 		.4byte	.LVL5
 747 008a 0100     		.2byte	0x1
 748 008c 52       		.byte	0x52
 749 008d 00000000 		.4byte	0x0
 750 0091 00000000 		.4byte	0x0
 751              	.LLST6:
 752 0095 00000000 		.4byte	.LVL2
 753 0099 14000000 		.4byte	.LVL4
 754 009d 0100     		.2byte	0x1
 755 009f 53       		.byte	0x53
 756 00a0 00000000 		.4byte	0x0
 757 00a4 00000000 		.4byte	0x0
 758              	.LLST8:
 759 00a8 02000000 		.4byte	.LVL7
 760 00ac 0A000000 		.4byte	.LVL8
 761 00b0 0100     		.2byte	0x1
 762 00b2 53       		.byte	0x53
 763 00b3 00000000 		.4byte	0x0
 764 00b7 00000000 		.4byte	0x0
 765              	.LLST9:
 766 00bb 00000000 		.4byte	.LFB17
 767 00bf 02000000 		.4byte	.LCFI2
 768 00c3 0100     		.2byte	0x1
 769 00c5 5D       		.byte	0x5d
 770 00c6 02000000 		.4byte	.LCFI2
 771 00ca 38000000 		.4byte	.LFE17
 772 00ce 0200     		.2byte	0x2
 773 00d0 7D       		.byte	0x7d
 774 00d1 10       		.sleb128 16
 775 00d2 00000000 		.4byte	0x0
 776 00d6 00000000 		.4byte	0x0
 777              	.LLST10:
 778 00da 00000000 		.4byte	.LVL9
 779 00de 1A000000 		.4byte	.LVL12
 780 00e2 0100     		.2byte	0x1
 781 00e4 50       		.byte	0x50
ARM GAS  /tmp/ccKPFSR2.s 			page 15


 782 00e5 1A000000 		.4byte	.LVL12
 783 00e9 38000000 		.4byte	.LFE17
 784 00ed 0100     		.2byte	0x1
 785 00ef 54       		.byte	0x54
 786 00f0 00000000 		.4byte	0x0
 787 00f4 00000000 		.4byte	0x0
 788              	.LLST11:
 789 00f8 06000000 		.4byte	.LVL10
 790 00fc 0C000000 		.4byte	.LVL11
 791 0100 0100     		.2byte	0x1
 792 0102 53       		.byte	0x53
 793 0103 00000000 		.4byte	0x0
 794 0107 00000000 		.4byte	0x0
 795              	.LLST12:
 796 010b 2A000000 		.4byte	.LVL15
 797 010f 34000000 		.4byte	.LVL16
 798 0113 0100     		.2byte	0x1
 799 0115 53       		.byte	0x53
 800 0116 00000000 		.4byte	0x0
 801 011a 00000000 		.4byte	0x0
 802              	.LLST13:
 803 011e 00000000 		.4byte	.LFB16
 804 0122 0A000000 		.4byte	.LCFI3
 805 0126 0100     		.2byte	0x1
 806 0128 5D       		.byte	0x5d
 807 0129 0A000000 		.4byte	.LCFI3
 808 012d 4C000000 		.4byte	.LFE16
 809 0131 0200     		.2byte	0x2
 810 0133 7D       		.byte	0x7d
 811 0134 10       		.sleb128 16
 812 0135 00000000 		.4byte	0x0
 813 0139 00000000 		.4byte	0x0
 814              	.LLST14:
 815 013d 00000000 		.4byte	.LVL17
 816 0141 1A000000 		.4byte	.LVL20
 817 0145 0100     		.2byte	0x1
 818 0147 50       		.byte	0x50
 819 0148 1A000000 		.4byte	.LVL20
 820 014c 28000000 		.4byte	.LVL21
 821 0150 0100     		.2byte	0x1
 822 0152 52       		.byte	0x52
 823 0153 2E000000 		.4byte	.LVL22
 824 0157 38000000 		.4byte	.LVL23
 825 015b 0100     		.2byte	0x1
 826 015d 52       		.byte	0x52
 827 015e 00000000 		.4byte	0x0
 828 0162 00000000 		.4byte	0x0
 829              	.LLST15:
 830 0166 10000000 		.4byte	.LVL19
 831 016a 28000000 		.4byte	.LVL21
 832 016e 0100     		.2byte	0x1
 833 0170 53       		.byte	0x53
 834 0171 2E000000 		.4byte	.LVL22
 835 0175 4C000000 		.4byte	.LVL24
 836 0179 0100     		.2byte	0x1
 837 017b 53       		.byte	0x53
 838 017c 00000000 		.4byte	0x0
ARM GAS  /tmp/ccKPFSR2.s 			page 16


 839 0180 00000000 		.4byte	0x0
 840              	.LLST16:
 841 0184 00000000 		.4byte	.LFB15
 842 0188 02000000 		.4byte	.LCFI4
 843 018c 0100     		.2byte	0x1
 844 018e 5D       		.byte	0x5d
 845 018f 02000000 		.4byte	.LCFI4
 846 0193 28000000 		.4byte	.LFE15
 847 0197 0200     		.2byte	0x2
 848 0199 7D       		.byte	0x7d
 849 019a 08       		.sleb128 8
 850 019b 00000000 		.4byte	0x0
 851 019f 00000000 		.4byte	0x0
 852              	.LLST17:
 853 01a3 04000000 		.4byte	.LVL25
 854 01a7 16000000 		.4byte	.LVL26
 855 01ab 0100     		.2byte	0x1
 856 01ad 53       		.byte	0x53
 857 01ae 00000000 		.4byte	0x0
 858 01b2 00000000 		.4byte	0x0
 859              	.LLST18:
 860 01b6 00000000 		.4byte	.LFB14
 861 01ba 02000000 		.4byte	.LCFI5
 862 01be 0100     		.2byte	0x1
 863 01c0 5D       		.byte	0x5d
 864 01c1 02000000 		.4byte	.LCFI5
 865 01c5 24000000 		.4byte	.LFE14
 866 01c9 0200     		.2byte	0x2
 867 01cb 7D       		.byte	0x7d
 868 01cc 08       		.sleb128 8
 869 01cd 00000000 		.4byte	0x0
 870 01d1 00000000 		.4byte	0x0
 871              	.LLST19:
 872 01d5 00000000 		.4byte	.LVL28
 873 01d9 14000000 		.4byte	.LVL31
 874 01dd 0100     		.2byte	0x1
 875 01df 50       		.byte	0x50
 876 01e0 14000000 		.4byte	.LVL31
 877 01e4 1C000000 		.4byte	.LVL32
 878 01e8 0100     		.2byte	0x1
 879 01ea 51       		.byte	0x51
 880 01eb 1C000000 		.4byte	.LVL32
 881 01ef 24000000 		.4byte	.LFE14
 882 01f3 0100     		.2byte	0x1
 883 01f5 51       		.byte	0x51
 884 01f6 00000000 		.4byte	0x0
 885 01fa 00000000 		.4byte	0x0
 886              	.LLST20:
 887 01fe 04000000 		.4byte	.LVL29
 888 0202 0C000000 		.4byte	.LVL30
 889 0206 0100     		.2byte	0x1
 890 0208 53       		.byte	0x53
 891 0209 00000000 		.4byte	0x0
 892 020d 00000000 		.4byte	0x0
 893              	.LLST21:
 894 0211 00000000 		.4byte	.LFB13
 895 0215 02000000 		.4byte	.LCFI6
ARM GAS  /tmp/ccKPFSR2.s 			page 17


 896 0219 0100     		.2byte	0x1
 897 021b 5D       		.byte	0x5d
 898 021c 02000000 		.4byte	.LCFI6
 899 0220 18000000 		.4byte	.LFE13
 900 0224 0200     		.2byte	0x2
 901 0226 7D       		.byte	0x7d
 902 0227 08       		.sleb128 8
 903 0228 00000000 		.4byte	0x0
 904 022c 00000000 		.4byte	0x0
 905              	.LLST22:
 906 0230 00000000 		.4byte	.LVL34
 907 0234 0C000000 		.4byte	.LVL36
 908 0238 0100     		.2byte	0x1
 909 023a 50       		.byte	0x50
 910 023b 0C000000 		.4byte	.LVL36
 911 023f 10000000 		.4byte	.LVL37
 912 0243 0100     		.2byte	0x1
 913 0245 51       		.byte	0x51
 914 0246 00000000 		.4byte	0x0
 915 024a 00000000 		.4byte	0x0
 916              	.LLST23:
 917 024e 06000000 		.4byte	.LVL35
 918 0252 10000000 		.4byte	.LVL37
 919 0256 0100     		.2byte	0x1
 920 0258 53       		.byte	0x53
 921 0259 00000000 		.4byte	0x0
 922 025d 00000000 		.4byte	0x0
 923              	.LLST24:
 924 0261 00000000 		.4byte	.LFB11
 925 0265 02000000 		.4byte	.LCFI7
 926 0269 0100     		.2byte	0x1
 927 026b 5D       		.byte	0x5d
 928 026c 02000000 		.4byte	.LCFI7
 929 0270 1A000000 		.4byte	.LFE11
 930 0274 0200     		.2byte	0x2
 931 0276 7D       		.byte	0x7d
 932 0277 08       		.sleb128 8
 933 0278 00000000 		.4byte	0x0
 934 027c 00000000 		.4byte	0x0
 935              	.LLST25:
 936 0280 00000000 		.4byte	.LVL39
 937 0284 10000000 		.4byte	.LVL41
 938 0288 0100     		.2byte	0x1
 939 028a 50       		.byte	0x50
 940 028b 10000000 		.4byte	.LVL41
 941 028f 1A000000 		.4byte	.LFE11
 942 0293 0100     		.2byte	0x1
 943 0295 54       		.byte	0x54
 944 0296 00000000 		.4byte	0x0
 945 029a 00000000 		.4byte	0x0
 946              	.LLST26:
 947 029e 04000000 		.4byte	.LVL40
 948 02a2 10000000 		.4byte	.LVL41
 949 02a6 0100     		.2byte	0x1
 950 02a8 53       		.byte	0x53
 951 02a9 00000000 		.4byte	0x0
 952 02ad 00000000 		.4byte	0x0
ARM GAS  /tmp/ccKPFSR2.s 			page 18


 953              	.LLST27:
 954 02b1 00000000 		.4byte	.LFB9
 955 02b5 02000000 		.4byte	.LCFI8
 956 02b9 0100     		.2byte	0x1
 957 02bb 5D       		.byte	0x5d
 958 02bc 02000000 		.4byte	.LCFI8
 959 02c0 06000000 		.4byte	.LCFI9
 960 02c4 0200     		.2byte	0x2
 961 02c6 7D       		.byte	0x7d
 962 02c7 08       		.sleb128 8
 963 02c8 06000000 		.4byte	.LCFI9
 964 02cc 2A000000 		.4byte	.LFE9
 965 02d0 0200     		.2byte	0x2
 966 02d2 7D       		.byte	0x7d
 967 02d3 10       		.sleb128 16
 968 02d4 00000000 		.4byte	0x0
 969 02d8 00000000 		.4byte	0x0
 970              	.LLST28:
 971 02dc 00000000 		.4byte	.LVL43
 972 02e0 16000000 		.4byte	.LVL46
 973 02e4 0100     		.2byte	0x1
 974 02e6 50       		.byte	0x50
 975 02e7 00000000 		.4byte	0x0
 976 02eb 00000000 		.4byte	0x0
 977              	.LLST29:
 978 02ef 00000000 		.4byte	.LVL43
 979 02f3 16000000 		.4byte	.LVL46
 980 02f7 0100     		.2byte	0x1
 981 02f9 51       		.byte	0x51
 982 02fa 00000000 		.4byte	0x0
 983 02fe 00000000 		.4byte	0x0
 984              	.LLST30:
 985 0302 00000000 		.4byte	.LVL43
 986 0306 16000000 		.4byte	.LVL46
 987 030a 0100     		.2byte	0x1
 988 030c 52       		.byte	0x52
 989 030d 00000000 		.4byte	0x0
 990 0311 00000000 		.4byte	0x0
 991              	.LLST31:
 992 0315 00000000 		.4byte	.LVL43
 993 0319 08000000 		.4byte	.LVL44
 994 031d 0100     		.2byte	0x1
 995 031f 53       		.byte	0x53
 996 0320 08000000 		.4byte	.LVL44
 997 0324 16000000 		.4byte	.LVL46
 998 0328 0100     		.2byte	0x1
 999 032a 5C       		.byte	0x5c
 1000 032b 00000000 		.4byte	0x0
 1001 032f 00000000 		.4byte	0x0
 1002              	.LLST32:
 1003 0333 08000000 		.4byte	.LVL44
 1004 0337 10000000 		.4byte	.LVL45
 1005 033b 0100     		.2byte	0x1
 1006 033d 53       		.byte	0x53
 1007 033e 00000000 		.4byte	0x0
 1008 0342 00000000 		.4byte	0x0
 1009              	.LLST33:
ARM GAS  /tmp/ccKPFSR2.s 			page 19


 1010 0346 00000000 		.4byte	.LFB10
 1011 034a 02000000 		.4byte	.LCFI10
 1012 034e 0100     		.2byte	0x1
 1013 0350 5D       		.byte	0x5d
 1014 0351 02000000 		.4byte	.LCFI10
 1015 0355 30000000 		.4byte	.LFE10
 1016 0359 0200     		.2byte	0x2
 1017 035b 7D       		.byte	0x7d
 1018 035c 08       		.sleb128 8
 1019 035d 00000000 		.4byte	0x0
 1020 0361 00000000 		.4byte	0x0
 1021              	.LLST34:
 1022 0365 00000000 		.4byte	.LVL49
 1023 0369 26000000 		.4byte	.LVL53
 1024 036d 0100     		.2byte	0x1
 1025 036f 50       		.byte	0x50
 1026 0370 00000000 		.4byte	0x0
 1027 0374 00000000 		.4byte	0x0
 1028              	.LLST35:
 1029 0378 04000000 		.4byte	.LVL50
 1030 037c 0C000000 		.4byte	.LVL51
 1031 0380 0100     		.2byte	0x1
 1032 0382 53       		.byte	0x53
 1033 0383 00000000 		.4byte	0x0
 1034 0387 00000000 		.4byte	0x0
 1035              		.file 3 "/usr/local/LPCXpresso/tools/bin/../lib/gcc/arm-none-eabi/4.4.1/include/newlib/stddef.h"
 1036              		.file 4 "/usr/local/LPCXpresso/tools/bin/../lib/gcc/arm-none-eabi/4.4.1/../../../../arm-none-eabi/
 1037              		.file 5 "../../os/ports/GCC/ARMCMx/chtypes.h"
 1038              		.file 6 "../../os/kernel/include/chlists.h"
 1039              		.file 7 "../../os/kernel/include/chthreads.h"
 1040              		.file 8 "../../os/ports/GCC/ARMCMx/chcore.h"
 1041              		.file 9 "../../os/ports/GCC/ARMCMx/chcore_v7m.h"
 1042              		.file 10 "../../os/kernel/include/chvt.h"
 1043              		.file 11 "../../os/kernel/include/chschd.h"
 1044              		.file 12 "../../os/kernel/include/chmtx.h"
 1045              		.section	.debug_info
 1046 0000 FF090000 		.4byte	0x9ff
 1047 0004 0200     		.2byte	0x2
 1048 0006 00000000 		.4byte	.Ldebug_abbrev0
 1049 000a 04       		.byte	0x4
 1050 000b 01       		.uleb128 0x1
 1051 000c 48000000 		.4byte	.LASF88
 1052 0010 01       		.byte	0x1
 1053 0011 60030000 		.4byte	.LASF89
 1054 0015 5B000000 		.4byte	.LASF90
 1055 0019 00000000 		.4byte	0x0
 1056 001d 00000000 		.4byte	0x0
 1057 0021 30000000 		.4byte	.Ldebug_ranges0+0x30
 1058 0025 00000000 		.4byte	.Ldebug_line0
 1059 0029 02       		.uleb128 0x2
 1060 002a 04       		.byte	0x4
 1061 002b 05       		.byte	0x5
 1062 002c 696E7400 		.ascii	"int\000"
 1063 0030 03       		.uleb128 0x3
 1064 0031 0E000000 		.4byte	.LASF2
 1065 0035 03       		.byte	0x3
 1066 0036 D3       		.byte	0xd3
ARM GAS  /tmp/ccKPFSR2.s 			page 20


 1067 0037 3B000000 		.4byte	0x3b
 1068 003b 04       		.uleb128 0x4
 1069 003c 04       		.byte	0x4
 1070 003d 07       		.byte	0x7
 1071 003e 2B010000 		.4byte	.LASF0
 1072 0042 04       		.uleb128 0x4
 1073 0043 01       		.byte	0x1
 1074 0044 06       		.byte	0x6
 1075 0045 94000000 		.4byte	.LASF1
 1076 0049 03       		.uleb128 0x3
 1077 004a 58030000 		.4byte	.LASF3
 1078 004e 04       		.byte	0x4
 1079 004f 2A       		.byte	0x2a
 1080 0050 54000000 		.4byte	0x54
 1081 0054 04       		.uleb128 0x4
 1082 0055 01       		.byte	0x1
 1083 0056 08       		.byte	0x8
 1084 0057 58020000 		.4byte	.LASF4
 1085 005b 04       		.uleb128 0x4
 1086 005c 02       		.byte	0x2
 1087 005d 05       		.byte	0x5
 1088 005e 70020000 		.4byte	.LASF5
 1089 0062 04       		.uleb128 0x4
 1090 0063 02       		.byte	0x2
 1091 0064 07       		.byte	0x7
 1092 0065 5F010000 		.4byte	.LASF6
 1093 0069 03       		.uleb128 0x3
 1094 006a 50020000 		.4byte	.LASF7
 1095 006e 04       		.byte	0x4
 1096 006f 4F       		.byte	0x4f
 1097 0070 74000000 		.4byte	0x74
 1098 0074 04       		.uleb128 0x4
 1099 0075 04       		.byte	0x4
 1100 0076 05       		.byte	0x5
 1101 0077 C7000000 		.4byte	.LASF8
 1102 007b 03       		.uleb128 0x3
 1103 007c B1020000 		.4byte	.LASF9
 1104 0080 04       		.byte	0x4
 1105 0081 50       		.byte	0x50
 1106 0082 86000000 		.4byte	0x86
 1107 0086 04       		.uleb128 0x4
 1108 0087 04       		.byte	0x4
 1109 0088 07       		.byte	0x7
 1110 0089 40010000 		.4byte	.LASF10
 1111 008d 04       		.uleb128 0x4
 1112 008e 08       		.byte	0x8
 1113 008f 05       		.byte	0x5
 1114 0090 D9000000 		.4byte	.LASF11
 1115 0094 04       		.uleb128 0x4
 1116 0095 08       		.byte	0x8
 1117 0096 07       		.byte	0x7
 1118 0097 28000000 		.4byte	.LASF12
 1119 009b 03       		.uleb128 0x3
 1120 009c 80010000 		.4byte	.LASF13
 1121 00a0 05       		.byte	0x5
 1122 00a1 2E       		.byte	0x2e
 1123 00a2 49000000 		.4byte	0x49
ARM GAS  /tmp/ccKPFSR2.s 			page 21


 1124 00a6 03       		.uleb128 0x3
 1125 00a7 D0000000 		.4byte	.LASF14
 1126 00ab 05       		.byte	0x5
 1127 00ac 2F       		.byte	0x2f
 1128 00ad 49000000 		.4byte	0x49
 1129 00b1 03       		.uleb128 0x3
 1130 00b2 39020000 		.4byte	.LASF15
 1131 00b6 05       		.byte	0x5
 1132 00b7 30       		.byte	0x30
 1133 00b8 49000000 		.4byte	0x49
 1134 00bc 03       		.uleb128 0x3
 1135 00bd 48020000 		.4byte	.LASF16
 1136 00c1 05       		.byte	0x5
 1137 00c2 31       		.byte	0x31
 1138 00c3 7B000000 		.4byte	0x7b
 1139 00c7 03       		.uleb128 0x3
 1140 00c8 72010000 		.4byte	.LASF17
 1141 00cc 05       		.byte	0x5
 1142 00cd 32       		.byte	0x32
 1143 00ce 69000000 		.4byte	0x69
 1144 00d2 03       		.uleb128 0x3
 1145 00d3 A3010000 		.4byte	.LASF18
 1146 00d7 05       		.byte	0x5
 1147 00d8 34       		.byte	0x34
 1148 00d9 7B000000 		.4byte	0x7b
 1149 00dd 03       		.uleb128 0x3
 1150 00de E3020000 		.4byte	.LASF19
 1151 00e2 05       		.byte	0x5
 1152 00e3 35       		.byte	0x35
 1153 00e4 7B000000 		.4byte	0x7b
 1154 00e8 03       		.uleb128 0x3
 1155 00e9 25010000 		.4byte	.LASF20
 1156 00ed 05       		.byte	0x5
 1157 00ee 36       		.byte	0x36
 1158 00ef 69000000 		.4byte	0x69
 1159 00f3 03       		.uleb128 0x3
 1160 00f4 9F020000 		.4byte	.LASF21
 1161 00f8 06       		.byte	0x6
 1162 00f9 29       		.byte	0x29
 1163 00fa FE000000 		.4byte	0xfe
 1164 00fe 05       		.uleb128 0x5
 1165 00ff 9F020000 		.4byte	.LASF21
 1166 0103 44       		.byte	0x44
 1167 0104 06       		.byte	0x6
 1168 0105 29       		.byte	0x29
 1169 0106 07020000 		.4byte	0x207
 1170 010a 06       		.uleb128 0x6
 1171 010b 90020000 		.4byte	.LASF22
 1172 010f 07       		.byte	0x7
 1173 0110 2F       		.byte	0x2f
 1174 0111 2C020000 		.4byte	0x22c
 1175 0115 02       		.byte	0x2
 1176 0116 23       		.byte	0x23
 1177 0117 00       		.uleb128 0x0
 1178 0118 06       		.uleb128 0x6
 1179 0119 41020000 		.4byte	.LASF23
 1180 011d 07       		.byte	0x7
ARM GAS  /tmp/ccKPFSR2.s 			page 22


 1181 011e 31       		.byte	0x31
 1182 011f 2C020000 		.4byte	0x22c
 1183 0123 02       		.byte	0x2
 1184 0124 23       		.byte	0x23
 1185 0125 04       		.uleb128 0x4
 1186 0126 06       		.uleb128 0x6
 1187 0127 54000000 		.4byte	.LASF24
 1188 012b 07       		.byte	0x7
 1189 012c 33       		.byte	0x33
 1190 012d BC000000 		.4byte	0xbc
 1191 0131 02       		.byte	0x2
 1192 0132 23       		.byte	0x23
 1193 0133 08       		.uleb128 0x8
 1194 0134 06       		.uleb128 0x6
 1195 0135 AB030000 		.4byte	.LASF25
 1196 0139 07       		.byte	0x7
 1197 013a 34       		.byte	0x34
 1198 013b 70020000 		.4byte	0x270
 1199 013f 02       		.byte	0x2
 1200 0140 23       		.byte	0x23
 1201 0141 0C       		.uleb128 0xc
 1202 0142 06       		.uleb128 0x6
 1203 0143 E7000000 		.4byte	.LASF26
 1204 0147 07       		.byte	0x7
 1205 0148 36       		.byte	0x36
 1206 0149 2C020000 		.4byte	0x22c
 1207 014d 02       		.byte	0x2
 1208 014e 23       		.byte	0x23
 1209 014f 10       		.uleb128 0x10
 1210 0150 06       		.uleb128 0x6
 1211 0151 EB010000 		.4byte	.LASF27
 1212 0155 07       		.byte	0x7
 1213 0156 37       		.byte	0x37
 1214 0157 2C020000 		.4byte	0x22c
 1215 015b 02       		.byte	0x2
 1216 015c 23       		.byte	0x23
 1217 015d 14       		.uleb128 0x14
 1218 015e 06       		.uleb128 0x6
 1219 015f 7A020000 		.4byte	.LASF28
 1220 0163 07       		.byte	0x7
 1221 0164 3D       		.byte	0x3d
 1222 0165 A6000000 		.4byte	0xa6
 1223 0169 02       		.byte	0x2
 1224 016a 23       		.byte	0x23
 1225 016b 18       		.uleb128 0x18
 1226 016c 06       		.uleb128 0x6
 1227 016d 97020000 		.4byte	.LASF29
 1228 0171 07       		.byte	0x7
 1229 0172 41       		.byte	0x41
 1230 0173 9B000000 		.4byte	0x9b
 1231 0177 02       		.byte	0x2
 1232 0178 23       		.byte	0x23
 1233 0179 19       		.uleb128 0x19
 1234 017a 06       		.uleb128 0x6
 1235 017b 41030000 		.4byte	.LASF30
 1236 017f 07       		.byte	0x7
 1237 0180 46       		.byte	0x46
ARM GAS  /tmp/ccKPFSR2.s 			page 23


 1238 0181 B1000000 		.4byte	0xb1
 1239 0185 02       		.byte	0x2
 1240 0186 23       		.byte	0x23
 1241 0187 1A       		.uleb128 0x1a
 1242 0188 06       		.uleb128 0x6
 1243 0189 0C030000 		.4byte	.LASF31
 1244 018d 07       		.byte	0x7
 1245 018e 53       		.byte	0x53
 1246 018f DA030000 		.4byte	0x3da
 1247 0193 02       		.byte	0x2
 1248 0194 23       		.byte	0x23
 1249 0195 1C       		.uleb128 0x1c
 1250 0196 07       		.uleb128 0x7
 1251 0197 705F7500 		.ascii	"p_u\000"
 1252 019b 07       		.byte	0x7
 1253 019c 78       		.byte	0x78
 1254 019d A8040000 		.4byte	0x4a8
 1255 01a1 02       		.byte	0x2
 1256 01a2 23       		.byte	0x23
 1257 01a3 20       		.uleb128 0x20
 1258 01a4 06       		.uleb128 0x6
 1259 01a5 B1030000 		.4byte	.LASF32
 1260 01a9 07       		.byte	0x7
 1261 01aa 7D       		.byte	0x7d
 1262 01ab 54020000 		.4byte	0x254
 1263 01af 02       		.byte	0x2
 1264 01b0 23       		.byte	0x23
 1265 01b1 24       		.uleb128 0x24
 1266 01b2 06       		.uleb128 0x6
 1267 01b3 1A030000 		.4byte	.LASF33
 1268 01b7 07       		.byte	0x7
 1269 01b8 83       		.byte	0x83
 1270 01b9 32020000 		.4byte	0x232
 1271 01bd 02       		.byte	0x2
 1272 01be 23       		.byte	0x23
 1273 01bf 28       		.uleb128 0x28
 1274 01c0 06       		.uleb128 0x6
 1275 01c1 08000000 		.4byte	.LASF34
 1276 01c5 07       		.byte	0x7
 1277 01c6 87       		.byte	0x87
 1278 01c7 C7000000 		.4byte	0xc7
 1279 01cb 02       		.byte	0x2
 1280 01cc 23       		.byte	0x23
 1281 01cd 30       		.uleb128 0x30
 1282 01ce 06       		.uleb128 0x6
 1283 01cf A6020000 		.4byte	.LASF35
 1284 01d3 07       		.byte	0x7
 1285 01d4 8D       		.byte	0x8d
 1286 01d5 D2000000 		.4byte	0xd2
 1287 01d9 02       		.byte	0x2
 1288 01da 23       		.byte	0x23
 1289 01db 34       		.uleb128 0x34
 1290 01dc 06       		.uleb128 0x6
 1291 01dd 66020000 		.4byte	.LASF36
 1292 01e1 07       		.byte	0x7
 1293 01e2 94       		.byte	0x94
 1294 01e3 DD040000 		.4byte	0x4dd
ARM GAS  /tmp/ccKPFSR2.s 			page 24


 1295 01e7 02       		.byte	0x2
 1296 01e8 23       		.byte	0x23
 1297 01e9 38       		.uleb128 0x38
 1298 01ea 06       		.uleb128 0x6
 1299 01eb ED020000 		.4byte	.LASF37
 1300 01ef 07       		.byte	0x7
 1301 01f0 98       		.byte	0x98
 1302 01f1 BC000000 		.4byte	0xbc
 1303 01f5 02       		.byte	0x2
 1304 01f6 23       		.byte	0x23
 1305 01f7 3C       		.uleb128 0x3c
 1306 01f8 06       		.uleb128 0x6
 1307 01f9 AA000000 		.4byte	.LASF38
 1308 01fd 07       		.byte	0x7
 1309 01fe 9E       		.byte	0x9e
 1310 01ff 6E020000 		.4byte	0x26e
 1311 0203 02       		.byte	0x2
 1312 0204 23       		.byte	0x23
 1313 0205 40       		.uleb128 0x40
 1314 0206 00       		.byte	0x0
 1315 0207 08       		.uleb128 0x8
 1316 0208 08       		.byte	0x8
 1317 0209 06       		.byte	0x6
 1318 020a 60       		.byte	0x60
 1319 020b 2C020000 		.4byte	0x22c
 1320 020f 06       		.uleb128 0x6
 1321 0210 90020000 		.4byte	.LASF22
 1322 0214 06       		.byte	0x6
 1323 0215 61       		.byte	0x61
 1324 0216 2C020000 		.4byte	0x22c
 1325 021a 02       		.byte	0x2
 1326 021b 23       		.byte	0x23
 1327 021c 00       		.uleb128 0x0
 1328 021d 06       		.uleb128 0x6
 1329 021e 41020000 		.4byte	.LASF23
 1330 0222 06       		.byte	0x6
 1331 0223 63       		.byte	0x63
 1332 0224 2C020000 		.4byte	0x22c
 1333 0228 02       		.byte	0x2
 1334 0229 23       		.byte	0x23
 1335 022a 04       		.uleb128 0x4
 1336 022b 00       		.byte	0x0
 1337 022c 09       		.uleb128 0x9
 1338 022d 04       		.byte	0x4
 1339 022e F3000000 		.4byte	0xf3
 1340 0232 03       		.uleb128 0x3
 1341 0233 F9010000 		.4byte	.LASF39
 1342 0237 06       		.byte	0x6
 1343 0238 65       		.byte	0x65
 1344 0239 07020000 		.4byte	0x207
 1345 023d 08       		.uleb128 0x8
 1346 023e 04       		.byte	0x4
 1347 023f 06       		.byte	0x6
 1348 0240 6A       		.byte	0x6a
 1349 0241 54020000 		.4byte	0x254
 1350 0245 06       		.uleb128 0x6
 1351 0246 90020000 		.4byte	.LASF22
ARM GAS  /tmp/ccKPFSR2.s 			page 25


 1352 024a 06       		.byte	0x6
 1353 024b 6C       		.byte	0x6c
 1354 024c 2C020000 		.4byte	0x22c
 1355 0250 02       		.byte	0x2
 1356 0251 23       		.byte	0x23
 1357 0252 00       		.uleb128 0x0
 1358 0253 00       		.byte	0x0
 1359 0254 03       		.uleb128 0x3
 1360 0255 97010000 		.4byte	.LASF40
 1361 0259 06       		.byte	0x6
 1362 025a 6F       		.byte	0x6f
 1363 025b 3D020000 		.4byte	0x23d
 1364 025f 0A       		.uleb128 0xa
 1365 0260 04       		.byte	0x4
 1366 0261 07       		.byte	0x7
 1367 0262 0B       		.uleb128 0xb
 1368 0263 03010000 		.4byte	.LASF41
 1369 0267 08       		.byte	0x8
 1370 0268 0F01     		.2byte	0x10f
 1371 026a 6E020000 		.4byte	0x26e
 1372 026e 0C       		.uleb128 0xc
 1373 026f 04       		.byte	0x4
 1374 0270 0D       		.uleb128 0xd
 1375 0271 52010000 		.4byte	.LASF42
 1376 0275 04       		.byte	0x4
 1377 0276 08       		.byte	0x8
 1378 0277 2B01     		.2byte	0x12b
 1379 0279 8D020000 		.4byte	0x28d
 1380 027d 0E       		.uleb128 0xe
 1381 027e 72313300 		.ascii	"r13\000"
 1382 0282 08       		.byte	0x8
 1383 0283 2C01     		.2byte	0x12c
 1384 0285 12030000 		.4byte	0x312
 1385 0289 02       		.byte	0x2
 1386 028a 23       		.byte	0x23
 1387 028b 00       		.uleb128 0x0
 1388 028c 00       		.byte	0x0
 1389 028d 0D       		.uleb128 0xd
 1390 028e 13030000 		.4byte	.LASF43
 1391 0292 24       		.byte	0x24
 1392 0293 08       		.byte	0x8
 1393 0294 2C01     		.2byte	0x12c
 1394 0296 12030000 		.4byte	0x312
 1395 029a 07       		.uleb128 0x7
 1396 029b 723400   		.ascii	"r4\000"
 1397 029e 09       		.byte	0x9
 1398 029f 37       		.byte	0x37
 1399 02a0 62020000 		.4byte	0x262
 1400 02a4 02       		.byte	0x2
 1401 02a5 23       		.byte	0x23
 1402 02a6 00       		.uleb128 0x0
 1403 02a7 07       		.uleb128 0x7
 1404 02a8 723500   		.ascii	"r5\000"
 1405 02ab 09       		.byte	0x9
 1406 02ac 38       		.byte	0x38
 1407 02ad 62020000 		.4byte	0x262
 1408 02b1 02       		.byte	0x2
ARM GAS  /tmp/ccKPFSR2.s 			page 26


 1409 02b2 23       		.byte	0x23
 1410 02b3 04       		.uleb128 0x4
 1411 02b4 07       		.uleb128 0x7
 1412 02b5 723600   		.ascii	"r6\000"
 1413 02b8 09       		.byte	0x9
 1414 02b9 39       		.byte	0x39
 1415 02ba 62020000 		.4byte	0x262
 1416 02be 02       		.byte	0x2
 1417 02bf 23       		.byte	0x23
 1418 02c0 08       		.uleb128 0x8
 1419 02c1 07       		.uleb128 0x7
 1420 02c2 723700   		.ascii	"r7\000"
 1421 02c5 09       		.byte	0x9
 1422 02c6 3B       		.byte	0x3b
 1423 02c7 62020000 		.4byte	0x262
 1424 02cb 02       		.byte	0x2
 1425 02cc 23       		.byte	0x23
 1426 02cd 0C       		.uleb128 0xc
 1427 02ce 07       		.uleb128 0x7
 1428 02cf 723800   		.ascii	"r8\000"
 1429 02d2 09       		.byte	0x9
 1430 02d3 3D       		.byte	0x3d
 1431 02d4 62020000 		.4byte	0x262
 1432 02d8 02       		.byte	0x2
 1433 02d9 23       		.byte	0x23
 1434 02da 10       		.uleb128 0x10
 1435 02db 07       		.uleb128 0x7
 1436 02dc 723900   		.ascii	"r9\000"
 1437 02df 09       		.byte	0x9
 1438 02e0 3E       		.byte	0x3e
 1439 02e1 62020000 		.4byte	0x262
 1440 02e5 02       		.byte	0x2
 1441 02e6 23       		.byte	0x23
 1442 02e7 14       		.uleb128 0x14
 1443 02e8 07       		.uleb128 0x7
 1444 02e9 72313000 		.ascii	"r10\000"
 1445 02ed 09       		.byte	0x9
 1446 02ee 3F       		.byte	0x3f
 1447 02ef 62020000 		.4byte	0x262
 1448 02f3 02       		.byte	0x2
 1449 02f4 23       		.byte	0x23
 1450 02f5 18       		.uleb128 0x18
 1451 02f6 07       		.uleb128 0x7
 1452 02f7 72313100 		.ascii	"r11\000"
 1453 02fb 09       		.byte	0x9
 1454 02fc 40       		.byte	0x40
 1455 02fd 62020000 		.4byte	0x262
 1456 0301 02       		.byte	0x2
 1457 0302 23       		.byte	0x23
 1458 0303 1C       		.uleb128 0x1c
 1459 0304 07       		.uleb128 0x7
 1460 0305 6C7200   		.ascii	"lr\000"
 1461 0308 09       		.byte	0x9
 1462 0309 41       		.byte	0x41
 1463 030a 62020000 		.4byte	0x262
 1464 030e 02       		.byte	0x2
 1465 030f 23       		.byte	0x23
ARM GAS  /tmp/ccKPFSR2.s 			page 27


 1466 0310 20       		.uleb128 0x20
 1467 0311 00       		.byte	0x0
 1468 0312 09       		.uleb128 0x9
 1469 0313 04       		.byte	0x4
 1470 0314 8D020000 		.4byte	0x28d
 1471 0318 03       		.uleb128 0x3
 1472 0319 F8020000 		.4byte	.LASF44
 1473 031d 0A       		.byte	0xa
 1474 031e 3E       		.byte	0x3e
 1475 031f 23030000 		.4byte	0x323
 1476 0323 09       		.uleb128 0x9
 1477 0324 04       		.byte	0x4
 1478 0325 29030000 		.4byte	0x329
 1479 0329 0F       		.uleb128 0xf
 1480 032a 01       		.byte	0x1
 1481 032b 35030000 		.4byte	0x335
 1482 032f 10       		.uleb128 0x10
 1483 0330 6E020000 		.4byte	0x26e
 1484 0334 00       		.byte	0x0
 1485 0335 03       		.uleb128 0x3
 1486 0336 CF020000 		.4byte	.LASF45
 1487 033a 0A       		.byte	0xa
 1488 033b 43       		.byte	0x43
 1489 033c 40030000 		.4byte	0x340
 1490 0340 05       		.uleb128 0x5
 1491 0341 CF020000 		.4byte	.LASF45
 1492 0345 14       		.byte	0x14
 1493 0346 0A       		.byte	0xa
 1494 0347 43       		.byte	0x43
 1495 0348 93030000 		.4byte	0x393
 1496 034c 06       		.uleb128 0x6
 1497 034d 38010000 		.4byte	.LASF46
 1498 0351 0A       		.byte	0xa
 1499 0352 4B       		.byte	0x4b
 1500 0353 93030000 		.4byte	0x393
 1501 0357 02       		.byte	0x2
 1502 0358 23       		.byte	0x23
 1503 0359 00       		.uleb128 0x0
 1504 035a 06       		.uleb128 0x6
 1505 035b 0C010000 		.4byte	.LASF47
 1506 035f 0A       		.byte	0xa
 1507 0360 4D       		.byte	0x4d
 1508 0361 93030000 		.4byte	0x393
 1509 0365 02       		.byte	0x2
 1510 0366 23       		.byte	0x23
 1511 0367 04       		.uleb128 0x4
 1512 0368 06       		.uleb128 0x6
 1513 0369 CF010000 		.4byte	.LASF48
 1514 036d 0A       		.byte	0xa
 1515 036e 4F       		.byte	0x4f
 1516 036f DD000000 		.4byte	0xdd
 1517 0373 02       		.byte	0x2
 1518 0374 23       		.byte	0x23
 1519 0375 08       		.uleb128 0x8
 1520 0376 06       		.uleb128 0x6
 1521 0377 D7010000 		.4byte	.LASF49
 1522 037b 0A       		.byte	0xa
ARM GAS  /tmp/ccKPFSR2.s 			page 28


 1523 037c 50       		.byte	0x50
 1524 037d 18030000 		.4byte	0x318
 1525 0381 02       		.byte	0x2
 1526 0382 23       		.byte	0x23
 1527 0383 0C       		.uleb128 0xc
 1528 0384 06       		.uleb128 0x6
 1529 0385 2F030000 		.4byte	.LASF50
 1530 0389 0A       		.byte	0xa
 1531 038a 52       		.byte	0x52
 1532 038b 6E020000 		.4byte	0x26e
 1533 038f 02       		.byte	0x2
 1534 0390 23       		.byte	0x23
 1535 0391 10       		.uleb128 0x10
 1536 0392 00       		.byte	0x0
 1537 0393 09       		.uleb128 0x9
 1538 0394 04       		.byte	0x4
 1539 0395 35030000 		.4byte	0x335
 1540 0399 08       		.uleb128 0x8
 1541 039a 10       		.byte	0x10
 1542 039b 0A       		.byte	0xa
 1543 039c 5C       		.byte	0x5c
 1544 039d DA030000 		.4byte	0x3da
 1545 03a1 06       		.uleb128 0x6
 1546 03a2 38010000 		.4byte	.LASF46
 1547 03a6 0A       		.byte	0xa
 1548 03a7 5D       		.byte	0x5d
 1549 03a8 93030000 		.4byte	0x393
 1550 03ac 02       		.byte	0x2
 1551 03ad 23       		.byte	0x23
 1552 03ae 00       		.uleb128 0x0
 1553 03af 06       		.uleb128 0x6
 1554 03b0 0C010000 		.4byte	.LASF47
 1555 03b4 0A       		.byte	0xa
 1556 03b5 5F       		.byte	0x5f
 1557 03b6 93030000 		.4byte	0x393
 1558 03ba 02       		.byte	0x2
 1559 03bb 23       		.byte	0x23
 1560 03bc 04       		.uleb128 0x4
 1561 03bd 06       		.uleb128 0x6
 1562 03be CF010000 		.4byte	.LASF48
 1563 03c2 0A       		.byte	0xa
 1564 03c3 61       		.byte	0x61
 1565 03c4 DD000000 		.4byte	0xdd
 1566 03c8 02       		.byte	0x2
 1567 03c9 23       		.byte	0x23
 1568 03ca 08       		.uleb128 0x8
 1569 03cb 06       		.uleb128 0x6
 1570 03cc 87030000 		.4byte	.LASF51
 1571 03d0 0A       		.byte	0xa
 1572 03d1 62       		.byte	0x62
 1573 03d2 DA030000 		.4byte	0x3da
 1574 03d6 02       		.byte	0x2
 1575 03d7 23       		.byte	0x23
 1576 03d8 0C       		.uleb128 0xc
 1577 03d9 00       		.byte	0x0
 1578 03da 11       		.uleb128 0x11
 1579 03db DD000000 		.4byte	0xdd
ARM GAS  /tmp/ccKPFSR2.s 			page 29


 1580 03df 03       		.uleb128 0x3
 1581 03e0 92030000 		.4byte	.LASF52
 1582 03e4 0A       		.byte	0xa
 1583 03e5 63       		.byte	0x63
 1584 03e6 99030000 		.4byte	0x399
 1585 03ea 08       		.uleb128 0x8
 1586 03eb 20       		.byte	0x20
 1587 03ec 0B       		.byte	0xb
 1588 03ed 4F       		.byte	0x4f
 1589 03ee 55040000 		.4byte	0x455
 1590 03f2 06       		.uleb128 0x6
 1591 03f3 C7020000 		.4byte	.LASF53
 1592 03f7 0B       		.byte	0xb
 1593 03f8 50       		.byte	0x50
 1594 03f9 32020000 		.4byte	0x232
 1595 03fd 02       		.byte	0x2
 1596 03fe 23       		.byte	0x23
 1597 03ff 00       		.uleb128 0x0
 1598 0400 06       		.uleb128 0x6
 1599 0401 82020000 		.4byte	.LASF54
 1600 0405 0B       		.byte	0xb
 1601 0406 51       		.byte	0x51
 1602 0407 BC000000 		.4byte	0xbc
 1603 040b 02       		.byte	0x2
 1604 040c 23       		.byte	0x23
 1605 040d 08       		.uleb128 0x8
 1606 040e 06       		.uleb128 0x6
 1607 040f F3010000 		.4byte	.LASF55
 1608 0413 0B       		.byte	0xb
 1609 0414 53       		.byte	0x53
 1610 0415 70020000 		.4byte	0x270
 1611 0419 02       		.byte	0x2
 1612 041a 23       		.byte	0x23
 1613 041b 0C       		.uleb128 0xc
 1614 041c 06       		.uleb128 0x6
 1615 041d FB000000 		.4byte	.LASF56
 1616 0421 0B       		.byte	0xb
 1617 0422 56       		.byte	0x56
 1618 0423 2C020000 		.4byte	0x22c
 1619 0427 02       		.byte	0x2
 1620 0428 23       		.byte	0x23
 1621 0429 10       		.uleb128 0x10
 1622 042a 06       		.uleb128 0x6
 1623 042b 21020000 		.4byte	.LASF57
 1624 042f 0B       		.byte	0xb
 1625 0430 57       		.byte	0x57
 1626 0431 2C020000 		.4byte	0x22c
 1627 0435 02       		.byte	0x2
 1628 0436 23       		.byte	0x23
 1629 0437 14       		.uleb128 0x14
 1630 0438 06       		.uleb128 0x6
 1631 0439 99030000 		.4byte	.LASF58
 1632 043d 0B       		.byte	0xb
 1633 043e 5B       		.byte	0x5b
 1634 043f E8000000 		.4byte	0xe8
 1635 0443 02       		.byte	0x2
 1636 0444 23       		.byte	0x23
ARM GAS  /tmp/ccKPFSR2.s 			page 30


 1637 0445 18       		.uleb128 0x18
 1638 0446 06       		.uleb128 0x6
 1639 0447 17020000 		.4byte	.LASF59
 1640 044b 0B       		.byte	0xb
 1641 044c 5E       		.byte	0x5e
 1642 044d 2C020000 		.4byte	0x22c
 1643 0451 02       		.byte	0x2
 1644 0452 23       		.byte	0x23
 1645 0453 1C       		.uleb128 0x1c
 1646 0454 00       		.byte	0x0
 1647 0455 03       		.uleb128 0x3
 1648 0456 48030000 		.4byte	.LASF60
 1649 045a 0B       		.byte	0xb
 1650 045b 61       		.byte	0x61
 1651 045c EA030000 		.4byte	0x3ea
 1652 0460 05       		.uleb128 0x5
 1653 0461 AF010000 		.4byte	.LASF61
 1654 0465 10       		.byte	0x10
 1655 0466 0C       		.byte	0xc
 1656 0467 2B       		.byte	0x2b
 1657 0468 97040000 		.4byte	0x497
 1658 046c 06       		.uleb128 0x6
 1659 046d B2000000 		.4byte	.LASF62
 1660 0471 0C       		.byte	0xc
 1661 0472 2C       		.byte	0x2c
 1662 0473 32020000 		.4byte	0x232
 1663 0477 02       		.byte	0x2
 1664 0478 23       		.byte	0x23
 1665 0479 00       		.uleb128 0x0
 1666 047a 06       		.uleb128 0x6
 1667 047b A3030000 		.4byte	.LASF63
 1668 047f 0C       		.byte	0xc
 1669 0480 2E       		.byte	0x2e
 1670 0481 2C020000 		.4byte	0x22c
 1671 0485 02       		.byte	0x2
 1672 0486 23       		.byte	0x23
 1673 0487 08       		.uleb128 0x8
 1674 0488 06       		.uleb128 0x6
 1675 0489 DC020000 		.4byte	.LASF64
 1676 048d 0C       		.byte	0xc
 1677 048e 30       		.byte	0x30
 1678 048f 97040000 		.4byte	0x497
 1679 0493 02       		.byte	0x2
 1680 0494 23       		.byte	0x23
 1681 0495 0C       		.uleb128 0xc
 1682 0496 00       		.byte	0x0
 1683 0497 09       		.uleb128 0x9
 1684 0498 04       		.byte	0x4
 1685 0499 60040000 		.4byte	0x460
 1686 049d 03       		.uleb128 0x3
 1687 049e AF010000 		.4byte	.LASF61
 1688 04a2 0C       		.byte	0xc
 1689 04a3 32       		.byte	0x32
 1690 04a4 60040000 		.4byte	0x460
 1691 04a8 12       		.uleb128 0x12
 1692 04a9 04       		.byte	0x4
 1693 04aa 07       		.byte	0x7
ARM GAS  /tmp/ccKPFSR2.s 			page 31


 1694 04ab 5A       		.byte	0x5a
 1695 04ac DD040000 		.4byte	0x4dd
 1696 04b0 13       		.uleb128 0x13
 1697 04b1 1A000000 		.4byte	.LASF65
 1698 04b5 07       		.byte	0x7
 1699 04b6 61       		.byte	0x61
 1700 04b7 C7000000 		.4byte	0xc7
 1701 04bb 13       		.uleb128 0x13
 1702 04bc 3F000000 		.4byte	.LASF66
 1703 04c0 07       		.byte	0x7
 1704 04c1 68       		.byte	0x68
 1705 04c2 C7000000 		.4byte	0xc7
 1706 04c6 13       		.uleb128 0x13
 1707 04c7 80030000 		.4byte	.LASF67
 1708 04cb 07       		.byte	0x7
 1709 04cc 6F       		.byte	0x6f
 1710 04cd 6E020000 		.4byte	0x26e
 1711 04d1 13       		.uleb128 0x13
 1712 04d2 89020000 		.4byte	.LASF68
 1713 04d6 07       		.byte	0x7
 1714 04d7 76       		.byte	0x76
 1715 04d8 D2000000 		.4byte	0xd2
 1716 04dc 00       		.byte	0x0
 1717 04dd 09       		.uleb128 0x9
 1718 04de 04       		.byte	0x4
 1719 04df 9D040000 		.4byte	0x49d
 1720 04e3 03       		.uleb128 0x3
 1721 04e4 00000000 		.4byte	.LASF69
 1722 04e8 07       		.byte	0x7
 1723 04e9 CB       		.byte	0xcb
 1724 04ea EE040000 		.4byte	0x4ee
 1725 04ee 09       		.uleb128 0x9
 1726 04ef 04       		.byte	0x4
 1727 04f0 F4040000 		.4byte	0x4f4
 1728 04f4 14       		.uleb128 0x14
 1729 04f5 01       		.byte	0x1
 1730 04f6 C7000000 		.4byte	0xc7
 1731 04fa 04050000 		.4byte	0x504
 1732 04fe 10       		.uleb128 0x10
 1733 04ff 6E020000 		.4byte	0x26e
 1734 0503 00       		.byte	0x0
 1735 0504 15       		.uleb128 0x15
 1736 0505 0B020000 		.4byte	.LASF91
 1737 0509 02       		.byte	0x2
 1738 050a 4F       		.byte	0x4f
 1739 050b 01       		.byte	0x1
 1740 050c 03       		.byte	0x3
 1741 050d 27050000 		.4byte	0x527
 1742 0511 16       		.uleb128 0x16
 1743 0512 747000   		.ascii	"tp\000"
 1744 0515 02       		.byte	0x2
 1745 0516 4F       		.byte	0x4f
 1746 0517 2C020000 		.4byte	0x22c
 1747 051b 16       		.uleb128 0x16
 1748 051c 746C7000 		.ascii	"tlp\000"
 1749 0520 02       		.byte	0x2
 1750 0521 4F       		.byte	0x4f
ARM GAS  /tmp/ccKPFSR2.s 			page 32


 1751 0522 27050000 		.4byte	0x527
 1752 0526 00       		.byte	0x0
 1753 0527 09       		.uleb128 0x9
 1754 0528 04       		.byte	0x4
 1755 0529 54020000 		.4byte	0x254
 1756 052d 17       		.uleb128 0x17
 1757 052e EF000000 		.4byte	.LASF92
 1758 0532 02       		.byte	0x2
 1759 0533 55       		.byte	0x55
 1760 0534 01       		.byte	0x1
 1761 0535 2C020000 		.4byte	0x22c
 1762 0539 03       		.byte	0x3
 1763 053a 54050000 		.4byte	0x554
 1764 053e 16       		.uleb128 0x16
 1765 053f 746C7000 		.ascii	"tlp\000"
 1766 0543 02       		.byte	0x2
 1767 0544 55       		.byte	0x55
 1768 0545 27050000 		.4byte	0x527
 1769 0549 18       		.uleb128 0x18
 1770 054a 747000   		.ascii	"tp\000"
 1771 054d 02       		.byte	0x2
 1772 054e 57       		.byte	0x57
 1773 054f 2C020000 		.4byte	0x22c
 1774 0553 00       		.byte	0x0
 1775 0554 19       		.uleb128 0x19
 1776 0555 01       		.byte	0x1
 1777 0556 BA020000 		.4byte	.LASF71
 1778 055a 01       		.byte	0x1
 1779 055b 4D       		.byte	0x4d
 1780 055c 01       		.byte	0x1
 1781 055d 2C020000 		.4byte	0x22c
 1782 0561 00000000 		.4byte	.LFB7
 1783 0565 44000000 		.4byte	.LFE7
 1784 0569 00000000 		.4byte	.LLST0
 1785 056d 8D050000 		.4byte	0x58d
 1786 0571 1A       		.uleb128 0x1a
 1787 0572 747000   		.ascii	"tp\000"
 1788 0575 01       		.byte	0x1
 1789 0576 4D       		.byte	0x4d
 1790 0577 2C020000 		.4byte	0x22c
 1791 057b 1F000000 		.4byte	.LLST1
 1792 057f 1B       		.uleb128 0x1b
 1793 0580 15000000 		.4byte	.LASF70
 1794 0584 01       		.byte	0x1
 1795 0585 4D       		.byte	0x4d
 1796 0586 BC000000 		.4byte	0xbc
 1797 058a 01       		.byte	0x1
 1798 058b 51       		.byte	0x51
 1799 058c 00       		.byte	0x0
 1800 058d 19       		.uleb128 0x19
 1801 058e 01       		.byte	0x1
 1802 058f BA000000 		.4byte	.LASF72
 1803 0593 01       		.byte	0x1
 1804 0594 9A       		.byte	0x9a
 1805 0595 01       		.byte	0x1
 1806 0596 2C020000 		.4byte	0x22c
 1807 059a 00000000 		.4byte	.LFB8
ARM GAS  /tmp/ccKPFSR2.s 			page 33


 1808 059e 22000000 		.4byte	.LFE8
 1809 05a2 32000000 		.4byte	.LLST2
 1810 05a6 FE050000 		.4byte	0x5fe
 1811 05aa 1A       		.uleb128 0x1a
 1812 05ab 77737000 		.ascii	"wsp\000"
 1813 05af 01       		.byte	0x1
 1814 05b0 9A       		.byte	0x9a
 1815 05b1 6E020000 		.4byte	0x26e
 1816 05b5 51000000 		.4byte	.LLST3
 1817 05b9 1C       		.uleb128 0x1c
 1818 05ba 5A010000 		.4byte	.LASF73
 1819 05be 01       		.byte	0x1
 1820 05bf 9A       		.byte	0x9a
 1821 05c0 30000000 		.4byte	0x30
 1822 05c4 6F000000 		.4byte	.LLST4
 1823 05c8 1C       		.uleb128 0x1c
 1824 05c9 15000000 		.4byte	.LASF70
 1825 05cd 01       		.byte	0x1
 1826 05ce 9B       		.byte	0x9b
 1827 05cf BC000000 		.4byte	0xbc
 1828 05d3 82000000 		.4byte	.LLST5
 1829 05d7 1A       		.uleb128 0x1a
 1830 05d8 706600   		.ascii	"pf\000"
 1831 05db 01       		.byte	0x1
 1832 05dc 9B       		.byte	0x9b
 1833 05dd E3040000 		.4byte	0x4e3
 1834 05e1 95000000 		.4byte	.LLST6
 1835 05e5 1D       		.uleb128 0x1d
 1836 05e6 61726700 		.ascii	"arg\000"
 1837 05ea 01       		.byte	0x1
 1838 05eb 9B       		.byte	0x9b
 1839 05ec 6E020000 		.4byte	0x26e
 1840 05f0 02       		.byte	0x2
 1841 05f1 91       		.byte	0x91
 1842 05f2 00       		.sleb128 0
 1843 05f3 18       		.uleb128 0x18
 1844 05f4 747000   		.ascii	"tp\000"
 1845 05f7 01       		.byte	0x1
 1846 05f8 9D       		.byte	0x9d
 1847 05f9 2C020000 		.4byte	0x22c
 1848 05fd 00       		.byte	0x0
 1849 05fe 1E       		.uleb128 0x1e
 1850 05ff 01       		.byte	0x1
 1851 0600 88010000 		.4byte	.LASF75
 1852 0604 01       		.byte	0x1
 1853 0605 0D01     		.2byte	0x10d
 1854 0607 01       		.byte	0x1
 1855 0608 00000000 		.4byte	.LFB12
 1856 060c 16000000 		.4byte	.LFE12
 1857 0610 01       		.byte	0x1
 1858 0611 5D       		.byte	0x5d
 1859 0612 56060000 		.4byte	0x656
 1860 0616 1F       		.uleb128 0x1f
 1861 0617 747000   		.ascii	"tp\000"
 1862 061a 01       		.byte	0x1
 1863 061b 0D01     		.2byte	0x10d
 1864 061d 2C020000 		.4byte	0x22c
ARM GAS  /tmp/ccKPFSR2.s 			page 34


 1865 0621 01       		.byte	0x1
 1866 0622 50       		.byte	0x50
 1867 0623 20       		.uleb128 0x20
 1868 0624 00000000 		.4byte	.LBB9
 1869 0628 06000000 		.4byte	.LBE9
 1870 062c 41060000 		.4byte	0x641
 1871 0630 21       		.uleb128 0x21
 1872 0631 746D7000 		.ascii	"tmp\000"
 1873 0635 01       		.byte	0x1
 1874 0636 0F01     		.2byte	0x10f
 1875 0638 7B000000 		.4byte	0x7b
 1876 063c A8000000 		.4byte	.LLST8
 1877 0640 00       		.byte	0x0
 1878 0641 22       		.uleb128 0x22
 1879 0642 00000000 		.4byte	.Ldebug_ranges0+0x0
 1880 0646 23       		.uleb128 0x23
 1881 0647 746D7000 		.ascii	"tmp\000"
 1882 064b 01       		.byte	0x1
 1883 064c 1101     		.2byte	0x111
 1884 064e 7B000000 		.4byte	0x7b
 1885 0652 01       		.byte	0x1
 1886 0653 53       		.byte	0x53
 1887 0654 00       		.byte	0x0
 1888 0655 00       		.byte	0x0
 1889 0656 24       		.uleb128 0x24
 1890 0657 01       		.byte	0x1
 1891 0658 25030000 		.4byte	.LASF74
 1892 065c 01       		.byte	0x1
 1893 065d 8A01     		.2byte	0x18a
 1894 065f 01       		.byte	0x1
 1895 0660 C7000000 		.4byte	0xc7
 1896 0664 00000000 		.4byte	.LFB17
 1897 0668 38000000 		.4byte	.LFE17
 1898 066c BB000000 		.4byte	.LLST9
 1899 0670 E9060000 		.4byte	0x6e9
 1900 0674 25       		.uleb128 0x25
 1901 0675 747000   		.ascii	"tp\000"
 1902 0678 01       		.byte	0x1
 1903 0679 8A01     		.2byte	0x18a
 1904 067b 2C020000 		.4byte	0x22c
 1905 067f DA000000 		.4byte	.LLST10
 1906 0683 23       		.uleb128 0x23
 1907 0684 6D736700 		.ascii	"msg\000"
 1908 0688 01       		.byte	0x1
 1909 0689 8B01     		.2byte	0x18b
 1910 068b C7000000 		.4byte	0xc7
 1911 068f 01       		.byte	0x1
 1912 0690 55       		.byte	0x55
 1913 0691 20       		.uleb128 0x20
 1914 0692 04000000 		.4byte	.LBB12
 1915 0696 0A000000 		.4byte	.LBE12
 1916 069a AF060000 		.4byte	0x6af
 1917 069e 21       		.uleb128 0x21
 1918 069f 746D7000 		.ascii	"tmp\000"
 1919 06a3 01       		.byte	0x1
 1920 06a4 8F01     		.2byte	0x18f
 1921 06a6 7B000000 		.4byte	0x7b
ARM GAS  /tmp/ccKPFSR2.s 			page 35


 1922 06aa F8000000 		.4byte	.LLST11
 1923 06ae 00       		.byte	0x0
 1924 06af 26       		.uleb128 0x26
 1925 06b0 04050000 		.4byte	0x504
 1926 06b4 1A000000 		.4byte	.LBB13
 1927 06b8 20000000 		.4byte	.LBE13
 1928 06bc 01       		.byte	0x1
 1929 06bd 9501     		.2byte	0x195
 1930 06bf CE060000 		.4byte	0x6ce
 1931 06c3 27       		.uleb128 0x27
 1932 06c4 1B050000 		.4byte	0x51b
 1933 06c8 27       		.uleb128 0x27
 1934 06c9 11050000 		.4byte	0x511
 1935 06cd 00       		.byte	0x0
 1936 06ce 28       		.uleb128 0x28
 1937 06cf 28000000 		.4byte	.LBB15
 1938 06d3 2E000000 		.4byte	.LBE15
 1939 06d7 21       		.uleb128 0x21
 1940 06d8 746D7000 		.ascii	"tmp\000"
 1941 06dc 01       		.byte	0x1
 1942 06dd 9901     		.2byte	0x199
 1943 06df 7B000000 		.4byte	0x7b
 1944 06e3 0B010000 		.4byte	.LLST12
 1945 06e7 00       		.byte	0x0
 1946 06e8 00       		.byte	0x0
 1947 06e9 29       		.uleb128 0x29
 1948 06ea 01       		.byte	0x1
 1949 06eb A0000000 		.4byte	.LASF76
 1950 06ef 01       		.byte	0x1
 1951 06f0 5501     		.2byte	0x155
 1952 06f2 01       		.byte	0x1
 1953 06f3 00000000 		.4byte	.LFB16
 1954 06f7 4C000000 		.4byte	.LFE16
 1955 06fb 1E010000 		.4byte	.LLST13
 1956 06ff 64070000 		.4byte	0x764
 1957 0703 25       		.uleb128 0x25
 1958 0704 6D736700 		.ascii	"msg\000"
 1959 0708 01       		.byte	0x1
 1960 0709 5501     		.2byte	0x155
 1961 070b C7000000 		.4byte	0xc7
 1962 070f 3D010000 		.4byte	.LLST14
 1963 0713 23       		.uleb128 0x23
 1964 0714 747000   		.ascii	"tp\000"
 1965 0717 01       		.byte	0x1
 1966 0718 5601     		.2byte	0x156
 1967 071a 2C020000 		.4byte	0x22c
 1968 071e 01       		.byte	0x1
 1969 071f 54       		.byte	0x54
 1970 0720 20       		.uleb128 0x20
 1971 0721 0E000000 		.4byte	.LBB16
 1972 0725 14000000 		.4byte	.LBE16
 1973 0729 3E070000 		.4byte	0x73e
 1974 072d 21       		.uleb128 0x21
 1975 072e 746D7000 		.ascii	"tmp\000"
 1976 0732 01       		.byte	0x1
 1977 0733 5801     		.2byte	0x158
 1978 0735 7B000000 		.4byte	0x7b
ARM GAS  /tmp/ccKPFSR2.s 			page 36


 1979 0739 66010000 		.4byte	.LLST15
 1980 073d 00       		.byte	0x0
 1981 073e 2A       		.uleb128 0x2a
 1982 073f 2D050000 		.4byte	0x52d
 1983 0743 20000000 		.4byte	.LBB17
 1984 0747 24000000 		.4byte	.LBE17
 1985 074b 01       		.byte	0x1
 1986 074c 5F01     		.2byte	0x15f
 1987 074e 27       		.uleb128 0x27
 1988 074f 3E050000 		.4byte	0x53e
 1989 0753 28       		.uleb128 0x28
 1990 0754 20000000 		.4byte	.LBB18
 1991 0758 24000000 		.4byte	.LBE18
 1992 075c 2B       		.uleb128 0x2b
 1993 075d 49050000 		.4byte	0x549
 1994 0761 00       		.byte	0x0
 1995 0762 00       		.byte	0x0
 1996 0763 00       		.byte	0x0
 1997 0764 29       		.uleb128 0x29
 1998 0765 01       		.byte	0x1
 1999 0766 01030000 		.4byte	.LASF77
 2000 076a 01       		.byte	0x1
 2001 076b 4001     		.2byte	0x140
 2002 076d 01       		.byte	0x1
 2003 076e 00000000 		.4byte	.LFB15
 2004 0772 28000000 		.4byte	.LFE15
 2005 0776 84010000 		.4byte	.LLST16
 2006 077a B5070000 		.4byte	0x7b5
 2007 077e 20       		.uleb128 0x20
 2008 077f 02000000 		.4byte	.LBB19
 2009 0783 08000000 		.4byte	.LBE19
 2010 0787 9C070000 		.4byte	0x79c
 2011 078b 21       		.uleb128 0x21
 2012 078c 746D7000 		.ascii	"tmp\000"
 2013 0790 01       		.byte	0x1
 2014 0791 4201     		.2byte	0x142
 2015 0793 7B000000 		.4byte	0x7b
 2016 0797 A3010000 		.4byte	.LLST17
 2017 079b 00       		.byte	0x0
 2018 079c 28       		.uleb128 0x28
 2019 079d 20000000 		.4byte	.LBB20
 2020 07a1 26000000 		.4byte	.LBE20
 2021 07a5 23       		.uleb128 0x23
 2022 07a6 746D7000 		.ascii	"tmp\000"
 2023 07aa 01       		.byte	0x1
 2024 07ab 4401     		.2byte	0x144
 2025 07ad 7B000000 		.4byte	0x7b
 2026 07b1 01       		.byte	0x1
 2027 07b2 53       		.byte	0x53
 2028 07b3 00       		.byte	0x0
 2029 07b4 00       		.byte	0x0
 2030 07b5 29       		.uleb128 0x29
 2031 07b6 01       		.byte	0x1
 2032 07b7 29020000 		.4byte	.LASF78
 2033 07bb 01       		.byte	0x1
 2034 07bc 3101     		.2byte	0x131
 2035 07be 01       		.byte	0x1
ARM GAS  /tmp/ccKPFSR2.s 			page 37


 2036 07bf 00000000 		.4byte	.LFB14
 2037 07c3 24000000 		.4byte	.LFE14
 2038 07c7 B6010000 		.4byte	.LLST18
 2039 07cb 16080000 		.4byte	0x816
 2040 07cf 2C       		.uleb128 0x2c
 2041 07d0 06020000 		.4byte	.LASF79
 2042 07d4 01       		.byte	0x1
 2043 07d5 3101     		.2byte	0x131
 2044 07d7 DD000000 		.4byte	0xdd
 2045 07db D5010000 		.4byte	.LLST19
 2046 07df 20       		.uleb128 0x20
 2047 07e0 02000000 		.4byte	.LBB21
 2048 07e4 08000000 		.4byte	.LBE21
 2049 07e8 FD070000 		.4byte	0x7fd
 2050 07ec 21       		.uleb128 0x21
 2051 07ed 746D7000 		.ascii	"tmp\000"
 2052 07f1 01       		.byte	0x1
 2053 07f2 3301     		.2byte	0x133
 2054 07f4 7B000000 		.4byte	0x7b
 2055 07f8 FE010000 		.4byte	.LLST20
 2056 07fc 00       		.byte	0x0
 2057 07fd 28       		.uleb128 0x28
 2058 07fe 1C000000 		.4byte	.LBB22
 2059 0802 22000000 		.4byte	.LBE22
 2060 0806 23       		.uleb128 0x23
 2061 0807 746D7000 		.ascii	"tmp\000"
 2062 080b 01       		.byte	0x1
 2063 080c 3601     		.2byte	0x136
 2064 080e 7B000000 		.4byte	0x7b
 2065 0812 01       		.byte	0x1
 2066 0813 53       		.byte	0x53
 2067 0814 00       		.byte	0x0
 2068 0815 00       		.byte	0x0
 2069 0816 29       		.uleb128 0x29
 2070 0817 01       		.byte	0x1
 2071 0818 36030000 		.4byte	.LASF80
 2072 081c 01       		.byte	0x1
 2073 081d 2001     		.2byte	0x120
 2074 081f 01       		.byte	0x1
 2075 0820 00000000 		.4byte	.LFB13
 2076 0824 18000000 		.4byte	.LFE13
 2077 0828 11020000 		.4byte	.LLST21
 2078 082c 77080000 		.4byte	0x877
 2079 0830 2C       		.uleb128 0x2c
 2080 0831 06020000 		.4byte	.LASF79
 2081 0835 01       		.byte	0x1
 2082 0836 2001     		.2byte	0x120
 2083 0838 DD000000 		.4byte	0xdd
 2084 083c 30020000 		.4byte	.LLST22
 2085 0840 20       		.uleb128 0x20
 2086 0841 04000000 		.4byte	.LBB23
 2087 0845 0A000000 		.4byte	.LBE23
 2088 0849 5E080000 		.4byte	0x85e
 2089 084d 21       		.uleb128 0x21
 2090 084e 746D7000 		.ascii	"tmp\000"
 2091 0852 01       		.byte	0x1
 2092 0853 2401     		.2byte	0x124
ARM GAS  /tmp/ccKPFSR2.s 			page 38


 2093 0855 7B000000 		.4byte	0x7b
 2094 0859 4E020000 		.4byte	.LLST23
 2095 085d 00       		.byte	0x0
 2096 085e 28       		.uleb128 0x28
 2097 085f 10000000 		.4byte	.LBB24
 2098 0863 16000000 		.4byte	.LBE24
 2099 0867 23       		.uleb128 0x23
 2100 0868 746D7000 		.ascii	"tmp\000"
 2101 086c 01       		.byte	0x1
 2102 086d 2601     		.2byte	0x126
 2103 086f 7B000000 		.4byte	0x7b
 2104 0873 01       		.byte	0x1
 2105 0874 53       		.byte	0x53
 2106 0875 00       		.byte	0x0
 2107 0876 00       		.byte	0x0
 2108 0877 19       		.uleb128 0x19
 2109 0878 01       		.byte	0x1
 2110 0879 DF010000 		.4byte	.LASF81
 2111 087d 01       		.byte	0x1
 2112 087e F6       		.byte	0xf6
 2113 087f 01       		.byte	0x1
 2114 0880 2C020000 		.4byte	0x22c
 2115 0884 00000000 		.4byte	.LFB11
 2116 0888 1A000000 		.4byte	.LFE11
 2117 088c 61020000 		.4byte	.LLST24
 2118 0890 D3080000 		.4byte	0x8d3
 2119 0894 1A       		.uleb128 0x1a
 2120 0895 747000   		.ascii	"tp\000"
 2121 0898 01       		.byte	0x1
 2122 0899 F6       		.byte	0xf6
 2123 089a 2C020000 		.4byte	0x22c
 2124 089e 80020000 		.4byte	.LLST25
 2125 08a2 2D       		.uleb128 0x2d
 2126 08a3 18000000 		.4byte	.Ldebug_ranges0+0x18
 2127 08a7 BB080000 		.4byte	0x8bb
 2128 08ab 2E       		.uleb128 0x2e
 2129 08ac 746D7000 		.ascii	"tmp\000"
 2130 08b0 01       		.byte	0x1
 2131 08b1 F8       		.byte	0xf8
 2132 08b2 7B000000 		.4byte	0x7b
 2133 08b6 9E020000 		.4byte	.LLST26
 2134 08ba 00       		.byte	0x0
 2135 08bb 28       		.uleb128 0x28
 2136 08bc 10000000 		.4byte	.LBB27
 2137 08c0 16000000 		.4byte	.LBE27
 2138 08c4 2F       		.uleb128 0x2f
 2139 08c5 746D7000 		.ascii	"tmp\000"
 2140 08c9 01       		.byte	0x1
 2141 08ca FD       		.byte	0xfd
 2142 08cb 7B000000 		.4byte	0x7b
 2143 08cf 01       		.byte	0x1
 2144 08d0 53       		.byte	0x53
 2145 08d1 00       		.byte	0x0
 2146 08d2 00       		.byte	0x0
 2147 08d3 19       		.uleb128 0x19
 2148 08d4 01       		.byte	0x1
 2149 08d5 BD010000 		.4byte	.LASF82
ARM GAS  /tmp/ccKPFSR2.s 			page 39


 2150 08d9 01       		.byte	0x1
 2151 08da B6       		.byte	0xb6
 2152 08db 01       		.byte	0x1
 2153 08dc 2C020000 		.4byte	0x22c
 2154 08e0 00000000 		.4byte	.LFB9
 2155 08e4 2A000000 		.4byte	.LFE9
 2156 08e8 B1020000 		.4byte	.LLST27
 2157 08ec 7A090000 		.4byte	0x97a
 2158 08f0 1A       		.uleb128 0x1a
 2159 08f1 77737000 		.ascii	"wsp\000"
 2160 08f5 01       		.byte	0x1
 2161 08f6 B6       		.byte	0xb6
 2162 08f7 6E020000 		.4byte	0x26e
 2163 08fb DC020000 		.4byte	.LLST28
 2164 08ff 1C       		.uleb128 0x1c
 2165 0900 5A010000 		.4byte	.LASF73
 2166 0904 01       		.byte	0x1
 2167 0905 B6       		.byte	0xb6
 2168 0906 30000000 		.4byte	0x30
 2169 090a EF020000 		.4byte	.LLST29
 2170 090e 1C       		.uleb128 0x1c
 2171 090f 15000000 		.4byte	.LASF70
 2172 0913 01       		.byte	0x1
 2173 0914 B7       		.byte	0xb7
 2174 0915 BC000000 		.4byte	0xbc
 2175 0919 02030000 		.4byte	.LLST30
 2176 091d 1A       		.uleb128 0x1a
 2177 091e 706600   		.ascii	"pf\000"
 2178 0921 01       		.byte	0x1
 2179 0922 B7       		.byte	0xb7
 2180 0923 E3040000 		.4byte	0x4e3
 2181 0927 15030000 		.4byte	.LLST31
 2182 092b 1D       		.uleb128 0x1d
 2183 092c 61726700 		.ascii	"arg\000"
 2184 0930 01       		.byte	0x1
 2185 0931 B7       		.byte	0xb7
 2186 0932 6E020000 		.4byte	0x26e
 2187 0936 02       		.byte	0x2
 2188 0937 91       		.byte	0x91
 2189 0938 00       		.sleb128 0
 2190 0939 2F       		.uleb128 0x2f
 2191 093a 747000   		.ascii	"tp\000"
 2192 093d 01       		.byte	0x1
 2193 093e B8       		.byte	0xb8
 2194 093f 2C020000 		.4byte	0x22c
 2195 0943 01       		.byte	0x1
 2196 0944 54       		.byte	0x54
 2197 0945 20       		.uleb128 0x20
 2198 0946 06000000 		.4byte	.LBB28
 2199 094a 0C000000 		.4byte	.LBE28
 2200 094e 62090000 		.4byte	0x962
 2201 0952 2E       		.uleb128 0x2e
 2202 0953 746D7000 		.ascii	"tmp\000"
 2203 0957 01       		.byte	0x1
 2204 0958 C2       		.byte	0xc2
 2205 0959 7B000000 		.4byte	0x7b
 2206 095d 33030000 		.4byte	.LLST32
ARM GAS  /tmp/ccKPFSR2.s 			page 40


 2207 0961 00       		.byte	0x0
 2208 0962 28       		.uleb128 0x28
 2209 0963 1E000000 		.4byte	.LBB29
 2210 0967 24000000 		.4byte	.LBE29
 2211 096b 2F       		.uleb128 0x2f
 2212 096c 746D7000 		.ascii	"tmp\000"
 2213 0970 01       		.byte	0x1
 2214 0971 C4       		.byte	0xc4
 2215 0972 7B000000 		.4byte	0x7b
 2216 0976 01       		.byte	0x1
 2217 0977 53       		.byte	0x53
 2218 0978 00       		.byte	0x0
 2219 0979 00       		.byte	0x0
 2220 097a 19       		.uleb128 0x19
 2221 097b 01       		.byte	0x1
 2222 097c 14010000 		.4byte	.LASF83
 2223 0980 01       		.byte	0x1
 2224 0981 D4       		.byte	0xd4
 2225 0982 01       		.byte	0x1
 2226 0983 BC000000 		.4byte	0xbc
 2227 0987 00000000 		.4byte	.LFB10
 2228 098b 30000000 		.4byte	.LFE10
 2229 098f 46030000 		.4byte	.LLST33
 2230 0993 E8090000 		.4byte	0x9e8
 2231 0997 1C       		.uleb128 0x1c
 2232 0998 78010000 		.4byte	.LASF84
 2233 099c 01       		.byte	0x1
 2234 099d D4       		.byte	0xd4
 2235 099e BC000000 		.4byte	0xbc
 2236 09a2 65030000 		.4byte	.LLST34
 2237 09a6 30       		.uleb128 0x30
 2238 09a7 B5010000 		.4byte	.LASF85
 2239 09ab 01       		.byte	0x1
 2240 09ac D5       		.byte	0xd5
 2241 09ad BC000000 		.4byte	0xbc
 2242 09b1 01       		.byte	0x1
 2243 09b2 54       		.byte	0x54
 2244 09b3 20       		.uleb128 0x20
 2245 09b4 02000000 		.4byte	.LBB30
 2246 09b8 08000000 		.4byte	.LBE30
 2247 09bc D0090000 		.4byte	0x9d0
 2248 09c0 2E       		.uleb128 0x2e
 2249 09c1 746D7000 		.ascii	"tmp\000"
 2250 09c5 01       		.byte	0x1
 2251 09c6 DA       		.byte	0xda
 2252 09c7 7B000000 		.4byte	0x7b
 2253 09cb 78030000 		.4byte	.LLST35
 2254 09cf 00       		.byte	0x0
 2255 09d0 28       		.uleb128 0x28
 2256 09d1 26000000 		.4byte	.LBB31
 2257 09d5 2C000000 		.4byte	.LBE31
 2258 09d9 2F       		.uleb128 0x2f
 2259 09da 746D7000 		.ascii	"tmp\000"
 2260 09de 01       		.byte	0x1
 2261 09df E5       		.byte	0xe5
 2262 09e0 7B000000 		.4byte	0x7b
 2263 09e4 01       		.byte	0x1
ARM GAS  /tmp/ccKPFSR2.s 			page 41


 2264 09e5 53       		.byte	0x53
 2265 09e6 00       		.byte	0x0
 2266 09e7 00       		.byte	0x0
 2267 09e8 31       		.uleb128 0x31
 2268 09e9 21000000 		.4byte	.LASF86
 2269 09ed 0A       		.byte	0xa
 2270 09ee 65       		.byte	0x65
 2271 09ef DF030000 		.4byte	0x3df
 2272 09f3 01       		.byte	0x1
 2273 09f4 01       		.byte	0x1
 2274 09f5 31       		.uleb128 0x31
 2275 09f6 52030000 		.4byte	.LASF87
 2276 09fa 0B       		.byte	0xb
 2277 09fb 65       		.byte	0x65
 2278 09fc 55040000 		.4byte	0x455
 2279 0a00 01       		.byte	0x1
 2280 0a01 01       		.byte	0x1
 2281 0a02 00       		.byte	0x0
 2282              		.section	.debug_abbrev
 2283 0000 01       		.uleb128 0x1
 2284 0001 11       		.uleb128 0x11
 2285 0002 01       		.byte	0x1
 2286 0003 25       		.uleb128 0x25
 2287 0004 0E       		.uleb128 0xe
 2288 0005 13       		.uleb128 0x13
 2289 0006 0B       		.uleb128 0xb
 2290 0007 03       		.uleb128 0x3
 2291 0008 0E       		.uleb128 0xe
 2292 0009 1B       		.uleb128 0x1b
 2293 000a 0E       		.uleb128 0xe
 2294 000b 11       		.uleb128 0x11
 2295 000c 01       		.uleb128 0x1
 2296 000d 52       		.uleb128 0x52
 2297 000e 01       		.uleb128 0x1
 2298 000f 55       		.uleb128 0x55
 2299 0010 06       		.uleb128 0x6
 2300 0011 10       		.uleb128 0x10
 2301 0012 06       		.uleb128 0x6
 2302 0013 00       		.byte	0x0
 2303 0014 00       		.byte	0x0
 2304 0015 02       		.uleb128 0x2
 2305 0016 24       		.uleb128 0x24
 2306 0017 00       		.byte	0x0
 2307 0018 0B       		.uleb128 0xb
 2308 0019 0B       		.uleb128 0xb
 2309 001a 3E       		.uleb128 0x3e
 2310 001b 0B       		.uleb128 0xb
 2311 001c 03       		.uleb128 0x3
 2312 001d 08       		.uleb128 0x8
 2313 001e 00       		.byte	0x0
 2314 001f 00       		.byte	0x0
 2315 0020 03       		.uleb128 0x3
 2316 0021 16       		.uleb128 0x16
 2317 0022 00       		.byte	0x0
 2318 0023 03       		.uleb128 0x3
 2319 0024 0E       		.uleb128 0xe
 2320 0025 3A       		.uleb128 0x3a
ARM GAS  /tmp/ccKPFSR2.s 			page 42


 2321 0026 0B       		.uleb128 0xb
 2322 0027 3B       		.uleb128 0x3b
 2323 0028 0B       		.uleb128 0xb
 2324 0029 49       		.uleb128 0x49
 2325 002a 13       		.uleb128 0x13
 2326 002b 00       		.byte	0x0
 2327 002c 00       		.byte	0x0
 2328 002d 04       		.uleb128 0x4
 2329 002e 24       		.uleb128 0x24
 2330 002f 00       		.byte	0x0
 2331 0030 0B       		.uleb128 0xb
 2332 0031 0B       		.uleb128 0xb
 2333 0032 3E       		.uleb128 0x3e
 2334 0033 0B       		.uleb128 0xb
 2335 0034 03       		.uleb128 0x3
 2336 0035 0E       		.uleb128 0xe
 2337 0036 00       		.byte	0x0
 2338 0037 00       		.byte	0x0
 2339 0038 05       		.uleb128 0x5
 2340 0039 13       		.uleb128 0x13
 2341 003a 01       		.byte	0x1
 2342 003b 03       		.uleb128 0x3
 2343 003c 0E       		.uleb128 0xe
 2344 003d 0B       		.uleb128 0xb
 2345 003e 0B       		.uleb128 0xb
 2346 003f 3A       		.uleb128 0x3a
 2347 0040 0B       		.uleb128 0xb
 2348 0041 3B       		.uleb128 0x3b
 2349 0042 0B       		.uleb128 0xb
 2350 0043 01       		.uleb128 0x1
 2351 0044 13       		.uleb128 0x13
 2352 0045 00       		.byte	0x0
 2353 0046 00       		.byte	0x0
 2354 0047 06       		.uleb128 0x6
 2355 0048 0D       		.uleb128 0xd
 2356 0049 00       		.byte	0x0
 2357 004a 03       		.uleb128 0x3
 2358 004b 0E       		.uleb128 0xe
 2359 004c 3A       		.uleb128 0x3a
 2360 004d 0B       		.uleb128 0xb
 2361 004e 3B       		.uleb128 0x3b
 2362 004f 0B       		.uleb128 0xb
 2363 0050 49       		.uleb128 0x49
 2364 0051 13       		.uleb128 0x13
 2365 0052 38       		.uleb128 0x38
 2366 0053 0A       		.uleb128 0xa
 2367 0054 00       		.byte	0x0
 2368 0055 00       		.byte	0x0
 2369 0056 07       		.uleb128 0x7
 2370 0057 0D       		.uleb128 0xd
 2371 0058 00       		.byte	0x0
 2372 0059 03       		.uleb128 0x3
 2373 005a 08       		.uleb128 0x8
 2374 005b 3A       		.uleb128 0x3a
 2375 005c 0B       		.uleb128 0xb
 2376 005d 3B       		.uleb128 0x3b
 2377 005e 0B       		.uleb128 0xb
ARM GAS  /tmp/ccKPFSR2.s 			page 43


 2378 005f 49       		.uleb128 0x49
 2379 0060 13       		.uleb128 0x13
 2380 0061 38       		.uleb128 0x38
 2381 0062 0A       		.uleb128 0xa
 2382 0063 00       		.byte	0x0
 2383 0064 00       		.byte	0x0
 2384 0065 08       		.uleb128 0x8
 2385 0066 13       		.uleb128 0x13
 2386 0067 01       		.byte	0x1
 2387 0068 0B       		.uleb128 0xb
 2388 0069 0B       		.uleb128 0xb
 2389 006a 3A       		.uleb128 0x3a
 2390 006b 0B       		.uleb128 0xb
 2391 006c 3B       		.uleb128 0x3b
 2392 006d 0B       		.uleb128 0xb
 2393 006e 01       		.uleb128 0x1
 2394 006f 13       		.uleb128 0x13
 2395 0070 00       		.byte	0x0
 2396 0071 00       		.byte	0x0
 2397 0072 09       		.uleb128 0x9
 2398 0073 0F       		.uleb128 0xf
 2399 0074 00       		.byte	0x0
 2400 0075 0B       		.uleb128 0xb
 2401 0076 0B       		.uleb128 0xb
 2402 0077 49       		.uleb128 0x49
 2403 0078 13       		.uleb128 0x13
 2404 0079 00       		.byte	0x0
 2405 007a 00       		.byte	0x0
 2406 007b 0A       		.uleb128 0xa
 2407 007c 24       		.uleb128 0x24
 2408 007d 00       		.byte	0x0
 2409 007e 0B       		.uleb128 0xb
 2410 007f 0B       		.uleb128 0xb
 2411 0080 3E       		.uleb128 0x3e
 2412 0081 0B       		.uleb128 0xb
 2413 0082 00       		.byte	0x0
 2414 0083 00       		.byte	0x0
 2415 0084 0B       		.uleb128 0xb
 2416 0085 16       		.uleb128 0x16
 2417 0086 00       		.byte	0x0
 2418 0087 03       		.uleb128 0x3
 2419 0088 0E       		.uleb128 0xe
 2420 0089 3A       		.uleb128 0x3a
 2421 008a 0B       		.uleb128 0xb
 2422 008b 3B       		.uleb128 0x3b
 2423 008c 05       		.uleb128 0x5
 2424 008d 49       		.uleb128 0x49
 2425 008e 13       		.uleb128 0x13
 2426 008f 00       		.byte	0x0
 2427 0090 00       		.byte	0x0
 2428 0091 0C       		.uleb128 0xc
 2429 0092 0F       		.uleb128 0xf
 2430 0093 00       		.byte	0x0
 2431 0094 0B       		.uleb128 0xb
 2432 0095 0B       		.uleb128 0xb
 2433 0096 00       		.byte	0x0
 2434 0097 00       		.byte	0x0
ARM GAS  /tmp/ccKPFSR2.s 			page 44


 2435 0098 0D       		.uleb128 0xd
 2436 0099 13       		.uleb128 0x13
 2437 009a 01       		.byte	0x1
 2438 009b 03       		.uleb128 0x3
 2439 009c 0E       		.uleb128 0xe
 2440 009d 0B       		.uleb128 0xb
 2441 009e 0B       		.uleb128 0xb
 2442 009f 3A       		.uleb128 0x3a
 2443 00a0 0B       		.uleb128 0xb
 2444 00a1 3B       		.uleb128 0x3b
 2445 00a2 05       		.uleb128 0x5
 2446 00a3 01       		.uleb128 0x1
 2447 00a4 13       		.uleb128 0x13
 2448 00a5 00       		.byte	0x0
 2449 00a6 00       		.byte	0x0
 2450 00a7 0E       		.uleb128 0xe
 2451 00a8 0D       		.uleb128 0xd
 2452 00a9 00       		.byte	0x0
 2453 00aa 03       		.uleb128 0x3
 2454 00ab 08       		.uleb128 0x8
 2455 00ac 3A       		.uleb128 0x3a
 2456 00ad 0B       		.uleb128 0xb
 2457 00ae 3B       		.uleb128 0x3b
 2458 00af 05       		.uleb128 0x5
 2459 00b0 49       		.uleb128 0x49
 2460 00b1 13       		.uleb128 0x13
 2461 00b2 38       		.uleb128 0x38
 2462 00b3 0A       		.uleb128 0xa
 2463 00b4 00       		.byte	0x0
 2464 00b5 00       		.byte	0x0
 2465 00b6 0F       		.uleb128 0xf
 2466 00b7 15       		.uleb128 0x15
 2467 00b8 01       		.byte	0x1
 2468 00b9 27       		.uleb128 0x27
 2469 00ba 0C       		.uleb128 0xc
 2470 00bb 01       		.uleb128 0x1
 2471 00bc 13       		.uleb128 0x13
 2472 00bd 00       		.byte	0x0
 2473 00be 00       		.byte	0x0
 2474 00bf 10       		.uleb128 0x10
 2475 00c0 05       		.uleb128 0x5
 2476 00c1 00       		.byte	0x0
 2477 00c2 49       		.uleb128 0x49
 2478 00c3 13       		.uleb128 0x13
 2479 00c4 00       		.byte	0x0
 2480 00c5 00       		.byte	0x0
 2481 00c6 11       		.uleb128 0x11
 2482 00c7 35       		.uleb128 0x35
 2483 00c8 00       		.byte	0x0
 2484 00c9 49       		.uleb128 0x49
 2485 00ca 13       		.uleb128 0x13
 2486 00cb 00       		.byte	0x0
 2487 00cc 00       		.byte	0x0
 2488 00cd 12       		.uleb128 0x12
 2489 00ce 17       		.uleb128 0x17
 2490 00cf 01       		.byte	0x1
 2491 00d0 0B       		.uleb128 0xb
ARM GAS  /tmp/ccKPFSR2.s 			page 45


 2492 00d1 0B       		.uleb128 0xb
 2493 00d2 3A       		.uleb128 0x3a
 2494 00d3 0B       		.uleb128 0xb
 2495 00d4 3B       		.uleb128 0x3b
 2496 00d5 0B       		.uleb128 0xb
 2497 00d6 01       		.uleb128 0x1
 2498 00d7 13       		.uleb128 0x13
 2499 00d8 00       		.byte	0x0
 2500 00d9 00       		.byte	0x0
 2501 00da 13       		.uleb128 0x13
 2502 00db 0D       		.uleb128 0xd
 2503 00dc 00       		.byte	0x0
 2504 00dd 03       		.uleb128 0x3
 2505 00de 0E       		.uleb128 0xe
 2506 00df 3A       		.uleb128 0x3a
 2507 00e0 0B       		.uleb128 0xb
 2508 00e1 3B       		.uleb128 0x3b
 2509 00e2 0B       		.uleb128 0xb
 2510 00e3 49       		.uleb128 0x49
 2511 00e4 13       		.uleb128 0x13
 2512 00e5 00       		.byte	0x0
 2513 00e6 00       		.byte	0x0
 2514 00e7 14       		.uleb128 0x14
 2515 00e8 15       		.uleb128 0x15
 2516 00e9 01       		.byte	0x1
 2517 00ea 27       		.uleb128 0x27
 2518 00eb 0C       		.uleb128 0xc
 2519 00ec 49       		.uleb128 0x49
 2520 00ed 13       		.uleb128 0x13
 2521 00ee 01       		.uleb128 0x1
 2522 00ef 13       		.uleb128 0x13
 2523 00f0 00       		.byte	0x0
 2524 00f1 00       		.byte	0x0
 2525 00f2 15       		.uleb128 0x15
 2526 00f3 2E       		.uleb128 0x2e
 2527 00f4 01       		.byte	0x1
 2528 00f5 03       		.uleb128 0x3
 2529 00f6 0E       		.uleb128 0xe
 2530 00f7 3A       		.uleb128 0x3a
 2531 00f8 0B       		.uleb128 0xb
 2532 00f9 3B       		.uleb128 0x3b
 2533 00fa 0B       		.uleb128 0xb
 2534 00fb 27       		.uleb128 0x27
 2535 00fc 0C       		.uleb128 0xc
 2536 00fd 20       		.uleb128 0x20
 2537 00fe 0B       		.uleb128 0xb
 2538 00ff 01       		.uleb128 0x1
 2539 0100 13       		.uleb128 0x13
 2540 0101 00       		.byte	0x0
 2541 0102 00       		.byte	0x0
 2542 0103 16       		.uleb128 0x16
 2543 0104 05       		.uleb128 0x5
 2544 0105 00       		.byte	0x0
 2545 0106 03       		.uleb128 0x3
 2546 0107 08       		.uleb128 0x8
 2547 0108 3A       		.uleb128 0x3a
 2548 0109 0B       		.uleb128 0xb
ARM GAS  /tmp/ccKPFSR2.s 			page 46


 2549 010a 3B       		.uleb128 0x3b
 2550 010b 0B       		.uleb128 0xb
 2551 010c 49       		.uleb128 0x49
 2552 010d 13       		.uleb128 0x13
 2553 010e 00       		.byte	0x0
 2554 010f 00       		.byte	0x0
 2555 0110 17       		.uleb128 0x17
 2556 0111 2E       		.uleb128 0x2e
 2557 0112 01       		.byte	0x1
 2558 0113 03       		.uleb128 0x3
 2559 0114 0E       		.uleb128 0xe
 2560 0115 3A       		.uleb128 0x3a
 2561 0116 0B       		.uleb128 0xb
 2562 0117 3B       		.uleb128 0x3b
 2563 0118 0B       		.uleb128 0xb
 2564 0119 27       		.uleb128 0x27
 2565 011a 0C       		.uleb128 0xc
 2566 011b 49       		.uleb128 0x49
 2567 011c 13       		.uleb128 0x13
 2568 011d 20       		.uleb128 0x20
 2569 011e 0B       		.uleb128 0xb
 2570 011f 01       		.uleb128 0x1
 2571 0120 13       		.uleb128 0x13
 2572 0121 00       		.byte	0x0
 2573 0122 00       		.byte	0x0
 2574 0123 18       		.uleb128 0x18
 2575 0124 34       		.uleb128 0x34
 2576 0125 00       		.byte	0x0
 2577 0126 03       		.uleb128 0x3
 2578 0127 08       		.uleb128 0x8
 2579 0128 3A       		.uleb128 0x3a
 2580 0129 0B       		.uleb128 0xb
 2581 012a 3B       		.uleb128 0x3b
 2582 012b 0B       		.uleb128 0xb
 2583 012c 49       		.uleb128 0x49
 2584 012d 13       		.uleb128 0x13
 2585 012e 00       		.byte	0x0
 2586 012f 00       		.byte	0x0
 2587 0130 19       		.uleb128 0x19
 2588 0131 2E       		.uleb128 0x2e
 2589 0132 01       		.byte	0x1
 2590 0133 3F       		.uleb128 0x3f
 2591 0134 0C       		.uleb128 0xc
 2592 0135 03       		.uleb128 0x3
 2593 0136 0E       		.uleb128 0xe
 2594 0137 3A       		.uleb128 0x3a
 2595 0138 0B       		.uleb128 0xb
 2596 0139 3B       		.uleb128 0x3b
 2597 013a 0B       		.uleb128 0xb
 2598 013b 27       		.uleb128 0x27
 2599 013c 0C       		.uleb128 0xc
 2600 013d 49       		.uleb128 0x49
 2601 013e 13       		.uleb128 0x13
 2602 013f 11       		.uleb128 0x11
 2603 0140 01       		.uleb128 0x1
 2604 0141 12       		.uleb128 0x12
 2605 0142 01       		.uleb128 0x1
ARM GAS  /tmp/ccKPFSR2.s 			page 47


 2606 0143 40       		.uleb128 0x40
 2607 0144 06       		.uleb128 0x6
 2608 0145 01       		.uleb128 0x1
 2609 0146 13       		.uleb128 0x13
 2610 0147 00       		.byte	0x0
 2611 0148 00       		.byte	0x0
 2612 0149 1A       		.uleb128 0x1a
 2613 014a 05       		.uleb128 0x5
 2614 014b 00       		.byte	0x0
 2615 014c 03       		.uleb128 0x3
 2616 014d 08       		.uleb128 0x8
 2617 014e 3A       		.uleb128 0x3a
 2618 014f 0B       		.uleb128 0xb
 2619 0150 3B       		.uleb128 0x3b
 2620 0151 0B       		.uleb128 0xb
 2621 0152 49       		.uleb128 0x49
 2622 0153 13       		.uleb128 0x13
 2623 0154 02       		.uleb128 0x2
 2624 0155 06       		.uleb128 0x6
 2625 0156 00       		.byte	0x0
 2626 0157 00       		.byte	0x0
 2627 0158 1B       		.uleb128 0x1b
 2628 0159 05       		.uleb128 0x5
 2629 015a 00       		.byte	0x0
 2630 015b 03       		.uleb128 0x3
 2631 015c 0E       		.uleb128 0xe
 2632 015d 3A       		.uleb128 0x3a
 2633 015e 0B       		.uleb128 0xb
 2634 015f 3B       		.uleb128 0x3b
 2635 0160 0B       		.uleb128 0xb
 2636 0161 49       		.uleb128 0x49
 2637 0162 13       		.uleb128 0x13
 2638 0163 02       		.uleb128 0x2
 2639 0164 0A       		.uleb128 0xa
 2640 0165 00       		.byte	0x0
 2641 0166 00       		.byte	0x0
 2642 0167 1C       		.uleb128 0x1c
 2643 0168 05       		.uleb128 0x5
 2644 0169 00       		.byte	0x0
 2645 016a 03       		.uleb128 0x3
 2646 016b 0E       		.uleb128 0xe
 2647 016c 3A       		.uleb128 0x3a
 2648 016d 0B       		.uleb128 0xb
 2649 016e 3B       		.uleb128 0x3b
 2650 016f 0B       		.uleb128 0xb
 2651 0170 49       		.uleb128 0x49
 2652 0171 13       		.uleb128 0x13
 2653 0172 02       		.uleb128 0x2
 2654 0173 06       		.uleb128 0x6
 2655 0174 00       		.byte	0x0
 2656 0175 00       		.byte	0x0
 2657 0176 1D       		.uleb128 0x1d
 2658 0177 05       		.uleb128 0x5
 2659 0178 00       		.byte	0x0
 2660 0179 03       		.uleb128 0x3
 2661 017a 08       		.uleb128 0x8
 2662 017b 3A       		.uleb128 0x3a
ARM GAS  /tmp/ccKPFSR2.s 			page 48


 2663 017c 0B       		.uleb128 0xb
 2664 017d 3B       		.uleb128 0x3b
 2665 017e 0B       		.uleb128 0xb
 2666 017f 49       		.uleb128 0x49
 2667 0180 13       		.uleb128 0x13
 2668 0181 02       		.uleb128 0x2
 2669 0182 0A       		.uleb128 0xa
 2670 0183 00       		.byte	0x0
 2671 0184 00       		.byte	0x0
 2672 0185 1E       		.uleb128 0x1e
 2673 0186 2E       		.uleb128 0x2e
 2674 0187 01       		.byte	0x1
 2675 0188 3F       		.uleb128 0x3f
 2676 0189 0C       		.uleb128 0xc
 2677 018a 03       		.uleb128 0x3
 2678 018b 0E       		.uleb128 0xe
 2679 018c 3A       		.uleb128 0x3a
 2680 018d 0B       		.uleb128 0xb
 2681 018e 3B       		.uleb128 0x3b
 2682 018f 05       		.uleb128 0x5
 2683 0190 27       		.uleb128 0x27
 2684 0191 0C       		.uleb128 0xc
 2685 0192 11       		.uleb128 0x11
 2686 0193 01       		.uleb128 0x1
 2687 0194 12       		.uleb128 0x12
 2688 0195 01       		.uleb128 0x1
 2689 0196 40       		.uleb128 0x40
 2690 0197 0A       		.uleb128 0xa
 2691 0198 01       		.uleb128 0x1
 2692 0199 13       		.uleb128 0x13
 2693 019a 00       		.byte	0x0
 2694 019b 00       		.byte	0x0
 2695 019c 1F       		.uleb128 0x1f
 2696 019d 05       		.uleb128 0x5
 2697 019e 00       		.byte	0x0
 2698 019f 03       		.uleb128 0x3
 2699 01a0 08       		.uleb128 0x8
 2700 01a1 3A       		.uleb128 0x3a
 2701 01a2 0B       		.uleb128 0xb
 2702 01a3 3B       		.uleb128 0x3b
 2703 01a4 05       		.uleb128 0x5
 2704 01a5 49       		.uleb128 0x49
 2705 01a6 13       		.uleb128 0x13
 2706 01a7 02       		.uleb128 0x2
 2707 01a8 0A       		.uleb128 0xa
 2708 01a9 00       		.byte	0x0
 2709 01aa 00       		.byte	0x0
 2710 01ab 20       		.uleb128 0x20
 2711 01ac 0B       		.uleb128 0xb
 2712 01ad 01       		.byte	0x1
 2713 01ae 11       		.uleb128 0x11
 2714 01af 01       		.uleb128 0x1
 2715 01b0 12       		.uleb128 0x12
 2716 01b1 01       		.uleb128 0x1
 2717 01b2 01       		.uleb128 0x1
 2718 01b3 13       		.uleb128 0x13
 2719 01b4 00       		.byte	0x0
ARM GAS  /tmp/ccKPFSR2.s 			page 49


 2720 01b5 00       		.byte	0x0
 2721 01b6 21       		.uleb128 0x21
 2722 01b7 34       		.uleb128 0x34
 2723 01b8 00       		.byte	0x0
 2724 01b9 03       		.uleb128 0x3
 2725 01ba 08       		.uleb128 0x8
 2726 01bb 3A       		.uleb128 0x3a
 2727 01bc 0B       		.uleb128 0xb
 2728 01bd 3B       		.uleb128 0x3b
 2729 01be 05       		.uleb128 0x5
 2730 01bf 49       		.uleb128 0x49
 2731 01c0 13       		.uleb128 0x13
 2732 01c1 02       		.uleb128 0x2
 2733 01c2 06       		.uleb128 0x6
 2734 01c3 00       		.byte	0x0
 2735 01c4 00       		.byte	0x0
 2736 01c5 22       		.uleb128 0x22
 2737 01c6 0B       		.uleb128 0xb
 2738 01c7 01       		.byte	0x1
 2739 01c8 55       		.uleb128 0x55
 2740 01c9 06       		.uleb128 0x6
 2741 01ca 00       		.byte	0x0
 2742 01cb 00       		.byte	0x0
 2743 01cc 23       		.uleb128 0x23
 2744 01cd 34       		.uleb128 0x34
 2745 01ce 00       		.byte	0x0
 2746 01cf 03       		.uleb128 0x3
 2747 01d0 08       		.uleb128 0x8
 2748 01d1 3A       		.uleb128 0x3a
 2749 01d2 0B       		.uleb128 0xb
 2750 01d3 3B       		.uleb128 0x3b
 2751 01d4 05       		.uleb128 0x5
 2752 01d5 49       		.uleb128 0x49
 2753 01d6 13       		.uleb128 0x13
 2754 01d7 02       		.uleb128 0x2
 2755 01d8 0A       		.uleb128 0xa
 2756 01d9 00       		.byte	0x0
 2757 01da 00       		.byte	0x0
 2758 01db 24       		.uleb128 0x24
 2759 01dc 2E       		.uleb128 0x2e
 2760 01dd 01       		.byte	0x1
 2761 01de 3F       		.uleb128 0x3f
 2762 01df 0C       		.uleb128 0xc
 2763 01e0 03       		.uleb128 0x3
 2764 01e1 0E       		.uleb128 0xe
 2765 01e2 3A       		.uleb128 0x3a
 2766 01e3 0B       		.uleb128 0xb
 2767 01e4 3B       		.uleb128 0x3b
 2768 01e5 05       		.uleb128 0x5
 2769 01e6 27       		.uleb128 0x27
 2770 01e7 0C       		.uleb128 0xc
 2771 01e8 49       		.uleb128 0x49
 2772 01e9 13       		.uleb128 0x13
 2773 01ea 11       		.uleb128 0x11
 2774 01eb 01       		.uleb128 0x1
 2775 01ec 12       		.uleb128 0x12
 2776 01ed 01       		.uleb128 0x1
ARM GAS  /tmp/ccKPFSR2.s 			page 50


 2777 01ee 40       		.uleb128 0x40
 2778 01ef 06       		.uleb128 0x6
 2779 01f0 01       		.uleb128 0x1
 2780 01f1 13       		.uleb128 0x13
 2781 01f2 00       		.byte	0x0
 2782 01f3 00       		.byte	0x0
 2783 01f4 25       		.uleb128 0x25
 2784 01f5 05       		.uleb128 0x5
 2785 01f6 00       		.byte	0x0
 2786 01f7 03       		.uleb128 0x3
 2787 01f8 08       		.uleb128 0x8
 2788 01f9 3A       		.uleb128 0x3a
 2789 01fa 0B       		.uleb128 0xb
 2790 01fb 3B       		.uleb128 0x3b
 2791 01fc 05       		.uleb128 0x5
 2792 01fd 49       		.uleb128 0x49
 2793 01fe 13       		.uleb128 0x13
 2794 01ff 02       		.uleb128 0x2
 2795 0200 06       		.uleb128 0x6
 2796 0201 00       		.byte	0x0
 2797 0202 00       		.byte	0x0
 2798 0203 26       		.uleb128 0x26
 2799 0204 1D       		.uleb128 0x1d
 2800 0205 01       		.byte	0x1
 2801 0206 31       		.uleb128 0x31
 2802 0207 13       		.uleb128 0x13
 2803 0208 11       		.uleb128 0x11
 2804 0209 01       		.uleb128 0x1
 2805 020a 12       		.uleb128 0x12
 2806 020b 01       		.uleb128 0x1
 2807 020c 58       		.uleb128 0x58
 2808 020d 0B       		.uleb128 0xb
 2809 020e 59       		.uleb128 0x59
 2810 020f 05       		.uleb128 0x5
 2811 0210 01       		.uleb128 0x1
 2812 0211 13       		.uleb128 0x13
 2813 0212 00       		.byte	0x0
 2814 0213 00       		.byte	0x0
 2815 0214 27       		.uleb128 0x27
 2816 0215 05       		.uleb128 0x5
 2817 0216 00       		.byte	0x0
 2818 0217 31       		.uleb128 0x31
 2819 0218 13       		.uleb128 0x13
 2820 0219 00       		.byte	0x0
 2821 021a 00       		.byte	0x0
 2822 021b 28       		.uleb128 0x28
 2823 021c 0B       		.uleb128 0xb
 2824 021d 01       		.byte	0x1
 2825 021e 11       		.uleb128 0x11
 2826 021f 01       		.uleb128 0x1
 2827 0220 12       		.uleb128 0x12
 2828 0221 01       		.uleb128 0x1
 2829 0222 00       		.byte	0x0
 2830 0223 00       		.byte	0x0
 2831 0224 29       		.uleb128 0x29
 2832 0225 2E       		.uleb128 0x2e
 2833 0226 01       		.byte	0x1
ARM GAS  /tmp/ccKPFSR2.s 			page 51


 2834 0227 3F       		.uleb128 0x3f
 2835 0228 0C       		.uleb128 0xc
 2836 0229 03       		.uleb128 0x3
 2837 022a 0E       		.uleb128 0xe
 2838 022b 3A       		.uleb128 0x3a
 2839 022c 0B       		.uleb128 0xb
 2840 022d 3B       		.uleb128 0x3b
 2841 022e 05       		.uleb128 0x5
 2842 022f 27       		.uleb128 0x27
 2843 0230 0C       		.uleb128 0xc
 2844 0231 11       		.uleb128 0x11
 2845 0232 01       		.uleb128 0x1
 2846 0233 12       		.uleb128 0x12
 2847 0234 01       		.uleb128 0x1
 2848 0235 40       		.uleb128 0x40
 2849 0236 06       		.uleb128 0x6
 2850 0237 01       		.uleb128 0x1
 2851 0238 13       		.uleb128 0x13
 2852 0239 00       		.byte	0x0
 2853 023a 00       		.byte	0x0
 2854 023b 2A       		.uleb128 0x2a
 2855 023c 1D       		.uleb128 0x1d
 2856 023d 01       		.byte	0x1
 2857 023e 31       		.uleb128 0x31
 2858 023f 13       		.uleb128 0x13
 2859 0240 11       		.uleb128 0x11
 2860 0241 01       		.uleb128 0x1
 2861 0242 12       		.uleb128 0x12
 2862 0243 01       		.uleb128 0x1
 2863 0244 58       		.uleb128 0x58
 2864 0245 0B       		.uleb128 0xb
 2865 0246 59       		.uleb128 0x59
 2866 0247 05       		.uleb128 0x5
 2867 0248 00       		.byte	0x0
 2868 0249 00       		.byte	0x0
 2869 024a 2B       		.uleb128 0x2b
 2870 024b 34       		.uleb128 0x34
 2871 024c 00       		.byte	0x0
 2872 024d 31       		.uleb128 0x31
 2873 024e 13       		.uleb128 0x13
 2874 024f 00       		.byte	0x0
 2875 0250 00       		.byte	0x0
 2876 0251 2C       		.uleb128 0x2c
 2877 0252 05       		.uleb128 0x5
 2878 0253 00       		.byte	0x0
 2879 0254 03       		.uleb128 0x3
 2880 0255 0E       		.uleb128 0xe
 2881 0256 3A       		.uleb128 0x3a
 2882 0257 0B       		.uleb128 0xb
 2883 0258 3B       		.uleb128 0x3b
 2884 0259 05       		.uleb128 0x5
 2885 025a 49       		.uleb128 0x49
 2886 025b 13       		.uleb128 0x13
 2887 025c 02       		.uleb128 0x2
 2888 025d 06       		.uleb128 0x6
 2889 025e 00       		.byte	0x0
 2890 025f 00       		.byte	0x0
ARM GAS  /tmp/ccKPFSR2.s 			page 52


 2891 0260 2D       		.uleb128 0x2d
 2892 0261 0B       		.uleb128 0xb
 2893 0262 01       		.byte	0x1
 2894 0263 55       		.uleb128 0x55
 2895 0264 06       		.uleb128 0x6
 2896 0265 01       		.uleb128 0x1
 2897 0266 13       		.uleb128 0x13
 2898 0267 00       		.byte	0x0
 2899 0268 00       		.byte	0x0
 2900 0269 2E       		.uleb128 0x2e
 2901 026a 34       		.uleb128 0x34
 2902 026b 00       		.byte	0x0
 2903 026c 03       		.uleb128 0x3
 2904 026d 08       		.uleb128 0x8
 2905 026e 3A       		.uleb128 0x3a
 2906 026f 0B       		.uleb128 0xb
 2907 0270 3B       		.uleb128 0x3b
 2908 0271 0B       		.uleb128 0xb
 2909 0272 49       		.uleb128 0x49
 2910 0273 13       		.uleb128 0x13
 2911 0274 02       		.uleb128 0x2
 2912 0275 06       		.uleb128 0x6
 2913 0276 00       		.byte	0x0
 2914 0277 00       		.byte	0x0
 2915 0278 2F       		.uleb128 0x2f
 2916 0279 34       		.uleb128 0x34
 2917 027a 00       		.byte	0x0
 2918 027b 03       		.uleb128 0x3
 2919 027c 08       		.uleb128 0x8
 2920 027d 3A       		.uleb128 0x3a
 2921 027e 0B       		.uleb128 0xb
 2922 027f 3B       		.uleb128 0x3b
 2923 0280 0B       		.uleb128 0xb
 2924 0281 49       		.uleb128 0x49
 2925 0282 13       		.uleb128 0x13
 2926 0283 02       		.uleb128 0x2
 2927 0284 0A       		.uleb128 0xa
 2928 0285 00       		.byte	0x0
 2929 0286 00       		.byte	0x0
 2930 0287 30       		.uleb128 0x30
 2931 0288 34       		.uleb128 0x34
 2932 0289 00       		.byte	0x0
 2933 028a 03       		.uleb128 0x3
 2934 028b 0E       		.uleb128 0xe
 2935 028c 3A       		.uleb128 0x3a
 2936 028d 0B       		.uleb128 0xb
 2937 028e 3B       		.uleb128 0x3b
 2938 028f 0B       		.uleb128 0xb
 2939 0290 49       		.uleb128 0x49
 2940 0291 13       		.uleb128 0x13
 2941 0292 02       		.uleb128 0x2
 2942 0293 0A       		.uleb128 0xa
 2943 0294 00       		.byte	0x0
 2944 0295 00       		.byte	0x0
 2945 0296 31       		.uleb128 0x31
 2946 0297 34       		.uleb128 0x34
 2947 0298 00       		.byte	0x0
ARM GAS  /tmp/ccKPFSR2.s 			page 53


 2948 0299 03       		.uleb128 0x3
 2949 029a 0E       		.uleb128 0xe
 2950 029b 3A       		.uleb128 0x3a
 2951 029c 0B       		.uleb128 0xb
 2952 029d 3B       		.uleb128 0x3b
 2953 029e 0B       		.uleb128 0xb
 2954 029f 49       		.uleb128 0x49
 2955 02a0 13       		.uleb128 0x13
 2956 02a1 3F       		.uleb128 0x3f
 2957 02a2 0C       		.uleb128 0xc
 2958 02a3 3C       		.uleb128 0x3c
 2959 02a4 0C       		.uleb128 0xc
 2960 02a5 00       		.byte	0x0
 2961 02a6 00       		.byte	0x0
 2962 02a7 00       		.byte	0x0
 2963              		.section	.debug_pubnames,"",%progbits
 2964 0000 CC000000 		.4byte	0xcc
 2965 0004 0200     		.2byte	0x2
 2966 0006 00000000 		.4byte	.Ldebug_info0
 2967 000a 030A0000 		.4byte	0xa03
 2968 000e 54050000 		.4byte	0x554
 2969 0012 5F746872 		.ascii	"_thread_init\000"
 2969      6561645F 
 2969      696E6974 
 2969      00
 2970 001f 8D050000 		.4byte	0x58d
 2971 0023 63685468 		.ascii	"chThdCreateI\000"
 2971      64437265 
 2971      61746549 
 2971      00
 2972 0030 FE050000 		.4byte	0x5fe
 2973 0034 63685468 		.ascii	"chThdTerminate\000"
 2973      64546572 
 2973      6D696E61 
 2973      746500
 2974 0043 56060000 		.4byte	0x656
 2975 0047 63685468 		.ascii	"chThdWait\000"
 2975      64576169 
 2975      7400
 2976 0051 E9060000 		.4byte	0x6e9
 2977 0055 63685468 		.ascii	"chThdExit\000"
 2977      64457869 
 2977      7400
 2978 005f 64070000 		.4byte	0x764
 2979 0063 63685468 		.ascii	"chThdYield\000"
 2979      64596965 
 2979      6C6400
 2980 006e B5070000 		.4byte	0x7b5
 2981 0072 63685468 		.ascii	"chThdSleepUntil\000"
 2981      64536C65 
 2981      6570556E 
 2981      74696C00 
 2982 0082 16080000 		.4byte	0x816
 2983 0086 63685468 		.ascii	"chThdSleep\000"
 2983      64536C65 
 2983      657000
 2984 0091 77080000 		.4byte	0x877
ARM GAS  /tmp/ccKPFSR2.s 			page 54


 2985 0095 63685468 		.ascii	"chThdResume\000"
 2985      64526573 
 2985      756D6500 
 2986 00a1 D3080000 		.4byte	0x8d3
 2987 00a5 63685468 		.ascii	"chThdCreateStatic\000"
 2987      64437265 
 2987      61746553 
 2987      74617469 
 2987      6300
 2988 00b7 7A090000 		.4byte	0x97a
 2989 00bb 63685468 		.ascii	"chThdSetPriority\000"
 2989      64536574 
 2989      5072696F 
 2989      72697479 
 2989      00
 2990 00cc 00000000 		.4byte	0x0
 2991              		.section	.debug_aranges,"",%progbits
 2992 0000 6C000000 		.4byte	0x6c
 2993 0004 0200     		.2byte	0x2
 2994 0006 00000000 		.4byte	.Ldebug_info0
 2995 000a 04       		.byte	0x4
 2996 000b 00       		.byte	0x0
 2997 000c 0000     		.2byte	0x0
 2998 000e 0000     		.2byte	0x0
 2999 0010 00000000 		.4byte	.LFB7
 3000 0014 44000000 		.4byte	.LFE7-.LFB7
 3001 0018 00000000 		.4byte	.LFB8
 3002 001c 22000000 		.4byte	.LFE8-.LFB8
 3003 0020 00000000 		.4byte	.LFB12
 3004 0024 16000000 		.4byte	.LFE12-.LFB12
 3005 0028 00000000 		.4byte	.LFB17
 3006 002c 38000000 		.4byte	.LFE17-.LFB17
 3007 0030 00000000 		.4byte	.LFB16
 3008 0034 4C000000 		.4byte	.LFE16-.LFB16
 3009 0038 00000000 		.4byte	.LFB15
 3010 003c 28000000 		.4byte	.LFE15-.LFB15
 3011 0040 00000000 		.4byte	.LFB14
 3012 0044 24000000 		.4byte	.LFE14-.LFB14
 3013 0048 00000000 		.4byte	.LFB13
 3014 004c 18000000 		.4byte	.LFE13-.LFB13
 3015 0050 00000000 		.4byte	.LFB11
 3016 0054 1A000000 		.4byte	.LFE11-.LFB11
 3017 0058 00000000 		.4byte	.LFB9
 3018 005c 2A000000 		.4byte	.LFE9-.LFB9
 3019 0060 00000000 		.4byte	.LFB10
 3020 0064 30000000 		.4byte	.LFE10-.LFB10
 3021 0068 00000000 		.4byte	0x0
 3022 006c 00000000 		.4byte	0x0
 3023              		.section	.debug_ranges,"",%progbits
 3024              	.Ldebug_ranges0:
 3025 0000 08000000 		.4byte	.LBB10
 3026 0004 0A000000 		.4byte	.LBE10
 3027 0008 10000000 		.4byte	.LBB11
 3028 000c 14000000 		.4byte	.LBE11
 3029 0010 00000000 		.4byte	0x0
 3030 0014 00000000 		.4byte	0x0
 3031 0018 02000000 		.4byte	.LBB25
ARM GAS  /tmp/ccKPFSR2.s 			page 55


 3032 001c 04000000 		.4byte	.LBE25
 3033 0020 06000000 		.4byte	.LBB26
 3034 0024 0A000000 		.4byte	.LBE26
 3035 0028 00000000 		.4byte	0x0
 3036 002c 00000000 		.4byte	0x0
 3037 0030 00000000 		.4byte	.Ltext0
 3038 0034 00000000 		.4byte	.Letext0
 3039 0038 00000000 		.4byte	.LFB7
 3040 003c 44000000 		.4byte	.LFE7
 3041 0040 00000000 		.4byte	.LFB8
 3042 0044 22000000 		.4byte	.LFE8
 3043 0048 00000000 		.4byte	.LFB12
 3044 004c 16000000 		.4byte	.LFE12
 3045 0050 00000000 		.4byte	.LFB17
 3046 0054 38000000 		.4byte	.LFE17
 3047 0058 00000000 		.4byte	.LFB16
 3048 005c 4C000000 		.4byte	.LFE16
 3049 0060 00000000 		.4byte	.LFB15
 3050 0064 28000000 		.4byte	.LFE15
 3051 0068 00000000 		.4byte	.LFB14
 3052 006c 24000000 		.4byte	.LFE14
 3053 0070 00000000 		.4byte	.LFB13
 3054 0074 18000000 		.4byte	.LFE13
 3055 0078 00000000 		.4byte	.LFB11
 3056 007c 1A000000 		.4byte	.LFE11
 3057 0080 00000000 		.4byte	.LFB9
 3058 0084 2A000000 		.4byte	.LFE9
 3059 0088 00000000 		.4byte	.LFB10
 3060 008c 30000000 		.4byte	.LFE10
 3061 0090 00000000 		.4byte	0x0
 3062 0094 00000000 		.4byte	0x0
 3063              		.section	.debug_str,"MS",%progbits,1
 3064              	.LASF69:
 3065 0000 7466756E 		.ascii	"tfunc_t\000"
 3065      635F7400 
 3066              	.LASF34:
 3067 0008 705F6D73 		.ascii	"p_msg\000"
 3067      6700
 3068              	.LASF2:
 3069 000e 73697A65 		.ascii	"size_t\000"
 3069      5F7400
 3070              	.LASF70:
 3071 0015 7072696F 		.ascii	"prio\000"
 3071      00
 3072              	.LASF65:
 3073 001a 7264796D 		.ascii	"rdymsg\000"
 3073      736700
 3074              	.LASF86:
 3075 0021 76746C69 		.ascii	"vtlist\000"
 3075      737400
 3076              	.LASF12:
 3077 0028 6C6F6E67 		.ascii	"long long unsigned int\000"
 3077      206C6F6E 
 3077      6720756E 
 3077      7369676E 
 3077      65642069 
 3078              	.LASF66:
ARM GAS  /tmp/ccKPFSR2.s 			page 56


 3079 003f 65786974 		.ascii	"exitcode\000"
 3079      636F6465 
 3079      00
 3080              	.LASF88:
 3081 0048 474E5520 		.ascii	"GNU C 4.4.1\000"
 3081      4320342E 
 3081      342E3100 
 3082              	.LASF24:
 3083 0054 705F7072 		.ascii	"p_prio\000"
 3083      696F00
 3084              	.LASF90:
 3085 005b 2F686F6D 		.ascii	"/home/dan/Downloads/ChibiOS_2.2.3/demos/ARMCM3-STM3"
 3085      652F6461 
 3085      6E2F446F 
 3085      776E6C6F 
 3085      6164732F 
 3086 008e 32463130 		.ascii	"2F103\000"
 3086      3300
 3087              	.LASF1:
 3088 0094 7369676E 		.ascii	"signed char\000"
 3088      65642063 
 3088      68617200 
 3089              	.LASF76:
 3090 00a0 63685468 		.ascii	"chThdExit\000"
 3090      64457869 
 3090      7400
 3091              	.LASF38:
 3092 00aa 705F6D70 		.ascii	"p_mpool\000"
 3092      6F6F6C00 
 3093              	.LASF62:
 3094 00b2 6D5F7175 		.ascii	"m_queue\000"
 3094      65756500 
 3095              	.LASF72:
 3096 00ba 63685468 		.ascii	"chThdCreateI\000"
 3096      64437265 
 3096      61746549 
 3096      00
 3097              	.LASF8:
 3098 00c7 6C6F6E67 		.ascii	"long int\000"
 3098      20696E74 
 3098      00
 3099              	.LASF14:
 3100 00d0 74737461 		.ascii	"tstate_t\000"
 3100      74655F74 
 3100      00
 3101              	.LASF11:
 3102 00d9 6C6F6E67 		.ascii	"long long int\000"
 3102      206C6F6E 
 3102      6720696E 
 3102      7400
 3103              	.LASF26:
 3104 00e7 705F6E65 		.ascii	"p_newer\000"
 3104      77657200 
 3105              	.LASF92:
 3106 00ef 6C697374 		.ascii	"list_remove\000"
 3106      5F72656D 
 3106      6F766500 
ARM GAS  /tmp/ccKPFSR2.s 			page 57


 3107              	.LASF56:
 3108 00fb 725F6E65 		.ascii	"r_newer\000"
 3108      77657200 
 3109              	.LASF41:
 3110 0103 72656761 		.ascii	"regarm_t\000"
 3110      726D5F74 
 3110      00
 3111              	.LASF47:
 3112 010c 76745F70 		.ascii	"vt_prev\000"
 3112      72657600 
 3113              	.LASF83:
 3114 0114 63685468 		.ascii	"chThdSetPriority\000"
 3114      64536574 
 3114      5072696F 
 3114      72697479 
 3114      00
 3115              	.LASF20:
 3116 0125 636E745F 		.ascii	"cnt_t\000"
 3116      7400
 3117              	.LASF0:
 3118 012b 756E7369 		.ascii	"unsigned int\000"
 3118      676E6564 
 3118      20696E74 
 3118      00
 3119              	.LASF46:
 3120 0138 76745F6E 		.ascii	"vt_next\000"
 3120      65787400 
 3121              	.LASF10:
 3122 0140 6C6F6E67 		.ascii	"long unsigned int\000"
 3122      20756E73 
 3122      69676E65 
 3122      6420696E 
 3122      7400
 3123              	.LASF42:
 3124 0152 636F6E74 		.ascii	"context\000"
 3124      65787400 
 3125              	.LASF73:
 3126 015a 73697A65 		.ascii	"size\000"
 3126      00
 3127              	.LASF6:
 3128 015f 73686F72 		.ascii	"short unsigned int\000"
 3128      7420756E 
 3128      7369676E 
 3128      65642069 
 3128      6E7400
 3129              	.LASF17:
 3130 0172 6D73675F 		.ascii	"msg_t\000"
 3130      7400
 3131              	.LASF84:
 3132 0178 6E657770 		.ascii	"newprio\000"
 3132      72696F00 
 3133              	.LASF13:
 3134 0180 746D6F64 		.ascii	"tmode_t\000"
 3134      655F7400 
 3135              	.LASF75:
 3136 0188 63685468 		.ascii	"chThdTerminate\000"
 3136      64546572 
ARM GAS  /tmp/ccKPFSR2.s 			page 58


 3136      6D696E61 
 3136      746500
 3137              	.LASF40:
 3138 0197 54687265 		.ascii	"ThreadsList\000"
 3138      6164734C 
 3138      69737400 
 3139              	.LASF18:
 3140 01a3 6576656E 		.ascii	"eventmask_t\000"
 3140      746D6173 
 3140      6B5F7400 
 3141              	.LASF61:
 3142 01af 4D757465 		.ascii	"Mutex\000"
 3142      7800
 3143              	.LASF85:
 3144 01b5 6F6C6470 		.ascii	"oldprio\000"
 3144      72696F00 
 3145              	.LASF82:
 3146 01bd 63685468 		.ascii	"chThdCreateStatic\000"
 3146      64437265 
 3146      61746553 
 3146      74617469 
 3146      6300
 3147              	.LASF48:
 3148 01cf 76745F74 		.ascii	"vt_time\000"
 3148      696D6500 
 3149              	.LASF49:
 3150 01d7 76745F66 		.ascii	"vt_func\000"
 3150      756E6300 
 3151              	.LASF81:
 3152 01df 63685468 		.ascii	"chThdResume\000"
 3152      64526573 
 3152      756D6500 
 3153              	.LASF27:
 3154 01eb 705F6F6C 		.ascii	"p_older\000"
 3154      64657200 
 3155              	.LASF55:
 3156 01f3 725F6374 		.ascii	"r_ctx\000"
 3156      7800
 3157              	.LASF39:
 3158 01f9 54687265 		.ascii	"ThreadsQueue\000"
 3158      61647351 
 3158      75657565 
 3158      00
 3159              	.LASF79:
 3160 0206 74696D65 		.ascii	"time\000"
 3160      00
 3161              	.LASF91:
 3162 020b 6C697374 		.ascii	"list_insert\000"
 3162      5F696E73 
 3162      65727400 
 3163              	.LASF59:
 3164 0217 725F6375 		.ascii	"r_current\000"
 3164      7272656E 
 3164      7400
 3165              	.LASF57:
 3166 0221 725F6F6C 		.ascii	"r_older\000"
 3166      64657200 
ARM GAS  /tmp/ccKPFSR2.s 			page 59


 3167              	.LASF78:
 3168 0229 63685468 		.ascii	"chThdSleepUntil\000"
 3168      64536C65 
 3168      6570556E 
 3168      74696C00 
 3169              	.LASF15:
 3170 0239 74726566 		.ascii	"trefs_t\000"
 3170      735F7400 
 3171              	.LASF23:
 3172 0241 705F7072 		.ascii	"p_prev\000"
 3172      657600
 3173              	.LASF16:
 3174 0248 74707269 		.ascii	"tprio_t\000"
 3174      6F5F7400 
 3175              	.LASF7:
 3176 0250 696E7433 		.ascii	"int32_t\000"
 3176      325F7400 
 3177              	.LASF4:
 3178 0258 756E7369 		.ascii	"unsigned char\000"
 3178      676E6564 
 3178      20636861 
 3178      7200
 3179              	.LASF36:
 3180 0266 705F6D74 		.ascii	"p_mtxlist\000"
 3180      786C6973 
 3180      7400
 3181              	.LASF5:
 3182 0270 73686F72 		.ascii	"short int\000"
 3182      7420696E 
 3182      7400
 3183              	.LASF28:
 3184 027a 705F7374 		.ascii	"p_state\000"
 3184      61746500 
 3185              	.LASF54:
 3186 0282 725F7072 		.ascii	"r_prio\000"
 3186      696F00
 3187              	.LASF68:
 3188 0289 65776D61 		.ascii	"ewmask\000"
 3188      736B00
 3189              	.LASF22:
 3190 0290 705F6E65 		.ascii	"p_next\000"
 3190      787400
 3191              	.LASF29:
 3192 0297 705F666C 		.ascii	"p_flags\000"
 3192      61677300 
 3193              	.LASF21:
 3194 029f 54687265 		.ascii	"Thread\000"
 3194      616400
 3195              	.LASF35:
 3196 02a6 705F6570 		.ascii	"p_epending\000"
 3196      656E6469 
 3196      6E6700
 3197              	.LASF9:
 3198 02b1 75696E74 		.ascii	"uint32_t\000"
 3198      33325F74 
 3198      00
 3199              	.LASF71:
ARM GAS  /tmp/ccKPFSR2.s 			page 60


 3200 02ba 5F746872 		.ascii	"_thread_init\000"
 3200      6561645F 
 3200      696E6974 
 3200      00
 3201              	.LASF53:
 3202 02c7 725F7175 		.ascii	"r_queue\000"
 3202      65756500 
 3203              	.LASF45:
 3204 02cf 56697274 		.ascii	"VirtualTimer\000"
 3204      75616C54 
 3204      696D6572 
 3204      00
 3205              	.LASF64:
 3206 02dc 6D5F6E65 		.ascii	"m_next\000"
 3206      787400
 3207              	.LASF19:
 3208 02e3 73797374 		.ascii	"systime_t\000"
 3208      696D655F 
 3208      7400
 3209              	.LASF37:
 3210 02ed 705F7265 		.ascii	"p_realprio\000"
 3210      616C7072 
 3210      696F00
 3211              	.LASF44:
 3212 02f8 76746675 		.ascii	"vtfunc_t\000"
 3212      6E635F74 
 3212      00
 3213              	.LASF77:
 3214 0301 63685468 		.ascii	"chThdYield\000"
 3214      64596965 
 3214      6C6400
 3215              	.LASF31:
 3216 030c 705F7469 		.ascii	"p_time\000"
 3216      6D6500
 3217              	.LASF43:
 3218 0313 696E7463 		.ascii	"intctx\000"
 3218      747800
 3219              	.LASF33:
 3220 031a 705F6D73 		.ascii	"p_msgqueue\000"
 3220      67717565 
 3220      756500
 3221              	.LASF74:
 3222 0325 63685468 		.ascii	"chThdWait\000"
 3222      64576169 
 3222      7400
 3223              	.LASF50:
 3224 032f 76745F70 		.ascii	"vt_par\000"
 3224      617200
 3225              	.LASF80:
 3226 0336 63685468 		.ascii	"chThdSleep\000"
 3226      64536C65 
 3226      657000
 3227              	.LASF30:
 3228 0341 705F7265 		.ascii	"p_refs\000"
 3228      667300
 3229              	.LASF60:
 3230 0348 52656164 		.ascii	"ReadyList\000"
ARM GAS  /tmp/ccKPFSR2.s 			page 61


 3230      794C6973 
 3230      7400
 3231              	.LASF87:
 3232 0352 726C6973 		.ascii	"rlist\000"
 3232      7400
 3233              	.LASF3:
 3234 0358 75696E74 		.ascii	"uint8_t\000"
 3234      385F7400 
 3235              	.LASF89:
 3236 0360 2E2E2F2E 		.ascii	"../../os/kernel/src/chthreads.c\000"
 3236      2E2F6F73 
 3236      2F6B6572 
 3236      6E656C2F 
 3236      7372632F 
 3237              	.LASF67:
 3238 0380 77746F62 		.ascii	"wtobjp\000"
 3238      6A7000
 3239              	.LASF51:
 3240 0387 76745F73 		.ascii	"vt_systime\000"
 3240      79737469 
 3240      6D6500
 3241              	.LASF52:
 3242 0392 56544C69 		.ascii	"VTList\000"
 3242      737400
 3243              	.LASF58:
 3244 0399 725F7072 		.ascii	"r_preempt\000"
 3244      65656D70 
 3244      7400
 3245              	.LASF63:
 3246 03a3 6D5F6F77 		.ascii	"m_owner\000"
 3246      6E657200 
 3247              	.LASF25:
 3248 03ab 705F6374 		.ascii	"p_ctx\000"
 3248      7800
 3249              	.LASF32:
 3250 03b1 705F7761 		.ascii	"p_waiting\000"
 3250      6974696E 
 3250      6700
 3251              		.ident	"GCC: (Red Suite 2010Q1 by Code Red) 4.4.1"
ARM GAS  /tmp/ccKPFSR2.s 			page 62


DEFINED SYMBOLS
                            *ABS*:00000000 chthreads.c
     /tmp/ccKPFSR2.s:24     .text._thread_init:00000000 $t
     /tmp/ccKPFSR2.s:30     .text._thread_init:00000000 _thread_init
     /tmp/ccKPFSR2.s:100    .text.chThdCreateI:00000000 $t
     /tmp/ccKPFSR2.s:106    .text.chThdCreateI:00000000 chThdCreateI
     /tmp/ccKPFSR2.s:146    .text.chThdTerminate:00000000 $t
     /tmp/ccKPFSR2.s:152    .text.chThdTerminate:00000000 chThdTerminate
     /tmp/ccKPFSR2.s:192    .text.chThdWait:00000000 $t
     /tmp/ccKPFSR2.s:198    .text.chThdWait:00000000 chThdWait
     /tmp/ccKPFSR2.s:272    .text.chThdExit:00000000 $t
     /tmp/ccKPFSR2.s:278    .text.chThdExit:00000000 chThdExit
     /tmp/ccKPFSR2.s:359    .text.chThdYield:00000000 $t
     /tmp/ccKPFSR2.s:365    .text.chThdYield:00000000 chThdYield
     /tmp/ccKPFSR2.s:412    .text.chThdSleepUntil:00000000 $t
     /tmp/ccKPFSR2.s:418    .text.chThdSleepUntil:00000000 chThdSleepUntil
     /tmp/ccKPFSR2.s:467    .text.chThdSleep:00000000 $t
     /tmp/ccKPFSR2.s:473    .text.chThdSleep:00000000 chThdSleep
     /tmp/ccKPFSR2.s:516    .text.chThdResume:00000000 $t
     /tmp/ccKPFSR2.s:522    .text.chThdResume:00000000 chThdResume
     /tmp/ccKPFSR2.s:568    .text.chThdCreateStatic:00000000 $t
     /tmp/ccKPFSR2.s:574    .text.chThdCreateStatic:00000000 chThdCreateStatic
     /tmp/ccKPFSR2.s:627    .text.chThdSetPriority:00000000 $t
     /tmp/ccKPFSR2.s:633    .text.chThdSetPriority:00000000 chThdSetPriority
                     .debug_frame:00000010 $d

UNDEFINED SYMBOLS
rlist
_port_thread_start
chSchGoSleepS
chThdRelease
chSchReadyI
chSchDoRescheduleI
vtlist
chSchGoSleepTimeoutS
chSchWakeupS
chSchRescheduleS
