ARM GAS  /tmp/ccKPFSR2.s 			page 1


   1              		.syntax unified
   2              		.cpu cortex-m3
   3              		.fpu softvfp
   4              		.eabi_attribute 20, 1
   5              		.eabi_attribute 21, 1
   6              		.eabi_attribute 23, 3
   7              		.eabi_attribute 24, 1
   8              		.eabi_attribute 25, 1
   9              		.eabi_attribute 26, 1
  10              		.eabi_attribute 30, 2
  11              		.eabi_attribute 18, 4
  12              		.thumb
  13              		.file	"chthreads.c"
  20 0000 FF020000 		.text
  20      0200AA01 
  20      00000201 
  20      FB0E0D00 
  20      01010101 
  21              	.Ltext0:
  22              		.cfi_sections	.debug_frame
  23              		.section	.text._thread_init,"ax",%progbits
  24              		.align	2
  25              		.p2align 4,,15
  26              		.global	_thread_init
  27              		.thumb
  28              		.thumb_func
  29              		.type	_thread_init, %function
  30              	_thread_init:
  31              	.LFB7:
  32              		.file 1 "../../os/kernel/src/chthreads.c"
  33              		.loc 1 77 0
  34              		.cfi_startproc
  35              		@ args = 0, pretend = 0, frame = 0
  36              		@ frame_needed = 0, uses_anonymous_args = 0
  37              		@ link register save eliminated.
  38              	.LVL0:
  39              		.loc 1 80 0
  40 0000 4FF0020C 		mov	ip, #2
  41              		.loc 1 105 0
  42 0004 40F20002 		movw	r2, #:lower16:rlist
  43              		.loc 1 77 0
  44 0008 70B4     		push	{r4, r5, r6}
  45              	.LCFI0:
  46              		.cfi_def_cfa_offset 12
  47              		.loc 1 105 0
  48 000a C0F20002 		movt	r2, #:upper16:rlist
  49              		.loc 1 81 0
  50 000e 0024     		movs	r4, #0
  51              		.cfi_offset 6, -4
  52              		.cfi_offset 5, -8
  53              		.cfi_offset 4, -12
ARM GAS  /tmp/ccKPFSR2.s 			page 2


  54              		.loc 1 102 0
  55 0010 00F12805 		add	r5, r0, #40
  56              		.loc 1 80 0
  57 0014 80F818C0 		strb	ip, [r0, #24]
  58              		.loc 1 99 0
  59 0018 00F12406 		add	r6, r0, #36
  60              		.loc 1 96 0
  61 001c 4FF0010C 		mov	ip, #1
  62              		.loc 1 105 0
  63 0020 0261     		str	r2, [r0, #16]
  64              		.loc 1 96 0
  65 0022 80F81AC0 		strb	ip, [r0, #26]
  66              		.loc 1 99 0
  67 0026 4662     		str	r6, [r0, #36]
  68              		.loc 1 102 0
  69 0028 8562     		str	r5, [r0, #40]
  70              		.loc 1 81 0
  71 002a 4476     		strb	r4, [r0, #25]
  72              		.loc 1 102 0
  73 002c C562     		str	r5, [r0, #44]
  74              		.loc 1 105 0
  75 002e 5569     		ldr	r5, [r2, #20]
  76              		.loc 1 83 0
  77 0030 C163     		str	r1, [r0, #60]
  78              		.loc 1 105 0
  79 0032 4561     		str	r5, [r0, #20]
  80              		.loc 1 93 0
  81 0034 C461     		str	r4, [r0, #28]
  82              		.loc 1 105 0
  83 0036 5061     		str	r0, [r2, #20]
  84              		.loc 1 79 0
  85 0038 8160     		str	r1, [r0, #8]
  86              		.loc 1 105 0
  87 003a 2861     		str	r0, [r5, #16]
  88              		.loc 1 84 0
  89 003c 8463     		str	r4, [r0, #56]
  90              		.loc 1 87 0
  91 003e 4463     		str	r4, [r0, #52]
  92              	.LVL1:
  93              		.loc 1 111 0
  94 0040 70BC     		pop	{r4, r5, r6}
  95 0042 7047     		bx	lr
  96              		.cfi_endproc
  97              	.LFE7:
  98              		.size	_thread_init, .-_thread_init
  99 0044 AFF30080 		.section	.text.chThdCreateI,"ax",%progbits
  99      AFF30080 
  99      AFF30080 
 100              		.align	2
 101              		.p2align 4,,15
 102              		.global	chThdCreateI
 103              		.thumb
 104              		.thumb_func
 105              		.type	chThdCreateI, %function
 106              	chThdCreateI:
 107              	.LFB8:
 108              		.loc 1 155 0
ARM GAS  /tmp/ccKPFSR2.s 			page 3


 109              		.cfi_startproc
 110              		@ args = 4, pretend = 0, frame = 0
 111              		@ frame_needed = 0, uses_anonymous_args = 0
 112              		@ link register save eliminated.
 113              	.LVL2:
 114 0000 70B4     		push	{r4, r5, r6}
 115              	.LCFI1:
 116              		.cfi_def_cfa_offset 12
 117              		.loc 1 162 0
 118 0002 2439     		subs	r1, r1, #36
 119              	.LVL3:
 120 0004 40F20006 		movw	r6, #:lower16:_port_thread_start
 121              		.cfi_offset 6, -4
 122              		.cfi_offset 5, -8
 123              		.cfi_offset 4, -12
 124 0008 4518     		adds	r5, r0, r1
 125 000a C0F20006 		movt	r6, #:upper16:_port_thread_start
 126 000e 4350     		str	r3, [r0, r1]
 127 0010 2E62     		str	r6, [r5, #32]
 128 0012 039B     		ldr	r3, [sp, #12]
 129              	.LVL4:
 130              		.loc 1 155 0
 131 0014 0446     		mov	r4, r0
 132              		.loc 1 163 0
 133 0016 1146     		mov	r1, r2
 134              		.loc 1 162 0
 135 0018 6B60     		str	r3, [r5, #4]
 136 001a C560     		str	r5, [r0, #12]
 137              		.loc 1 164 0
 138 001c 70BC     		pop	{r4, r5, r6}
 139              		.loc 1 163 0
 140 001e FFF7FEBF 		b	_thread_init
 141              	.LVL5:
 142              		.cfi_endproc
 143              	.LFE8:
 144              		.size	chThdCreateI, .-chThdCreateI
 145 0022 00BFAFF3 		.section	.text.chThdTerminate,"ax",%progbits
 145      0080AFF3 
 145      0080AFF3 
 145      0080
 146              		.align	2
 147              		.p2align 4,,15
 148              		.global	chThdTerminate
 149              		.thumb
 150              		.thumb_func
 151              		.type	chThdTerminate, %function
 152              	chThdTerminate:
 153              	.LFB12:
 154              		.loc 1 269 0
 155              		.cfi_startproc
 156              		@ args = 0, pretend = 0, frame = 0
 157              		@ frame_needed = 0, uses_anonymous_args = 0
 158              		@ link register save eliminated.
 159              	.LVL6:
 160              	.LBB9:
 161              		.loc 1 271 0
 162 0000 2023     		movs	r3, #32
ARM GAS  /tmp/ccKPFSR2.s 			page 4


 163              	.LVL7:
 164              	@ 271 "../../os/kernel/src/chthreads.c" 1
 165 0002 83F31188 		msr     BASEPRI, r3
 166              	@ 0 "" 2
 167              		.thumb
 168              	.LBE9:
 169              		.loc 1 272 0
 170 0006 417E     		ldrb	r1, [r0, #25]	@ zero_extendqisi2
 171              	.LBB10:
 172              		.loc 1 273 0
 173 0008 0023     		movs	r3, #0
 174              	.LVL8:
 175              	.LBE10:
 176              		.loc 1 272 0
 177 000a 41F00402 		orr	r2, r1, #4
 178 000e 4276     		strb	r2, [r0, #25]
 179              	.LBB11:
 180              		.loc 1 273 0
 181              	@ 273 "../../os/kernel/src/chthreads.c" 1
 182 0010 83F31188 		msr     BASEPRI, r3
 183              	@ 0 "" 2
 184              		.thumb
 185              	.LBE11:
 186              		.loc 1 274 0
 187 0014 7047     		bx	lr
 188              		.cfi_endproc
 189              	.LFE12:
 190              		.size	chThdTerminate, .-chThdTerminate
 191 0016 00BFAFF3 		.section	.text.chThdWait,"ax",%progbits
 191      0080AFF3 
 191      0080
 192              		.align	2
 193              		.p2align 4,,15
 194              		.global	chThdWait
 195              		.thumb
 196              		.thumb_func
 197              		.type	chThdWait, %function
 198              	chThdWait:
 199              	.LFB17:
 200              		.loc 1 394 0
 201              		.cfi_startproc
 202              		@ args = 0, pretend = 0, frame = 0
 203              		@ frame_needed = 0, uses_anonymous_args = 0
 204              	.LVL9:
 205 0000 38B5     		push	{r3, r4, r5, lr}
 206              	.LCFI2:
 207              		.cfi_def_cfa_offset 16
 208              		.loc 1 394 0
 209 0002 0446     		mov	r4, r0
 210              		.cfi_offset 14, -4
 211              		.cfi_offset 5, -8
 212              		.cfi_offset 4, -12
 213              		.cfi_offset 3, -16
 214              	.LBB12:
 215              		.loc 1 399 0
 216 0004 2023     		movs	r3, #32
 217              	.LVL10:
ARM GAS  /tmp/ccKPFSR2.s 			page 5


 218              	@ 399 "../../os/kernel/src/chthreads.c" 1
 219 0006 83F31188 		msr     BASEPRI, r3
 220              	@ 0 "" 2
 221              		.thumb
 222              	.LBE12:
 223              		.loc 1 404 0
 224 000a 037E     		ldrb	r3, [r0, #24]	@ zero_extendqisi2
 225              	.LVL11:
 226 000c 0C2B     		cmp	r3, #12
 227 000e 0AD0     		beq	.L8
 228              		.loc 1 405 0
 229 0010 40F20001 		movw	r1, #:lower16:rlist
 230 0014 C0F20001 		movt	r1, #:upper16:rlist
 231 0018 C869     		ldr	r0, [r1, #28]
 232              	.LVL12:
 233              	.LBB13:
 234              	.LBB14:
 235              		.file 2 "../../os/kernel/include/chinline.h"
 236              		.loc 2 81 0
 237 001a 626A     		ldr	r2, [r4, #36]
 238              		.loc 2 82 0
 239 001c 6062     		str	r0, [r4, #36]
 240              		.loc 2 81 0
 241 001e 0260     		str	r2, [r0, #0]
 242              	.LBE14:
 243              	.LBE13:
 244              		.loc 1 406 0
 245 0020 0720     		movs	r0, #7
 246 0022 FFF7FEFF 		bl	chSchGoSleepS
 247              	.LVL13:
 248              	.L8:
 249              		.loc 1 408 0
 250 0026 256A     		ldr	r5, [r4, #32]
 251              	.LVL14:
 252              	.LBB15:
 253              		.loc 1 409 0
 254 0028 0023     		movs	r3, #0
 255              	.LVL15:
 256              	@ 409 "../../os/kernel/src/chthreads.c" 1
 257 002a 83F31188 		msr     BASEPRI, r3
 258              	@ 0 "" 2
 259              		.thumb
 260              	.LBE15:
 261              		.loc 1 411 0
 262 002e 2046     		mov	r0, r4
 263 0030 FFF7FEFF 		bl	chThdRelease
 264              	.LVL16:
 265              		.loc 1 414 0
 266 0034 2846     		mov	r0, r5
 267 0036 38BD     		pop	{r3, r4, r5, pc}
 268              		.cfi_endproc
 269              	.LFE17:
 270              		.size	chThdWait, .-chThdWait
 271 0038 AFF30080 		.section	.text.chThdExit,"ax",%progbits
 271      AFF30080 
 272              		.align	2
 273              		.p2align 4,,15
ARM GAS  /tmp/ccKPFSR2.s 			page 6


 274              		.global	chThdExit
 275              		.thumb
 276              		.thumb_func
 277              		.type	chThdExit, %function
 278              	chThdExit:
 279              	.LFB16:
 280              		.loc 1 341 0
 281              		.cfi_startproc
 282              		@ args = 0, pretend = 0, frame = 0
 283              		@ frame_needed = 0, uses_anonymous_args = 0
 284              	.LVL17:
 285              		.loc 1 342 0
 286 0000 40F20003 		movw	r3, #:lower16:rlist
 287 0004 C0F20003 		movt	r3, #:upper16:rlist
 288              		.loc 1 341 0
 289 0008 70B5     		push	{r4, r5, r6, lr}
 290              	.LCFI3:
 291              		.cfi_def_cfa_offset 16
 292              		.loc 1 341 0
 293 000a 0246     		mov	r2, r0
 294              		.loc 1 342 0
 295 000c DC69     		ldr	r4, [r3, #28]
 296              		.cfi_offset 14, -4
 297              		.cfi_offset 6, -8
 298              		.cfi_offset 5, -12
 299              		.cfi_offset 4, -16
 300              	.LVL18:
 301              	.LBB16:
 302              		.loc 1 344 0
 303 000e 2023     		movs	r3, #32
 304              	.LVL19:
 305              	@ 344 "../../os/kernel/src/chthreads.c" 1
 306 0010 83F31188 		msr     BASEPRI, r3
 307              	@ 0 "" 2
 308              		.thumb
 309              	.LBE16:
 310              		.loc 1 350 0
 311 0014 2546     		mov	r5, r4
 312 0016 55F8240F 		ldr	r0, [r5, #36]!
 313              	.LVL20:
 314              		.loc 1 345 0
 315 001a 2262     		str	r2, [r4, #32]
 316              		.loc 1 350 0
 317 001c A842     		cmp	r0, r5
 318 001e 06D0     		beq	.L12
 319              	.L16:
 320              	.LBB17:
 321              	.LBB18:
 322              		.loc 2 88 0
 323 0020 0168     		ldr	r1, [r0, #0]
 324 0022 6162     		str	r1, [r4, #36]
 325              	.LBE18:
 326              	.LBE17:
 327              		.loc 1 351 0
 328 0024 FFF7FEFF 		bl	chSchReadyI
 329              	.LVL21:
 330              		.loc 1 350 0
ARM GAS  /tmp/ccKPFSR2.s 			page 7


 331 0028 606A     		ldr	r0, [r4, #36]
 332 002a A842     		cmp	r0, r5
 333 002c F8D1     		bne	.L16
 334              	.LVL22:
 335              	.L12:
 336              		.loc 1 356 0
 337 002e 607E     		ldrb	r0, [r4, #25]	@ zero_extendqisi2
 338 0030 10F0030F 		tst	r0, #3
 339              		.loc 1 357 0
 340 0034 01BF     		itttt	eq
 341 0036 2269     		ldreq	r2, [r4, #16]
 342              	.LVL23:
 343 0038 6069     		ldreq	r0, [r4, #20]
 344 003a 0261     		streq	r2, [r0, #16]
 345 003c 2269     		ldreq	r2, [r4, #16]
 346 003e 08BF     		it	eq
 347 0040 5061     		streq	r0, [r2, #20]
 348              		.loc 1 359 0
 349 0042 0C20     		movs	r0, #12
 350              		.loc 1 360 0
 351 0044 BDE87040 		pop	{r4, r5, r6, lr}
 352              		.loc 1 359 0
 353 0048 FFF7FEBF 		b	chSchGoSleepS
 354              	.LVL24:
 355              		.cfi_endproc
 356              	.LFE16:
 357              		.size	chThdExit, .-chThdExit
 358 004c AFF30080 		.section	.text.chThdYield,"ax",%progbits
 359              		.align	2
 360              		.p2align 4,,15
 361              		.global	chThdYield
 362              		.thumb
 363              		.thumb_func
 364              		.type	chThdYield, %function
 365              	chThdYield:
 366              	.LFB15:
 367              		.loc 1 320 0
 368              		.cfi_startproc
 369              		@ args = 0, pretend = 0, frame = 0
 370              		@ frame_needed = 0, uses_anonymous_args = 0
 371 0000 08B5     		push	{r3, lr}
 372              	.LCFI4:
 373              		.cfi_def_cfa_offset 8
 374              	.LBB19:
 375              		.loc 1 322 0
 376 0002 2023     		movs	r3, #32
 377              		.cfi_offset 14, -4
 378              		.cfi_offset 3, -8
 379              	.LVL25:
 380              	@ 322 "../../os/kernel/src/chthreads.c" 1
 381 0004 83F31188 		msr     BASEPRI, r3
 382              	@ 0 "" 2
 383              		.thumb
 384              	.LBE19:
 385              		.loc 1 323 0
 386 0008 40F20002 		movw	r2, #:lower16:rlist
 387 000c C0F20002 		movt	r2, #:upper16:rlist
ARM GAS  /tmp/ccKPFSR2.s 			page 8


 388 0010 D169     		ldr	r1, [r2, #28]
 389 0012 1068     		ldr	r0, [r2, #0]
 390 0014 8B68     		ldr	r3, [r1, #8]
 391              	.LVL26:
 392 0016 8268     		ldr	r2, [r0, #8]
 393 0018 9A42     		cmp	r2, r3
 394 001a 01D3     		bcc	.L19
 395 001c FFF7FEFF 		bl	chSchDoRescheduleI
 396              	.L19:
 397              	.LBB20:
 398              		.loc 1 324 0
 399 0020 0023     		movs	r3, #0
 400              	.LVL27:
 401              	@ 324 "../../os/kernel/src/chthreads.c" 1
 402 0022 83F31188 		msr     BASEPRI, r3
 403              	@ 0 "" 2
 404              		.thumb
 405              	.LBE20:
 406              		.loc 1 325 0
 407 0026 08BD     		pop	{r3, pc}
 408              		.cfi_endproc
 409              	.LFE15:
 410              		.size	chThdYield, .-chThdYield
 411 0028 AFF30080 		.section	.text.chThdSleepUntil,"ax",%progbits
 411      AFF30080 
 412              		.align	2
 413              		.p2align 4,,15
 414              		.global	chThdSleepUntil
 415              		.thumb
 416              		.thumb_func
 417              		.type	chThdSleepUntil, %function
 418              	chThdSleepUntil:
 419              	.LFB14:
 420              		.loc 1 305 0
 421              		.cfi_startproc
 422              		@ args = 0, pretend = 0, frame = 0
 423              		@ frame_needed = 0, uses_anonymous_args = 0
 424              	.LVL28:
 425 0000 08B5     		push	{r3, lr}
 426              	.LCFI5:
 427              		.cfi_def_cfa_offset 8
 428              	.LBB21:
 429              		.loc 1 307 0
 430 0002 2023     		movs	r3, #32
 431              		.cfi_offset 14, -4
 432              		.cfi_offset 3, -8
 433              	.LVL29:
 434              	@ 307 "../../os/kernel/src/chthreads.c" 1
 435 0004 83F31188 		msr     BASEPRI, r3
 436              	@ 0 "" 2
 437              		.thumb
 438              	.LBE21:
 439              		.loc 1 308 0
 440 0008 40F20003 		movw	r3, #:lower16:vtlist
 441              	.LVL30:
 442 000c C0F20003 		movt	r3, #:upper16:vtlist
 443 0010 D968     		ldr	r1, [r3, #12]
ARM GAS  /tmp/ccKPFSR2.s 			page 9


 444 0012 411A     		subs	r1, r0, r1
 445              	.LVL31:
 446 0014 02D0     		beq	.L22
 447              		.loc 1 309 0
 448 0016 0620     		movs	r0, #6
 449 0018 FFF7FEFF 		bl	chSchGoSleepTimeoutS
 450              	.LVL32:
 451              	.L22:
 452              	.LBB22:
 453              		.loc 1 310 0
 454 001c 0023     		movs	r3, #0
 455              	.LVL33:
 456              	@ 310 "../../os/kernel/src/chthreads.c" 1
 457 001e 83F31188 		msr     BASEPRI, r3
 458              	@ 0 "" 2
 459              		.thumb
 460              	.LBE22:
 461              		.loc 1 311 0
 462 0022 08BD     		pop	{r3, pc}
 463              		.cfi_endproc
 464              	.LFE14:
 465              		.size	chThdSleepUntil, .-chThdSleepUntil
 466 0024 AFF30080 		.section	.text.chThdSleep,"ax",%progbits
 466      AFF30080 
 466      AFF30080 
 467              		.align	2
 468              		.p2align 4,,15
 469              		.global	chThdSleep
 470              		.thumb
 471              		.thumb_func
 472              		.type	chThdSleep, %function
 473              	chThdSleep:
 474              	.LFB13:
 475              		.loc 1 288 0
 476              		.cfi_startproc
 477              		@ args = 0, pretend = 0, frame = 0
 478              		@ frame_needed = 0, uses_anonymous_args = 0
 479              	.LVL34:
 480 0000 08B5     		push	{r3, lr}
 481              	.LCFI6:
 482              		.cfi_def_cfa_offset 8
 483              		.loc 1 288 0
 484 0002 0146     		mov	r1, r0
 485              	.LBB23:
 486              		.loc 1 292 0
 487 0004 2023     		movs	r3, #32
 488              		.cfi_offset 14, -4
 489              		.cfi_offset 3, -8
 490              	.LVL35:
 491              	@ 292 "../../os/kernel/src/chthreads.c" 1
 492 0006 83F31188 		msr     BASEPRI, r3
 493              	@ 0 "" 2
 494              		.thumb
 495              	.LBE23:
 496              		.loc 1 293 0
 497 000a 0620     		movs	r0, #6
 498              	.LVL36:
ARM GAS  /tmp/ccKPFSR2.s 			page 10


 499 000c FFF7FEFF 		bl	chSchGoSleepTimeoutS
 500              	.LVL37:
 501              	.LBB24:
 502              		.loc 1 294 0
 503 0010 0023     		movs	r3, #0
 504              	.LVL38:
 505              	@ 294 "../../os/kernel/src/chthreads.c" 1
 506 0012 83F31188 		msr     BASEPRI, r3
 507              	@ 0 "" 2
 508              		.thumb
 509              	.LBE24:
 510              		.loc 1 295 0
 511 0016 08BD     		pop	{r3, pc}
 512              		.cfi_endproc
 513              	.LFE13:
 514              		.size	chThdSleep, .-chThdSleep
 515              		.section	.text.chThdResume,"ax",%progbits
 516              		.align	2
 517              		.p2align 4,,15
 518              		.global	chThdResume
 519              		.thumb
 520              		.thumb_func
 521              		.type	chThdResume, %function
 522              	chThdResume:
 523              	.LFB11:
 524              		.loc 1 246 0
 525              		.cfi_startproc
 526              		@ args = 0, pretend = 0, frame = 0
 527              		@ frame_needed = 0, uses_anonymous_args = 0
 528              	.LVL39:
 529 0000 10B5     		push	{r4, lr}
 530              	.LCFI7:
 531              		.cfi_def_cfa_offset 8
 532              	.LBB25:
 533              		.loc 1 248 0
 534 0002 2023     		movs	r3, #32
 535              	.LVL40:
 536              	.LBE25:
 537              		.loc 1 246 0
 538 0004 0446     		mov	r4, r0
 539              		.cfi_offset 14, -4
 540              		.cfi_offset 4, -8
 541              	.LBB26:
 542              		.loc 1 248 0
 543              	@ 248 "../../os/kernel/src/chthreads.c" 1
 544 0006 83F31188 		msr     BASEPRI, r3
 545              	@ 0 "" 2
 546              		.thumb
 547              	.LBE26:
 548              		.loc 1 252 0
 549 000a 0021     		movs	r1, #0
 550 000c FFF7FEFF 		bl	chSchWakeupS
 551              	.LVL41:
 552              	.LBB27:
 553              		.loc 1 253 0
 554 0010 0023     		movs	r3, #0
 555              	.LVL42:
ARM GAS  /tmp/ccKPFSR2.s 			page 11


 556              	@ 253 "../../os/kernel/src/chthreads.c" 1
 557 0012 83F31188 		msr     BASEPRI, r3
 558              	@ 0 "" 2
 559              		.thumb
 560              	.LBE27:
 561              		.loc 1 255 0
 562 0016 2046     		mov	r0, r4
 563 0018 10BD     		pop	{r4, pc}
 564              		.cfi_endproc
 565              	.LFE11:
 566              		.size	chThdResume, .-chThdResume
 567 001a 00BFAFF3 		.section	.text.chThdCreateStatic,"ax",%progbits
 567      0080
 568              		.align	2
 569              		.p2align 4,,15
 570              		.global	chThdCreateStatic
 571              		.thumb
 572              		.thumb_func
 573              		.type	chThdCreateStatic, %function
 574              	chThdCreateStatic:
 575              	.LFB9:
 576              		.loc 1 183 0
 577              		.cfi_startproc
 578              		@ args = 4, pretend = 0, frame = 0
 579              		@ frame_needed = 0, uses_anonymous_args = 0
 580              	.LVL43:
 581 0000 10B5     		push	{r4, lr}
 582              	.LCFI8:
 583              		.cfi_def_cfa_offset 8
 584 0002 9C46     		mov	ip, r3
 585 0004 82B0     		sub	sp, sp, #8
 586              	.LCFI9:
 587              		.cfi_def_cfa_offset 16
 588              	.LBB28:
 589              		.loc 1 194 0
 590 0006 2023     		movs	r3, #32
 591              	.LVL44:
 592              	@ 194 "../../os/kernel/src/chthreads.c" 1
 593 0008 83F31188 		msr     BASEPRI, r3
 594              	@ 0 "" 2
 595              		.thumb
 596              	.LBE28:
 597              		.loc 1 195 0
 598 000c 049C     		ldr	r4, [sp, #16]
 599              		.cfi_offset 14, -4
 600              		.cfi_offset 4, -8
 601 000e 6346     		mov	r3, ip
 602              	.LVL45:
 603 0010 0094     		str	r4, [sp, #0]
 604 0012 FFF7FEFF 		bl	chThdCreateI
 605              	.LVL46:
 606 0016 0021     		movs	r1, #0
 607 0018 0446     		mov	r4, r0
 608              	.LVL47:
 609 001a FFF7FEFF 		bl	chSchWakeupS
 610              	.LBB29:
 611              		.loc 1 196 0
ARM GAS  /tmp/ccKPFSR2.s 			page 12


 612 001e 0023     		movs	r3, #0
 613              	.LVL48:
 614              	@ 196 "../../os/kernel/src/chthreads.c" 1
 615 0020 83F31188 		msr     BASEPRI, r3
 616              	@ 0 "" 2
 617              		.thumb
 618              	.LBE29:
 619              		.loc 1 198 0
 620 0024 2046     		mov	r0, r4
 621 0026 02B0     		add	sp, sp, #8
 622 0028 10BD     		pop	{r4, pc}
 623              		.cfi_endproc
 624              	.LFE9:
 625              		.size	chThdCreateStatic, .-chThdCreateStatic
 626 002a 00BFAFF3 		.section	.text.chThdSetPriority,"ax",%progbits
 626      0080
 627              		.align	2
 628              		.p2align 4,,15
 629              		.global	chThdSetPriority
 630              		.thumb
 631              		.thumb_func
 632              		.type	chThdSetPriority, %function
 633              	chThdSetPriority:
 634              	.LFB10:
 635              		.loc 1 212 0
 636              		.cfi_startproc
 637              		@ args = 0, pretend = 0, frame = 0
 638              		@ frame_needed = 0, uses_anonymous_args = 0
 639              	.LVL49:
 640 0000 10B5     		push	{r4, lr}
 641              	.LCFI10:
 642              		.cfi_def_cfa_offset 8
 643              	.LBB30:
 644              		.loc 1 218 0
 645 0002 2023     		movs	r3, #32
 646              	.LVL50:
 647              	@ 218 "../../os/kernel/src/chthreads.c" 1
 648 0004 83F31188 		msr     BASEPRI, r3
 649              	@ 0 "" 2
 650              		.thumb
 651              	.LBE30:
 652              		.loc 1 220 0
 653 0008 40F20003 		movw	r3, #:lower16:rlist
 654              	.LVL51:
 655 000c C0F20003 		movt	r3, #:upper16:rlist
 656 0010 DB69     		ldr	r3, [r3, #28]
 657 0012 DC6B     		ldr	r4, [r3, #60]
 658              		.cfi_offset 14, -4
 659              		.cfi_offset 4, -8
 660              	.LVL52:
 661              		.loc 1 221 0
 662 0014 9A68     		ldr	r2, [r3, #8]
 663 0016 9442     		cmp	r4, r2
 664 0018 01D0     		beq	.L31
 665 001a 9042     		cmp	r0, r2
 666 001c 00D9     		bls	.L32
 667              	.L31:
ARM GAS  /tmp/ccKPFSR2.s 			page 13


 668              		.loc 1 222 0
 669 001e 9860     		str	r0, [r3, #8]
 670              	.L32:
 671              		.loc 1 223 0
 672 0020 D863     		str	r0, [r3, #60]
 673              		.loc 1 228 0
 674 0022 FFF7FEFF 		bl	chSchRescheduleS
 675              	.LVL53:
 676              	.LBB31:
 677              		.loc 1 229 0
 678 0026 0023     		movs	r3, #0
 679              	.LVL54:
 680              	@ 229 "../../os/kernel/src/chthreads.c" 1
 681 0028 83F31188 		msr     BASEPRI, r3
 682              	@ 0 "" 2
 683              		.thumb
 684              	.LBE31:
 685              		.loc 1 231 0
 686 002c 2046     		mov	r0, r4
 687 002e 10BD     		pop	{r4, pc}
 688              		.cfi_endproc
 689              	.LFE10:
 690              		.size	chThdSetPriority, .-chThdSetPriority
 691              		.text
 692              	.Letext0: