ARM GAS  /tmp/ccCPFOdJ.s 			page 1


   1              		.syntax unified
   2              		.cpu cortex-m3
   3              		.fpu softvfp
   4              		.eabi_attribute 20, 1
   5              		.eabi_attribute 21, 1
   6              		.eabi_attribute 23, 3
   7              		.eabi_attribute 24, 1
   8              		.eabi_attribute 25, 1
   9              		.eabi_attribute 26, 1
  10              		.eabi_attribute 30, 2
  11              		.eabi_attribute 18, 4
  12              		.thumb
  13              		.file	"chthreads.c"
  14              		.section	.debug_abbrev,"",%progbits
  15              	.Ldebug_abbrev0:
  16              		.section	.debug_info,"",%progbits
  17              	.Ldebug_info0:
  18              		.section	.debug_line,"",%progbits
  19              	.Ldebug_line0:
  20 0000 15030000 		.text
  20      02008A01 
  20      00000201 
  20      FB0E0D00 
  20      01010101 
  21              	.Ltext0:
  22              		.cfi_sections	.debug_frame
  23              		.section	.text._thread_init,"ax",%progbits
  24              		.align	2
  25              		.p2align 4,,15
  26              		.global	_thread_init
  27              		.thumb
  28              		.thumb_func
  29              		.type	_thread_init, %function
  30              	_thread_init:
  31              	.LFB7:
  32              		.file 1 "chibios/os/kernel/src/chthreads.c"
  33              		.loc 1 77 0
  34              		.cfi_startproc
  35              		@ args = 0, pretend = 0, frame = 0
  36              		@ frame_needed = 0, uses_anonymous_args = 0
  37              		@ link register save eliminated.
  38              	.LVL0:
  39 0000 F0B4     		push	{r4, r5, r6, r7}
  40              	.LCFI0:
  41              		.cfi_def_cfa_offset 16
  42              		.loc 1 105 0
  43 0002 40F20002 		movw	r2, #:lower16:rlist
  44              		.loc 1 81 0
  45 0006 0024     		movs	r4, #0
  46              		.cfi_offset 7, -4
  47              		.cfi_offset 6, -8
  48              		.cfi_offset 5, -12
  49              		.cfi_offset 4, -16
  50              		.loc 1 80 0
  51 0008 0226     		movs	r6, #2
  52              		.loc 1 96 0
  53 000a 0125     		movs	r5, #1
ARM GAS  /tmp/ccCPFOdJ.s 			page 2


  54              		.loc 1 105 0
  55 000c C0F20002 		movt	r2, #:upper16:rlist
  56              		.loc 1 80 0
  57 0010 0676     		strb	r6, [r0, #24]
  58              		.loc 1 81 0
  59 0012 4476     		strb	r4, [r0, #25]
  60              		.loc 1 96 0
  61 0014 8576     		strb	r5, [r0, #26]
  62              		.loc 1 105 0
  63 0016 5569     		ldr	r5, [r2, #20]
  64              		.loc 1 102 0
  65 0018 00F12806 		add	r6, r0, #40
  66              		.loc 1 99 0
  67 001c 00F12407 		add	r7, r0, #36
  68              		.loc 1 105 0
  69 0020 0261     		str	r2, [r0, #16]
  70              		.loc 1 79 0
  71 0022 8160     		str	r1, [r0, #8]
  72              		.loc 1 105 0
  73 0024 4561     		str	r5, [r0, #20]
  74              		.loc 1 83 0
  75 0026 C163     		str	r1, [r0, #60]
  76              		.loc 1 105 0
  77 0028 5061     		str	r0, [r2, #20]
  78              		.loc 1 84 0
  79 002a 8463     		str	r4, [r0, #56]
  80              		.loc 1 87 0
  81 002c 4463     		str	r4, [r0, #52]
  82              		.loc 1 93 0
  83 002e C461     		str	r4, [r0, #28]
  84              		.loc 1 99 0
  85 0030 4762     		str	r7, [r0, #36]
  86              		.loc 1 102 0
  87 0032 C662     		str	r6, [r0, #44]
  88 0034 8662     		str	r6, [r0, #40]
  89              		.loc 1 105 0
  90 0036 2861     		str	r0, [r5, #16]
  91              		.loc 1 111 0
  92 0038 F0BC     		pop	{r4, r5, r6, r7}
  93 003a 7047     		bx	lr
  94              		.cfi_endproc
  95              	.LFE7:
  96              		.size	_thread_init, .-_thread_init
  97 003c AFF30080 		.section	.text.chThdCreateI,"ax",%progbits
  98              		.align	2
  99              		.p2align 4,,15
 100              		.global	chThdCreateI
 101              		.thumb
 102              		.thumb_func
 103              		.type	chThdCreateI, %function
 104              	chThdCreateI:
 105              	.LFB8:
 106              		.loc 1 155 0
 107              		.cfi_startproc
 108              		@ args = 4, pretend = 0, frame = 0
 109              		@ frame_needed = 0, uses_anonymous_args = 0
 110              		@ link register save eliminated.
ARM GAS  /tmp/ccCPFOdJ.s 			page 3


 111              	.LVL1:
 112              		.loc 1 162 0
 113 0000 A1F1240C 		sub	ip, r1, #36
 114              		.loc 1 155 0
 115 0004 F0B4     		push	{r4, r5, r6, r7}
 116              	.LCFI1:
 117              		.cfi_def_cfa_offset 16
 118              		.loc 1 162 0
 119 0006 00EB0C07 		add	r7, r0, ip
 120              		.cfi_offset 7, -4
 121              		.cfi_offset 6, -8
 122              		.cfi_offset 5, -12
 123              		.cfi_offset 4, -16
 124 000a C760     		str	r7, [r0, #12]
 125 000c 40F20001 		movw	r1, #:lower16:_port_thread_start
 126              	.LVL2:
 127 0010 40F80C30 		str	r3, [r0, ip]
 128 0014 049B     		ldr	r3, [sp, #16]
 129              	.LVL3:
 130 0016 C0F20001 		movt	r1, #:upper16:_port_thread_start
 131 001a 7B60     		str	r3, [r7, #4]
 132 001c 3962     		str	r1, [r7, #32]
 133              	.LBB11:
 134              	.LBB12:
 135              		.loc 1 81 0
 136 001e 0026     		movs	r6, #0
 137              		.loc 1 80 0
 138 0020 0223     		movs	r3, #2
 139              		.loc 1 96 0
 140 0022 0127     		movs	r7, #1
 141              	.LVL4:
 142              		.loc 1 105 0
 143 0024 40F20005 		movw	r5, #:lower16:rlist
 144 0028 C0F20005 		movt	r5, #:upper16:rlist
 145              		.loc 1 96 0
 146 002c 8776     		strb	r7, [r0, #26]
 147              		.loc 1 80 0
 148 002e 0376     		strb	r3, [r0, #24]
 149              		.loc 1 81 0
 150 0030 4676     		strb	r6, [r0, #25]
 151              		.loc 1 105 0
 152 0032 6B69     		ldr	r3, [r5, #20]
 153              		.loc 1 102 0
 154 0034 00F12801 		add	r1, r0, #40
 155              		.loc 1 99 0
 156 0038 00F12407 		add	r7, r0, #36
 157              		.loc 1 105 0
 158 003c 0561     		str	r5, [r0, #16]
 159              		.loc 1 79 0
 160 003e 8260     		str	r2, [r0, #8]
 161              		.loc 1 105 0
 162 0040 4361     		str	r3, [r0, #20]
 163              	.LBE12:
 164              	.LBE11:
 165              		.loc 1 155 0
 166 0042 0446     		mov	r4, r0
 167              	.LVL5:
ARM GAS  /tmp/ccCPFOdJ.s 			page 4


 168              	.LBB14:
 169              	.LBB13:
 170              		.loc 1 105 0
 171 0044 6861     		str	r0, [r5, #20]
 172              		.loc 1 83 0
 173 0046 C263     		str	r2, [r0, #60]
 174              		.loc 1 84 0
 175 0048 8663     		str	r6, [r0, #56]
 176              		.loc 1 87 0
 177 004a 4663     		str	r6, [r0, #52]
 178              		.loc 1 93 0
 179 004c C661     		str	r6, [r0, #28]
 180              		.loc 1 99 0
 181 004e 4762     		str	r7, [r0, #36]
 182              		.loc 1 102 0
 183 0050 C162     		str	r1, [r0, #44]
 184 0052 8162     		str	r1, [r0, #40]
 185              		.loc 1 105 0
 186 0054 1861     		str	r0, [r3, #16]
 187              	.LBE13:
 188              	.LBE14:
 189              		.loc 1 164 0
 190 0056 F0BC     		pop	{r4, r5, r6, r7}
 191 0058 7047     		bx	lr
 192              		.cfi_endproc
 193              	.LFE8:
 194              		.size	chThdCreateI, .-chThdCreateI
 195 005a 00BFAFF3 		.section	.text.chThdCreateStatic,"ax",%progbits
 195      0080
 196              		.align	2
 197              		.p2align 4,,15
 198              		.global	chThdCreateStatic
 199              		.thumb
 200              		.thumb_func
 201              		.type	chThdCreateStatic, %function
 202              	chThdCreateStatic:
 203              	.LFB9:
 204              		.loc 1 183 0
 205              		.cfi_startproc
 206              		@ args = 4, pretend = 0, frame = 0
 207              		@ frame_needed = 0, uses_anonymous_args = 0
 208              	.LVL6:
 209 0000 10B5     		push	{r4, lr}
 210              	.LCFI2:
 211              		.cfi_def_cfa_offset 8
 212 0002 9C46     		mov	ip, r3
 213 0004 82B0     		sub	sp, sp, #8
 214              	.LCFI3:
 215              		.cfi_def_cfa_offset 16
 216              	.LBB15:
 217              		.loc 1 194 0
 218 0006 2023     		movs	r3, #32
 219              	.LVL7:
 220              	@ 194 "chibios/os/kernel/src/chthreads.c" 1
 221 0008 83F31188 		msr     BASEPRI, r3
 222              	@ 0 "" 2
 223              	.LVL8:
ARM GAS  /tmp/ccCPFOdJ.s 			page 5


 224              		.thumb
 225              	.LBE15:
 226              		.loc 1 195 0
 227 000c 049C     		ldr	r4, [sp, #16]
 228              		.cfi_offset 14, -4
 229              		.cfi_offset 4, -8
 230 000e 6346     		mov	r3, ip
 231              	.LVL9:
 232 0010 0094     		str	r4, [sp, #0]
 233 0012 FFF7FEFF 		bl	chThdCreateI
 234              	.LVL10:
 235 0016 0021     		movs	r1, #0
 236 0018 0446     		mov	r4, r0
 237              	.LVL11:
 238 001a FFF7FEFF 		bl	chSchWakeupS
 239              	.LVL12:
 240              	.LBB16:
 241              		.loc 1 196 0
 242 001e 0023     		movs	r3, #0
 243              	.LVL13:
 244              	@ 196 "chibios/os/kernel/src/chthreads.c" 1
 245 0020 83F31188 		msr     BASEPRI, r3
 246              	@ 0 "" 2
 247              	.LVL14:
 248              		.thumb
 249              	.LBE16:
 250              		.loc 1 198 0
 251 0024 2046     		mov	r0, r4
 252 0026 02B0     		add	sp, sp, #8
 253 0028 10BD     		pop	{r4, pc}
 254              		.cfi_endproc
 255              	.LFE9:
 256              		.size	chThdCreateStatic, .-chThdCreateStatic
 257 002a 00BFAFF3 		.section	.text.chThdSetPriority,"ax",%progbits
 257      0080
 258              		.align	2
 259              		.p2align 4,,15
 260              		.global	chThdSetPriority
 261              		.thumb
 262              		.thumb_func
 263              		.type	chThdSetPriority, %function
 264              	chThdSetPriority:
 265              	.LFB10:
 266              		.loc 1 212 0
 267              		.cfi_startproc
 268              		@ args = 0, pretend = 0, frame = 0
 269              		@ frame_needed = 0, uses_anonymous_args = 0
 270              	.LVL15:
 271 0000 10B5     		push	{r4, lr}
 272              	.LCFI4:
 273              		.cfi_def_cfa_offset 8
 274              	.LBB17:
 275              		.loc 1 218 0
 276 0002 2023     		movs	r3, #32
 277              	.LVL16:
 278              	@ 218 "chibios/os/kernel/src/chthreads.c" 1
 279 0004 83F31188 		msr     BASEPRI, r3
ARM GAS  /tmp/ccCPFOdJ.s 			page 6


 280              	@ 0 "" 2
 281              	.LVL17:
 282              		.thumb
 283              	.LBE17:
 284              		.loc 1 220 0
 285 0008 40F20003 		movw	r3, #:lower16:rlist
 286              	.LVL18:
 287 000c C0F20003 		movt	r3, #:upper16:rlist
 288 0010 DB69     		ldr	r3, [r3, #28]
 289 0012 DC6B     		ldr	r4, [r3, #60]
 290              		.cfi_offset 14, -4
 291              		.cfi_offset 4, -8
 292              	.LVL19:
 293              		.loc 1 221 0
 294 0014 9A68     		ldr	r2, [r3, #8]
 295 0016 9442     		cmp	r4, r2
 296 0018 01D0     		beq	.L5
 297              		.loc 1 221 0 is_stmt 0 discriminator 1
 298 001a 9042     		cmp	r0, r2
 299 001c 00D9     		bls	.L6
 300              	.L5:
 301              		.loc 1 222 0 is_stmt 1
 302 001e 9860     		str	r0, [r3, #8]
 303              	.L6:
 304              		.loc 1 223 0
 305 0020 D863     		str	r0, [r3, #60]
 306              		.loc 1 228 0
 307 0022 FFF7FEFF 		bl	chSchRescheduleS
 308              	.LVL20:
 309              	.LBB18:
 310              		.loc 1 229 0
 311 0026 0023     		movs	r3, #0
 312              	.LVL21:
 313              	@ 229 "chibios/os/kernel/src/chthreads.c" 1
 314 0028 83F31188 		msr     BASEPRI, r3
 315              	@ 0 "" 2
 316              	.LVL22:
 317              		.thumb
 318              	.LBE18:
 319              		.loc 1 231 0
 320 002c 2046     		mov	r0, r4
 321 002e 10BD     		pop	{r4, pc}
 322              		.cfi_endproc
 323              	.LFE10:
 324              		.size	chThdSetPriority, .-chThdSetPriority
 325              		.section	.text.chThdResume,"ax",%progbits
 326              		.align	2
 327              		.p2align 4,,15
 328              		.global	chThdResume
 329              		.thumb
 330              		.thumb_func
 331              		.type	chThdResume, %function
 332              	chThdResume:
 333              	.LFB11:
 334              		.loc 1 246 0
 335              		.cfi_startproc
 336              		@ args = 0, pretend = 0, frame = 0
ARM GAS  /tmp/ccCPFOdJ.s 			page 7


 337              		@ frame_needed = 0, uses_anonymous_args = 0
 338              	.LVL23:
 339 0000 10B5     		push	{r4, lr}
 340              	.LCFI5:
 341              		.cfi_def_cfa_offset 8
 342              	.LBB19:
 343              		.loc 1 248 0
 344 0002 2023     		movs	r3, #32
 345              	.LVL24:
 346              	.LBE19:
 347              		.loc 1 246 0
 348 0004 0446     		mov	r4, r0
 349              		.cfi_offset 14, -4
 350              		.cfi_offset 4, -8
 351              	.LBB20:
 352              		.loc 1 248 0
 353              	@ 248 "chibios/os/kernel/src/chthreads.c" 1
 354 0006 83F31188 		msr     BASEPRI, r3
 355              	@ 0 "" 2
 356              	.LVL25:
 357              		.thumb
 358              	.LBE20:
 359              		.loc 1 252 0
 360 000a 0021     		movs	r1, #0
 361 000c FFF7FEFF 		bl	chSchWakeupS
 362              	.LVL26:
 363              	.LBB21:
 364              		.loc 1 253 0
 365 0010 0023     		movs	r3, #0
 366              	.LVL27:
 367              	@ 253 "chibios/os/kernel/src/chthreads.c" 1
 368 0012 83F31188 		msr     BASEPRI, r3
 369              	@ 0 "" 2
 370              	.LVL28:
 371              		.thumb
 372              	.LBE21:
 373              		.loc 1 255 0
 374 0016 2046     		mov	r0, r4
 375 0018 10BD     		pop	{r4, pc}
 376              		.cfi_endproc
 377              	.LFE11:
 378              		.size	chThdResume, .-chThdResume
 379 001a 00BFAFF3 		.section	.text.chThdTerminate,"ax",%progbits
 379      0080
 380              		.align	2
 381              		.p2align 4,,15
 382              		.global	chThdTerminate
 383              		.thumb
 384              		.thumb_func
 385              		.type	chThdTerminate, %function
 386              	chThdTerminate:
 387              	.LFB12:
 388              		.loc 1 269 0
 389              		.cfi_startproc
 390              		@ args = 0, pretend = 0, frame = 0
 391              		@ frame_needed = 0, uses_anonymous_args = 0
 392              		@ link register save eliminated.
ARM GAS  /tmp/ccCPFOdJ.s 			page 8


 393              	.LVL29:
 394              	.LBB22:
 395              		.loc 1 271 0
 396 0000 2023     		movs	r3, #32
 397              	.LVL30:
 398              	@ 271 "chibios/os/kernel/src/chthreads.c" 1
 399 0002 83F31188 		msr     BASEPRI, r3
 400              	@ 0 "" 2
 401              	.LVL31:
 402              		.thumb
 403              	.LBE22:
 404              		.loc 1 272 0
 405 0006 417E     		ldrb	r1, [r0, #25]	@ zero_extendqisi2
 406              	.LBB23:
 407              		.loc 1 273 0
 408 0008 0023     		movs	r3, #0
 409              	.LVL32:
 410              	.LBE23:
 411              		.loc 1 272 0
 412 000a 41F00402 		orr	r2, r1, #4
 413 000e 4276     		strb	r2, [r0, #25]
 414              	.LBB24:
 415              		.loc 1 273 0
 416              	@ 273 "chibios/os/kernel/src/chthreads.c" 1
 417 0010 83F31188 		msr     BASEPRI, r3
 418              	@ 0 "" 2
 419              	.LVL33:
 420              		.thumb
 421              	.LBE24:
 422              		.loc 1 274 0
 423 0014 7047     		bx	lr
 424              		.cfi_endproc
 425              	.LFE12:
 426              		.size	chThdTerminate, .-chThdTerminate
 427 0016 00BFAFF3 		.section	.text.chThdSleep,"ax",%progbits
 427      0080AFF3 
 427      0080
 428              		.align	2
 429              		.p2align 4,,15
 430              		.global	chThdSleep
 431              		.thumb
 432              		.thumb_func
 433              		.type	chThdSleep, %function
 434              	chThdSleep:
 435              	.LFB13:
 436              		.loc 1 288 0
 437              		.cfi_startproc
 438              		@ args = 0, pretend = 0, frame = 0
 439              		@ frame_needed = 0, uses_anonymous_args = 0
 440              	.LVL34:
 441 0000 08B5     		push	{r3, lr}
 442              	.LCFI6:
 443              		.cfi_def_cfa_offset 8
 444              		.loc 1 288 0
 445 0002 0146     		mov	r1, r0
 446              	.LBB25:
 447              		.loc 1 292 0
ARM GAS  /tmp/ccCPFOdJ.s 			page 9


 448 0004 2023     		movs	r3, #32
 449              		.cfi_offset 14, -4
 450              		.cfi_offset 3, -8
 451              	.LVL35:
 452              	@ 292 "chibios/os/kernel/src/chthreads.c" 1
 453 0006 83F31188 		msr     BASEPRI, r3
 454              	@ 0 "" 2
 455              	.LVL36:
 456              		.thumb
 457              	.LBE25:
 458              		.loc 1 293 0
 459 000a 0620     		movs	r0, #6
 460              	.LVL37:
 461 000c FFF7FEFF 		bl	chSchGoSleepTimeoutS
 462              	.LVL38:
 463              	.LBB26:
 464              		.loc 1 294 0
 465 0010 0023     		movs	r3, #0
 466              	.LVL39:
 467              	@ 294 "chibios/os/kernel/src/chthreads.c" 1
 468 0012 83F31188 		msr     BASEPRI, r3
 469              	@ 0 "" 2
 470              	.LVL40:
 471              		.thumb
 472              	.LBE26:
 473              		.loc 1 295 0
 474 0016 08BD     		pop	{r3, pc}
 475              		.cfi_endproc
 476              	.LFE13:
 477              		.size	chThdSleep, .-chThdSleep
 478 0018 AFF30080 		.section	.text.chThdSleepUntil,"ax",%progbits
 478      AFF30080 
 479              		.align	2
 480              		.p2align 4,,15
 481              		.global	chThdSleepUntil
 482              		.thumb
 483              		.thumb_func
 484              		.type	chThdSleepUntil, %function
 485              	chThdSleepUntil:
 486              	.LFB14:
 487              		.loc 1 305 0
 488              		.cfi_startproc
 489              		@ args = 0, pretend = 0, frame = 0
 490              		@ frame_needed = 0, uses_anonymous_args = 0
 491              	.LVL41:
 492 0000 08B5     		push	{r3, lr}
 493              	.LCFI7:
 494              		.cfi_def_cfa_offset 8
 495              	.LBB27:
 496              		.loc 1 307 0
 497 0002 2023     		movs	r3, #32
 498              		.cfi_offset 14, -4
 499              		.cfi_offset 3, -8
 500              	.LVL42:
 501              	@ 307 "chibios/os/kernel/src/chthreads.c" 1
 502 0004 83F31188 		msr     BASEPRI, r3
 503              	@ 0 "" 2
ARM GAS  /tmp/ccCPFOdJ.s 			page 10


 504              	.LVL43:
 505              		.thumb
 506              	.LBE27:
 507              		.loc 1 308 0
 508 0008 40F20003 		movw	r3, #:lower16:vtlist
 509              	.LVL44:
 510 000c C0F20003 		movt	r3, #:upper16:vtlist
 511 0010 D968     		ldr	r1, [r3, #12]
 512              	.LVL45:
 513 0012 411A     		subs	r1, r0, r1
 514              	.LVL46:
 515 0014 02D0     		beq	.L12
 516              		.loc 1 309 0
 517 0016 0620     		movs	r0, #6
 518 0018 FFF7FEFF 		bl	chSchGoSleepTimeoutS
 519              	.LVL47:
 520              	.L12:
 521              	.LBB28:
 522              		.loc 1 310 0
 523 001c 0023     		movs	r3, #0
 524              	.LVL48:
 525              	@ 310 "chibios/os/kernel/src/chthreads.c" 1
 526 001e 83F31188 		msr     BASEPRI, r3
 527              	@ 0 "" 2
 528              	.LVL49:
 529              		.thumb
 530              	.LBE28:
 531              		.loc 1 311 0
 532 0022 08BD     		pop	{r3, pc}
 533              		.cfi_endproc
 534              	.LFE14:
 535              		.size	chThdSleepUntil, .-chThdSleepUntil
 536 0024 AFF30080 		.section	.text.chThdYield,"ax",%progbits
 536      AFF30080 
 536      AFF30080 
 537              		.align	2
 538              		.p2align 4,,15
 539              		.global	chThdYield
 540              		.thumb
 541              		.thumb_func
 542              		.type	chThdYield, %function
 543              	chThdYield:
 544              	.LFB15:
 545              		.loc 1 320 0
 546              		.cfi_startproc
 547              		@ args = 0, pretend = 0, frame = 0
 548              		@ frame_needed = 0, uses_anonymous_args = 0
 549 0000 08B5     		push	{r3, lr}
 550              	.LCFI8:
 551              		.cfi_def_cfa_offset 8
 552              	.LBB29:
 553              		.loc 1 322 0
 554 0002 2023     		movs	r3, #32
 555              		.cfi_offset 14, -4
 556              		.cfi_offset 3, -8
 557              	.LVL50:
 558              	@ 322 "chibios/os/kernel/src/chthreads.c" 1
ARM GAS  /tmp/ccCPFOdJ.s 			page 11


 559 0004 83F31188 		msr     BASEPRI, r3
 560              	@ 0 "" 2
 561              	.LVL51:
 562              		.thumb
 563              	.LBE29:
 564              		.loc 1 323 0
 565 0008 40F2000C 		movw	ip, #:lower16:rlist
 566 000c C0F2000C 		movt	ip, #:upper16:rlist
 567 0010 DCF80010 		ldr	r1, [ip, #0]
 568 0014 DCF81C00 		ldr	r0, [ip, #28]
 569 0018 8A68     		ldr	r2, [r1, #8]
 570 001a 8368     		ldr	r3, [r0, #8]
 571              	.LVL52:
 572 001c 9A42     		cmp	r2, r3
 573 001e 01D3     		bcc	.L14
 574              		.loc 1 323 0 is_stmt 0 discriminator 1
 575 0020 FFF7FEFF 		bl	chSchDoRescheduleI
 576              	.L14:
 577              	.LBB30:
 578              		.loc 1 324 0 is_stmt 1
 579 0024 0023     		movs	r3, #0
 580              	.LVL53:
 581              	@ 324 "chibios/os/kernel/src/chthreads.c" 1
 582 0026 83F31188 		msr     BASEPRI, r3
 583              	@ 0 "" 2
 584              	.LVL54:
 585              		.thumb
 586              	.LBE30:
 587              		.loc 1 325 0
 588 002a 08BD     		pop	{r3, pc}
 589              		.cfi_endproc
 590              	.LFE15:
 591              		.size	chThdYield, .-chThdYield
 592 002c AFF30080 		.section	.text.chThdExit,"ax",%progbits
 593              		.align	2
 594              		.p2align 4,,15
 595              		.global	chThdExit
 596              		.thumb
 597              		.thumb_func
 598              		.type	chThdExit, %function
 599              	chThdExit:
 600              	.LFB16:
 601              		.loc 1 341 0
 602              		.cfi_startproc
 603              		@ args = 0, pretend = 0, frame = 0
 604              		@ frame_needed = 0, uses_anonymous_args = 0
 605              	.LVL55:
 606              		.loc 1 342 0
 607 0000 40F20003 		movw	r3, #:lower16:rlist
 608 0004 C0F20003 		movt	r3, #:upper16:rlist
 609              		.loc 1 341 0
 610 0008 70B5     		push	{r4, r5, r6, lr}
 611              	.LCFI9:
 612              		.cfi_def_cfa_offset 16
 613              		.loc 1 341 0
 614 000a 0246     		mov	r2, r0
 615              		.loc 1 342 0
ARM GAS  /tmp/ccCPFOdJ.s 			page 12


 616 000c DC69     		ldr	r4, [r3, #28]
 617              		.cfi_offset 14, -4
 618              		.cfi_offset 6, -8
 619              		.cfi_offset 5, -12
 620              		.cfi_offset 4, -16
 621              	.LVL56:
 622              	.LBB31:
 623              		.loc 1 344 0
 624 000e 2023     		movs	r3, #32
 625              	.LVL57:
 626              	@ 344 "chibios/os/kernel/src/chthreads.c" 1
 627 0010 83F31188 		msr     BASEPRI, r3
 628              	@ 0 "" 2
 629              	.LVL58:
 630              		.thumb
 631              	.LBE31:
 632              		.loc 1 350 0
 633 0014 2546     		mov	r5, r4
 634 0016 55F8240F 		ldr	r0, [r5, #36]!
 635              	.LVL59:
 636              		.loc 1 345 0
 637 001a 2262     		str	r2, [r4, #32]
 638              		.loc 1 350 0
 639 001c A842     		cmp	r0, r5
 640 001e 06D0     		beq	.L16
 641              	.LVL60:
 642              	.L19:
 643              	.LBB32:
 644              	.LBB33:
 645              		.file 2 "chibios/os/kernel/include/chinline.h"
 646              		.loc 2 88 0
 647 0020 0168     		ldr	r1, [r0, #0]
 648 0022 6162     		str	r1, [r4, #36]
 649              	.LBE33:
 650              	.LBE32:
 651              		.loc 1 351 0
 652 0024 FFF7FEFF 		bl	chSchReadyI
 653              	.LVL61:
 654              		.loc 1 350 0
 655 0028 606A     		ldr	r0, [r4, #36]
 656 002a A842     		cmp	r0, r5
 657 002c F8D1     		bne	.L19
 658              	.LVL62:
 659              	.L16:
 660              		.loc 1 356 0
 661 002e 607E     		ldrb	r0, [r4, #25]	@ zero_extendqisi2
 662 0030 10F0030F 		tst	r0, #3
 663              		.loc 1 357 0
 664 0034 01BF     		itttt	eq
 665 0036 2269     		ldreq	r2, [r4, #16]
 666 0038 6069     		ldreq	r0, [r4, #20]
 667 003a 0261     		streq	r2, [r0, #16]
 668 003c 2269     		ldreq	r2, [r4, #16]
 669 003e 08BF     		it	eq
 670 0040 5061     		streq	r0, [r2, #20]
 671              		.loc 1 359 0
 672 0042 0C20     		movs	r0, #12
ARM GAS  /tmp/ccCPFOdJ.s 			page 13


 673              		.loc 1 360 0
 674 0044 BDE87040 		pop	{r4, r5, r6, lr}
 675              		.loc 1 359 0
 676 0048 FFF7FEBF 		b	chSchGoSleepS
 677              		.cfi_endproc
 678              	.LFE16:
 679              		.size	chThdExit, .-chThdExit
 680 004c AFF30080 		.section	.text.chThdWait,"ax",%progbits
 681              		.align	2
 682              		.p2align 4,,15
 683              		.global	chThdWait
 684              		.thumb
 685              		.thumb_func
 686              		.type	chThdWait, %function
 687              	chThdWait:
 688              	.LFB17:
 689              		.loc 1 394 0
 690              		.cfi_startproc
 691              		@ args = 0, pretend = 0, frame = 0
 692              		@ frame_needed = 0, uses_anonymous_args = 0
 693              	.LVL63:
 694 0000 38B5     		push	{r3, r4, r5, lr}
 695              	.LCFI10:
 696              		.cfi_def_cfa_offset 16
 697              		.loc 1 394 0
 698 0002 0446     		mov	r4, r0
 699              		.cfi_offset 14, -4
 700              		.cfi_offset 5, -8
 701              		.cfi_offset 4, -12
 702              		.cfi_offset 3, -16
 703              	.LBB34:
 704              		.loc 1 399 0
 705 0004 2023     		movs	r3, #32
 706              	.LVL64:
 707              	@ 399 "chibios/os/kernel/src/chthreads.c" 1
 708 0006 83F31188 		msr     BASEPRI, r3
 709              	@ 0 "" 2
 710              	.LVL65:
 711              		.thumb
 712              	.LBE34:
 713              		.loc 1 404 0
 714 000a 037E     		ldrb	r3, [r0, #24]	@ zero_extendqisi2
 715              	.LVL66:
 716 000c 0C2B     		cmp	r3, #12
 717 000e 0AD0     		beq	.L22
 718              		.loc 1 405 0
 719 0010 40F20000 		movw	r0, #:lower16:rlist
 720              	.LVL67:
 721 0014 C0F20000 		movt	r0, #:upper16:rlist
 722 0018 C169     		ldr	r1, [r0, #28]
 723              	.LVL68:
 724              	.LBB35:
 725              	.LBB36:
 726              		.loc 2 81 0
 727 001a 626A     		ldr	r2, [r4, #36]
 728              	.LBE36:
 729              	.LBE35:
ARM GAS  /tmp/ccCPFOdJ.s 			page 14


 730              		.loc 1 406 0
 731 001c 0720     		movs	r0, #7
 732              	.LVL69:
 733              	.LBB38:
 734              	.LBB37:
 735              		.loc 2 81 0
 736 001e 0A60     		str	r2, [r1, #0]
 737              		.loc 2 82 0
 738 0020 6162     		str	r1, [r4, #36]
 739              	.LBE37:
 740              	.LBE38:
 741              		.loc 1 406 0
 742 0022 FFF7FEFF 		bl	chSchGoSleepS
 743              	.LVL70:
 744              	.L22:
 745              		.loc 1 408 0
 746 0026 256A     		ldr	r5, [r4, #32]
 747              	.LVL71:
 748              	.LBB39:
 749              		.loc 1 409 0
 750 0028 0023     		movs	r3, #0
 751              	.LVL72:
 752              	@ 409 "chibios/os/kernel/src/chthreads.c" 1
 753 002a 83F31188 		msr     BASEPRI, r3
 754              	@ 0 "" 2
 755              	.LVL73:
 756              		.thumb
 757              	.LBE39:
 758              		.loc 1 411 0
 759 002e 2046     		mov	r0, r4
 760 0030 FFF7FEFF 		bl	chThdRelease
 761              	.LVL74:
 762              		.loc 1 414 0
 763 0034 2846     		mov	r0, r5
 764 0036 38BD     		pop	{r3, r4, r5, pc}
 765              		.cfi_endproc
 766              	.LFE17:
 767              		.size	chThdWait, .-chThdWait
 768 0038 AFF30080 		.text
 768      AFF30080 
 769              	.Letext0:
 770              		.section	.debug_loc,"",%progbits
 771              	.Ldebug_loc0:
 772              	.LLST0:
 773 0000 00000000 		.4byte	.LFB7
 774 0004 02000000 		.4byte	.LCFI0
 775 0008 0200     		.2byte	0x2
 776 000a 7D       		.byte	0x7d
 777 000b 00       		.sleb128 0
 778 000c 02000000 		.4byte	.LCFI0
 779 0010 3C000000 		.4byte	.LFE7
 780 0014 0200     		.2byte	0x2
 781 0016 7D       		.byte	0x7d
 782 0017 10       		.sleb128 16
 783 0018 00000000 		.4byte	0x0
 784 001c 00000000 		.4byte	0x0
 785              	.LLST1:
ARM GAS  /tmp/ccCPFOdJ.s 			page 15


 786 0020 00000000 		.4byte	.LFB8
 787 0024 06000000 		.4byte	.LCFI1
 788 0028 0200     		.2byte	0x2
 789 002a 7D       		.byte	0x7d
 790 002b 00       		.sleb128 0
 791 002c 06000000 		.4byte	.LCFI1
 792 0030 5A000000 		.4byte	.LFE8
 793 0034 0200     		.2byte	0x2
 794 0036 7D       		.byte	0x7d
 795 0037 10       		.sleb128 16
 796 0038 00000000 		.4byte	0x0
 797 003c 00000000 		.4byte	0x0
 798              	.LLST2:
 799 0040 00000000 		.4byte	.LVL1
 800 0044 10000000 		.4byte	.LVL2
 801 0048 0100     		.2byte	0x1
 802 004a 51       		.byte	0x51
 803 004b 10000000 		.4byte	.LVL2
 804 004f 5A000000 		.4byte	.LFE8
 805 0053 0300     		.2byte	0x3
 806 0055 7C       		.byte	0x7c
 807 0056 24       		.sleb128 36
 808 0057 9F       		.byte	0x9f
 809 0058 00000000 		.4byte	0x0
 810 005c 00000000 		.4byte	0x0
 811              	.LLST3:
 812 0060 00000000 		.4byte	.LVL1
 813 0064 16000000 		.4byte	.LVL3
 814 0068 0100     		.2byte	0x1
 815 006a 53       		.byte	0x53
 816 006b 16000000 		.4byte	.LVL3
 817 006f 24000000 		.4byte	.LVL4
 818 0073 0200     		.2byte	0x2
 819 0075 77       		.byte	0x77
 820 0076 00       		.sleb128 0
 821 0077 24000000 		.4byte	.LVL4
 822 007b 5A000000 		.4byte	.LFE8
 823 007f 0300     		.2byte	0x3
 824 0081 70       		.byte	0x70
 825 0082 0C       		.sleb128 12
 826 0083 06       		.byte	0x6
 827 0084 00000000 		.4byte	0x0
 828 0088 00000000 		.4byte	0x0
 829              	.LLST4:
 830 008c 00000000 		.4byte	.LFB9
 831 0090 02000000 		.4byte	.LCFI2
 832 0094 0200     		.2byte	0x2
 833 0096 7D       		.byte	0x7d
 834 0097 00       		.sleb128 0
 835 0098 02000000 		.4byte	.LCFI2
 836 009c 06000000 		.4byte	.LCFI3
 837 00a0 0200     		.2byte	0x2
 838 00a2 7D       		.byte	0x7d
 839 00a3 08       		.sleb128 8
 840 00a4 06000000 		.4byte	.LCFI3
 841 00a8 2A000000 		.4byte	.LFE9
 842 00ac 0200     		.2byte	0x2
ARM GAS  /tmp/ccCPFOdJ.s 			page 16


 843 00ae 7D       		.byte	0x7d
 844 00af 10       		.sleb128 16
 845 00b0 00000000 		.4byte	0x0
 846 00b4 00000000 		.4byte	0x0
 847              	.LLST5:
 848 00b8 00000000 		.4byte	.LVL6
 849 00bc 15000000 		.4byte	.LVL10-1
 850 00c0 0100     		.2byte	0x1
 851 00c2 50       		.byte	0x50
 852 00c3 00000000 		.4byte	0x0
 853 00c7 00000000 		.4byte	0x0
 854              	.LLST6:
 855 00cb 00000000 		.4byte	.LVL6
 856 00cf 15000000 		.4byte	.LVL10-1
 857 00d3 0100     		.2byte	0x1
 858 00d5 51       		.byte	0x51
 859 00d6 00000000 		.4byte	0x0
 860 00da 00000000 		.4byte	0x0
 861              	.LLST7:
 862 00de 00000000 		.4byte	.LVL6
 863 00e2 15000000 		.4byte	.LVL10-1
 864 00e6 0100     		.2byte	0x1
 865 00e8 52       		.byte	0x52
 866 00e9 00000000 		.4byte	0x0
 867 00ed 00000000 		.4byte	0x0
 868              	.LLST8:
 869 00f1 00000000 		.4byte	.LVL6
 870 00f5 08000000 		.4byte	.LVL7
 871 00f9 0100     		.2byte	0x1
 872 00fb 53       		.byte	0x53
 873 00fc 08000000 		.4byte	.LVL7
 874 0100 15000000 		.4byte	.LVL10-1
 875 0104 0100     		.2byte	0x1
 876 0106 5C       		.byte	0x5c
 877 0107 00000000 		.4byte	0x0
 878 010b 00000000 		.4byte	0x0
 879              	.LLST9:
 880 010f 1A000000 		.4byte	.LVL11
 881 0113 1D000000 		.4byte	.LVL12-1
 882 0117 0100     		.2byte	0x1
 883 0119 50       		.byte	0x50
 884 011a 1D000000 		.4byte	.LVL12-1
 885 011e 2A000000 		.4byte	.LFE9
 886 0122 0100     		.2byte	0x1
 887 0124 54       		.byte	0x54
 888 0125 00000000 		.4byte	0x0
 889 0129 00000000 		.4byte	0x0
 890              	.LLST10:
 891 012d 0C000000 		.4byte	.LVL8
 892 0131 10000000 		.4byte	.LVL9
 893 0135 0100     		.2byte	0x1
 894 0137 53       		.byte	0x53
 895 0138 00000000 		.4byte	0x0
 896 013c 00000000 		.4byte	0x0
 897              	.LLST11:
 898 0140 24000000 		.4byte	.LVL14
 899 0144 2A000000 		.4byte	.LFE9
ARM GAS  /tmp/ccCPFOdJ.s 			page 17


 900 0148 0100     		.2byte	0x1
 901 014a 53       		.byte	0x53
 902 014b 00000000 		.4byte	0x0
 903 014f 00000000 		.4byte	0x0
 904              	.LLST12:
 905 0153 00000000 		.4byte	.LFB10
 906 0157 02000000 		.4byte	.LCFI4
 907 015b 0200     		.2byte	0x2
 908 015d 7D       		.byte	0x7d
 909 015e 00       		.sleb128 0
 910 015f 02000000 		.4byte	.LCFI4
 911 0163 30000000 		.4byte	.LFE10
 912 0167 0200     		.2byte	0x2
 913 0169 7D       		.byte	0x7d
 914 016a 08       		.sleb128 8
 915 016b 00000000 		.4byte	0x0
 916 016f 00000000 		.4byte	0x0
 917              	.LLST13:
 918 0173 00000000 		.4byte	.LVL15
 919 0177 25000000 		.4byte	.LVL20-1
 920 017b 0100     		.2byte	0x1
 921 017d 50       		.byte	0x50
 922 017e 00000000 		.4byte	0x0
 923 0182 00000000 		.4byte	0x0
 924              	.LLST14:
 925 0186 25000000 		.4byte	.LVL20-1
 926 018a 30000000 		.4byte	.LFE10
 927 018e 0100     		.2byte	0x1
 928 0190 54       		.byte	0x54
 929 0191 00000000 		.4byte	0x0
 930 0195 00000000 		.4byte	0x0
 931              	.LLST15:
 932 0199 08000000 		.4byte	.LVL17
 933 019d 0C000000 		.4byte	.LVL18
 934 01a1 0100     		.2byte	0x1
 935 01a3 53       		.byte	0x53
 936 01a4 00000000 		.4byte	0x0
 937 01a8 00000000 		.4byte	0x0
 938              	.LLST16:
 939 01ac 2C000000 		.4byte	.LVL22
 940 01b0 30000000 		.4byte	.LFE10
 941 01b4 0100     		.2byte	0x1
 942 01b6 53       		.byte	0x53
 943 01b7 00000000 		.4byte	0x0
 944 01bb 00000000 		.4byte	0x0
 945              	.LLST17:
 946 01bf 00000000 		.4byte	.LFB11
 947 01c3 02000000 		.4byte	.LCFI5
 948 01c7 0200     		.2byte	0x2
 949 01c9 7D       		.byte	0x7d
 950 01ca 00       		.sleb128 0
 951 01cb 02000000 		.4byte	.LCFI5
 952 01cf 1A000000 		.4byte	.LFE11
 953 01d3 0200     		.2byte	0x2
 954 01d5 7D       		.byte	0x7d
 955 01d6 08       		.sleb128 8
 956 01d7 00000000 		.4byte	0x0
ARM GAS  /tmp/ccCPFOdJ.s 			page 18


 957 01db 00000000 		.4byte	0x0
 958              	.LLST18:
 959 01df 00000000 		.4byte	.LVL23
 960 01e3 0F000000 		.4byte	.LVL26-1
 961 01e7 0100     		.2byte	0x1
 962 01e9 50       		.byte	0x50
 963 01ea 0F000000 		.4byte	.LVL26-1
 964 01ee 1A000000 		.4byte	.LFE11
 965 01f2 0100     		.2byte	0x1
 966 01f4 54       		.byte	0x54
 967 01f5 00000000 		.4byte	0x0
 968 01f9 00000000 		.4byte	0x0
 969              	.LLST19:
 970 01fd 0A000000 		.4byte	.LVL25
 971 0201 0F000000 		.4byte	.LVL26-1
 972 0205 0100     		.2byte	0x1
 973 0207 53       		.byte	0x53
 974 0208 00000000 		.4byte	0x0
 975 020c 00000000 		.4byte	0x0
 976              	.LLST20:
 977 0210 16000000 		.4byte	.LVL28
 978 0214 1A000000 		.4byte	.LFE11
 979 0218 0100     		.2byte	0x1
 980 021a 53       		.byte	0x53
 981 021b 00000000 		.4byte	0x0
 982 021f 00000000 		.4byte	0x0
 983              	.LLST21:
 984 0223 06000000 		.4byte	.LVL31
 985 0227 0A000000 		.4byte	.LVL32
 986 022b 0100     		.2byte	0x1
 987 022d 53       		.byte	0x53
 988 022e 00000000 		.4byte	0x0
 989 0232 00000000 		.4byte	0x0
 990              	.LLST22:
 991 0236 14000000 		.4byte	.LVL33
 992 023a 16000000 		.4byte	.LFE12
 993 023e 0100     		.2byte	0x1
 994 0240 53       		.byte	0x53
 995 0241 00000000 		.4byte	0x0
 996 0245 00000000 		.4byte	0x0
 997              	.LLST23:
 998 0249 00000000 		.4byte	.LFB13
 999 024d 02000000 		.4byte	.LCFI6
 1000 0251 0200     		.2byte	0x2
 1001 0253 7D       		.byte	0x7d
 1002 0254 00       		.sleb128 0
 1003 0255 02000000 		.4byte	.LCFI6
 1004 0259 18000000 		.4byte	.LFE13
 1005 025d 0200     		.2byte	0x2
 1006 025f 7D       		.byte	0x7d
 1007 0260 08       		.sleb128 8
 1008 0261 00000000 		.4byte	0x0
 1009 0265 00000000 		.4byte	0x0
 1010              	.LLST24:
 1011 0269 00000000 		.4byte	.LVL34
 1012 026d 0C000000 		.4byte	.LVL37
 1013 0271 0100     		.2byte	0x1
ARM GAS  /tmp/ccCPFOdJ.s 			page 19


 1014 0273 50       		.byte	0x50
 1015 0274 0C000000 		.4byte	.LVL37
 1016 0278 0F000000 		.4byte	.LVL38-1
 1017 027c 0100     		.2byte	0x1
 1018 027e 51       		.byte	0x51
 1019 027f 00000000 		.4byte	0x0
 1020 0283 00000000 		.4byte	0x0
 1021              	.LLST25:
 1022 0287 0A000000 		.4byte	.LVL36
 1023 028b 0F000000 		.4byte	.LVL38-1
 1024 028f 0100     		.2byte	0x1
 1025 0291 53       		.byte	0x53
 1026 0292 00000000 		.4byte	0x0
 1027 0296 00000000 		.4byte	0x0
 1028              	.LLST26:
 1029 029a 16000000 		.4byte	.LVL40
 1030 029e 18000000 		.4byte	.LFE13
 1031 02a2 0100     		.2byte	0x1
 1032 02a4 53       		.byte	0x53
 1033 02a5 00000000 		.4byte	0x0
 1034 02a9 00000000 		.4byte	0x0
 1035              	.LLST27:
 1036 02ad 00000000 		.4byte	.LFB14
 1037 02b1 02000000 		.4byte	.LCFI7
 1038 02b5 0200     		.2byte	0x2
 1039 02b7 7D       		.byte	0x7d
 1040 02b8 00       		.sleb128 0
 1041 02b9 02000000 		.4byte	.LCFI7
 1042 02bd 24000000 		.4byte	.LFE14
 1043 02c1 0200     		.2byte	0x2
 1044 02c3 7D       		.byte	0x7d
 1045 02c4 08       		.sleb128 8
 1046 02c5 00000000 		.4byte	0x0
 1047 02c9 00000000 		.4byte	0x0
 1048              	.LLST28:
 1049 02cd 00000000 		.4byte	.LVL41
 1050 02d1 12000000 		.4byte	.LVL45
 1051 02d5 0100     		.2byte	0x1
 1052 02d7 50       		.byte	0x50
 1053 02d8 12000000 		.4byte	.LVL45
 1054 02dc 14000000 		.4byte	.LVL46
 1055 02e0 0600     		.2byte	0x6
 1056 02e2 70       		.byte	0x70
 1057 02e3 00       		.sleb128 0
 1058 02e4 71       		.byte	0x71
 1059 02e5 00       		.sleb128 0
 1060 02e6 1C       		.byte	0x1c
 1061 02e7 9F       		.byte	0x9f
 1062 02e8 14000000 		.4byte	.LVL46
 1063 02ec 1B000000 		.4byte	.LVL47-1
 1064 02f0 0100     		.2byte	0x1
 1065 02f2 51       		.byte	0x51
 1066 02f3 00000000 		.4byte	0x0
 1067 02f7 00000000 		.4byte	0x0
 1068              	.LLST29:
 1069 02fb 08000000 		.4byte	.LVL43
 1070 02ff 0C000000 		.4byte	.LVL44
ARM GAS  /tmp/ccCPFOdJ.s 			page 20


 1071 0303 0100     		.2byte	0x1
 1072 0305 53       		.byte	0x53
 1073 0306 00000000 		.4byte	0x0
 1074 030a 00000000 		.4byte	0x0
 1075              	.LLST30:
 1076 030e 22000000 		.4byte	.LVL49
 1077 0312 24000000 		.4byte	.LFE14
 1078 0316 0100     		.2byte	0x1
 1079 0318 53       		.byte	0x53
 1080 0319 00000000 		.4byte	0x0
 1081 031d 00000000 		.4byte	0x0
 1082              	.LLST31:
 1083 0321 00000000 		.4byte	.LFB15
 1084 0325 02000000 		.4byte	.LCFI8
 1085 0329 0200     		.2byte	0x2
 1086 032b 7D       		.byte	0x7d
 1087 032c 00       		.sleb128 0
 1088 032d 02000000 		.4byte	.LCFI8
 1089 0331 2C000000 		.4byte	.LFE15
 1090 0335 0200     		.2byte	0x2
 1091 0337 7D       		.byte	0x7d
 1092 0338 08       		.sleb128 8
 1093 0339 00000000 		.4byte	0x0
 1094 033d 00000000 		.4byte	0x0
 1095              	.LLST32:
 1096 0341 08000000 		.4byte	.LVL51
 1097 0345 1C000000 		.4byte	.LVL52
 1098 0349 0100     		.2byte	0x1
 1099 034b 53       		.byte	0x53
 1100 034c 00000000 		.4byte	0x0
 1101 0350 00000000 		.4byte	0x0
 1102              	.LLST33:
 1103 0354 2A000000 		.4byte	.LVL54
 1104 0358 2C000000 		.4byte	.LFE15
 1105 035c 0100     		.2byte	0x1
 1106 035e 53       		.byte	0x53
 1107 035f 00000000 		.4byte	0x0
 1108 0363 00000000 		.4byte	0x0
 1109              	.LLST34:
 1110 0367 00000000 		.4byte	.LFB16
 1111 036b 0A000000 		.4byte	.LCFI9
 1112 036f 0200     		.2byte	0x2
 1113 0371 7D       		.byte	0x7d
 1114 0372 00       		.sleb128 0
 1115 0373 0A000000 		.4byte	.LCFI9
 1116 0377 4C000000 		.4byte	.LFE16
 1117 037b 0200     		.2byte	0x2
 1118 037d 7D       		.byte	0x7d
 1119 037e 10       		.sleb128 16
 1120 037f 00000000 		.4byte	0x0
 1121 0383 00000000 		.4byte	0x0
 1122              	.LLST35:
 1123 0387 00000000 		.4byte	.LVL55
 1124 038b 1A000000 		.4byte	.LVL59
 1125 038f 0100     		.2byte	0x1
 1126 0391 50       		.byte	0x50
 1127 0392 1A000000 		.4byte	.LVL59
ARM GAS  /tmp/ccCPFOdJ.s 			page 21


 1128 0396 20000000 		.4byte	.LVL60
 1129 039a 0100     		.2byte	0x1
 1130 039c 52       		.byte	0x52
 1131 039d 00000000 		.4byte	0x0
 1132 03a1 00000000 		.4byte	0x0
 1133              	.LLST36:
 1134 03a5 0E000000 		.4byte	.LVL56
 1135 03a9 10000000 		.4byte	.LVL57
 1136 03ad 0200     		.2byte	0x2
 1137 03af 73       		.byte	0x73
 1138 03b0 1C       		.sleb128 28
 1139 03b1 20000000 		.4byte	.LVL60
 1140 03b5 4C000000 		.4byte	.LFE16
 1141 03b9 0100     		.2byte	0x1
 1142 03bb 54       		.byte	0x54
 1143 03bc 00000000 		.4byte	0x0
 1144 03c0 00000000 		.4byte	0x0
 1145              	.LLST37:
 1146 03c4 14000000 		.4byte	.LVL58
 1147 03c8 27000000 		.4byte	.LVL61-1
 1148 03cc 0100     		.2byte	0x1
 1149 03ce 53       		.byte	0x53
 1150 03cf 2E000000 		.4byte	.LVL62
 1151 03d3 4C000000 		.4byte	.LFE16
 1152 03d7 0100     		.2byte	0x1
 1153 03d9 53       		.byte	0x53
 1154 03da 00000000 		.4byte	0x0
 1155 03de 00000000 		.4byte	0x0
 1156              	.LLST38:
 1157 03e2 20000000 		.4byte	.LVL60
 1158 03e6 2E000000 		.4byte	.LVL62
 1159 03ea 0300     		.2byte	0x3
 1160 03ec 74       		.byte	0x74
 1161 03ed 24       		.sleb128 36
 1162 03ee 9F       		.byte	0x9f
 1163 03ef 00000000 		.4byte	0x0
 1164 03f3 00000000 		.4byte	0x0
 1165              	.LLST39:
 1166 03f7 20000000 		.4byte	.LVL60
 1167 03fb 27000000 		.4byte	.LVL61-1
 1168 03ff 0100     		.2byte	0x1
 1169 0401 50       		.byte	0x50
 1170 0402 00000000 		.4byte	0x0
 1171 0406 00000000 		.4byte	0x0
 1172              	.LLST40:
 1173 040a 00000000 		.4byte	.LFB17
 1174 040e 02000000 		.4byte	.LCFI10
 1175 0412 0200     		.2byte	0x2
 1176 0414 7D       		.byte	0x7d
 1177 0415 00       		.sleb128 0
 1178 0416 02000000 		.4byte	.LCFI10
 1179 041a 38000000 		.4byte	.LFE17
 1180 041e 0200     		.2byte	0x2
 1181 0420 7D       		.byte	0x7d
 1182 0421 10       		.sleb128 16
 1183 0422 00000000 		.4byte	0x0
 1184 0426 00000000 		.4byte	0x0
ARM GAS  /tmp/ccCPFOdJ.s 			page 22


 1185              	.LLST41:
 1186 042a 00000000 		.4byte	.LVL63
 1187 042e 14000000 		.4byte	.LVL67
 1188 0432 0100     		.2byte	0x1
 1189 0434 50       		.byte	0x50
 1190 0435 14000000 		.4byte	.LVL67
 1191 0439 38000000 		.4byte	.LFE17
 1192 043d 0100     		.2byte	0x1
 1193 043f 54       		.byte	0x54
 1194 0440 00000000 		.4byte	0x0
 1195 0444 00000000 		.4byte	0x0
 1196              	.LLST42:
 1197 0448 28000000 		.4byte	.LVL71
 1198 044c 33000000 		.4byte	.LVL74-1
 1199 0450 0200     		.2byte	0x2
 1200 0452 74       		.byte	0x74
 1201 0453 20       		.sleb128 32
 1202 0454 33000000 		.4byte	.LVL74-1
 1203 0458 38000000 		.4byte	.LFE17
 1204 045c 0100     		.2byte	0x1
 1205 045e 55       		.byte	0x55
 1206 045f 00000000 		.4byte	0x0
 1207 0463 00000000 		.4byte	0x0
 1208              	.LLST43:
 1209 0467 0A000000 		.4byte	.LVL65
 1210 046b 0C000000 		.4byte	.LVL66
 1211 046f 0100     		.2byte	0x1
 1212 0471 53       		.byte	0x53
 1213 0472 00000000 		.4byte	0x0
 1214 0476 00000000 		.4byte	0x0
 1215              	.LLST44:
 1216 047a 1A000000 		.4byte	.LVL68
 1217 047e 26000000 		.4byte	.LVL70
 1218 0482 0300     		.2byte	0x3
 1219 0484 74       		.byte	0x74
 1220 0485 24       		.sleb128 36
 1221 0486 9F       		.byte	0x9f
 1222 0487 00000000 		.4byte	0x0
 1223 048b 00000000 		.4byte	0x0
 1224              	.LLST45:
 1225 048f 1A000000 		.4byte	.LVL68
 1226 0493 1E000000 		.4byte	.LVL69
 1227 0497 0200     		.2byte	0x2
 1228 0499 70       		.byte	0x70
 1229 049a 1C       		.sleb128 28
 1230 049b 00000000 		.4byte	0x0
 1231 049f 00000000 		.4byte	0x0
 1232              	.LLST46:
 1233 04a3 2E000000 		.4byte	.LVL73
 1234 04a7 33000000 		.4byte	.LVL74-1
 1235 04ab 0100     		.2byte	0x1
 1236 04ad 53       		.byte	0x53
 1237 04ae 00000000 		.4byte	0x0
 1238 04b2 00000000 		.4byte	0x0
 1239              		.file 3 "/home/dan/arm-cs-tools/lib/gcc/arm-none-eabi/4.5.1/include/stddef.h"
 1240              		.file 4 "/home/dan/arm-cs-tools/lib/gcc/arm-none-eabi/4.5.1/../../../../arm-none-eabi/include/stdi
 1241              		.file 5 "chibios/os/ports/GCC/ARMCMx/chtypes.h"
ARM GAS  /tmp/ccCPFOdJ.s 			page 23


 1242              		.file 6 "chibios/os/kernel/include/chlists.h"
 1243              		.file 7 "chibios/os/kernel/include/chthreads.h"
 1244              		.file 8 "chibios/os/ports/GCC/ARMCMx/chcore.h"
 1245              		.file 9 "chibios/os/ports/GCC/ARMCMx/chcore_v7m.h"
 1246              		.file 10 "chibios/os/kernel/include/chvt.h"
 1247              		.file 11 "chibios/os/kernel/include/chschd.h"
 1248              		.file 12 "chibios/os/kernel/include/chmtx.h"
 1249              		.section	.debug_info
 1250 0000 6B0A0000 		.4byte	0xa6b
 1251 0004 0200     		.2byte	0x2
 1252 0006 00000000 		.4byte	.Ldebug_abbrev0
 1253 000a 04       		.byte	0x4
 1254 000b 01       		.uleb128 0x1
 1255 000c 7A030000 		.4byte	.LASF87
 1256 0010 01       		.byte	0x1
 1257 0011 14010000 		.4byte	.LASF88
 1258 0015 C3010000 		.4byte	.LASF89
 1259 0019 00000000 		.4byte	0x0
 1260 001d 00000000 		.4byte	0x0
 1261 0021 60000000 		.4byte	.Ldebug_ranges0+0x60
 1262 0025 00000000 		.4byte	.Ldebug_line0
 1263 0029 02       		.uleb128 0x2
 1264 002a 04       		.byte	0x4
 1265 002b 05       		.byte	0x5
 1266 002c 696E7400 		.ascii	"int\000"
 1267 0030 03       		.uleb128 0x3
 1268 0031 0E000000 		.4byte	.LASF2
 1269 0035 03       		.byte	0x3
 1270 0036 D3       		.byte	0xd3
 1271 0037 3B000000 		.4byte	0x3b
 1272 003b 04       		.uleb128 0x4
 1273 003c 04       		.byte	0x4
 1274 003d 07       		.byte	0x7
 1275 003e ED000000 		.4byte	.LASF0
 1276 0042 04       		.uleb128 0x4
 1277 0043 01       		.byte	0x1
 1278 0044 06       		.byte	0x6
 1279 0045 5D000000 		.4byte	.LASF1
 1280 0049 03       		.uleb128 0x3
 1281 004a 66030000 		.4byte	.LASF3
 1282 004e 04       		.byte	0x4
 1283 004f 2A       		.byte	0x2a
 1284 0050 54000000 		.4byte	0x54
 1285 0054 04       		.uleb128 0x4
 1286 0055 01       		.byte	0x1
 1287 0056 08       		.byte	0x8
 1288 0057 66020000 		.4byte	.LASF4
 1289 005b 04       		.uleb128 0x4
 1290 005c 02       		.byte	0x2
 1291 005d 05       		.byte	0x5
 1292 005e 7E020000 		.4byte	.LASF5
 1293 0062 04       		.uleb128 0x4
 1294 0063 02       		.byte	0x2
 1295 0064 07       		.byte	0x7
 1296 0065 43010000 		.4byte	.LASF6
 1297 0069 03       		.uleb128 0x3
 1298 006a 5E020000 		.4byte	.LASF7
ARM GAS  /tmp/ccCPFOdJ.s 			page 24


 1299 006e 04       		.byte	0x4
 1300 006f 4F       		.byte	0x4f
 1301 0070 74000000 		.4byte	0x74
 1302 0074 04       		.uleb128 0x4
 1303 0075 04       		.byte	0x4
 1304 0076 05       		.byte	0x5
 1305 0077 97000000 		.4byte	.LASF8
 1306 007b 03       		.uleb128 0x3
 1307 007c BF020000 		.4byte	.LASF9
 1308 0080 04       		.byte	0x4
 1309 0081 50       		.byte	0x50
 1310 0082 86000000 		.4byte	0x86
 1311 0086 04       		.uleb128 0x4
 1312 0087 04       		.byte	0x4
 1313 0088 07       		.byte	0x7
 1314 0089 02010000 		.4byte	.LASF10
 1315 008d 04       		.uleb128 0x4
 1316 008e 08       		.byte	0x8
 1317 008f 05       		.byte	0x5
 1318 0090 4F000000 		.4byte	.LASF11
 1319 0094 04       		.uleb128 0x4
 1320 0095 08       		.byte	0x8
 1321 0096 07       		.byte	0x7
 1322 0097 28000000 		.4byte	.LASF12
 1323 009b 03       		.uleb128 0x3
 1324 009c 64010000 		.4byte	.LASF13
 1325 00a0 05       		.byte	0x5
 1326 00a1 2E       		.byte	0x2e
 1327 00a2 49000000 		.4byte	0x49
 1328 00a6 03       		.uleb128 0x3
 1329 00a7 A0000000 		.4byte	.LASF14
 1330 00ab 05       		.byte	0x5
 1331 00ac 2F       		.byte	0x2f
 1332 00ad 49000000 		.4byte	0x49
 1333 00b1 03       		.uleb128 0x3
 1334 00b2 47020000 		.4byte	.LASF15
 1335 00b6 05       		.byte	0x5
 1336 00b7 30       		.byte	0x30
 1337 00b8 49000000 		.4byte	0x49
 1338 00bc 03       		.uleb128 0x3
 1339 00bd 56020000 		.4byte	.LASF16
 1340 00c1 05       		.byte	0x5
 1341 00c2 31       		.byte	0x31
 1342 00c3 7B000000 		.4byte	0x7b
 1343 00c7 03       		.uleb128 0x3
 1344 00c8 56010000 		.4byte	.LASF17
 1345 00cc 05       		.byte	0x5
 1346 00cd 32       		.byte	0x32
 1347 00ce 69000000 		.4byte	0x69
 1348 00d2 03       		.uleb128 0x3
 1349 00d3 87010000 		.4byte	.LASF18
 1350 00d7 05       		.byte	0x5
 1351 00d8 34       		.byte	0x34
 1352 00d9 7B000000 		.4byte	0x7b
 1353 00dd 03       		.uleb128 0x3
 1354 00de F1020000 		.4byte	.LASF19
 1355 00e2 05       		.byte	0x5
ARM GAS  /tmp/ccCPFOdJ.s 			page 25


 1356 00e3 35       		.byte	0x35
 1357 00e4 7B000000 		.4byte	0x7b
 1358 00e8 03       		.uleb128 0x3
 1359 00e9 E7000000 		.4byte	.LASF20
 1360 00ed 05       		.byte	0x5
 1361 00ee 36       		.byte	0x36
 1362 00ef 69000000 		.4byte	0x69
 1363 00f3 03       		.uleb128 0x3
 1364 00f4 AD020000 		.4byte	.LASF21
 1365 00f8 06       		.byte	0x6
 1366 00f9 29       		.byte	0x29
 1367 00fa FE000000 		.4byte	0xfe
 1368 00fe 05       		.uleb128 0x5
 1369 00ff AD020000 		.4byte	.LASF21
 1370 0103 44       		.byte	0x44
 1371 0104 07       		.byte	0x7
 1372 0105 2E       		.byte	0x2e
 1373 0106 07020000 		.4byte	0x207
 1374 010a 06       		.uleb128 0x6
 1375 010b 9E020000 		.4byte	.LASF22
 1376 010f 07       		.byte	0x7
 1377 0110 2F       		.byte	0x2f
 1378 0111 2C020000 		.4byte	0x22c
 1379 0115 02       		.byte	0x2
 1380 0116 23       		.byte	0x23
 1381 0117 00       		.uleb128 0x0
 1382 0118 06       		.uleb128 0x6
 1383 0119 4F020000 		.4byte	.LASF23
 1384 011d 07       		.byte	0x7
 1385 011e 31       		.byte	0x31
 1386 011f 2C020000 		.4byte	0x22c
 1387 0123 02       		.byte	0x2
 1388 0124 23       		.byte	0x23
 1389 0125 04       		.uleb128 0x4
 1390 0126 06       		.uleb128 0x6
 1391 0127 48000000 		.4byte	.LASF24
 1392 012b 07       		.byte	0x7
 1393 012c 33       		.byte	0x33
 1394 012d BC000000 		.4byte	0xbc
 1395 0131 02       		.byte	0x2
 1396 0132 23       		.byte	0x23
 1397 0133 08       		.uleb128 0x8
 1398 0134 06       		.uleb128 0x6
 1399 0135 AA030000 		.4byte	.LASF25
 1400 0139 07       		.byte	0x7
 1401 013a 34       		.byte	0x34
 1402 013b 6D020000 		.4byte	0x26d
 1403 013f 02       		.byte	0x2
 1404 0140 23       		.byte	0x23
 1405 0141 0C       		.uleb128 0xc
 1406 0142 06       		.uleb128 0x6
 1407 0143 A9000000 		.4byte	.LASF26
 1408 0147 07       		.byte	0x7
 1409 0148 36       		.byte	0x36
 1410 0149 2C020000 		.4byte	0x22c
 1411 014d 02       		.byte	0x2
 1412 014e 23       		.byte	0x23
ARM GAS  /tmp/ccCPFOdJ.s 			page 26


 1413 014f 10       		.uleb128 0x10
 1414 0150 06       		.uleb128 0x6
 1415 0151 F9010000 		.4byte	.LASF27
 1416 0155 07       		.byte	0x7
 1417 0156 37       		.byte	0x37
 1418 0157 2C020000 		.4byte	0x22c
 1419 015b 02       		.byte	0x2
 1420 015c 23       		.byte	0x23
 1421 015d 14       		.uleb128 0x14
 1422 015e 06       		.uleb128 0x6
 1423 015f 88020000 		.4byte	.LASF28
 1424 0163 07       		.byte	0x7
 1425 0164 3D       		.byte	0x3d
 1426 0165 A6000000 		.4byte	0xa6
 1427 0169 02       		.byte	0x2
 1428 016a 23       		.byte	0x23
 1429 016b 18       		.uleb128 0x18
 1430 016c 06       		.uleb128 0x6
 1431 016d A5020000 		.4byte	.LASF29
 1432 0171 07       		.byte	0x7
 1433 0172 41       		.byte	0x41
 1434 0173 9B000000 		.4byte	0x9b
 1435 0177 02       		.byte	0x2
 1436 0178 23       		.byte	0x23
 1437 0179 19       		.uleb128 0x19
 1438 017a 06       		.uleb128 0x6
 1439 017b 4F030000 		.4byte	.LASF30
 1440 017f 07       		.byte	0x7
 1441 0180 46       		.byte	0x46
 1442 0181 B1000000 		.4byte	0xb1
 1443 0185 02       		.byte	0x2
 1444 0186 23       		.byte	0x23
 1445 0187 1A       		.uleb128 0x1a
 1446 0188 06       		.uleb128 0x6
 1447 0189 1A030000 		.4byte	.LASF31
 1448 018d 07       		.byte	0x7
 1449 018e 53       		.byte	0x53
 1450 018f D6030000 		.4byte	0x3d6
 1451 0193 02       		.byte	0x2
 1452 0194 23       		.byte	0x23
 1453 0195 1C       		.uleb128 0x1c
 1454 0196 07       		.uleb128 0x7
 1455 0197 705F7500 		.ascii	"p_u\000"
 1456 019b 07       		.byte	0x7
 1457 019c 78       		.byte	0x78
 1458 019d A4040000 		.4byte	0x4a4
 1459 01a1 02       		.byte	0x2
 1460 01a2 23       		.byte	0x23
 1461 01a3 20       		.uleb128 0x20
 1462 01a4 06       		.uleb128 0x6
 1463 01a5 B0030000 		.4byte	.LASF32
 1464 01a9 07       		.byte	0x7
 1465 01aa 7D       		.byte	0x7d
 1466 01ab 54020000 		.4byte	0x254
 1467 01af 02       		.byte	0x2
 1468 01b0 23       		.byte	0x23
 1469 01b1 24       		.uleb128 0x24
ARM GAS  /tmp/ccCPFOdJ.s 			page 27


 1470 01b2 06       		.uleb128 0x6
 1471 01b3 28030000 		.4byte	.LASF33
 1472 01b7 07       		.byte	0x7
 1473 01b8 83       		.byte	0x83
 1474 01b9 32020000 		.4byte	0x232
 1475 01bd 02       		.byte	0x2
 1476 01be 23       		.byte	0x23
 1477 01bf 28       		.uleb128 0x28
 1478 01c0 06       		.uleb128 0x6
 1479 01c1 08000000 		.4byte	.LASF34
 1480 01c5 07       		.byte	0x7
 1481 01c6 87       		.byte	0x87
 1482 01c7 C7000000 		.4byte	0xc7
 1483 01cb 02       		.byte	0x2
 1484 01cc 23       		.byte	0x23
 1485 01cd 30       		.uleb128 0x30
 1486 01ce 06       		.uleb128 0x6
 1487 01cf B4020000 		.4byte	.LASF35
 1488 01d3 07       		.byte	0x7
 1489 01d4 8D       		.byte	0x8d
 1490 01d5 D2000000 		.4byte	0xd2
 1491 01d9 02       		.byte	0x2
 1492 01da 23       		.byte	0x23
 1493 01db 34       		.uleb128 0x34
 1494 01dc 06       		.uleb128 0x6
 1495 01dd 74020000 		.4byte	.LASF36
 1496 01e1 07       		.byte	0x7
 1497 01e2 94       		.byte	0x94
 1498 01e3 D9040000 		.4byte	0x4d9
 1499 01e7 02       		.byte	0x2
 1500 01e8 23       		.byte	0x23
 1501 01e9 38       		.uleb128 0x38
 1502 01ea 06       		.uleb128 0x6
 1503 01eb FB020000 		.4byte	.LASF37
 1504 01ef 07       		.byte	0x7
 1505 01f0 98       		.byte	0x98
 1506 01f1 BC000000 		.4byte	0xbc
 1507 01f5 02       		.byte	0x2
 1508 01f6 23       		.byte	0x23
 1509 01f7 3C       		.uleb128 0x3c
 1510 01f8 06       		.uleb128 0x6
 1511 01f9 73000000 		.4byte	.LASF38
 1512 01fd 07       		.byte	0x7
 1513 01fe 9E       		.byte	0x9e
 1514 01ff 6B020000 		.4byte	0x26b
 1515 0203 02       		.byte	0x2
 1516 0204 23       		.byte	0x23
 1517 0205 40       		.uleb128 0x40
 1518 0206 00       		.byte	0x0
 1519 0207 08       		.uleb128 0x8
 1520 0208 08       		.byte	0x8
 1521 0209 06       		.byte	0x6
 1522 020a 60       		.byte	0x60
 1523 020b 2C020000 		.4byte	0x22c
 1524 020f 06       		.uleb128 0x6
 1525 0210 9E020000 		.4byte	.LASF22
 1526 0214 06       		.byte	0x6
ARM GAS  /tmp/ccCPFOdJ.s 			page 28


 1527 0215 61       		.byte	0x61
 1528 0216 2C020000 		.4byte	0x22c
 1529 021a 02       		.byte	0x2
 1530 021b 23       		.byte	0x23
 1531 021c 00       		.uleb128 0x0
 1532 021d 06       		.uleb128 0x6
 1533 021e 4F020000 		.4byte	.LASF23
 1534 0222 06       		.byte	0x6
 1535 0223 63       		.byte	0x63
 1536 0224 2C020000 		.4byte	0x22c
 1537 0228 02       		.byte	0x2
 1538 0229 23       		.byte	0x23
 1539 022a 04       		.uleb128 0x4
 1540 022b 00       		.byte	0x0
 1541 022c 09       		.uleb128 0x9
 1542 022d 04       		.byte	0x4
 1543 022e F3000000 		.4byte	0xf3
 1544 0232 03       		.uleb128 0x3
 1545 0233 07020000 		.4byte	.LASF39
 1546 0237 06       		.byte	0x6
 1547 0238 65       		.byte	0x65
 1548 0239 07020000 		.4byte	0x207
 1549 023d 08       		.uleb128 0x8
 1550 023e 04       		.byte	0x4
 1551 023f 06       		.byte	0x6
 1552 0240 6A       		.byte	0x6a
 1553 0241 54020000 		.4byte	0x254
 1554 0245 06       		.uleb128 0x6
 1555 0246 9E020000 		.4byte	.LASF22
 1556 024a 06       		.byte	0x6
 1557 024b 6C       		.byte	0x6c
 1558 024c 2C020000 		.4byte	0x22c
 1559 0250 02       		.byte	0x2
 1560 0251 23       		.byte	0x23
 1561 0252 00       		.uleb128 0x0
 1562 0253 00       		.byte	0x0
 1563 0254 03       		.uleb128 0x3
 1564 0255 7B010000 		.4byte	.LASF40
 1565 0259 06       		.byte	0x6
 1566 025a 6F       		.byte	0x6f
 1567 025b 3D020000 		.4byte	0x23d
 1568 025f 0A       		.uleb128 0xa
 1569 0260 C5000000 		.4byte	.LASF41
 1570 0264 08       		.byte	0x8
 1571 0265 0F01     		.2byte	0x10f
 1572 0267 6B020000 		.4byte	0x26b
 1573 026b 0B       		.uleb128 0xb
 1574 026c 04       		.byte	0x4
 1575 026d 0C       		.uleb128 0xc
 1576 026e 36010000 		.4byte	.LASF42
 1577 0272 04       		.byte	0x4
 1578 0273 08       		.byte	0x8
 1579 0274 2B01     		.2byte	0x12b
 1580 0276 8A020000 		.4byte	0x28a
 1581 027a 0D       		.uleb128 0xd
 1582 027b 72313300 		.ascii	"r13\000"
 1583 027f 08       		.byte	0x8
ARM GAS  /tmp/ccCPFOdJ.s 			page 29


 1584 0280 2C01     		.2byte	0x12c
 1585 0282 0E030000 		.4byte	0x30e
 1586 0286 02       		.byte	0x2
 1587 0287 23       		.byte	0x23
 1588 0288 00       		.uleb128 0x0
 1589 0289 00       		.byte	0x0
 1590 028a 05       		.uleb128 0x5
 1591 028b 21030000 		.4byte	.LASF43
 1592 028f 24       		.byte	0x24
 1593 0290 09       		.byte	0x9
 1594 0291 36       		.byte	0x36
 1595 0292 0E030000 		.4byte	0x30e
 1596 0296 07       		.uleb128 0x7
 1597 0297 723400   		.ascii	"r4\000"
 1598 029a 09       		.byte	0x9
 1599 029b 37       		.byte	0x37
 1600 029c 5F020000 		.4byte	0x25f
 1601 02a0 02       		.byte	0x2
 1602 02a1 23       		.byte	0x23
 1603 02a2 00       		.uleb128 0x0
 1604 02a3 07       		.uleb128 0x7
 1605 02a4 723500   		.ascii	"r5\000"
 1606 02a7 09       		.byte	0x9
 1607 02a8 38       		.byte	0x38
 1608 02a9 5F020000 		.4byte	0x25f
 1609 02ad 02       		.byte	0x2
 1610 02ae 23       		.byte	0x23
 1611 02af 04       		.uleb128 0x4
 1612 02b0 07       		.uleb128 0x7
 1613 02b1 723600   		.ascii	"r6\000"
 1614 02b4 09       		.byte	0x9
 1615 02b5 39       		.byte	0x39
 1616 02b6 5F020000 		.4byte	0x25f
 1617 02ba 02       		.byte	0x2
 1618 02bb 23       		.byte	0x23
 1619 02bc 08       		.uleb128 0x8
 1620 02bd 07       		.uleb128 0x7
 1621 02be 723700   		.ascii	"r7\000"
 1622 02c1 09       		.byte	0x9
 1623 02c2 3B       		.byte	0x3b
 1624 02c3 5F020000 		.4byte	0x25f
 1625 02c7 02       		.byte	0x2
 1626 02c8 23       		.byte	0x23
 1627 02c9 0C       		.uleb128 0xc
 1628 02ca 07       		.uleb128 0x7
 1629 02cb 723800   		.ascii	"r8\000"
 1630 02ce 09       		.byte	0x9
 1631 02cf 3D       		.byte	0x3d
 1632 02d0 5F020000 		.4byte	0x25f
 1633 02d4 02       		.byte	0x2
 1634 02d5 23       		.byte	0x23
 1635 02d6 10       		.uleb128 0x10
 1636 02d7 07       		.uleb128 0x7
 1637 02d8 723900   		.ascii	"r9\000"
 1638 02db 09       		.byte	0x9
 1639 02dc 3E       		.byte	0x3e
 1640 02dd 5F020000 		.4byte	0x25f
ARM GAS  /tmp/ccCPFOdJ.s 			page 30


 1641 02e1 02       		.byte	0x2
 1642 02e2 23       		.byte	0x23
 1643 02e3 14       		.uleb128 0x14
 1644 02e4 07       		.uleb128 0x7
 1645 02e5 72313000 		.ascii	"r10\000"
 1646 02e9 09       		.byte	0x9
 1647 02ea 3F       		.byte	0x3f
 1648 02eb 5F020000 		.4byte	0x25f
 1649 02ef 02       		.byte	0x2
 1650 02f0 23       		.byte	0x23
 1651 02f1 18       		.uleb128 0x18
 1652 02f2 07       		.uleb128 0x7
 1653 02f3 72313100 		.ascii	"r11\000"
 1654 02f7 09       		.byte	0x9
 1655 02f8 40       		.byte	0x40
 1656 02f9 5F020000 		.4byte	0x25f
 1657 02fd 02       		.byte	0x2
 1658 02fe 23       		.byte	0x23
 1659 02ff 1C       		.uleb128 0x1c
 1660 0300 07       		.uleb128 0x7
 1661 0301 6C7200   		.ascii	"lr\000"
 1662 0304 09       		.byte	0x9
 1663 0305 41       		.byte	0x41
 1664 0306 5F020000 		.4byte	0x25f
 1665 030a 02       		.byte	0x2
 1666 030b 23       		.byte	0x23
 1667 030c 20       		.uleb128 0x20
 1668 030d 00       		.byte	0x0
 1669 030e 09       		.uleb128 0x9
 1670 030f 04       		.byte	0x4
 1671 0310 8A020000 		.4byte	0x28a
 1672 0314 03       		.uleb128 0x3
 1673 0315 06030000 		.4byte	.LASF44
 1674 0319 0A       		.byte	0xa
 1675 031a 3E       		.byte	0x3e
 1676 031b 1F030000 		.4byte	0x31f
 1677 031f 09       		.uleb128 0x9
 1678 0320 04       		.byte	0x4
 1679 0321 25030000 		.4byte	0x325
 1680 0325 0E       		.uleb128 0xe
 1681 0326 01       		.byte	0x1
 1682 0327 31030000 		.4byte	0x331
 1683 032b 0F       		.uleb128 0xf
 1684 032c 6B020000 		.4byte	0x26b
 1685 0330 00       		.byte	0x0
 1686 0331 03       		.uleb128 0x3
 1687 0332 DD020000 		.4byte	.LASF45
 1688 0336 0A       		.byte	0xa
 1689 0337 43       		.byte	0x43
 1690 0338 3C030000 		.4byte	0x33c
 1691 033c 05       		.uleb128 0x5
 1692 033d DD020000 		.4byte	.LASF45
 1693 0341 14       		.byte	0x14
 1694 0342 0A       		.byte	0xa
 1695 0343 4A       		.byte	0x4a
 1696 0344 8F030000 		.4byte	0x38f
 1697 0348 06       		.uleb128 0x6
ARM GAS  /tmp/ccCPFOdJ.s 			page 31


 1698 0349 FA000000 		.4byte	.LASF46
 1699 034d 0A       		.byte	0xa
 1700 034e 4B       		.byte	0x4b
 1701 034f 8F030000 		.4byte	0x38f
 1702 0353 02       		.byte	0x2
 1703 0354 23       		.byte	0x23
 1704 0355 00       		.uleb128 0x0
 1705 0356 06       		.uleb128 0x6
 1706 0357 CE000000 		.4byte	.LASF47
 1707 035b 0A       		.byte	0xa
 1708 035c 4D       		.byte	0x4d
 1709 035d 8F030000 		.4byte	0x38f
 1710 0361 02       		.byte	0x2
 1711 0362 23       		.byte	0x23
 1712 0363 04       		.uleb128 0x4
 1713 0364 06       		.uleb128 0x6
 1714 0365 B3010000 		.4byte	.LASF48
 1715 0369 0A       		.byte	0xa
 1716 036a 4F       		.byte	0x4f
 1717 036b DD000000 		.4byte	0xdd
 1718 036f 02       		.byte	0x2
 1719 0370 23       		.byte	0x23
 1720 0371 08       		.uleb128 0x8
 1721 0372 06       		.uleb128 0x6
 1722 0373 BB010000 		.4byte	.LASF49
 1723 0377 0A       		.byte	0xa
 1724 0378 50       		.byte	0x50
 1725 0379 14030000 		.4byte	0x314
 1726 037d 02       		.byte	0x2
 1727 037e 23       		.byte	0x23
 1728 037f 0C       		.uleb128 0xc
 1729 0380 06       		.uleb128 0x6
 1730 0381 3D030000 		.4byte	.LASF50
 1731 0385 0A       		.byte	0xa
 1732 0386 52       		.byte	0x52
 1733 0387 6B020000 		.4byte	0x26b
 1734 038b 02       		.byte	0x2
 1735 038c 23       		.byte	0x23
 1736 038d 10       		.uleb128 0x10
 1737 038e 00       		.byte	0x0
 1738 038f 09       		.uleb128 0x9
 1739 0390 04       		.byte	0x4
 1740 0391 31030000 		.4byte	0x331
 1741 0395 08       		.uleb128 0x8
 1742 0396 10       		.byte	0x10
 1743 0397 0A       		.byte	0xa
 1744 0398 5C       		.byte	0x5c
 1745 0399 D6030000 		.4byte	0x3d6
 1746 039d 06       		.uleb128 0x6
 1747 039e FA000000 		.4byte	.LASF46
 1748 03a2 0A       		.byte	0xa
 1749 03a3 5D       		.byte	0x5d
 1750 03a4 8F030000 		.4byte	0x38f
 1751 03a8 02       		.byte	0x2
 1752 03a9 23       		.byte	0x23
 1753 03aa 00       		.uleb128 0x0
 1754 03ab 06       		.uleb128 0x6
ARM GAS  /tmp/ccCPFOdJ.s 			page 32


 1755 03ac CE000000 		.4byte	.LASF47
 1756 03b0 0A       		.byte	0xa
 1757 03b1 5F       		.byte	0x5f
 1758 03b2 8F030000 		.4byte	0x38f
 1759 03b6 02       		.byte	0x2
 1760 03b7 23       		.byte	0x23
 1761 03b8 04       		.uleb128 0x4
 1762 03b9 06       		.uleb128 0x6
 1763 03ba B3010000 		.4byte	.LASF48
 1764 03be 0A       		.byte	0xa
 1765 03bf 61       		.byte	0x61
 1766 03c0 DD000000 		.4byte	0xdd
 1767 03c4 02       		.byte	0x2
 1768 03c5 23       		.byte	0x23
 1769 03c6 08       		.uleb128 0x8
 1770 03c7 06       		.uleb128 0x6
 1771 03c8 86030000 		.4byte	.LASF51
 1772 03cc 0A       		.byte	0xa
 1773 03cd 62       		.byte	0x62
 1774 03ce D6030000 		.4byte	0x3d6
 1775 03d2 02       		.byte	0x2
 1776 03d3 23       		.byte	0x23
 1777 03d4 0C       		.uleb128 0xc
 1778 03d5 00       		.byte	0x0
 1779 03d6 10       		.uleb128 0x10
 1780 03d7 DD000000 		.4byte	0xdd
 1781 03db 03       		.uleb128 0x3
 1782 03dc 91030000 		.4byte	.LASF52
 1783 03e0 0A       		.byte	0xa
 1784 03e1 63       		.byte	0x63
 1785 03e2 95030000 		.4byte	0x395
 1786 03e6 08       		.uleb128 0x8
 1787 03e7 20       		.byte	0x20
 1788 03e8 0B       		.byte	0xb
 1789 03e9 4F       		.byte	0x4f
 1790 03ea 51040000 		.4byte	0x451
 1791 03ee 06       		.uleb128 0x6
 1792 03ef D5020000 		.4byte	.LASF53
 1793 03f3 0B       		.byte	0xb
 1794 03f4 50       		.byte	0x50
 1795 03f5 32020000 		.4byte	0x232
 1796 03f9 02       		.byte	0x2
 1797 03fa 23       		.byte	0x23
 1798 03fb 00       		.uleb128 0x0
 1799 03fc 06       		.uleb128 0x6
 1800 03fd 90020000 		.4byte	.LASF54
 1801 0401 0B       		.byte	0xb
 1802 0402 51       		.byte	0x51
 1803 0403 BC000000 		.4byte	0xbc
 1804 0407 02       		.byte	0x2
 1805 0408 23       		.byte	0x23
 1806 0409 08       		.uleb128 0x8
 1807 040a 06       		.uleb128 0x6
 1808 040b 01020000 		.4byte	.LASF55
 1809 040f 0B       		.byte	0xb
 1810 0410 53       		.byte	0x53
 1811 0411 6D020000 		.4byte	0x26d
ARM GAS  /tmp/ccCPFOdJ.s 			page 33


 1812 0415 02       		.byte	0x2
 1813 0416 23       		.byte	0x23
 1814 0417 0C       		.uleb128 0xc
 1815 0418 06       		.uleb128 0x6
 1816 0419 BD000000 		.4byte	.LASF56
 1817 041d 0B       		.byte	0xb
 1818 041e 56       		.byte	0x56
 1819 041f 2C020000 		.4byte	0x22c
 1820 0423 02       		.byte	0x2
 1821 0424 23       		.byte	0x23
 1822 0425 10       		.uleb128 0x10
 1823 0426 06       		.uleb128 0x6
 1824 0427 2F020000 		.4byte	.LASF57
 1825 042b 0B       		.byte	0xb
 1826 042c 57       		.byte	0x57
 1827 042d 2C020000 		.4byte	0x22c
 1828 0431 02       		.byte	0x2
 1829 0432 23       		.byte	0x23
 1830 0433 14       		.uleb128 0x14
 1831 0434 06       		.uleb128 0x6
 1832 0435 98030000 		.4byte	.LASF58
 1833 0439 0B       		.byte	0xb
 1834 043a 5B       		.byte	0x5b
 1835 043b E8000000 		.4byte	0xe8
 1836 043f 02       		.byte	0x2
 1837 0440 23       		.byte	0x23
 1838 0441 18       		.uleb128 0x18
 1839 0442 06       		.uleb128 0x6
 1840 0443 25020000 		.4byte	.LASF59
 1841 0447 0B       		.byte	0xb
 1842 0448 5E       		.byte	0x5e
 1843 0449 2C020000 		.4byte	0x22c
 1844 044d 02       		.byte	0x2
 1845 044e 23       		.byte	0x23
 1846 044f 1C       		.uleb128 0x1c
 1847 0450 00       		.byte	0x0
 1848 0451 03       		.uleb128 0x3
 1849 0452 56030000 		.4byte	.LASF60
 1850 0456 0B       		.byte	0xb
 1851 0457 61       		.byte	0x61
 1852 0458 E6030000 		.4byte	0x3e6
 1853 045c 05       		.uleb128 0x5
 1854 045d 93010000 		.4byte	.LASF61
 1855 0461 10       		.byte	0x10
 1856 0462 0C       		.byte	0xc
 1857 0463 2B       		.byte	0x2b
 1858 0464 93040000 		.4byte	0x493
 1859 0468 06       		.uleb128 0x6
 1860 0469 7B000000 		.4byte	.LASF62
 1861 046d 0C       		.byte	0xc
 1862 046e 2C       		.byte	0x2c
 1863 046f 32020000 		.4byte	0x232
 1864 0473 02       		.byte	0x2
 1865 0474 23       		.byte	0x23
 1866 0475 00       		.uleb128 0x0
 1867 0476 06       		.uleb128 0x6
 1868 0477 A2030000 		.4byte	.LASF63
ARM GAS  /tmp/ccCPFOdJ.s 			page 34


 1869 047b 0C       		.byte	0xc
 1870 047c 2E       		.byte	0x2e
 1871 047d 2C020000 		.4byte	0x22c
 1872 0481 02       		.byte	0x2
 1873 0482 23       		.byte	0x23
 1874 0483 08       		.uleb128 0x8
 1875 0484 06       		.uleb128 0x6
 1876 0485 EA020000 		.4byte	.LASF64
 1877 0489 0C       		.byte	0xc
 1878 048a 30       		.byte	0x30
 1879 048b 93040000 		.4byte	0x493
 1880 048f 02       		.byte	0x2
 1881 0490 23       		.byte	0x23
 1882 0491 0C       		.uleb128 0xc
 1883 0492 00       		.byte	0x0
 1884 0493 09       		.uleb128 0x9
 1885 0494 04       		.byte	0x4
 1886 0495 5C040000 		.4byte	0x45c
 1887 0499 03       		.uleb128 0x3
 1888 049a 93010000 		.4byte	.LASF61
 1889 049e 0C       		.byte	0xc
 1890 049f 32       		.byte	0x32
 1891 04a0 5C040000 		.4byte	0x45c
 1892 04a4 11       		.uleb128 0x11
 1893 04a5 04       		.byte	0x4
 1894 04a6 07       		.byte	0x7
 1895 04a7 5A       		.byte	0x5a
 1896 04a8 D9040000 		.4byte	0x4d9
 1897 04ac 12       		.uleb128 0x12
 1898 04ad 1A000000 		.4byte	.LASF65
 1899 04b1 07       		.byte	0x7
 1900 04b2 61       		.byte	0x61
 1901 04b3 C7000000 		.4byte	0xc7
 1902 04b7 12       		.uleb128 0x12
 1903 04b8 3F000000 		.4byte	.LASF66
 1904 04bc 07       		.byte	0x7
 1905 04bd 68       		.byte	0x68
 1906 04be C7000000 		.4byte	0xc7
 1907 04c2 12       		.uleb128 0x12
 1908 04c3 83000000 		.4byte	.LASF67
 1909 04c7 07       		.byte	0x7
 1910 04c8 6F       		.byte	0x6f
 1911 04c9 6B020000 		.4byte	0x26b
 1912 04cd 12       		.uleb128 0x12
 1913 04ce 97020000 		.4byte	.LASF68
 1914 04d2 07       		.byte	0x7
 1915 04d3 76       		.byte	0x76
 1916 04d4 D2000000 		.4byte	0xd2
 1917 04d8 00       		.byte	0x0
 1918 04d9 09       		.uleb128 0x9
 1919 04da 04       		.byte	0x4
 1920 04db 99040000 		.4byte	0x499
 1921 04df 03       		.uleb128 0x3
 1922 04e0 00000000 		.4byte	.LASF69
 1923 04e4 07       		.byte	0x7
 1924 04e5 CB       		.byte	0xcb
 1925 04e6 EA040000 		.4byte	0x4ea
ARM GAS  /tmp/ccCPFOdJ.s 			page 35


 1926 04ea 09       		.uleb128 0x9
 1927 04eb 04       		.byte	0x4
 1928 04ec F0040000 		.4byte	0x4f0
 1929 04f0 13       		.uleb128 0x13
 1930 04f1 01       		.byte	0x1
 1931 04f2 C7000000 		.4byte	0xc7
 1932 04f6 00050000 		.4byte	0x500
 1933 04fa 0F       		.uleb128 0xf
 1934 04fb 6B020000 		.4byte	0x26b
 1935 04ff 00       		.byte	0x0
 1936 0500 14       		.uleb128 0x14
 1937 0501 01       		.byte	0x1
 1938 0502 C8020000 		.4byte	.LASF90
 1939 0506 01       		.byte	0x1
 1940 0507 4D       		.byte	0x4d
 1941 0508 01       		.byte	0x1
 1942 0509 2C020000 		.4byte	0x22c
 1943 050d 01       		.byte	0x1
 1944 050e 28050000 		.4byte	0x528
 1945 0512 15       		.uleb128 0x15
 1946 0513 747000   		.ascii	"tp\000"
 1947 0516 01       		.byte	0x1
 1948 0517 4D       		.byte	0x4d
 1949 0518 2C020000 		.4byte	0x22c
 1950 051c 16       		.uleb128 0x16
 1951 051d 15000000 		.4byte	.LASF70
 1952 0521 01       		.byte	0x1
 1953 0522 4D       		.byte	0x4d
 1954 0523 BC000000 		.4byte	0xbc
 1955 0527 00       		.byte	0x0
 1956 0528 17       		.uleb128 0x17
 1957 0529 B1000000 		.4byte	.LASF91
 1958 052d 02       		.byte	0x2
 1959 052e 55       		.byte	0x55
 1960 052f 01       		.byte	0x1
 1961 0530 2C020000 		.4byte	0x22c
 1962 0534 03       		.byte	0x3
 1963 0535 4F050000 		.4byte	0x54f
 1964 0539 15       		.uleb128 0x15
 1965 053a 746C7000 		.ascii	"tlp\000"
 1966 053e 02       		.byte	0x2
 1967 053f 55       		.byte	0x55
 1968 0540 4F050000 		.4byte	0x54f
 1969 0544 18       		.uleb128 0x18
 1970 0545 747000   		.ascii	"tp\000"
 1971 0548 02       		.byte	0x2
 1972 0549 57       		.byte	0x57
 1973 054a 2C020000 		.4byte	0x22c
 1974 054e 00       		.byte	0x0
 1975 054f 09       		.uleb128 0x9
 1976 0550 04       		.byte	0x4
 1977 0551 54020000 		.4byte	0x254
 1978 0555 19       		.uleb128 0x19
 1979 0556 19020000 		.4byte	.LASF92
 1980 055a 02       		.byte	0x2
 1981 055b 4F       		.byte	0x4f
 1982 055c 01       		.byte	0x1
ARM GAS  /tmp/ccCPFOdJ.s 			page 36


 1983 055d 03       		.byte	0x3
 1984 055e 78050000 		.4byte	0x578
 1985 0562 15       		.uleb128 0x15
 1986 0563 747000   		.ascii	"tp\000"
 1987 0566 02       		.byte	0x2
 1988 0567 4F       		.byte	0x4f
 1989 0568 2C020000 		.4byte	0x22c
 1990 056c 15       		.uleb128 0x15
 1991 056d 746C7000 		.ascii	"tlp\000"
 1992 0571 02       		.byte	0x2
 1993 0572 4F       		.byte	0x4f
 1994 0573 4F050000 		.4byte	0x54f
 1995 0577 00       		.byte	0x0
 1996 0578 1A       		.uleb128 0x1a
 1997 0579 00050000 		.4byte	0x500
 1998 057d 00000000 		.4byte	.LFB7
 1999 0581 3C000000 		.4byte	.LFE7
 2000 0585 00000000 		.4byte	.LLST0
 2001 0589 9C050000 		.4byte	0x59c
 2002 058d 1B       		.uleb128 0x1b
 2003 058e 12050000 		.4byte	0x512
 2004 0592 01       		.byte	0x1
 2005 0593 50       		.byte	0x50
 2006 0594 1B       		.uleb128 0x1b
 2007 0595 1C050000 		.4byte	0x51c
 2008 0599 01       		.byte	0x1
 2009 059a 51       		.byte	0x51
 2010 059b 00       		.byte	0x0
 2011 059c 1C       		.uleb128 0x1c
 2012 059d 01       		.byte	0x1
 2013 059e 8A000000 		.4byte	.LASF72
 2014 05a2 01       		.byte	0x1
 2015 05a3 9A       		.byte	0x9a
 2016 05a4 01       		.byte	0x1
 2017 05a5 2C020000 		.4byte	0x22c
 2018 05a9 00000000 		.4byte	.LFB8
 2019 05ad 5A000000 		.4byte	.LFE8
 2020 05b1 20000000 		.4byte	.LLST1
 2021 05b5 29060000 		.4byte	0x629
 2022 05b9 1D       		.uleb128 0x1d
 2023 05ba 77737000 		.ascii	"wsp\000"
 2024 05be 01       		.byte	0x1
 2025 05bf 9A       		.byte	0x9a
 2026 05c0 6B020000 		.4byte	0x26b
 2027 05c4 01       		.byte	0x1
 2028 05c5 50       		.byte	0x50
 2029 05c6 1E       		.uleb128 0x1e
 2030 05c7 3E010000 		.4byte	.LASF71
 2031 05cb 01       		.byte	0x1
 2032 05cc 9A       		.byte	0x9a
 2033 05cd 30000000 		.4byte	0x30
 2034 05d1 40000000 		.4byte	.LLST2
 2035 05d5 1F       		.uleb128 0x1f
 2036 05d6 15000000 		.4byte	.LASF70
 2037 05da 01       		.byte	0x1
 2038 05db 9B       		.byte	0x9b
 2039 05dc BC000000 		.4byte	0xbc
ARM GAS  /tmp/ccCPFOdJ.s 			page 37


 2040 05e0 01       		.byte	0x1
 2041 05e1 52       		.byte	0x52
 2042 05e2 20       		.uleb128 0x20
 2043 05e3 706600   		.ascii	"pf\000"
 2044 05e6 01       		.byte	0x1
 2045 05e7 9B       		.byte	0x9b
 2046 05e8 DF040000 		.4byte	0x4df
 2047 05ec 60000000 		.4byte	.LLST3
 2048 05f0 1D       		.uleb128 0x1d
 2049 05f1 61726700 		.ascii	"arg\000"
 2050 05f5 01       		.byte	0x1
 2051 05f6 9B       		.byte	0x9b
 2052 05f7 6B020000 		.4byte	0x26b
 2053 05fb 02       		.byte	0x2
 2054 05fc 91       		.byte	0x91
 2055 05fd 00       		.sleb128 0
 2056 05fe 21       		.uleb128 0x21
 2057 05ff 747000   		.ascii	"tp\000"
 2058 0602 01       		.byte	0x1
 2059 0603 9D       		.byte	0x9d
 2060 0604 2C020000 		.4byte	0x22c
 2061 0608 01       		.byte	0x1
 2062 0609 50       		.byte	0x50
 2063 060a 22       		.uleb128 0x22
 2064 060b 00050000 		.4byte	0x500
 2065 060f 1E000000 		.4byte	.LBB11
 2066 0613 00000000 		.4byte	.Ldebug_ranges0+0x0
 2067 0617 01       		.byte	0x1
 2068 0618 A3       		.byte	0xa3
 2069 0619 1B       		.uleb128 0x1b
 2070 061a 1C050000 		.4byte	0x51c
 2071 061e 01       		.byte	0x1
 2072 061f 52       		.byte	0x52
 2073 0620 1B       		.uleb128 0x1b
 2074 0621 12050000 		.4byte	0x512
 2075 0625 01       		.byte	0x1
 2076 0626 50       		.byte	0x50
 2077 0627 00       		.byte	0x0
 2078 0628 00       		.byte	0x0
 2079 0629 1C       		.uleb128 0x1c
 2080 062a 01       		.byte	0x1
 2081 062b A1010000 		.4byte	.LASF73
 2082 062f 01       		.byte	0x1
 2083 0630 B6       		.byte	0xb6
 2084 0631 01       		.byte	0x1
 2085 0632 2C020000 		.4byte	0x22c
 2086 0636 00000000 		.4byte	.LFB9
 2087 063a 2A000000 		.4byte	.LFE9
 2088 063e 8C000000 		.4byte	.LLST4
 2089 0642 D4060000 		.4byte	0x6d4
 2090 0646 20       		.uleb128 0x20
 2091 0647 77737000 		.ascii	"wsp\000"
 2092 064b 01       		.byte	0x1
 2093 064c B6       		.byte	0xb6
 2094 064d 6B020000 		.4byte	0x26b
 2095 0651 B8000000 		.4byte	.LLST5
 2096 0655 1E       		.uleb128 0x1e
ARM GAS  /tmp/ccCPFOdJ.s 			page 38


 2097 0656 3E010000 		.4byte	.LASF71
 2098 065a 01       		.byte	0x1
 2099 065b B6       		.byte	0xb6
 2100 065c 30000000 		.4byte	0x30
 2101 0660 CB000000 		.4byte	.LLST6
 2102 0664 1E       		.uleb128 0x1e
 2103 0665 15000000 		.4byte	.LASF70
 2104 0669 01       		.byte	0x1
 2105 066a B7       		.byte	0xb7
 2106 066b BC000000 		.4byte	0xbc
 2107 066f DE000000 		.4byte	.LLST7
 2108 0673 20       		.uleb128 0x20
 2109 0674 706600   		.ascii	"pf\000"
 2110 0677 01       		.byte	0x1
 2111 0678 B7       		.byte	0xb7
 2112 0679 DF040000 		.4byte	0x4df
 2113 067d F1000000 		.4byte	.LLST8
 2114 0681 1D       		.uleb128 0x1d
 2115 0682 61726700 		.ascii	"arg\000"
 2116 0686 01       		.byte	0x1
 2117 0687 B7       		.byte	0xb7
 2118 0688 6B020000 		.4byte	0x26b
 2119 068c 02       		.byte	0x2
 2120 068d 91       		.byte	0x91
 2121 068e 00       		.sleb128 0
 2122 068f 23       		.uleb128 0x23
 2123 0690 747000   		.ascii	"tp\000"
 2124 0693 01       		.byte	0x1
 2125 0694 B8       		.byte	0xb8
 2126 0695 2C020000 		.4byte	0x22c
 2127 0699 0F010000 		.4byte	.LLST9
 2128 069d 24       		.uleb128 0x24
 2129 069e 06000000 		.4byte	.LBB15
 2130 06a2 0C000000 		.4byte	.LBE15
 2131 06a6 BA060000 		.4byte	0x6ba
 2132 06aa 23       		.uleb128 0x23
 2133 06ab 746D7000 		.ascii	"tmp\000"
 2134 06af 01       		.byte	0x1
 2135 06b0 C2       		.byte	0xc2
 2136 06b1 7B000000 		.4byte	0x7b
 2137 06b5 2D010000 		.4byte	.LLST10
 2138 06b9 00       		.byte	0x0
 2139 06ba 25       		.uleb128 0x25
 2140 06bb 1E000000 		.4byte	.LBB16
 2141 06bf 24000000 		.4byte	.LBE16
 2142 06c3 23       		.uleb128 0x23
 2143 06c4 746D7000 		.ascii	"tmp\000"
 2144 06c8 01       		.byte	0x1
 2145 06c9 C4       		.byte	0xc4
 2146 06ca 7B000000 		.4byte	0x7b
 2147 06ce 40010000 		.4byte	.LLST11
 2148 06d2 00       		.byte	0x0
 2149 06d3 00       		.byte	0x0
 2150 06d4 1C       		.uleb128 0x1c
 2151 06d5 01       		.byte	0x1
 2152 06d6 D6000000 		.4byte	.LASF74
 2153 06da 01       		.byte	0x1
ARM GAS  /tmp/ccCPFOdJ.s 			page 39


 2154 06db D4       		.byte	0xd4
 2155 06dc 01       		.byte	0x1
 2156 06dd BC000000 		.4byte	0xbc
 2157 06e1 00000000 		.4byte	.LFB10
 2158 06e5 30000000 		.4byte	.LFE10
 2159 06e9 53010000 		.4byte	.LLST12
 2160 06ed 46070000 		.4byte	0x746
 2161 06f1 1E       		.uleb128 0x1e
 2162 06f2 5C010000 		.4byte	.LASF75
 2163 06f6 01       		.byte	0x1
 2164 06f7 D4       		.byte	0xd4
 2165 06f8 BC000000 		.4byte	0xbc
 2166 06fc 73010000 		.4byte	.LLST13
 2167 0700 26       		.uleb128 0x26
 2168 0701 99010000 		.4byte	.LASF76
 2169 0705 01       		.byte	0x1
 2170 0706 D5       		.byte	0xd5
 2171 0707 BC000000 		.4byte	0xbc
 2172 070b 86010000 		.4byte	.LLST14
 2173 070f 24       		.uleb128 0x24
 2174 0710 02000000 		.4byte	.LBB17
 2175 0714 08000000 		.4byte	.LBE17
 2176 0718 2C070000 		.4byte	0x72c
 2177 071c 23       		.uleb128 0x23
 2178 071d 746D7000 		.ascii	"tmp\000"
 2179 0721 01       		.byte	0x1
 2180 0722 DA       		.byte	0xda
 2181 0723 7B000000 		.4byte	0x7b
 2182 0727 99010000 		.4byte	.LLST15
 2183 072b 00       		.byte	0x0
 2184 072c 25       		.uleb128 0x25
 2185 072d 26000000 		.4byte	.LBB18
 2186 0731 2C000000 		.4byte	.LBE18
 2187 0735 23       		.uleb128 0x23
 2188 0736 746D7000 		.ascii	"tmp\000"
 2189 073a 01       		.byte	0x1
 2190 073b E5       		.byte	0xe5
 2191 073c 7B000000 		.4byte	0x7b
 2192 0740 AC010000 		.4byte	.LLST16
 2193 0744 00       		.byte	0x0
 2194 0745 00       		.byte	0x0
 2195 0746 1C       		.uleb128 0x1c
 2196 0747 01       		.byte	0x1
 2197 0748 6E030000 		.4byte	.LASF77
 2198 074c 01       		.byte	0x1
 2199 074d F6       		.byte	0xf6
 2200 074e 01       		.byte	0x1
 2201 074f 2C020000 		.4byte	0x22c
 2202 0753 00000000 		.4byte	.LFB11
 2203 0757 1A000000 		.4byte	.LFE11
 2204 075b BF010000 		.4byte	.LLST17
 2205 075f A4070000 		.4byte	0x7a4
 2206 0763 20       		.uleb128 0x20
 2207 0764 747000   		.ascii	"tp\000"
 2208 0767 01       		.byte	0x1
 2209 0768 F6       		.byte	0xf6
 2210 0769 2C020000 		.4byte	0x22c
ARM GAS  /tmp/ccCPFOdJ.s 			page 40


 2211 076d DF010000 		.4byte	.LLST18
 2212 0771 27       		.uleb128 0x27
 2213 0772 18000000 		.4byte	.Ldebug_ranges0+0x18
 2214 0776 8A070000 		.4byte	0x78a
 2215 077a 23       		.uleb128 0x23
 2216 077b 746D7000 		.ascii	"tmp\000"
 2217 077f 01       		.byte	0x1
 2218 0780 F8       		.byte	0xf8
 2219 0781 7B000000 		.4byte	0x7b
 2220 0785 FD010000 		.4byte	.LLST19
 2221 0789 00       		.byte	0x0
 2222 078a 25       		.uleb128 0x25
 2223 078b 10000000 		.4byte	.LBB21
 2224 078f 16000000 		.4byte	.LBE21
 2225 0793 23       		.uleb128 0x23
 2226 0794 746D7000 		.ascii	"tmp\000"
 2227 0798 01       		.byte	0x1
 2228 0799 FD       		.byte	0xfd
 2229 079a 7B000000 		.4byte	0x7b
 2230 079e 10020000 		.4byte	.LLST20
 2231 07a2 00       		.byte	0x0
 2232 07a3 00       		.byte	0x0
 2233 07a4 28       		.uleb128 0x28
 2234 07a5 01       		.byte	0x1
 2235 07a6 6C010000 		.4byte	.LASF78
 2236 07aa 01       		.byte	0x1
 2237 07ab 0D01     		.2byte	0x10d
 2238 07ad 01       		.byte	0x1
 2239 07ae 00000000 		.4byte	.LFB12
 2240 07b2 16000000 		.4byte	.LFE12
 2241 07b6 02       		.byte	0x2
 2242 07b7 7D       		.byte	0x7d
 2243 07b8 00       		.sleb128 0
 2244 07b9 FF070000 		.4byte	0x7ff
 2245 07bd 29       		.uleb128 0x29
 2246 07be 747000   		.ascii	"tp\000"
 2247 07c1 01       		.byte	0x1
 2248 07c2 0D01     		.2byte	0x10d
 2249 07c4 2C020000 		.4byte	0x22c
 2250 07c8 01       		.byte	0x1
 2251 07c9 50       		.byte	0x50
 2252 07ca 24       		.uleb128 0x24
 2253 07cb 00000000 		.4byte	.LBB22
 2254 07cf 06000000 		.4byte	.LBE22
 2255 07d3 E8070000 		.4byte	0x7e8
 2256 07d7 2A       		.uleb128 0x2a
 2257 07d8 746D7000 		.ascii	"tmp\000"
 2258 07dc 01       		.byte	0x1
 2259 07dd 0F01     		.2byte	0x10f
 2260 07df 7B000000 		.4byte	0x7b
 2261 07e3 23020000 		.4byte	.LLST21
 2262 07e7 00       		.byte	0x0
 2263 07e8 2B       		.uleb128 0x2b
 2264 07e9 30000000 		.4byte	.Ldebug_ranges0+0x30
 2265 07ed 2A       		.uleb128 0x2a
 2266 07ee 746D7000 		.ascii	"tmp\000"
 2267 07f2 01       		.byte	0x1
ARM GAS  /tmp/ccCPFOdJ.s 			page 41


 2268 07f3 1101     		.2byte	0x111
 2269 07f5 7B000000 		.4byte	0x7b
 2270 07f9 36020000 		.4byte	.LLST22
 2271 07fd 00       		.byte	0x0
 2272 07fe 00       		.byte	0x0
 2273 07ff 2C       		.uleb128 0x2c
 2274 0800 01       		.byte	0x1
 2275 0801 44030000 		.4byte	.LASF79
 2276 0805 01       		.byte	0x1
 2277 0806 2001     		.2byte	0x120
 2278 0808 01       		.byte	0x1
 2279 0809 00000000 		.4byte	.LFB13
 2280 080d 18000000 		.4byte	.LFE13
 2281 0811 49020000 		.4byte	.LLST23
 2282 0815 62080000 		.4byte	0x862
 2283 0819 2D       		.uleb128 0x2d
 2284 081a 14020000 		.4byte	.LASF80
 2285 081e 01       		.byte	0x1
 2286 081f 2001     		.2byte	0x120
 2287 0821 DD000000 		.4byte	0xdd
 2288 0825 69020000 		.4byte	.LLST24
 2289 0829 24       		.uleb128 0x24
 2290 082a 04000000 		.4byte	.LBB25
 2291 082e 0A000000 		.4byte	.LBE25
 2292 0832 47080000 		.4byte	0x847
 2293 0836 2A       		.uleb128 0x2a
 2294 0837 746D7000 		.ascii	"tmp\000"
 2295 083b 01       		.byte	0x1
 2296 083c 2401     		.2byte	0x124
 2297 083e 7B000000 		.4byte	0x7b
 2298 0842 87020000 		.4byte	.LLST25
 2299 0846 00       		.byte	0x0
 2300 0847 25       		.uleb128 0x25
 2301 0848 10000000 		.4byte	.LBB26
 2302 084c 16000000 		.4byte	.LBE26
 2303 0850 2A       		.uleb128 0x2a
 2304 0851 746D7000 		.ascii	"tmp\000"
 2305 0855 01       		.byte	0x1
 2306 0856 2601     		.2byte	0x126
 2307 0858 7B000000 		.4byte	0x7b
 2308 085c 9A020000 		.4byte	.LLST26
 2309 0860 00       		.byte	0x0
 2310 0861 00       		.byte	0x0
 2311 0862 2C       		.uleb128 0x2c
 2312 0863 01       		.byte	0x1
 2313 0864 37020000 		.4byte	.LASF81
 2314 0868 01       		.byte	0x1
 2315 0869 3101     		.2byte	0x131
 2316 086b 01       		.byte	0x1
 2317 086c 00000000 		.4byte	.LFB14
 2318 0870 24000000 		.4byte	.LFE14
 2319 0874 AD020000 		.4byte	.LLST27
 2320 0878 C5080000 		.4byte	0x8c5
 2321 087c 2D       		.uleb128 0x2d
 2322 087d 14020000 		.4byte	.LASF80
 2323 0881 01       		.byte	0x1
 2324 0882 3101     		.2byte	0x131
ARM GAS  /tmp/ccCPFOdJ.s 			page 42


 2325 0884 DD000000 		.4byte	0xdd
 2326 0888 CD020000 		.4byte	.LLST28
 2327 088c 24       		.uleb128 0x24
 2328 088d 02000000 		.4byte	.LBB27
 2329 0891 08000000 		.4byte	.LBE27
 2330 0895 AA080000 		.4byte	0x8aa
 2331 0899 2A       		.uleb128 0x2a
 2332 089a 746D7000 		.ascii	"tmp\000"
 2333 089e 01       		.byte	0x1
 2334 089f 3301     		.2byte	0x133
 2335 08a1 7B000000 		.4byte	0x7b
 2336 08a5 FB020000 		.4byte	.LLST29
 2337 08a9 00       		.byte	0x0
 2338 08aa 25       		.uleb128 0x25
 2339 08ab 1C000000 		.4byte	.LBB28
 2340 08af 22000000 		.4byte	.LBE28
 2341 08b3 2A       		.uleb128 0x2a
 2342 08b4 746D7000 		.ascii	"tmp\000"
 2343 08b8 01       		.byte	0x1
 2344 08b9 3601     		.2byte	0x136
 2345 08bb 7B000000 		.4byte	0x7b
 2346 08bf 0E030000 		.4byte	.LLST30
 2347 08c3 00       		.byte	0x0
 2348 08c4 00       		.byte	0x0
 2349 08c5 2C       		.uleb128 0x2c
 2350 08c6 01       		.byte	0x1
 2351 08c7 0F030000 		.4byte	.LASF82
 2352 08cb 01       		.byte	0x1
 2353 08cc 4001     		.2byte	0x140
 2354 08ce 01       		.byte	0x1
 2355 08cf 00000000 		.4byte	.LFB15
 2356 08d3 2C000000 		.4byte	.LFE15
 2357 08d7 21030000 		.4byte	.LLST31
 2358 08db 18090000 		.4byte	0x918
 2359 08df 24       		.uleb128 0x24
 2360 08e0 02000000 		.4byte	.LBB29
 2361 08e4 08000000 		.4byte	.LBE29
 2362 08e8 FD080000 		.4byte	0x8fd
 2363 08ec 2A       		.uleb128 0x2a
 2364 08ed 746D7000 		.ascii	"tmp\000"
 2365 08f1 01       		.byte	0x1
 2366 08f2 4201     		.2byte	0x142
 2367 08f4 7B000000 		.4byte	0x7b
 2368 08f8 41030000 		.4byte	.LLST32
 2369 08fc 00       		.byte	0x0
 2370 08fd 25       		.uleb128 0x25
 2371 08fe 24000000 		.4byte	.LBB30
 2372 0902 2A000000 		.4byte	.LBE30
 2373 0906 2A       		.uleb128 0x2a
 2374 0907 746D7000 		.ascii	"tmp\000"
 2375 090b 01       		.byte	0x1
 2376 090c 4401     		.2byte	0x144
 2377 090e 7B000000 		.4byte	0x7b
 2378 0912 54030000 		.4byte	.LLST33
 2379 0916 00       		.byte	0x0
 2380 0917 00       		.byte	0x0
 2381 0918 2C       		.uleb128 0x2c
ARM GAS  /tmp/ccCPFOdJ.s 			page 43


 2382 0919 01       		.byte	0x1
 2383 091a 69000000 		.4byte	.LASF83
 2384 091e 01       		.byte	0x1
 2385 091f 5501     		.2byte	0x155
 2386 0921 01       		.byte	0x1
 2387 0922 00000000 		.4byte	.LFB16
 2388 0926 4C000000 		.4byte	.LFE16
 2389 092a 67030000 		.4byte	.LLST34
 2390 092e 9D090000 		.4byte	0x99d
 2391 0932 2E       		.uleb128 0x2e
 2392 0933 6D736700 		.ascii	"msg\000"
 2393 0937 01       		.byte	0x1
 2394 0938 5501     		.2byte	0x155
 2395 093a C7000000 		.4byte	0xc7
 2396 093e 87030000 		.4byte	.LLST35
 2397 0942 2A       		.uleb128 0x2a
 2398 0943 747000   		.ascii	"tp\000"
 2399 0946 01       		.byte	0x1
 2400 0947 5601     		.2byte	0x156
 2401 0949 2C020000 		.4byte	0x22c
 2402 094d A5030000 		.4byte	.LLST36
 2403 0951 24       		.uleb128 0x24
 2404 0952 0E000000 		.4byte	.LBB31
 2405 0956 14000000 		.4byte	.LBE31
 2406 095a 6F090000 		.4byte	0x96f
 2407 095e 2A       		.uleb128 0x2a
 2408 095f 746D7000 		.ascii	"tmp\000"
 2409 0963 01       		.byte	0x1
 2410 0964 5801     		.2byte	0x158
 2411 0966 7B000000 		.4byte	0x7b
 2412 096a C4030000 		.4byte	.LLST37
 2413 096e 00       		.byte	0x0
 2414 096f 2F       		.uleb128 0x2f
 2415 0970 28050000 		.4byte	0x528
 2416 0974 20000000 		.4byte	.LBB32
 2417 0978 24000000 		.4byte	.LBE32
 2418 097c 01       		.byte	0x1
 2419 097d 5F01     		.2byte	0x15f
 2420 097f 30       		.uleb128 0x30
 2421 0980 39050000 		.4byte	0x539
 2422 0984 E2030000 		.4byte	.LLST38
 2423 0988 25       		.uleb128 0x25
 2424 0989 20000000 		.4byte	.LBB33
 2425 098d 24000000 		.4byte	.LBE33
 2426 0991 31       		.uleb128 0x31
 2427 0992 44050000 		.4byte	0x544
 2428 0996 F7030000 		.4byte	.LLST39
 2429 099a 00       		.byte	0x0
 2430 099b 00       		.byte	0x0
 2431 099c 00       		.byte	0x0
 2432 099d 32       		.uleb128 0x32
 2433 099e 01       		.byte	0x1
 2434 099f 33030000 		.4byte	.LASF84
 2435 09a3 01       		.byte	0x1
 2436 09a4 8A01     		.2byte	0x18a
 2437 09a6 01       		.byte	0x1
 2438 09a7 C7000000 		.4byte	0xc7
ARM GAS  /tmp/ccCPFOdJ.s 			page 44


 2439 09ab 00000000 		.4byte	.LFB17
 2440 09af 38000000 		.4byte	.LFE17
 2441 09b3 0A040000 		.4byte	.LLST40
 2442 09b7 3A0A0000 		.4byte	0xa3a
 2443 09bb 2E       		.uleb128 0x2e
 2444 09bc 747000   		.ascii	"tp\000"
 2445 09bf 01       		.byte	0x1
 2446 09c0 8A01     		.2byte	0x18a
 2447 09c2 2C020000 		.4byte	0x22c
 2448 09c6 2A040000 		.4byte	.LLST41
 2449 09ca 2A       		.uleb128 0x2a
 2450 09cb 6D736700 		.ascii	"msg\000"
 2451 09cf 01       		.byte	0x1
 2452 09d0 8B01     		.2byte	0x18b
 2453 09d2 C7000000 		.4byte	0xc7
 2454 09d6 48040000 		.4byte	.LLST42
 2455 09da 24       		.uleb128 0x24
 2456 09db 04000000 		.4byte	.LBB34
 2457 09df 0A000000 		.4byte	.LBE34
 2458 09e3 F8090000 		.4byte	0x9f8
 2459 09e7 2A       		.uleb128 0x2a
 2460 09e8 746D7000 		.ascii	"tmp\000"
 2461 09ec 01       		.byte	0x1
 2462 09ed 8F01     		.2byte	0x18f
 2463 09ef 7B000000 		.4byte	0x7b
 2464 09f3 67040000 		.4byte	.LLST43
 2465 09f7 00       		.byte	0x0
 2466 09f8 33       		.uleb128 0x33
 2467 09f9 55050000 		.4byte	0x555
 2468 09fd 1A000000 		.4byte	.LBB35
 2469 0a01 48000000 		.4byte	.Ldebug_ranges0+0x48
 2470 0a05 01       		.byte	0x1
 2471 0a06 9501     		.2byte	0x195
 2472 0a08 1F0A0000 		.4byte	0xa1f
 2473 0a0c 30       		.uleb128 0x30
 2474 0a0d 6C050000 		.4byte	0x56c
 2475 0a11 7A040000 		.4byte	.LLST44
 2476 0a15 30       		.uleb128 0x30
 2477 0a16 62050000 		.4byte	0x562
 2478 0a1a 8F040000 		.4byte	.LLST45
 2479 0a1e 00       		.byte	0x0
 2480 0a1f 25       		.uleb128 0x25
 2481 0a20 28000000 		.4byte	.LBB39
 2482 0a24 2E000000 		.4byte	.LBE39
 2483 0a28 2A       		.uleb128 0x2a
 2484 0a29 746D7000 		.ascii	"tmp\000"
 2485 0a2d 01       		.byte	0x1
 2486 0a2e 9901     		.2byte	0x199
 2487 0a30 7B000000 		.4byte	0x7b
 2488 0a34 A3040000 		.4byte	.LLST46
 2489 0a38 00       		.byte	0x0
 2490 0a39 00       		.byte	0x0
 2491 0a3a 34       		.uleb128 0x34
 2492 0a3b 21000000 		.4byte	.LASF85
 2493 0a3f 0A       		.byte	0xa
 2494 0a40 65       		.byte	0x65
 2495 0a41 DB030000 		.4byte	0x3db
ARM GAS  /tmp/ccCPFOdJ.s 			page 45


 2496 0a45 01       		.byte	0x1
 2497 0a46 01       		.byte	0x1
 2498 0a47 34       		.uleb128 0x34
 2499 0a48 60030000 		.4byte	.LASF86
 2500 0a4c 0B       		.byte	0xb
 2501 0a4d 65       		.byte	0x65
 2502 0a4e 51040000 		.4byte	0x451
 2503 0a52 01       		.byte	0x1
 2504 0a53 01       		.byte	0x1
 2505 0a54 34       		.uleb128 0x34
 2506 0a55 21000000 		.4byte	.LASF85
 2507 0a59 0A       		.byte	0xa
 2508 0a5a 65       		.byte	0x65
 2509 0a5b DB030000 		.4byte	0x3db
 2510 0a5f 01       		.byte	0x1
 2511 0a60 01       		.byte	0x1
 2512 0a61 34       		.uleb128 0x34
 2513 0a62 60030000 		.4byte	.LASF86
 2514 0a66 0B       		.byte	0xb
 2515 0a67 65       		.byte	0x65
 2516 0a68 51040000 		.4byte	0x451
 2517 0a6c 01       		.byte	0x1
 2518 0a6d 01       		.byte	0x1
 2519 0a6e 00       		.byte	0x0
 2520              		.section	.debug_abbrev
 2521 0000 01       		.uleb128 0x1
 2522 0001 11       		.uleb128 0x11
 2523 0002 01       		.byte	0x1
 2524 0003 25       		.uleb128 0x25
 2525 0004 0E       		.uleb128 0xe
 2526 0005 13       		.uleb128 0x13
 2527 0006 0B       		.uleb128 0xb
 2528 0007 03       		.uleb128 0x3
 2529 0008 0E       		.uleb128 0xe
 2530 0009 1B       		.uleb128 0x1b
 2531 000a 0E       		.uleb128 0xe
 2532 000b 11       		.uleb128 0x11
 2533 000c 01       		.uleb128 0x1
 2534 000d 52       		.uleb128 0x52
 2535 000e 01       		.uleb128 0x1
 2536 000f 55       		.uleb128 0x55
 2537 0010 06       		.uleb128 0x6
 2538 0011 10       		.uleb128 0x10
 2539 0012 06       		.uleb128 0x6
 2540 0013 00       		.byte	0x0
 2541 0014 00       		.byte	0x0
 2542 0015 02       		.uleb128 0x2
 2543 0016 24       		.uleb128 0x24
 2544 0017 00       		.byte	0x0
 2545 0018 0B       		.uleb128 0xb
 2546 0019 0B       		.uleb128 0xb
 2547 001a 3E       		.uleb128 0x3e
 2548 001b 0B       		.uleb128 0xb
 2549 001c 03       		.uleb128 0x3
 2550 001d 08       		.uleb128 0x8
 2551 001e 00       		.byte	0x0
 2552 001f 00       		.byte	0x0
ARM GAS  /tmp/ccCPFOdJ.s 			page 46


 2553 0020 03       		.uleb128 0x3
 2554 0021 16       		.uleb128 0x16
 2555 0022 00       		.byte	0x0
 2556 0023 03       		.uleb128 0x3
 2557 0024 0E       		.uleb128 0xe
 2558 0025 3A       		.uleb128 0x3a
 2559 0026 0B       		.uleb128 0xb
 2560 0027 3B       		.uleb128 0x3b
 2561 0028 0B       		.uleb128 0xb
 2562 0029 49       		.uleb128 0x49
 2563 002a 13       		.uleb128 0x13
 2564 002b 00       		.byte	0x0
 2565 002c 00       		.byte	0x0
 2566 002d 04       		.uleb128 0x4
 2567 002e 24       		.uleb128 0x24
 2568 002f 00       		.byte	0x0
 2569 0030 0B       		.uleb128 0xb
 2570 0031 0B       		.uleb128 0xb
 2571 0032 3E       		.uleb128 0x3e
 2572 0033 0B       		.uleb128 0xb
 2573 0034 03       		.uleb128 0x3
 2574 0035 0E       		.uleb128 0xe
 2575 0036 00       		.byte	0x0
 2576 0037 00       		.byte	0x0
 2577 0038 05       		.uleb128 0x5
 2578 0039 13       		.uleb128 0x13
 2579 003a 01       		.byte	0x1
 2580 003b 03       		.uleb128 0x3
 2581 003c 0E       		.uleb128 0xe
 2582 003d 0B       		.uleb128 0xb
 2583 003e 0B       		.uleb128 0xb
 2584 003f 3A       		.uleb128 0x3a
 2585 0040 0B       		.uleb128 0xb
 2586 0041 3B       		.uleb128 0x3b
 2587 0042 0B       		.uleb128 0xb
 2588 0043 01       		.uleb128 0x1
 2589 0044 13       		.uleb128 0x13
 2590 0045 00       		.byte	0x0
 2591 0046 00       		.byte	0x0
 2592 0047 06       		.uleb128 0x6
 2593 0048 0D       		.uleb128 0xd
 2594 0049 00       		.byte	0x0
 2595 004a 03       		.uleb128 0x3
 2596 004b 0E       		.uleb128 0xe
 2597 004c 3A       		.uleb128 0x3a
 2598 004d 0B       		.uleb128 0xb
 2599 004e 3B       		.uleb128 0x3b
 2600 004f 0B       		.uleb128 0xb
 2601 0050 49       		.uleb128 0x49
 2602 0051 13       		.uleb128 0x13
 2603 0052 38       		.uleb128 0x38
 2604 0053 0A       		.uleb128 0xa
 2605 0054 00       		.byte	0x0
 2606 0055 00       		.byte	0x0
 2607 0056 07       		.uleb128 0x7
 2608 0057 0D       		.uleb128 0xd
 2609 0058 00       		.byte	0x0
ARM GAS  /tmp/ccCPFOdJ.s 			page 47


 2610 0059 03       		.uleb128 0x3
 2611 005a 08       		.uleb128 0x8
 2612 005b 3A       		.uleb128 0x3a
 2613 005c 0B       		.uleb128 0xb
 2614 005d 3B       		.uleb128 0x3b
 2615 005e 0B       		.uleb128 0xb
 2616 005f 49       		.uleb128 0x49
 2617 0060 13       		.uleb128 0x13
 2618 0061 38       		.uleb128 0x38
 2619 0062 0A       		.uleb128 0xa
 2620 0063 00       		.byte	0x0
 2621 0064 00       		.byte	0x0
 2622 0065 08       		.uleb128 0x8
 2623 0066 13       		.uleb128 0x13
 2624 0067 01       		.byte	0x1
 2625 0068 0B       		.uleb128 0xb
 2626 0069 0B       		.uleb128 0xb
 2627 006a 3A       		.uleb128 0x3a
 2628 006b 0B       		.uleb128 0xb
 2629 006c 3B       		.uleb128 0x3b
 2630 006d 0B       		.uleb128 0xb
 2631 006e 01       		.uleb128 0x1
 2632 006f 13       		.uleb128 0x13
 2633 0070 00       		.byte	0x0
 2634 0071 00       		.byte	0x0
 2635 0072 09       		.uleb128 0x9
 2636 0073 0F       		.uleb128 0xf
 2637 0074 00       		.byte	0x0
 2638 0075 0B       		.uleb128 0xb
 2639 0076 0B       		.uleb128 0xb
 2640 0077 49       		.uleb128 0x49
 2641 0078 13       		.uleb128 0x13
 2642 0079 00       		.byte	0x0
 2643 007a 00       		.byte	0x0
 2644 007b 0A       		.uleb128 0xa
 2645 007c 16       		.uleb128 0x16
 2646 007d 00       		.byte	0x0
 2647 007e 03       		.uleb128 0x3
 2648 007f 0E       		.uleb128 0xe
 2649 0080 3A       		.uleb128 0x3a
 2650 0081 0B       		.uleb128 0xb
 2651 0082 3B       		.uleb128 0x3b
 2652 0083 05       		.uleb128 0x5
 2653 0084 49       		.uleb128 0x49
 2654 0085 13       		.uleb128 0x13
 2655 0086 00       		.byte	0x0
 2656 0087 00       		.byte	0x0
 2657 0088 0B       		.uleb128 0xb
 2658 0089 0F       		.uleb128 0xf
 2659 008a 00       		.byte	0x0
 2660 008b 0B       		.uleb128 0xb
 2661 008c 0B       		.uleb128 0xb
 2662 008d 00       		.byte	0x0
 2663 008e 00       		.byte	0x0
 2664 008f 0C       		.uleb128 0xc
 2665 0090 13       		.uleb128 0x13
 2666 0091 01       		.byte	0x1
ARM GAS  /tmp/ccCPFOdJ.s 			page 48


 2667 0092 03       		.uleb128 0x3
 2668 0093 0E       		.uleb128 0xe
 2669 0094 0B       		.uleb128 0xb
 2670 0095 0B       		.uleb128 0xb
 2671 0096 3A       		.uleb128 0x3a
 2672 0097 0B       		.uleb128 0xb
 2673 0098 3B       		.uleb128 0x3b
 2674 0099 05       		.uleb128 0x5
 2675 009a 01       		.uleb128 0x1
 2676 009b 13       		.uleb128 0x13
 2677 009c 00       		.byte	0x0
 2678 009d 00       		.byte	0x0
 2679 009e 0D       		.uleb128 0xd
 2680 009f 0D       		.uleb128 0xd
 2681 00a0 00       		.byte	0x0
 2682 00a1 03       		.uleb128 0x3
 2683 00a2 08       		.uleb128 0x8
 2684 00a3 3A       		.uleb128 0x3a
 2685 00a4 0B       		.uleb128 0xb
 2686 00a5 3B       		.uleb128 0x3b
 2687 00a6 05       		.uleb128 0x5
 2688 00a7 49       		.uleb128 0x49
 2689 00a8 13       		.uleb128 0x13
 2690 00a9 38       		.uleb128 0x38
 2691 00aa 0A       		.uleb128 0xa
 2692 00ab 00       		.byte	0x0
 2693 00ac 00       		.byte	0x0
 2694 00ad 0E       		.uleb128 0xe
 2695 00ae 15       		.uleb128 0x15
 2696 00af 01       		.byte	0x1
 2697 00b0 27       		.uleb128 0x27
 2698 00b1 0C       		.uleb128 0xc
 2699 00b2 01       		.uleb128 0x1
 2700 00b3 13       		.uleb128 0x13
 2701 00b4 00       		.byte	0x0
 2702 00b5 00       		.byte	0x0
 2703 00b6 0F       		.uleb128 0xf
 2704 00b7 05       		.uleb128 0x5
 2705 00b8 00       		.byte	0x0
 2706 00b9 49       		.uleb128 0x49
 2707 00ba 13       		.uleb128 0x13
 2708 00bb 00       		.byte	0x0
 2709 00bc 00       		.byte	0x0
 2710 00bd 10       		.uleb128 0x10
 2711 00be 35       		.uleb128 0x35
 2712 00bf 00       		.byte	0x0
 2713 00c0 49       		.uleb128 0x49
 2714 00c1 13       		.uleb128 0x13
 2715 00c2 00       		.byte	0x0
 2716 00c3 00       		.byte	0x0
 2717 00c4 11       		.uleb128 0x11
 2718 00c5 17       		.uleb128 0x17
 2719 00c6 01       		.byte	0x1
 2720 00c7 0B       		.uleb128 0xb
 2721 00c8 0B       		.uleb128 0xb
 2722 00c9 3A       		.uleb128 0x3a
 2723 00ca 0B       		.uleb128 0xb
ARM GAS  /tmp/ccCPFOdJ.s 			page 49


 2724 00cb 3B       		.uleb128 0x3b
 2725 00cc 0B       		.uleb128 0xb
 2726 00cd 01       		.uleb128 0x1
 2727 00ce 13       		.uleb128 0x13
 2728 00cf 00       		.byte	0x0
 2729 00d0 00       		.byte	0x0
 2730 00d1 12       		.uleb128 0x12
 2731 00d2 0D       		.uleb128 0xd
 2732 00d3 00       		.byte	0x0
 2733 00d4 03       		.uleb128 0x3
 2734 00d5 0E       		.uleb128 0xe
 2735 00d6 3A       		.uleb128 0x3a
 2736 00d7 0B       		.uleb128 0xb
 2737 00d8 3B       		.uleb128 0x3b
 2738 00d9 0B       		.uleb128 0xb
 2739 00da 49       		.uleb128 0x49
 2740 00db 13       		.uleb128 0x13
 2741 00dc 00       		.byte	0x0
 2742 00dd 00       		.byte	0x0
 2743 00de 13       		.uleb128 0x13
 2744 00df 15       		.uleb128 0x15
 2745 00e0 01       		.byte	0x1
 2746 00e1 27       		.uleb128 0x27
 2747 00e2 0C       		.uleb128 0xc
 2748 00e3 49       		.uleb128 0x49
 2749 00e4 13       		.uleb128 0x13
 2750 00e5 01       		.uleb128 0x1
 2751 00e6 13       		.uleb128 0x13
 2752 00e7 00       		.byte	0x0
 2753 00e8 00       		.byte	0x0
 2754 00e9 14       		.uleb128 0x14
 2755 00ea 2E       		.uleb128 0x2e
 2756 00eb 01       		.byte	0x1
 2757 00ec 3F       		.uleb128 0x3f
 2758 00ed 0C       		.uleb128 0xc
 2759 00ee 03       		.uleb128 0x3
 2760 00ef 0E       		.uleb128 0xe
 2761 00f0 3A       		.uleb128 0x3a
 2762 00f1 0B       		.uleb128 0xb
 2763 00f2 3B       		.uleb128 0x3b
 2764 00f3 0B       		.uleb128 0xb
 2765 00f4 27       		.uleb128 0x27
 2766 00f5 0C       		.uleb128 0xc
 2767 00f6 49       		.uleb128 0x49
 2768 00f7 13       		.uleb128 0x13
 2769 00f8 20       		.uleb128 0x20
 2770 00f9 0B       		.uleb128 0xb
 2771 00fa 01       		.uleb128 0x1
 2772 00fb 13       		.uleb128 0x13
 2773 00fc 00       		.byte	0x0
 2774 00fd 00       		.byte	0x0
 2775 00fe 15       		.uleb128 0x15
 2776 00ff 05       		.uleb128 0x5
 2777 0100 00       		.byte	0x0
 2778 0101 03       		.uleb128 0x3
 2779 0102 08       		.uleb128 0x8
 2780 0103 3A       		.uleb128 0x3a
ARM GAS  /tmp/ccCPFOdJ.s 			page 50


 2781 0104 0B       		.uleb128 0xb
 2782 0105 3B       		.uleb128 0x3b
 2783 0106 0B       		.uleb128 0xb
 2784 0107 49       		.uleb128 0x49
 2785 0108 13       		.uleb128 0x13
 2786 0109 00       		.byte	0x0
 2787 010a 00       		.byte	0x0
 2788 010b 16       		.uleb128 0x16
 2789 010c 05       		.uleb128 0x5
 2790 010d 00       		.byte	0x0
 2791 010e 03       		.uleb128 0x3
 2792 010f 0E       		.uleb128 0xe
 2793 0110 3A       		.uleb128 0x3a
 2794 0111 0B       		.uleb128 0xb
 2795 0112 3B       		.uleb128 0x3b
 2796 0113 0B       		.uleb128 0xb
 2797 0114 49       		.uleb128 0x49
 2798 0115 13       		.uleb128 0x13
 2799 0116 00       		.byte	0x0
 2800 0117 00       		.byte	0x0
 2801 0118 17       		.uleb128 0x17
 2802 0119 2E       		.uleb128 0x2e
 2803 011a 01       		.byte	0x1
 2804 011b 03       		.uleb128 0x3
 2805 011c 0E       		.uleb128 0xe
 2806 011d 3A       		.uleb128 0x3a
 2807 011e 0B       		.uleb128 0xb
 2808 011f 3B       		.uleb128 0x3b
 2809 0120 0B       		.uleb128 0xb
 2810 0121 27       		.uleb128 0x27
 2811 0122 0C       		.uleb128 0xc
 2812 0123 49       		.uleb128 0x49
 2813 0124 13       		.uleb128 0x13
 2814 0125 20       		.uleb128 0x20
 2815 0126 0B       		.uleb128 0xb
 2816 0127 01       		.uleb128 0x1
 2817 0128 13       		.uleb128 0x13
 2818 0129 00       		.byte	0x0
 2819 012a 00       		.byte	0x0
 2820 012b 18       		.uleb128 0x18
 2821 012c 34       		.uleb128 0x34
 2822 012d 00       		.byte	0x0
 2823 012e 03       		.uleb128 0x3
 2824 012f 08       		.uleb128 0x8
 2825 0130 3A       		.uleb128 0x3a
 2826 0131 0B       		.uleb128 0xb
 2827 0132 3B       		.uleb128 0x3b
 2828 0133 0B       		.uleb128 0xb
 2829 0134 49       		.uleb128 0x49
 2830 0135 13       		.uleb128 0x13
 2831 0136 00       		.byte	0x0
 2832 0137 00       		.byte	0x0
 2833 0138 19       		.uleb128 0x19
 2834 0139 2E       		.uleb128 0x2e
 2835 013a 01       		.byte	0x1
 2836 013b 03       		.uleb128 0x3
 2837 013c 0E       		.uleb128 0xe
ARM GAS  /tmp/ccCPFOdJ.s 			page 51


 2838 013d 3A       		.uleb128 0x3a
 2839 013e 0B       		.uleb128 0xb
 2840 013f 3B       		.uleb128 0x3b
 2841 0140 0B       		.uleb128 0xb
 2842 0141 27       		.uleb128 0x27
 2843 0142 0C       		.uleb128 0xc
 2844 0143 20       		.uleb128 0x20
 2845 0144 0B       		.uleb128 0xb
 2846 0145 01       		.uleb128 0x1
 2847 0146 13       		.uleb128 0x13
 2848 0147 00       		.byte	0x0
 2849 0148 00       		.byte	0x0
 2850 0149 1A       		.uleb128 0x1a
 2851 014a 2E       		.uleb128 0x2e
 2852 014b 01       		.byte	0x1
 2853 014c 31       		.uleb128 0x31
 2854 014d 13       		.uleb128 0x13
 2855 014e 11       		.uleb128 0x11
 2856 014f 01       		.uleb128 0x1
 2857 0150 12       		.uleb128 0x12
 2858 0151 01       		.uleb128 0x1
 2859 0152 40       		.uleb128 0x40
 2860 0153 06       		.uleb128 0x6
 2861 0154 01       		.uleb128 0x1
 2862 0155 13       		.uleb128 0x13
 2863 0156 00       		.byte	0x0
 2864 0157 00       		.byte	0x0
 2865 0158 1B       		.uleb128 0x1b
 2866 0159 05       		.uleb128 0x5
 2867 015a 00       		.byte	0x0
 2868 015b 31       		.uleb128 0x31
 2869 015c 13       		.uleb128 0x13
 2870 015d 02       		.uleb128 0x2
 2871 015e 0A       		.uleb128 0xa
 2872 015f 00       		.byte	0x0
 2873 0160 00       		.byte	0x0
 2874 0161 1C       		.uleb128 0x1c
 2875 0162 2E       		.uleb128 0x2e
 2876 0163 01       		.byte	0x1
 2877 0164 3F       		.uleb128 0x3f
 2878 0165 0C       		.uleb128 0xc
 2879 0166 03       		.uleb128 0x3
 2880 0167 0E       		.uleb128 0xe
 2881 0168 3A       		.uleb128 0x3a
 2882 0169 0B       		.uleb128 0xb
 2883 016a 3B       		.uleb128 0x3b
 2884 016b 0B       		.uleb128 0xb
 2885 016c 27       		.uleb128 0x27
 2886 016d 0C       		.uleb128 0xc
 2887 016e 49       		.uleb128 0x49
 2888 016f 13       		.uleb128 0x13
 2889 0170 11       		.uleb128 0x11
 2890 0171 01       		.uleb128 0x1
 2891 0172 12       		.uleb128 0x12
 2892 0173 01       		.uleb128 0x1
 2893 0174 40       		.uleb128 0x40
 2894 0175 06       		.uleb128 0x6
ARM GAS  /tmp/ccCPFOdJ.s 			page 52


 2895 0176 01       		.uleb128 0x1
 2896 0177 13       		.uleb128 0x13
 2897 0178 00       		.byte	0x0
 2898 0179 00       		.byte	0x0
 2899 017a 1D       		.uleb128 0x1d
 2900 017b 05       		.uleb128 0x5
 2901 017c 00       		.byte	0x0
 2902 017d 03       		.uleb128 0x3
 2903 017e 08       		.uleb128 0x8
 2904 017f 3A       		.uleb128 0x3a
 2905 0180 0B       		.uleb128 0xb
 2906 0181 3B       		.uleb128 0x3b
 2907 0182 0B       		.uleb128 0xb
 2908 0183 49       		.uleb128 0x49
 2909 0184 13       		.uleb128 0x13
 2910 0185 02       		.uleb128 0x2
 2911 0186 0A       		.uleb128 0xa
 2912 0187 00       		.byte	0x0
 2913 0188 00       		.byte	0x0
 2914 0189 1E       		.uleb128 0x1e
 2915 018a 05       		.uleb128 0x5
 2916 018b 00       		.byte	0x0
 2917 018c 03       		.uleb128 0x3
 2918 018d 0E       		.uleb128 0xe
 2919 018e 3A       		.uleb128 0x3a
 2920 018f 0B       		.uleb128 0xb
 2921 0190 3B       		.uleb128 0x3b
 2922 0191 0B       		.uleb128 0xb
 2923 0192 49       		.uleb128 0x49
 2924 0193 13       		.uleb128 0x13
 2925 0194 02       		.uleb128 0x2
 2926 0195 06       		.uleb128 0x6
 2927 0196 00       		.byte	0x0
 2928 0197 00       		.byte	0x0
 2929 0198 1F       		.uleb128 0x1f
 2930 0199 05       		.uleb128 0x5
 2931 019a 00       		.byte	0x0
 2932 019b 03       		.uleb128 0x3
 2933 019c 0E       		.uleb128 0xe
 2934 019d 3A       		.uleb128 0x3a
 2935 019e 0B       		.uleb128 0xb
 2936 019f 3B       		.uleb128 0x3b
 2937 01a0 0B       		.uleb128 0xb
 2938 01a1 49       		.uleb128 0x49
 2939 01a2 13       		.uleb128 0x13
 2940 01a3 02       		.uleb128 0x2
 2941 01a4 0A       		.uleb128 0xa
 2942 01a5 00       		.byte	0x0
 2943 01a6 00       		.byte	0x0
 2944 01a7 20       		.uleb128 0x20
 2945 01a8 05       		.uleb128 0x5
 2946 01a9 00       		.byte	0x0
 2947 01aa 03       		.uleb128 0x3
 2948 01ab 08       		.uleb128 0x8
 2949 01ac 3A       		.uleb128 0x3a
 2950 01ad 0B       		.uleb128 0xb
 2951 01ae 3B       		.uleb128 0x3b
ARM GAS  /tmp/ccCPFOdJ.s 			page 53


 2952 01af 0B       		.uleb128 0xb
 2953 01b0 49       		.uleb128 0x49
 2954 01b1 13       		.uleb128 0x13
 2955 01b2 02       		.uleb128 0x2
 2956 01b3 06       		.uleb128 0x6
 2957 01b4 00       		.byte	0x0
 2958 01b5 00       		.byte	0x0
 2959 01b6 21       		.uleb128 0x21
 2960 01b7 34       		.uleb128 0x34
 2961 01b8 00       		.byte	0x0
 2962 01b9 03       		.uleb128 0x3
 2963 01ba 08       		.uleb128 0x8
 2964 01bb 3A       		.uleb128 0x3a
 2965 01bc 0B       		.uleb128 0xb
 2966 01bd 3B       		.uleb128 0x3b
 2967 01be 0B       		.uleb128 0xb
 2968 01bf 49       		.uleb128 0x49
 2969 01c0 13       		.uleb128 0x13
 2970 01c1 02       		.uleb128 0x2
 2971 01c2 0A       		.uleb128 0xa
 2972 01c3 00       		.byte	0x0
 2973 01c4 00       		.byte	0x0
 2974 01c5 22       		.uleb128 0x22
 2975 01c6 1D       		.uleb128 0x1d
 2976 01c7 01       		.byte	0x1
 2977 01c8 31       		.uleb128 0x31
 2978 01c9 13       		.uleb128 0x13
 2979 01ca 52       		.uleb128 0x52
 2980 01cb 01       		.uleb128 0x1
 2981 01cc 55       		.uleb128 0x55
 2982 01cd 06       		.uleb128 0x6
 2983 01ce 58       		.uleb128 0x58
 2984 01cf 0B       		.uleb128 0xb
 2985 01d0 59       		.uleb128 0x59
 2986 01d1 0B       		.uleb128 0xb
 2987 01d2 00       		.byte	0x0
 2988 01d3 00       		.byte	0x0
 2989 01d4 23       		.uleb128 0x23
 2990 01d5 34       		.uleb128 0x34
 2991 01d6 00       		.byte	0x0
 2992 01d7 03       		.uleb128 0x3
 2993 01d8 08       		.uleb128 0x8
 2994 01d9 3A       		.uleb128 0x3a
 2995 01da 0B       		.uleb128 0xb
 2996 01db 3B       		.uleb128 0x3b
 2997 01dc 0B       		.uleb128 0xb
 2998 01dd 49       		.uleb128 0x49
 2999 01de 13       		.uleb128 0x13
 3000 01df 02       		.uleb128 0x2
 3001 01e0 06       		.uleb128 0x6
 3002 01e1 00       		.byte	0x0
 3003 01e2 00       		.byte	0x0
 3004 01e3 24       		.uleb128 0x24
 3005 01e4 0B       		.uleb128 0xb
 3006 01e5 01       		.byte	0x1
 3007 01e6 11       		.uleb128 0x11
 3008 01e7 01       		.uleb128 0x1
ARM GAS  /tmp/ccCPFOdJ.s 			page 54


 3009 01e8 12       		.uleb128 0x12
 3010 01e9 01       		.uleb128 0x1
 3011 01ea 01       		.uleb128 0x1
 3012 01eb 13       		.uleb128 0x13
 3013 01ec 00       		.byte	0x0
 3014 01ed 00       		.byte	0x0
 3015 01ee 25       		.uleb128 0x25
 3016 01ef 0B       		.uleb128 0xb
 3017 01f0 01       		.byte	0x1
 3018 01f1 11       		.uleb128 0x11
 3019 01f2 01       		.uleb128 0x1
 3020 01f3 12       		.uleb128 0x12
 3021 01f4 01       		.uleb128 0x1
 3022 01f5 00       		.byte	0x0
 3023 01f6 00       		.byte	0x0
 3024 01f7 26       		.uleb128 0x26
 3025 01f8 34       		.uleb128 0x34
 3026 01f9 00       		.byte	0x0
 3027 01fa 03       		.uleb128 0x3
 3028 01fb 0E       		.uleb128 0xe
 3029 01fc 3A       		.uleb128 0x3a
 3030 01fd 0B       		.uleb128 0xb
 3031 01fe 3B       		.uleb128 0x3b
 3032 01ff 0B       		.uleb128 0xb
 3033 0200 49       		.uleb128 0x49
 3034 0201 13       		.uleb128 0x13
 3035 0202 02       		.uleb128 0x2
 3036 0203 06       		.uleb128 0x6
 3037 0204 00       		.byte	0x0
 3038 0205 00       		.byte	0x0
 3039 0206 27       		.uleb128 0x27
 3040 0207 0B       		.uleb128 0xb
 3041 0208 01       		.byte	0x1
 3042 0209 55       		.uleb128 0x55
 3043 020a 06       		.uleb128 0x6
 3044 020b 01       		.uleb128 0x1
 3045 020c 13       		.uleb128 0x13
 3046 020d 00       		.byte	0x0
 3047 020e 00       		.byte	0x0
 3048 020f 28       		.uleb128 0x28
 3049 0210 2E       		.uleb128 0x2e
 3050 0211 01       		.byte	0x1
 3051 0212 3F       		.uleb128 0x3f
 3052 0213 0C       		.uleb128 0xc
 3053 0214 03       		.uleb128 0x3
 3054 0215 0E       		.uleb128 0xe
 3055 0216 3A       		.uleb128 0x3a
 3056 0217 0B       		.uleb128 0xb
 3057 0218 3B       		.uleb128 0x3b
 3058 0219 05       		.uleb128 0x5
 3059 021a 27       		.uleb128 0x27
 3060 021b 0C       		.uleb128 0xc
 3061 021c 11       		.uleb128 0x11
 3062 021d 01       		.uleb128 0x1
 3063 021e 12       		.uleb128 0x12
 3064 021f 01       		.uleb128 0x1
 3065 0220 40       		.uleb128 0x40
ARM GAS  /tmp/ccCPFOdJ.s 			page 55


 3066 0221 0A       		.uleb128 0xa
 3067 0222 01       		.uleb128 0x1
 3068 0223 13       		.uleb128 0x13
 3069 0224 00       		.byte	0x0
 3070 0225 00       		.byte	0x0
 3071 0226 29       		.uleb128 0x29
 3072 0227 05       		.uleb128 0x5
 3073 0228 00       		.byte	0x0
 3074 0229 03       		.uleb128 0x3
 3075 022a 08       		.uleb128 0x8
 3076 022b 3A       		.uleb128 0x3a
 3077 022c 0B       		.uleb128 0xb
 3078 022d 3B       		.uleb128 0x3b
 3079 022e 05       		.uleb128 0x5
 3080 022f 49       		.uleb128 0x49
 3081 0230 13       		.uleb128 0x13
 3082 0231 02       		.uleb128 0x2
 3083 0232 0A       		.uleb128 0xa
 3084 0233 00       		.byte	0x0
 3085 0234 00       		.byte	0x0
 3086 0235 2A       		.uleb128 0x2a
 3087 0236 34       		.uleb128 0x34
 3088 0237 00       		.byte	0x0
 3089 0238 03       		.uleb128 0x3
 3090 0239 08       		.uleb128 0x8
 3091 023a 3A       		.uleb128 0x3a
 3092 023b 0B       		.uleb128 0xb
 3093 023c 3B       		.uleb128 0x3b
 3094 023d 05       		.uleb128 0x5
 3095 023e 49       		.uleb128 0x49
 3096 023f 13       		.uleb128 0x13
 3097 0240 02       		.uleb128 0x2
 3098 0241 06       		.uleb128 0x6
 3099 0242 00       		.byte	0x0
 3100 0243 00       		.byte	0x0
 3101 0244 2B       		.uleb128 0x2b
 3102 0245 0B       		.uleb128 0xb
 3103 0246 01       		.byte	0x1
 3104 0247 55       		.uleb128 0x55
 3105 0248 06       		.uleb128 0x6
 3106 0249 00       		.byte	0x0
 3107 024a 00       		.byte	0x0
 3108 024b 2C       		.uleb128 0x2c
 3109 024c 2E       		.uleb128 0x2e
 3110 024d 01       		.byte	0x1
 3111 024e 3F       		.uleb128 0x3f
 3112 024f 0C       		.uleb128 0xc
 3113 0250 03       		.uleb128 0x3
 3114 0251 0E       		.uleb128 0xe
 3115 0252 3A       		.uleb128 0x3a
 3116 0253 0B       		.uleb128 0xb
 3117 0254 3B       		.uleb128 0x3b
 3118 0255 05       		.uleb128 0x5
 3119 0256 27       		.uleb128 0x27
 3120 0257 0C       		.uleb128 0xc
 3121 0258 11       		.uleb128 0x11
 3122 0259 01       		.uleb128 0x1
ARM GAS  /tmp/ccCPFOdJ.s 			page 56


 3123 025a 12       		.uleb128 0x12
 3124 025b 01       		.uleb128 0x1
 3125 025c 40       		.uleb128 0x40
 3126 025d 06       		.uleb128 0x6
 3127 025e 01       		.uleb128 0x1
 3128 025f 13       		.uleb128 0x13
 3129 0260 00       		.byte	0x0
 3130 0261 00       		.byte	0x0
 3131 0262 2D       		.uleb128 0x2d
 3132 0263 05       		.uleb128 0x5
 3133 0264 00       		.byte	0x0
 3134 0265 03       		.uleb128 0x3
 3135 0266 0E       		.uleb128 0xe
 3136 0267 3A       		.uleb128 0x3a
 3137 0268 0B       		.uleb128 0xb
 3138 0269 3B       		.uleb128 0x3b
 3139 026a 05       		.uleb128 0x5
 3140 026b 49       		.uleb128 0x49
 3141 026c 13       		.uleb128 0x13
 3142 026d 02       		.uleb128 0x2
 3143 026e 06       		.uleb128 0x6
 3144 026f 00       		.byte	0x0
 3145 0270 00       		.byte	0x0
 3146 0271 2E       		.uleb128 0x2e
 3147 0272 05       		.uleb128 0x5
 3148 0273 00       		.byte	0x0
 3149 0274 03       		.uleb128 0x3
 3150 0275 08       		.uleb128 0x8
 3151 0276 3A       		.uleb128 0x3a
 3152 0277 0B       		.uleb128 0xb
 3153 0278 3B       		.uleb128 0x3b
 3154 0279 05       		.uleb128 0x5
 3155 027a 49       		.uleb128 0x49
 3156 027b 13       		.uleb128 0x13
 3157 027c 02       		.uleb128 0x2
 3158 027d 06       		.uleb128 0x6
 3159 027e 00       		.byte	0x0
 3160 027f 00       		.byte	0x0
 3161 0280 2F       		.uleb128 0x2f
 3162 0281 1D       		.uleb128 0x1d
 3163 0282 01       		.byte	0x1
 3164 0283 31       		.uleb128 0x31
 3165 0284 13       		.uleb128 0x13
 3166 0285 11       		.uleb128 0x11
 3167 0286 01       		.uleb128 0x1
 3168 0287 12       		.uleb128 0x12
 3169 0288 01       		.uleb128 0x1
 3170 0289 58       		.uleb128 0x58
 3171 028a 0B       		.uleb128 0xb
 3172 028b 59       		.uleb128 0x59
 3173 028c 05       		.uleb128 0x5
 3174 028d 00       		.byte	0x0
 3175 028e 00       		.byte	0x0
 3176 028f 30       		.uleb128 0x30
 3177 0290 05       		.uleb128 0x5
 3178 0291 00       		.byte	0x0
 3179 0292 31       		.uleb128 0x31
ARM GAS  /tmp/ccCPFOdJ.s 			page 57


 3180 0293 13       		.uleb128 0x13
 3181 0294 02       		.uleb128 0x2
 3182 0295 06       		.uleb128 0x6
 3183 0296 00       		.byte	0x0
 3184 0297 00       		.byte	0x0
 3185 0298 31       		.uleb128 0x31
 3186 0299 34       		.uleb128 0x34
 3187 029a 00       		.byte	0x0
 3188 029b 31       		.uleb128 0x31
 3189 029c 13       		.uleb128 0x13
 3190 029d 02       		.uleb128 0x2
 3191 029e 06       		.uleb128 0x6
 3192 029f 00       		.byte	0x0
 3193 02a0 00       		.byte	0x0
 3194 02a1 32       		.uleb128 0x32
 3195 02a2 2E       		.uleb128 0x2e
 3196 02a3 01       		.byte	0x1
 3197 02a4 3F       		.uleb128 0x3f
 3198 02a5 0C       		.uleb128 0xc
 3199 02a6 03       		.uleb128 0x3
 3200 02a7 0E       		.uleb128 0xe
 3201 02a8 3A       		.uleb128 0x3a
 3202 02a9 0B       		.uleb128 0xb
 3203 02aa 3B       		.uleb128 0x3b
 3204 02ab 05       		.uleb128 0x5
 3205 02ac 27       		.uleb128 0x27
 3206 02ad 0C       		.uleb128 0xc
 3207 02ae 49       		.uleb128 0x49
 3208 02af 13       		.uleb128 0x13
 3209 02b0 11       		.uleb128 0x11
 3210 02b1 01       		.uleb128 0x1
 3211 02b2 12       		.uleb128 0x12
 3212 02b3 01       		.uleb128 0x1
 3213 02b4 40       		.uleb128 0x40
 3214 02b5 06       		.uleb128 0x6
 3215 02b6 01       		.uleb128 0x1
 3216 02b7 13       		.uleb128 0x13
 3217 02b8 00       		.byte	0x0
 3218 02b9 00       		.byte	0x0
 3219 02ba 33       		.uleb128 0x33
 3220 02bb 1D       		.uleb128 0x1d
 3221 02bc 01       		.byte	0x1
 3222 02bd 31       		.uleb128 0x31
 3223 02be 13       		.uleb128 0x13
 3224 02bf 52       		.uleb128 0x52
 3225 02c0 01       		.uleb128 0x1
 3226 02c1 55       		.uleb128 0x55
 3227 02c2 06       		.uleb128 0x6
 3228 02c3 58       		.uleb128 0x58
 3229 02c4 0B       		.uleb128 0xb
 3230 02c5 59       		.uleb128 0x59
 3231 02c6 05       		.uleb128 0x5
 3232 02c7 01       		.uleb128 0x1
 3233 02c8 13       		.uleb128 0x13
 3234 02c9 00       		.byte	0x0
 3235 02ca 00       		.byte	0x0
 3236 02cb 34       		.uleb128 0x34
ARM GAS  /tmp/ccCPFOdJ.s 			page 58


 3237 02cc 34       		.uleb128 0x34
 3238 02cd 00       		.byte	0x0
 3239 02ce 03       		.uleb128 0x3
 3240 02cf 0E       		.uleb128 0xe
 3241 02d0 3A       		.uleb128 0x3a
 3242 02d1 0B       		.uleb128 0xb
 3243 02d2 3B       		.uleb128 0x3b
 3244 02d3 0B       		.uleb128 0xb
 3245 02d4 49       		.uleb128 0x49
 3246 02d5 13       		.uleb128 0x13
 3247 02d6 3F       		.uleb128 0x3f
 3248 02d7 0C       		.uleb128 0xc
 3249 02d8 3C       		.uleb128 0x3c
 3250 02d9 0C       		.uleb128 0xc
 3251 02da 00       		.byte	0x0
 3252 02db 00       		.byte	0x0
 3253 02dc 00       		.byte	0x0
 3254              		.section	.debug_pubnames,"",%progbits
 3255 0000 CC000000 		.4byte	0xcc
 3256 0004 0200     		.2byte	0x2
 3257 0006 00000000 		.4byte	.Ldebug_info0
 3258 000a 6F0A0000 		.4byte	0xa6f
 3259 000e 78050000 		.4byte	0x578
 3260 0012 5F746872 		.ascii	"_thread_init\000"
 3260      6561645F 
 3260      696E6974 
 3260      00
 3261 001f 9C050000 		.4byte	0x59c
 3262 0023 63685468 		.ascii	"chThdCreateI\000"
 3262      64437265 
 3262      61746549 
 3262      00
 3263 0030 29060000 		.4byte	0x629
 3264 0034 63685468 		.ascii	"chThdCreateStatic\000"
 3264      64437265 
 3264      61746553 
 3264      74617469 
 3264      6300
 3265 0046 D4060000 		.4byte	0x6d4
 3266 004a 63685468 		.ascii	"chThdSetPriority\000"
 3266      64536574 
 3266      5072696F 
 3266      72697479 
 3266      00
 3267 005b 46070000 		.4byte	0x746
 3268 005f 63685468 		.ascii	"chThdResume\000"
 3268      64526573 
 3268      756D6500 
 3269 006b A4070000 		.4byte	0x7a4
 3270 006f 63685468 		.ascii	"chThdTerminate\000"
 3270      64546572 
 3270      6D696E61 
 3270      746500
 3271 007e FF070000 		.4byte	0x7ff
 3272 0082 63685468 		.ascii	"chThdSleep\000"
 3272      64536C65 
 3272      657000
ARM GAS  /tmp/ccCPFOdJ.s 			page 59


 3273 008d 62080000 		.4byte	0x862
 3274 0091 63685468 		.ascii	"chThdSleepUntil\000"
 3274      64536C65 
 3274      6570556E 
 3274      74696C00 
 3275 00a1 C5080000 		.4byte	0x8c5
 3276 00a5 63685468 		.ascii	"chThdYield\000"
 3276      64596965 
 3276      6C6400
 3277 00b0 18090000 		.4byte	0x918
 3278 00b4 63685468 		.ascii	"chThdExit\000"
 3278      64457869 
 3278      7400
 3279 00be 9D090000 		.4byte	0x99d
 3280 00c2 63685468 		.ascii	"chThdWait\000"
 3280      64576169 
 3280      7400
 3281 00cc 00000000 		.4byte	0x0
 3282              		.section	.debug_pubtypes,"",%progbits
 3283 0000 64010000 		.4byte	0x164
 3284 0004 0200     		.2byte	0x2
 3285 0006 00000000 		.4byte	.Ldebug_info0
 3286 000a 6F0A0000 		.4byte	0xa6f
 3287 000e 30000000 		.4byte	0x30
 3288 0012 73697A65 		.ascii	"size_t\000"
 3288      5F7400
 3289 0019 49000000 		.4byte	0x49
 3290 001d 75696E74 		.ascii	"uint8_t\000"
 3290      385F7400 
 3291 0025 69000000 		.4byte	0x69
 3292 0029 696E7433 		.ascii	"int32_t\000"
 3292      325F7400 
 3293 0031 7B000000 		.4byte	0x7b
 3294 0035 75696E74 		.ascii	"uint32_t\000"
 3294      33325F74 
 3294      00
 3295 003e 9B000000 		.4byte	0x9b
 3296 0042 746D6F64 		.ascii	"tmode_t\000"
 3296      655F7400 
 3297 004a A6000000 		.4byte	0xa6
 3298 004e 74737461 		.ascii	"tstate_t\000"
 3298      74655F74 
 3298      00
 3299 0057 B1000000 		.4byte	0xb1
 3300 005b 74726566 		.ascii	"trefs_t\000"
 3300      735F7400 
 3301 0063 BC000000 		.4byte	0xbc
 3302 0067 74707269 		.ascii	"tprio_t\000"
 3302      6F5F7400 
 3303 006f C7000000 		.4byte	0xc7
 3304 0073 6D73675F 		.ascii	"msg_t\000"
 3304      7400
 3305 0079 D2000000 		.4byte	0xd2
 3306 007d 6576656E 		.ascii	"eventmask_t\000"
 3306      746D6173 
 3306      6B5F7400 
 3307 0089 DD000000 		.4byte	0xdd
ARM GAS  /tmp/ccCPFOdJ.s 			page 60


 3308 008d 73797374 		.ascii	"systime_t\000"
 3308      696D655F 
 3308      7400
 3309 0097 E8000000 		.4byte	0xe8
 3310 009b 636E745F 		.ascii	"cnt_t\000"
 3310      7400
 3311 00a1 F3000000 		.4byte	0xf3
 3312 00a5 54687265 		.ascii	"Thread\000"
 3312      616400
 3313 00ac 32020000 		.4byte	0x232
 3314 00b0 54687265 		.ascii	"ThreadsQueue\000"
 3314      61647351 
 3314      75657565 
 3314      00
 3315 00bd 54020000 		.4byte	0x254
 3316 00c1 54687265 		.ascii	"ThreadsList\000"
 3316      6164734C 
 3316      69737400 
 3317 00cd 5F020000 		.4byte	0x25f
 3318 00d1 72656761 		.ascii	"regarm_t\000"
 3318      726D5F74 
 3318      00
 3319 00da 6D020000 		.4byte	0x26d
 3320 00de 636F6E74 		.ascii	"context\000"
 3320      65787400 
 3321 00e6 8A020000 		.4byte	0x28a
 3322 00ea 696E7463 		.ascii	"intctx\000"
 3322      747800
 3323 00f1 14030000 		.4byte	0x314
 3324 00f5 76746675 		.ascii	"vtfunc_t\000"
 3324      6E635F74 
 3324      00
 3325 00fe 31030000 		.4byte	0x331
 3326 0102 56697274 		.ascii	"VirtualTimer\000"
 3326      75616C54 
 3326      696D6572 
 3326      00
 3327 010f 3C030000 		.4byte	0x33c
 3328 0113 56697274 		.ascii	"VirtualTimer\000"
 3328      75616C54 
 3328      696D6572 
 3328      00
 3329 0120 DB030000 		.4byte	0x3db
 3330 0124 56544C69 		.ascii	"VTList\000"
 3330      737400
 3331 012b 51040000 		.4byte	0x451
 3332 012f 52656164 		.ascii	"ReadyList\000"
 3332      794C6973 
 3332      7400
 3333 0139 5C040000 		.4byte	0x45c
 3334 013d 4D757465 		.ascii	"Mutex\000"
 3334      7800
 3335 0143 99040000 		.4byte	0x499
 3336 0147 4D757465 		.ascii	"Mutex\000"
 3336      7800
 3337 014d FE000000 		.4byte	0xfe
 3338 0151 54687265 		.ascii	"Thread\000"
ARM GAS  /tmp/ccCPFOdJ.s 			page 61


 3338      616400
 3339 0158 DF040000 		.4byte	0x4df
 3340 015c 7466756E 		.ascii	"tfunc_t\000"
 3340      635F7400 
 3341 0164 00000000 		.4byte	0x0
 3342              		.section	.debug_aranges,"",%progbits
 3343 0000 6C000000 		.4byte	0x6c
 3344 0004 0200     		.2byte	0x2
 3345 0006 00000000 		.4byte	.Ldebug_info0
 3346 000a 04       		.byte	0x4
 3347 000b 00       		.byte	0x0
 3348 000c 0000     		.2byte	0x0
 3349 000e 0000     		.2byte	0x0
 3350 0010 00000000 		.4byte	.LFB7
 3351 0014 3C000000 		.4byte	.LFE7-.LFB7
 3352 0018 00000000 		.4byte	.LFB8
 3353 001c 5A000000 		.4byte	.LFE8-.LFB8
 3354 0020 00000000 		.4byte	.LFB9
 3355 0024 2A000000 		.4byte	.LFE9-.LFB9
 3356 0028 00000000 		.4byte	.LFB10
 3357 002c 30000000 		.4byte	.LFE10-.LFB10
 3358 0030 00000000 		.4byte	.LFB11
 3359 0034 1A000000 		.4byte	.LFE11-.LFB11
 3360 0038 00000000 		.4byte	.LFB12
 3361 003c 16000000 		.4byte	.LFE12-.LFB12
 3362 0040 00000000 		.4byte	.LFB13
 3363 0044 18000000 		.4byte	.LFE13-.LFB13
 3364 0048 00000000 		.4byte	.LFB14
 3365 004c 24000000 		.4byte	.LFE14-.LFB14
 3366 0050 00000000 		.4byte	.LFB15
 3367 0054 2C000000 		.4byte	.LFE15-.LFB15
 3368 0058 00000000 		.4byte	.LFB16
 3369 005c 4C000000 		.4byte	.LFE16-.LFB16
 3370 0060 00000000 		.4byte	.LFB17
 3371 0064 38000000 		.4byte	.LFE17-.LFB17
 3372 0068 00000000 		.4byte	0x0
 3373 006c 00000000 		.4byte	0x0
 3374              		.section	.debug_ranges,"",%progbits
 3375              	.Ldebug_ranges0:
 3376 0000 1E000000 		.4byte	.LBB11
 3377 0004 42000000 		.4byte	.LBE11
 3378 0008 44000000 		.4byte	.LBB14
 3379 000c 56000000 		.4byte	.LBE14
 3380 0010 00000000 		.4byte	0x0
 3381 0014 00000000 		.4byte	0x0
 3382 0018 02000000 		.4byte	.LBB19
 3383 001c 04000000 		.4byte	.LBE19
 3384 0020 06000000 		.4byte	.LBB20
 3385 0024 0A000000 		.4byte	.LBE20
 3386 0028 00000000 		.4byte	0x0
 3387 002c 00000000 		.4byte	0x0
 3388 0030 08000000 		.4byte	.LBB23
 3389 0034 0A000000 		.4byte	.LBE23
 3390 0038 10000000 		.4byte	.LBB24
 3391 003c 14000000 		.4byte	.LBE24
 3392 0040 00000000 		.4byte	0x0
 3393 0044 00000000 		.4byte	0x0
ARM GAS  /tmp/ccCPFOdJ.s 			page 62


 3394 0048 1A000000 		.4byte	.LBB35
 3395 004c 1C000000 		.4byte	.LBE35
 3396 0050 1E000000 		.4byte	.LBB38
 3397 0054 22000000 		.4byte	.LBE38
 3398 0058 00000000 		.4byte	0x0
 3399 005c 00000000 		.4byte	0x0
 3400 0060 00000000 		.4byte	.LFB7
 3401 0064 3C000000 		.4byte	.LFE7
 3402 0068 00000000 		.4byte	.LFB8
 3403 006c 5A000000 		.4byte	.LFE8
 3404 0070 00000000 		.4byte	.LFB9
 3405 0074 2A000000 		.4byte	.LFE9
 3406 0078 00000000 		.4byte	.LFB10
 3407 007c 30000000 		.4byte	.LFE10
 3408 0080 00000000 		.4byte	.LFB11
 3409 0084 1A000000 		.4byte	.LFE11
 3410 0088 00000000 		.4byte	.LFB12
 3411 008c 16000000 		.4byte	.LFE12
 3412 0090 00000000 		.4byte	.LFB13
 3413 0094 18000000 		.4byte	.LFE13
 3414 0098 00000000 		.4byte	.LFB14
 3415 009c 24000000 		.4byte	.LFE14
 3416 00a0 00000000 		.4byte	.LFB15
 3417 00a4 2C000000 		.4byte	.LFE15
 3418 00a8 00000000 		.4byte	.LFB16
 3419 00ac 4C000000 		.4byte	.LFE16
 3420 00b0 00000000 		.4byte	.LFB17
 3421 00b4 38000000 		.4byte	.LFE17
 3422 00b8 00000000 		.4byte	0x0
 3423 00bc 00000000 		.4byte	0x0
 3424              		.section	.debug_str,"MS",%progbits,1
 3425              	.LASF69:
 3426 0000 7466756E 		.ascii	"tfunc_t\000"
 3426      635F7400 
 3427              	.LASF34:
 3428 0008 705F6D73 		.ascii	"p_msg\000"
 3428      6700
 3429              	.LASF2:
 3430 000e 73697A65 		.ascii	"size_t\000"
 3430      5F7400
 3431              	.LASF70:
 3432 0015 7072696F 		.ascii	"prio\000"
 3432      00
 3433              	.LASF65:
 3434 001a 7264796D 		.ascii	"rdymsg\000"
 3434      736700
 3435              	.LASF85:
 3436 0021 76746C69 		.ascii	"vtlist\000"
 3436      737400
 3437              	.LASF12:
 3438 0028 6C6F6E67 		.ascii	"long long unsigned int\000"
 3438      206C6F6E 
 3438      6720756E 
 3438      7369676E 
 3438      65642069 
 3439              	.LASF66:
 3440 003f 65786974 		.ascii	"exitcode\000"
ARM GAS  /tmp/ccCPFOdJ.s 			page 63


 3440      636F6465 
 3440      00
 3441              	.LASF24:
 3442 0048 705F7072 		.ascii	"p_prio\000"
 3442      696F00
 3443              	.LASF11:
 3444 004f 6C6F6E67 		.ascii	"long long int\000"
 3444      206C6F6E 
 3444      6720696E 
 3444      7400
 3445              	.LASF1:
 3446 005d 7369676E 		.ascii	"signed char\000"
 3446      65642063 
 3446      68617200 
 3447              	.LASF83:
 3448 0069 63685468 		.ascii	"chThdExit\000"
 3448      64457869 
 3448      7400
 3449              	.LASF38:
 3450 0073 705F6D70 		.ascii	"p_mpool\000"
 3450      6F6F6C00 
 3451              	.LASF62:
 3452 007b 6D5F7175 		.ascii	"m_queue\000"
 3452      65756500 
 3453              	.LASF67:
 3454 0083 77746F62 		.ascii	"wtobjp\000"
 3454      6A7000
 3455              	.LASF72:
 3456 008a 63685468 		.ascii	"chThdCreateI\000"
 3456      64437265 
 3456      61746549 
 3456      00
 3457              	.LASF8:
 3458 0097 6C6F6E67 		.ascii	"long int\000"
 3458      20696E74 
 3458      00
 3459              	.LASF14:
 3460 00a0 74737461 		.ascii	"tstate_t\000"
 3460      74655F74 
 3460      00
 3461              	.LASF26:
 3462 00a9 705F6E65 		.ascii	"p_newer\000"
 3462      77657200 
 3463              	.LASF91:
 3464 00b1 6C697374 		.ascii	"list_remove\000"
 3464      5F72656D 
 3464      6F766500 
 3465              	.LASF56:
 3466 00bd 725F6E65 		.ascii	"r_newer\000"
 3466      77657200 
 3467              	.LASF41:
 3468 00c5 72656761 		.ascii	"regarm_t\000"
 3468      726D5F74 
 3468      00
 3469              	.LASF47:
 3470 00ce 76745F70 		.ascii	"vt_prev\000"
 3470      72657600 
ARM GAS  /tmp/ccCPFOdJ.s 			page 64


 3471              	.LASF74:
 3472 00d6 63685468 		.ascii	"chThdSetPriority\000"
 3472      64536574 
 3472      5072696F 
 3472      72697479 
 3472      00
 3473              	.LASF20:
 3474 00e7 636E745F 		.ascii	"cnt_t\000"
 3474      7400
 3475              	.LASF0:
 3476 00ed 756E7369 		.ascii	"unsigned int\000"
 3476      676E6564 
 3476      20696E74 
 3476      00
 3477              	.LASF46:
 3478 00fa 76745F6E 		.ascii	"vt_next\000"
 3478      65787400 
 3479              	.LASF10:
 3480 0102 6C6F6E67 		.ascii	"long unsigned int\000"
 3480      20756E73 
 3480      69676E65 
 3480      6420696E 
 3480      7400
 3481              	.LASF88:
 3482 0114 63686962 		.ascii	"chibios/os/kernel/src/chthreads.c\000"
 3482      696F732F 
 3482      6F732F6B 
 3482      65726E65 
 3482      6C2F7372 
 3483              	.LASF42:
 3484 0136 636F6E74 		.ascii	"context\000"
 3484      65787400 
 3485              	.LASF71:
 3486 013e 73697A65 		.ascii	"size\000"
 3486      00
 3487              	.LASF6:
 3488 0143 73686F72 		.ascii	"short unsigned int\000"
 3488      7420756E 
 3488      7369676E 
 3488      65642069 
 3488      6E7400
 3489              	.LASF17:
 3490 0156 6D73675F 		.ascii	"msg_t\000"
 3490      7400
 3491              	.LASF75:
 3492 015c 6E657770 		.ascii	"newprio\000"
 3492      72696F00 
 3493              	.LASF13:
 3494 0164 746D6F64 		.ascii	"tmode_t\000"
 3494      655F7400 
 3495              	.LASF78:
 3496 016c 63685468 		.ascii	"chThdTerminate\000"
 3496      64546572 
 3496      6D696E61 
 3496      746500
 3497              	.LASF40:
 3498 017b 54687265 		.ascii	"ThreadsList\000"
ARM GAS  /tmp/ccCPFOdJ.s 			page 65


 3498      6164734C 
 3498      69737400 
 3499              	.LASF18:
 3500 0187 6576656E 		.ascii	"eventmask_t\000"
 3500      746D6173 
 3500      6B5F7400 
 3501              	.LASF61:
 3502 0193 4D757465 		.ascii	"Mutex\000"
 3502      7800
 3503              	.LASF76:
 3504 0199 6F6C6470 		.ascii	"oldprio\000"
 3504      72696F00 
 3505              	.LASF73:
 3506 01a1 63685468 		.ascii	"chThdCreateStatic\000"
 3506      64437265 
 3506      61746553 
 3506      74617469 
 3506      6300
 3507              	.LASF48:
 3508 01b3 76745F74 		.ascii	"vt_time\000"
 3508      696D6500 
 3509              	.LASF49:
 3510 01bb 76745F66 		.ascii	"vt_func\000"
 3510      756E6300 
 3511              	.LASF89:
 3512 01c3 2F686F6D 		.ascii	"/home/dan/github/github-projects/Quad-Rotor/QuadRot"
 3512      652F6461 
 3512      6E2F6769 
 3512      74687562 
 3512      2F676974 
 3513 01f6 6F7200   		.ascii	"or\000"
 3514              	.LASF27:
 3515 01f9 705F6F6C 		.ascii	"p_older\000"
 3515      64657200 
 3516              	.LASF55:
 3517 0201 725F6374 		.ascii	"r_ctx\000"
 3517      7800
 3518              	.LASF39:
 3519 0207 54687265 		.ascii	"ThreadsQueue\000"
 3519      61647351 
 3519      75657565 
 3519      00
 3520              	.LASF80:
 3521 0214 74696D65 		.ascii	"time\000"
 3521      00
 3522              	.LASF92:
 3523 0219 6C697374 		.ascii	"list_insert\000"
 3523      5F696E73 
 3523      65727400 
 3524              	.LASF59:
 3525 0225 725F6375 		.ascii	"r_current\000"
 3525      7272656E 
 3525      7400
 3526              	.LASF57:
 3527 022f 725F6F6C 		.ascii	"r_older\000"
 3527      64657200 
 3528              	.LASF81:
ARM GAS  /tmp/ccCPFOdJ.s 			page 66


 3529 0237 63685468 		.ascii	"chThdSleepUntil\000"
 3529      64536C65 
 3529      6570556E 
 3529      74696C00 
 3530              	.LASF15:
 3531 0247 74726566 		.ascii	"trefs_t\000"
 3531      735F7400 
 3532              	.LASF23:
 3533 024f 705F7072 		.ascii	"p_prev\000"
 3533      657600
 3534              	.LASF16:
 3535 0256 74707269 		.ascii	"tprio_t\000"
 3535      6F5F7400 
 3536              	.LASF7:
 3537 025e 696E7433 		.ascii	"int32_t\000"
 3537      325F7400 
 3538              	.LASF4:
 3539 0266 756E7369 		.ascii	"unsigned char\000"
 3539      676E6564 
 3539      20636861 
 3539      7200
 3540              	.LASF36:
 3541 0274 705F6D74 		.ascii	"p_mtxlist\000"
 3541      786C6973 
 3541      7400
 3542              	.LASF5:
 3543 027e 73686F72 		.ascii	"short int\000"
 3543      7420696E 
 3543      7400
 3544              	.LASF28:
 3545 0288 705F7374 		.ascii	"p_state\000"
 3545      61746500 
 3546              	.LASF54:
 3547 0290 725F7072 		.ascii	"r_prio\000"
 3547      696F00
 3548              	.LASF68:
 3549 0297 65776D61 		.ascii	"ewmask\000"
 3549      736B00
 3550              	.LASF22:
 3551 029e 705F6E65 		.ascii	"p_next\000"
 3551      787400
 3552              	.LASF29:
 3553 02a5 705F666C 		.ascii	"p_flags\000"
 3553      61677300 
 3554              	.LASF21:
 3555 02ad 54687265 		.ascii	"Thread\000"
 3555      616400
 3556              	.LASF35:
 3557 02b4 705F6570 		.ascii	"p_epending\000"
 3557      656E6469 
 3557      6E6700
 3558              	.LASF9:
 3559 02bf 75696E74 		.ascii	"uint32_t\000"
 3559      33325F74 
 3559      00
 3560              	.LASF90:
 3561 02c8 5F746872 		.ascii	"_thread_init\000"
ARM GAS  /tmp/ccCPFOdJ.s 			page 67


 3561      6561645F 
 3561      696E6974 
 3561      00
 3562              	.LASF53:
 3563 02d5 725F7175 		.ascii	"r_queue\000"
 3563      65756500 
 3564              	.LASF45:
 3565 02dd 56697274 		.ascii	"VirtualTimer\000"
 3565      75616C54 
 3565      696D6572 
 3565      00
 3566              	.LASF64:
 3567 02ea 6D5F6E65 		.ascii	"m_next\000"
 3567      787400
 3568              	.LASF19:
 3569 02f1 73797374 		.ascii	"systime_t\000"
 3569      696D655F 
 3569      7400
 3570              	.LASF37:
 3571 02fb 705F7265 		.ascii	"p_realprio\000"
 3571      616C7072 
 3571      696F00
 3572              	.LASF44:
 3573 0306 76746675 		.ascii	"vtfunc_t\000"
 3573      6E635F74 
 3573      00
 3574              	.LASF82:
 3575 030f 63685468 		.ascii	"chThdYield\000"
 3575      64596965 
 3575      6C6400
 3576              	.LASF31:
 3577 031a 705F7469 		.ascii	"p_time\000"
 3577      6D6500
 3578              	.LASF43:
 3579 0321 696E7463 		.ascii	"intctx\000"
 3579      747800
 3580              	.LASF33:
 3581 0328 705F6D73 		.ascii	"p_msgqueue\000"
 3581      67717565 
 3581      756500
 3582              	.LASF84:
 3583 0333 63685468 		.ascii	"chThdWait\000"
 3583      64576169 
 3583      7400
 3584              	.LASF50:
 3585 033d 76745F70 		.ascii	"vt_par\000"
 3585      617200
 3586              	.LASF79:
 3587 0344 63685468 		.ascii	"chThdSleep\000"
 3587      64536C65 
 3587      657000
 3588              	.LASF30:
 3589 034f 705F7265 		.ascii	"p_refs\000"
 3589      667300
 3590              	.LASF60:
 3591 0356 52656164 		.ascii	"ReadyList\000"
 3591      794C6973 
ARM GAS  /tmp/ccCPFOdJ.s 			page 68


 3591      7400
 3592              	.LASF86:
 3593 0360 726C6973 		.ascii	"rlist\000"
 3593      7400
 3594              	.LASF3:
 3595 0366 75696E74 		.ascii	"uint8_t\000"
 3595      385F7400 
 3596              	.LASF77:
 3597 036e 63685468 		.ascii	"chThdResume\000"
 3597      64526573 
 3597      756D6500 
 3598              	.LASF87:
 3599 037a 474E5520 		.ascii	"GNU C 4.5.1\000"
 3599      4320342E 
 3599      352E3100 
 3600              	.LASF51:
 3601 0386 76745F73 		.ascii	"vt_systime\000"
 3601      79737469 
 3601      6D6500
 3602              	.LASF52:
 3603 0391 56544C69 		.ascii	"VTList\000"
 3603      737400
 3604              	.LASF58:
 3605 0398 725F7072 		.ascii	"r_preempt\000"
 3605      65656D70 
 3605      7400
 3606              	.LASF63:
 3607 03a2 6D5F6F77 		.ascii	"m_owner\000"
 3607      6E657200 
 3608              	.LASF25:
 3609 03aa 705F6374 		.ascii	"p_ctx\000"
 3609      7800
 3610              	.LASF32:
 3611 03b0 705F7761 		.ascii	"p_waiting\000"
 3611      6974696E 
 3611      6700
 3612              		.ident	"GCC: (GNU) 4.5.1"
ARM GAS  /tmp/ccCPFOdJ.s 			page 69


DEFINED SYMBOLS
                            *ABS*:0000000000000000 chthreads.c
     /tmp/ccCPFOdJ.s:24     .text._thread_init:0000000000000000 $t
     /tmp/ccCPFOdJ.s:30     .text._thread_init:0000000000000000 _thread_init
     /tmp/ccCPFOdJ.s:98     .text.chThdCreateI:0000000000000000 $t
     /tmp/ccCPFOdJ.s:104    .text.chThdCreateI:0000000000000000 chThdCreateI
     /tmp/ccCPFOdJ.s:196    .text.chThdCreateStatic:0000000000000000 $t
     /tmp/ccCPFOdJ.s:202    .text.chThdCreateStatic:0000000000000000 chThdCreateStatic
     /tmp/ccCPFOdJ.s:258    .text.chThdSetPriority:0000000000000000 $t
     /tmp/ccCPFOdJ.s:264    .text.chThdSetPriority:0000000000000000 chThdSetPriority
     /tmp/ccCPFOdJ.s:326    .text.chThdResume:0000000000000000 $t
     /tmp/ccCPFOdJ.s:332    .text.chThdResume:0000000000000000 chThdResume
     /tmp/ccCPFOdJ.s:380    .text.chThdTerminate:0000000000000000 $t
     /tmp/ccCPFOdJ.s:386    .text.chThdTerminate:0000000000000000 chThdTerminate
     /tmp/ccCPFOdJ.s:428    .text.chThdSleep:0000000000000000 $t
     /tmp/ccCPFOdJ.s:434    .text.chThdSleep:0000000000000000 chThdSleep
     /tmp/ccCPFOdJ.s:479    .text.chThdSleepUntil:0000000000000000 $t
     /tmp/ccCPFOdJ.s:485    .text.chThdSleepUntil:0000000000000000 chThdSleepUntil
     /tmp/ccCPFOdJ.s:537    .text.chThdYield:0000000000000000 $t
     /tmp/ccCPFOdJ.s:543    .text.chThdYield:0000000000000000 chThdYield
     /tmp/ccCPFOdJ.s:593    .text.chThdExit:0000000000000000 $t
     /tmp/ccCPFOdJ.s:599    .text.chThdExit:0000000000000000 chThdExit
     /tmp/ccCPFOdJ.s:681    .text.chThdWait:0000000000000000 $t
     /tmp/ccCPFOdJ.s:687    .text.chThdWait:0000000000000000 chThdWait
                     .debug_frame:0000000000000010 $d

UNDEFINED SYMBOLS
rlist
_port_thread_start
chSchWakeupS
chSchRescheduleS
chSchGoSleepTimeoutS
vtlist
chSchDoRescheduleI
chSchReadyI
chSchGoSleepS
chThdRelease
