ARM GAS  /tmp/cc6G3K2W.s 			page 1


   1              		.syntax unified
   2              		.cpu cortex-m3
   3              		.fpu softvfp
   4              		.eabi_attribute 20, 1
   5              		.eabi_attribute 21, 1
   6              		.eabi_attribute 23, 3
   7              		.eabi_attribute 24, 1
   8              		.eabi_attribute 25, 1
   9              		.eabi_attribute 26, 1
  10              		.eabi_attribute 30, 2
  11              		.eabi_attribute 18, 4
  12              		.thumb
  13              		.file	"chvt.c"
  14              		.section	.debug_abbrev,"",%progbits
  15              	.Ldebug_abbrev0:
  16              		.section	.debug_info,"",%progbits
  17              	.Ldebug_info0:
  18              		.section	.debug_line,"",%progbits
  19              	.Ldebug_line0:
  20 0000 59010000 		.text
  20      0200EE00 
  20      00000201 
  20      FB0E0D00 
  20      01010101 
  21              	.Ltext0:
  22              		.cfi_sections	.debug_frame
  23              		.section	.text.vt_init,"ax",%progbits
  24              		.align	2
  25              		.p2align 4,,15
  26              		.global	vt_init
  27              		.thumb
  28              		.thumb_func
  29              		.type	vt_init, %function
  30              	vt_init:
  31              	.LFB7:
  32              		.file 1 "../../os/kernel/src/chvt.c"
  33              		.loc 1 49 0
  34              		.cfi_startproc
  35              		@ args = 0, pretend = 0, frame = 0
  36              		@ frame_needed = 0, uses_anonymous_args = 0
  37              		@ link register save eliminated.
  38              		.loc 1 51 0
  39 0000 40F20003 		movw	r3, #:lower16:vtlist
  40 0004 C0F20003 		movt	r3, #:upper16:vtlist
  41              		.loc 1 53 0
  42 0008 0020     		movs	r0, #0
  43              		.loc 1 52 0
  44 000a 4FF0FF32 		mov	r2, #-1
  45              		.loc 1 53 0
  46 000e D860     		str	r0, [r3, #12]
  47              		.loc 1 52 0
  48 0010 9A60     		str	r2, [r3, #8]
  49              		.loc 1 51 0
  50 0012 5B60     		str	r3, [r3, #4]
  51 0014 1B60     		str	r3, [r3, #0]
  52              		.loc 1 54 0
  53 0016 7047     		bx	lr
ARM GAS  /tmp/cc6G3K2W.s 			page 2


  54              		.cfi_endproc
  55              	.LFE7:
  56              		.size	vt_init, .-vt_init
  57 0018 AFF30080 		.section	.text.chVTSetI,"ax",%progbits
  57      AFF30080 
  58              		.align	2
  59              		.p2align 4,,15
  60              		.global	chVTSetI
  61              		.thumb
  62              		.thumb_func
  63              		.type	chVTSetI, %function
  64              	chVTSetI:
  65              	.LFB8:
  66              		.loc 1 76 0
  67              		.cfi_startproc
  68              		@ args = 0, pretend = 0, frame = 0
  69              		@ frame_needed = 0, uses_anonymous_args = 0
  70              		@ link register save eliminated.
  71              	.LVL0:
  72 0000 70B4     		push	{r4, r5, r6}
  73              	.LCFI0:
  74              		.cfi_def_cfa_offset 12
  75              		.loc 1 84 0
  76 0002 40F20005 		movw	r5, #:lower16:vtlist
  77              		.cfi_offset 6, -4
  78              		.cfi_offset 5, -8
  79              		.cfi_offset 4, -12
  80 0006 C0F20005 		movt	r5, #:upper16:vtlist
  81 000a 2C68     		ldr	r4, [r5, #0]
  82              	.LVL1:
  83              		.loc 1 82 0
  84 000c 0361     		str	r3, [r0, #16]
  85              		.loc 1 85 0
  86 000e A668     		ldr	r6, [r4, #8]
  87              		.loc 1 83 0
  88 0010 C260     		str	r2, [r0, #12]
  89              		.loc 1 85 0
  90 0012 B142     		cmp	r1, r6
  91 0014 04D9     		bls	.L4
  92              	.L8:
  93              		.loc 1 87 0
  94 0016 2468     		ldr	r4, [r4, #0]
  95              		.loc 1 86 0
  96 0018 891B     		subs	r1, r1, r6
  97              	.LVL2:
  98              		.loc 1 85 0
  99 001a A668     		ldr	r6, [r4, #8]
 100 001c 8E42     		cmp	r6, r1
 101 001e FAD3     		bcc	.L8
 102              	.L4:
 103              		.loc 1 90 0
 104 0020 6368     		ldr	r3, [r4, #4]
 105              	.LVL3:
 106              		.loc 1 93 0
 107 0022 AC42     		cmp	r4, r5
 108              		.loc 1 90 0
 109 0024 0460     		str	r4, [r0, #0]
ARM GAS  /tmp/cc6G3K2W.s 			page 3


 110 0026 4360     		str	r3, [r0, #4]
 111              		.loc 1 92 0
 112 0028 8160     		str	r1, [r0, #8]
 113              		.loc 1 91 0
 114 002a 1860     		str	r0, [r3, #0]
 115 002c 6060     		str	r0, [r4, #4]
 116              		.loc 1 93 0
 117 002e 02D0     		beq	.L7
 118              		.loc 1 94 0
 119 0030 A068     		ldr	r0, [r4, #8]
 120              	.LVL4:
 121 0032 411A     		subs	r1, r0, r1
 122              	.LVL5:
 123 0034 A160     		str	r1, [r4, #8]
 124              	.LVL6:
 125              	.L7:
 126              		.loc 1 95 0
 127 0036 70BC     		pop	{r4, r5, r6}
 128 0038 7047     		bx	lr
 129              		.cfi_endproc
 130              	.LFE8:
 131              		.size	chVTSetI, .-chVTSetI
 132 003a 00BFAFF3 		.section	.text.chVTResetI,"ax",%progbits
 132      0080
 133              		.align	2
 134              		.p2align 4,,15
 135              		.global	chVTResetI
 136              		.thumb
 137              		.thumb_func
 138              		.type	chVTResetI, %function
 139              	chVTResetI:
 140              	.LFB9:
 141              		.loc 1 105 0
 142              		.cfi_startproc
 143              		@ args = 0, pretend = 0, frame = 0
 144              		@ frame_needed = 0, uses_anonymous_args = 0
 145              		@ link register save eliminated.
 146              	.LVL7:
 147              		.loc 1 112 0
 148 0000 40F20002 		movw	r2, #:lower16:vtlist
 149 0004 0368     		ldr	r3, [r0, #0]
 150 0006 C0F20002 		movt	r2, #:upper16:vtlist
 151 000a 9342     		cmp	r3, r2
 152 000c 03D0     		beq	.L12
 153              		.loc 1 113 0
 154 000e 9968     		ldr	r1, [r3, #8]
 155 0010 8268     		ldr	r2, [r0, #8]
 156 0012 8A18     		adds	r2, r1, r2
 157 0014 9A60     		str	r2, [r3, #8]
 158              	.L12:
 159              		.loc 1 114 0
 160 0016 4268     		ldr	r2, [r0, #4]
 161              		.loc 1 116 0
 162 0018 0021     		movs	r1, #0
 163              		.loc 1 114 0
 164 001a 1360     		str	r3, [r2, #0]
 165              		.loc 1 115 0
ARM GAS  /tmp/cc6G3K2W.s 			page 4


 166 001c 0368     		ldr	r3, [r0, #0]
 167              		.loc 1 116 0
 168 001e C160     		str	r1, [r0, #12]
 169              		.loc 1 115 0
 170 0020 5A60     		str	r2, [r3, #4]
 171              		.loc 1 117 0
 172 0022 7047     		bx	lr
 173              		.cfi_endproc
 174              	.LFE9:
 175              		.size	chVTResetI, .-chVTResetI
 176 0024 AFF30080 		.section	.text.chTimeIsWithin,"ax",%progbits
 176      AFF30080 
 176      AFF30080 
 177              		.align	2
 178              		.p2align 4,,15
 179              		.global	chTimeIsWithin
 180              		.thumb
 181              		.thumb_func
 182              		.type	chTimeIsWithin, %function
 183              	chTimeIsWithin:
 184              	.LFB10:
 185              		.loc 1 132 0
 186              		.cfi_startproc
 187              		@ args = 0, pretend = 0, frame = 0
 188              		@ frame_needed = 0, uses_anonymous_args = 0
 189              		@ link register save eliminated.
 190              	.LVL8:
 191              		.loc 1 134 0
 192 0000 40F20003 		movw	r3, #:lower16:vtlist
 193 0004 C0F20003 		movt	r3, #:upper16:vtlist
 194              		.loc 1 135 0
 195 0008 8142     		cmp	r1, r0
 196              		.loc 1 134 0
 197 000a DB68     		ldr	r3, [r3, #12]
 198              	.LVL9:
 199              		.loc 1 135 0
 200 000c 08D8     		bhi	.L18
 201 000e 8342     		cmp	r3, r0
 202 0010 34BF     		ite	cc
 203 0012 0020     		movcc	r0, #0
 204 0014 0120     		movcs	r0, #1
 205              	.LVL10:
 206 0016 8B42     		cmp	r3, r1
 207 0018 38BF     		it	cc
 208 001a 40F00100 		orrcc	r0, r0, #1
 209              		.loc 1 137 0
 210 001e 7047     		bx	lr
 211              	.LVL11:
 212              	.L18:
 213              		.loc 1 135 0
 214 0020 8342     		cmp	r3, r0
 215 0022 34BF     		ite	cc
 216 0024 0020     		movcc	r0, #0
 217 0026 0120     		movcs	r0, #1
 218              	.LVL12:
 219 0028 8B42     		cmp	r3, r1
 220 002a 2CBF     		ite	cs
ARM GAS  /tmp/cc6G3K2W.s 			page 5


 221 002c 0020     		movcs	r0, #0
 222 002e 00F00100 		andcc	r0, r0, #1
 223 0032 7047     		bx	lr
 224              		.cfi_endproc
 225              	.LFE10:
 226              		.size	chTimeIsWithin, .-chTimeIsWithin
 227              		.comm	vtlist,16,4
 228 0034 AFF30080 		.text
 228      AFF30080 
 228      AFF30080 
 229              	.Letext0:
 230              		.section	.debug_loc,"",%progbits
 231              	.Ldebug_loc0:
 232              	.LLST1:
 233 0000 00000000 		.4byte	.LFB8
 234 0004 02000000 		.4byte	.LCFI0
 235 0008 0100     		.2byte	0x1
 236 000a 5D       		.byte	0x5d
 237 000b 02000000 		.4byte	.LCFI0
 238 000f 3A000000 		.4byte	.LFE8
 239 0013 0200     		.2byte	0x2
 240 0015 7D       		.byte	0x7d
 241 0016 0C       		.sleb128 12
 242 0017 00000000 		.4byte	0x0
 243 001b 00000000 		.4byte	0x0
 244              	.LLST2:
 245 001f 00000000 		.4byte	.LVL0
 246 0023 32000000 		.4byte	.LVL4
 247 0027 0100     		.2byte	0x1
 248 0029 50       		.byte	0x50
 249 002a 36000000 		.4byte	.LVL6
 250 002e 3A000000 		.4byte	.LFE8
 251 0032 0100     		.2byte	0x1
 252 0034 50       		.byte	0x50
 253 0035 00000000 		.4byte	0x0
 254 0039 00000000 		.4byte	0x0
 255              	.LLST3:
 256 003d 00000000 		.4byte	.LVL0
 257 0041 34000000 		.4byte	.LVL5
 258 0045 0100     		.2byte	0x1
 259 0047 51       		.byte	0x51
 260 0048 36000000 		.4byte	.LVL6
 261 004c 3A000000 		.4byte	.LFE8
 262 0050 0100     		.2byte	0x1
 263 0052 51       		.byte	0x51
 264 0053 00000000 		.4byte	0x0
 265 0057 00000000 		.4byte	0x0
 266              	.LLST4:
 267 005b 00000000 		.4byte	.LVL0
 268 005f 22000000 		.4byte	.LVL3
 269 0063 0100     		.2byte	0x1
 270 0065 53       		.byte	0x53
 271 0066 00000000 		.4byte	0x0
 272 006a 00000000 		.4byte	0x0
 273              	.LLST7:
 274 006e 00000000 		.4byte	.LVL8
 275 0072 16000000 		.4byte	.LVL10
ARM GAS  /tmp/cc6G3K2W.s 			page 6


 276 0076 0100     		.2byte	0x1
 277 0078 50       		.byte	0x50
 278 0079 20000000 		.4byte	.LVL11
 279 007d 28000000 		.4byte	.LVL12
 280 0081 0100     		.2byte	0x1
 281 0083 50       		.byte	0x50
 282 0084 00000000 		.4byte	0x0
 283 0088 00000000 		.4byte	0x0
 284              		.file 2 "/usr/local/LPCXpresso/tools/bin/../lib/gcc/arm-none-eabi/4.4.1/../../../../arm-none-eabi/
 285              		.file 3 "../../os/ports/GCC/ARMCMx/chtypes.h"
 286              		.file 4 "../../os/kernel/include/chvt.h"
 287              		.section	.debug_info
 288 0000 5D020000 		.4byte	0x25d
 289 0004 0200     		.2byte	0x2
 290 0006 00000000 		.4byte	.Ldebug_abbrev0
 291 000a 04       		.byte	0x4
 292 000b 01       		.uleb128 0x1
 293 000c 1E010000 		.4byte	.LASF27
 294 0010 01       		.byte	0x1
 295 0011 03010000 		.4byte	.LASF28
 296 0015 A3000000 		.4byte	.LASF29
 297 0019 00000000 		.4byte	0x0
 298 001d 00000000 		.4byte	0x0
 299 0021 00000000 		.4byte	.Ldebug_ranges0+0x0
 300 0025 00000000 		.4byte	.Ldebug_line0
 301 0029 02       		.uleb128 0x2
 302 002a 04       		.byte	0x4
 303 002b 05       		.byte	0x5
 304 002c 696E7400 		.ascii	"int\000"
 305 0030 03       		.uleb128 0x3
 306 0031 04       		.byte	0x4
 307 0032 07       		.byte	0x7
 308 0033 7F000000 		.4byte	.LASF0
 309 0037 03       		.uleb128 0x3
 310 0038 01       		.byte	0x1
 311 0039 06       		.byte	0x6
 312 003a 73010000 		.4byte	.LASF1
 313 003e 03       		.uleb128 0x3
 314 003f 01       		.byte	0x1
 315 0040 08       		.byte	0x8
 316 0041 71000000 		.4byte	.LASF2
 317 0045 03       		.uleb128 0x3
 318 0046 02       		.byte	0x2
 319 0047 05       		.byte	0x5
 320 0048 40010000 		.4byte	.LASF3
 321 004c 03       		.uleb128 0x3
 322 004d 02       		.byte	0x2
 323 004e 07       		.byte	0x7
 324 004f 51000000 		.4byte	.LASF4
 325 0053 04       		.uleb128 0x4
 326 0054 F0000000 		.4byte	.LASF6
 327 0058 02       		.byte	0x2
 328 0059 4F       		.byte	0x4f
 329 005a 5E000000 		.4byte	0x5e
 330 005e 03       		.uleb128 0x3
 331 005f 04       		.byte	0x4
 332 0060 05       		.byte	0x5
ARM GAS  /tmp/cc6G3K2W.s 			page 7


 333 0061 6A010000 		.4byte	.LASF5
 334 0065 04       		.uleb128 0x4
 335 0066 61010000 		.4byte	.LASF7
 336 006a 02       		.byte	0x2
 337 006b 50       		.byte	0x50
 338 006c 70000000 		.4byte	0x70
 339 0070 03       		.uleb128 0x3
 340 0071 04       		.byte	0x4
 341 0072 07       		.byte	0x7
 342 0073 3F000000 		.4byte	.LASF8
 343 0077 03       		.uleb128 0x3
 344 0078 08       		.byte	0x8
 345 0079 05       		.byte	0x5
 346 007a 00000000 		.4byte	.LASF9
 347 007e 03       		.uleb128 0x3
 348 007f 08       		.byte	0x8
 349 0080 07       		.byte	0x7
 350 0081 8C000000 		.4byte	.LASF10
 351 0085 04       		.uleb128 0x4
 352 0086 2F000000 		.4byte	.LASF11
 353 008a 03       		.byte	0x3
 354 008b 2D       		.byte	0x2d
 355 008c 53000000 		.4byte	0x53
 356 0090 04       		.uleb128 0x4
 357 0091 25000000 		.4byte	.LASF12
 358 0095 03       		.byte	0x3
 359 0096 35       		.byte	0x35
 360 0097 65000000 		.4byte	0x65
 361 009b 05       		.uleb128 0x5
 362 009c 04       		.byte	0x4
 363 009d 07       		.byte	0x7
 364 009e 06       		.uleb128 0x6
 365 009f 04       		.byte	0x4
 366 00a0 04       		.uleb128 0x4
 367 00a1 36000000 		.4byte	.LASF13
 368 00a5 04       		.byte	0x4
 369 00a6 3E       		.byte	0x3e
 370 00a7 AB000000 		.4byte	0xab
 371 00ab 07       		.uleb128 0x7
 372 00ac 04       		.byte	0x4
 373 00ad B1000000 		.4byte	0xb1
 374 00b1 08       		.uleb128 0x8
 375 00b2 01       		.byte	0x1
 376 00b3 BD000000 		.4byte	0xbd
 377 00b7 09       		.uleb128 0x9
 378 00b8 9E000000 		.4byte	0x9e
 379 00bc 00       		.byte	0x0
 380 00bd 04       		.uleb128 0x4
 381 00be 64000000 		.4byte	.LASF14
 382 00c2 04       		.byte	0x4
 383 00c3 43       		.byte	0x43
 384 00c4 C8000000 		.4byte	0xc8
 385 00c8 0A       		.uleb128 0xa
 386 00c9 64000000 		.4byte	.LASF14
 387 00cd 14       		.byte	0x14
 388 00ce 04       		.byte	0x4
 389 00cf 43       		.byte	0x43
ARM GAS  /tmp/cc6G3K2W.s 			page 8


 390 00d0 1B010000 		.4byte	0x11b
 391 00d4 0B       		.uleb128 0xb
 392 00d5 86010000 		.4byte	.LASF15
 393 00d9 04       		.byte	0x4
 394 00da 4B       		.byte	0x4b
 395 00db 1B010000 		.4byte	0x11b
 396 00df 02       		.byte	0x2
 397 00e0 23       		.byte	0x23
 398 00e1 00       		.uleb128 0x0
 399 00e2 0B       		.uleb128 0xb
 400 00e3 59010000 		.4byte	.LASF16
 401 00e7 04       		.byte	0x4
 402 00e8 4D       		.byte	0x4d
 403 00e9 1B010000 		.4byte	0x11b
 404 00ed 02       		.byte	0x2
 405 00ee 23       		.byte	0x23
 406 00ef 04       		.uleb128 0x4
 407 00f0 0B       		.uleb128 0xb
 408 00f1 E8000000 		.4byte	.LASF17
 409 00f5 04       		.byte	0x4
 410 00f6 4F       		.byte	0x4f
 411 00f7 90000000 		.4byte	0x90
 412 00fb 02       		.byte	0x2
 413 00fc 23       		.byte	0x23
 414 00fd 08       		.uleb128 0x8
 415 00fe 0B       		.uleb128 0xb
 416 00ff 2A010000 		.4byte	.LASF18
 417 0103 04       		.byte	0x4
 418 0104 50       		.byte	0x50
 419 0105 A0000000 		.4byte	0xa0
 420 0109 02       		.byte	0x2
 421 010a 23       		.byte	0x23
 422 010b 0C       		.uleb128 0xc
 423 010c 0B       		.uleb128 0xb
 424 010d 39010000 		.4byte	.LASF19
 425 0111 04       		.byte	0x4
 426 0112 52       		.byte	0x52
 427 0113 9E000000 		.4byte	0x9e
 428 0117 02       		.byte	0x2
 429 0118 23       		.byte	0x23
 430 0119 10       		.uleb128 0x10
 431 011a 00       		.byte	0x0
 432 011b 07       		.uleb128 0x7
 433 011c 04       		.byte	0x4
 434 011d BD000000 		.4byte	0xbd
 435 0121 0C       		.uleb128 0xc
 436 0122 10       		.byte	0x10
 437 0123 04       		.byte	0x4
 438 0124 5C       		.byte	0x5c
 439 0125 62010000 		.4byte	0x162
 440 0129 0B       		.uleb128 0xb
 441 012a 86010000 		.4byte	.LASF15
 442 012e 04       		.byte	0x4
 443 012f 5D       		.byte	0x5d
 444 0130 1B010000 		.4byte	0x11b
 445 0134 02       		.byte	0x2
 446 0135 23       		.byte	0x23
ARM GAS  /tmp/cc6G3K2W.s 			page 9


 447 0136 00       		.uleb128 0x0
 448 0137 0B       		.uleb128 0xb
 449 0138 59010000 		.4byte	.LASF16
 450 013c 04       		.byte	0x4
 451 013d 5F       		.byte	0x5f
 452 013e 1B010000 		.4byte	0x11b
 453 0142 02       		.byte	0x2
 454 0143 23       		.byte	0x23
 455 0144 04       		.uleb128 0x4
 456 0145 0B       		.uleb128 0xb
 457 0146 E8000000 		.4byte	.LASF17
 458 014a 04       		.byte	0x4
 459 014b 61       		.byte	0x61
 460 014c 90000000 		.4byte	0x90
 461 0150 02       		.byte	0x2
 462 0151 23       		.byte	0x23
 463 0152 08       		.uleb128 0x8
 464 0153 0B       		.uleb128 0xb
 465 0154 F8000000 		.4byte	.LASF20
 466 0158 04       		.byte	0x4
 467 0159 62       		.byte	0x62
 468 015a 62010000 		.4byte	0x162
 469 015e 02       		.byte	0x2
 470 015f 23       		.byte	0x23
 471 0160 0C       		.uleb128 0xc
 472 0161 00       		.byte	0x0
 473 0162 0D       		.uleb128 0xd
 474 0163 90000000 		.4byte	0x90
 475 0167 04       		.uleb128 0x4
 476 0168 7F010000 		.4byte	.LASF21
 477 016c 04       		.byte	0x4
 478 016d 63       		.byte	0x63
 479 016e 21010000 		.4byte	0x121
 480 0172 0E       		.uleb128 0xe
 481 0173 01       		.byte	0x1
 482 0174 17000000 		.4byte	.LASF30
 483 0178 01       		.byte	0x1
 484 0179 31       		.byte	0x31
 485 017a 01       		.byte	0x1
 486 017b 00000000 		.4byte	.LFB7
 487 017f 18000000 		.4byte	.LFE7
 488 0183 01       		.byte	0x1
 489 0184 5D       		.byte	0x5d
 490 0185 0F       		.uleb128 0xf
 491 0186 01       		.byte	0x1
 492 0187 0E000000 		.4byte	.LASF24
 493 018b 01       		.byte	0x1
 494 018c 4C       		.byte	0x4c
 495 018d 01       		.byte	0x1
 496 018e 00000000 		.4byte	.LFB8
 497 0192 3A000000 		.4byte	.LFE8
 498 0196 00000000 		.4byte	.LLST1
 499 019a E4010000 		.4byte	0x1e4
 500 019e 10       		.uleb128 0x10
 501 019f 76747000 		.ascii	"vtp\000"
 502 01a3 01       		.byte	0x1
 503 01a4 4C       		.byte	0x4c
ARM GAS  /tmp/cc6G3K2W.s 			page 10


 504 01a5 1B010000 		.4byte	0x11b
 505 01a9 1F000000 		.4byte	.LLST2
 506 01ad 11       		.uleb128 0x11
 507 01ae E3000000 		.4byte	.LASF22
 508 01b2 01       		.byte	0x1
 509 01b3 4C       		.byte	0x4c
 510 01b4 90000000 		.4byte	0x90
 511 01b8 3D000000 		.4byte	.LLST3
 512 01bc 12       		.uleb128 0x12
 513 01bd 32010000 		.4byte	.LASF23
 514 01c1 01       		.byte	0x1
 515 01c2 4C       		.byte	0x4c
 516 01c3 A0000000 		.4byte	0xa0
 517 01c7 01       		.byte	0x1
 518 01c8 52       		.byte	0x52
 519 01c9 10       		.uleb128 0x10
 520 01ca 70617200 		.ascii	"par\000"
 521 01ce 01       		.byte	0x1
 522 01cf 4C       		.byte	0x4c
 523 01d0 9E000000 		.4byte	0x9e
 524 01d4 5B000000 		.4byte	.LLST4
 525 01d8 13       		.uleb128 0x13
 526 01d9 7000     		.ascii	"p\000"
 527 01db 01       		.byte	0x1
 528 01dc 4D       		.byte	0x4d
 529 01dd 1B010000 		.4byte	0x11b
 530 01e1 01       		.byte	0x1
 531 01e2 54       		.byte	0x54
 532 01e3 00       		.byte	0x0
 533 01e4 14       		.uleb128 0x14
 534 01e5 01       		.byte	0x1
 535 01e6 8E010000 		.4byte	.LASF25
 536 01ea 01       		.byte	0x1
 537 01eb 69       		.byte	0x69
 538 01ec 01       		.byte	0x1
 539 01ed 00000000 		.4byte	.LFB9
 540 01f1 24000000 		.4byte	.LFE9
 541 01f5 01       		.byte	0x1
 542 01f6 5D       		.byte	0x5d
 543 01f7 09020000 		.4byte	0x209
 544 01fb 15       		.uleb128 0x15
 545 01fc 76747000 		.ascii	"vtp\000"
 546 0200 01       		.byte	0x1
 547 0201 69       		.byte	0x69
 548 0202 1B010000 		.4byte	0x11b
 549 0206 01       		.byte	0x1
 550 0207 50       		.byte	0x50
 551 0208 00       		.byte	0x0
 552 0209 16       		.uleb128 0x16
 553 020a 01       		.byte	0x1
 554 020b 4A010000 		.4byte	.LASF31
 555 020f 01       		.byte	0x1
 556 0210 84       		.byte	0x84
 557 0211 01       		.byte	0x1
 558 0212 85000000 		.4byte	0x85
 559 0216 00000000 		.4byte	.LFB10
 560 021a 34000000 		.4byte	.LFE10
ARM GAS  /tmp/cc6G3K2W.s 			page 11


 561 021e 01       		.byte	0x1
 562 021f 5D       		.byte	0x5d
 563 0220 4E020000 		.4byte	0x24e
 564 0224 11       		.uleb128 0x11
 565 0225 1F000000 		.4byte	.LASF26
 566 0229 01       		.byte	0x1
 567 022a 84       		.byte	0x84
 568 022b 90000000 		.4byte	0x90
 569 022f 6E000000 		.4byte	.LLST7
 570 0233 15       		.uleb128 0x15
 571 0234 656E6400 		.ascii	"end\000"
 572 0238 01       		.byte	0x1
 573 0239 84       		.byte	0x84
 574 023a 90000000 		.4byte	0x90
 575 023e 01       		.byte	0x1
 576 023f 51       		.byte	0x51
 577 0240 17       		.uleb128 0x17
 578 0241 E3000000 		.4byte	.LASF22
 579 0245 01       		.byte	0x1
 580 0246 86       		.byte	0x86
 581 0247 90000000 		.4byte	0x90
 582 024b 01       		.byte	0x1
 583 024c 53       		.byte	0x53
 584 024d 00       		.byte	0x0
 585 024e 18       		.uleb128 0x18
 586 024f DC000000 		.4byte	.LASF32
 587 0253 01       		.byte	0x1
 588 0254 29       		.byte	0x29
 589 0255 67010000 		.4byte	0x167
 590 0259 01       		.byte	0x1
 591 025a 05       		.byte	0x5
 592 025b 03       		.byte	0x3
 593 025c 00000000 		.4byte	vtlist
 594 0260 00       		.byte	0x0
 595              		.section	.debug_abbrev
 596 0000 01       		.uleb128 0x1
 597 0001 11       		.uleb128 0x11
 598 0002 01       		.byte	0x1
 599 0003 25       		.uleb128 0x25
 600 0004 0E       		.uleb128 0xe
 601 0005 13       		.uleb128 0x13
 602 0006 0B       		.uleb128 0xb
 603 0007 03       		.uleb128 0x3
 604 0008 0E       		.uleb128 0xe
 605 0009 1B       		.uleb128 0x1b
 606 000a 0E       		.uleb128 0xe
 607 000b 11       		.uleb128 0x11
 608 000c 01       		.uleb128 0x1
 609 000d 52       		.uleb128 0x52
 610 000e 01       		.uleb128 0x1
 611 000f 55       		.uleb128 0x55
 612 0010 06       		.uleb128 0x6
 613 0011 10       		.uleb128 0x10
 614 0012 06       		.uleb128 0x6
 615 0013 00       		.byte	0x0
 616 0014 00       		.byte	0x0
 617 0015 02       		.uleb128 0x2
ARM GAS  /tmp/cc6G3K2W.s 			page 12


 618 0016 24       		.uleb128 0x24
 619 0017 00       		.byte	0x0
 620 0018 0B       		.uleb128 0xb
 621 0019 0B       		.uleb128 0xb
 622 001a 3E       		.uleb128 0x3e
 623 001b 0B       		.uleb128 0xb
 624 001c 03       		.uleb128 0x3
 625 001d 08       		.uleb128 0x8
 626 001e 00       		.byte	0x0
 627 001f 00       		.byte	0x0
 628 0020 03       		.uleb128 0x3
 629 0021 24       		.uleb128 0x24
 630 0022 00       		.byte	0x0
 631 0023 0B       		.uleb128 0xb
 632 0024 0B       		.uleb128 0xb
 633 0025 3E       		.uleb128 0x3e
 634 0026 0B       		.uleb128 0xb
 635 0027 03       		.uleb128 0x3
 636 0028 0E       		.uleb128 0xe
 637 0029 00       		.byte	0x0
 638 002a 00       		.byte	0x0
 639 002b 04       		.uleb128 0x4
 640 002c 16       		.uleb128 0x16
 641 002d 00       		.byte	0x0
 642 002e 03       		.uleb128 0x3
 643 002f 0E       		.uleb128 0xe
 644 0030 3A       		.uleb128 0x3a
 645 0031 0B       		.uleb128 0xb
 646 0032 3B       		.uleb128 0x3b
 647 0033 0B       		.uleb128 0xb
 648 0034 49       		.uleb128 0x49
 649 0035 13       		.uleb128 0x13
 650 0036 00       		.byte	0x0
 651 0037 00       		.byte	0x0
 652 0038 05       		.uleb128 0x5
 653 0039 24       		.uleb128 0x24
 654 003a 00       		.byte	0x0
 655 003b 0B       		.uleb128 0xb
 656 003c 0B       		.uleb128 0xb
 657 003d 3E       		.uleb128 0x3e
 658 003e 0B       		.uleb128 0xb
 659 003f 00       		.byte	0x0
 660 0040 00       		.byte	0x0
 661 0041 06       		.uleb128 0x6
 662 0042 0F       		.uleb128 0xf
 663 0043 00       		.byte	0x0
 664 0044 0B       		.uleb128 0xb
 665 0045 0B       		.uleb128 0xb
 666 0046 00       		.byte	0x0
 667 0047 00       		.byte	0x0
 668 0048 07       		.uleb128 0x7
 669 0049 0F       		.uleb128 0xf
 670 004a 00       		.byte	0x0
 671 004b 0B       		.uleb128 0xb
 672 004c 0B       		.uleb128 0xb
 673 004d 49       		.uleb128 0x49
 674 004e 13       		.uleb128 0x13
ARM GAS  /tmp/cc6G3K2W.s 			page 13


 675 004f 00       		.byte	0x0
 676 0050 00       		.byte	0x0
 677 0051 08       		.uleb128 0x8
 678 0052 15       		.uleb128 0x15
 679 0053 01       		.byte	0x1
 680 0054 27       		.uleb128 0x27
 681 0055 0C       		.uleb128 0xc
 682 0056 01       		.uleb128 0x1
 683 0057 13       		.uleb128 0x13
 684 0058 00       		.byte	0x0
 685 0059 00       		.byte	0x0
 686 005a 09       		.uleb128 0x9
 687 005b 05       		.uleb128 0x5
 688 005c 00       		.byte	0x0
 689 005d 49       		.uleb128 0x49
 690 005e 13       		.uleb128 0x13
 691 005f 00       		.byte	0x0
 692 0060 00       		.byte	0x0
 693 0061 0A       		.uleb128 0xa
 694 0062 13       		.uleb128 0x13
 695 0063 01       		.byte	0x1
 696 0064 03       		.uleb128 0x3
 697 0065 0E       		.uleb128 0xe
 698 0066 0B       		.uleb128 0xb
 699 0067 0B       		.uleb128 0xb
 700 0068 3A       		.uleb128 0x3a
 701 0069 0B       		.uleb128 0xb
 702 006a 3B       		.uleb128 0x3b
 703 006b 0B       		.uleb128 0xb
 704 006c 01       		.uleb128 0x1
 705 006d 13       		.uleb128 0x13
 706 006e 00       		.byte	0x0
 707 006f 00       		.byte	0x0
 708 0070 0B       		.uleb128 0xb
 709 0071 0D       		.uleb128 0xd
 710 0072 00       		.byte	0x0
 711 0073 03       		.uleb128 0x3
 712 0074 0E       		.uleb128 0xe
 713 0075 3A       		.uleb128 0x3a
 714 0076 0B       		.uleb128 0xb
 715 0077 3B       		.uleb128 0x3b
 716 0078 0B       		.uleb128 0xb
 717 0079 49       		.uleb128 0x49
 718 007a 13       		.uleb128 0x13
 719 007b 38       		.uleb128 0x38
 720 007c 0A       		.uleb128 0xa
 721 007d 00       		.byte	0x0
 722 007e 00       		.byte	0x0
 723 007f 0C       		.uleb128 0xc
 724 0080 13       		.uleb128 0x13
 725 0081 01       		.byte	0x1
 726 0082 0B       		.uleb128 0xb
 727 0083 0B       		.uleb128 0xb
 728 0084 3A       		.uleb128 0x3a
 729 0085 0B       		.uleb128 0xb
 730 0086 3B       		.uleb128 0x3b
 731 0087 0B       		.uleb128 0xb
ARM GAS  /tmp/cc6G3K2W.s 			page 14


 732 0088 01       		.uleb128 0x1
 733 0089 13       		.uleb128 0x13
 734 008a 00       		.byte	0x0
 735 008b 00       		.byte	0x0
 736 008c 0D       		.uleb128 0xd
 737 008d 35       		.uleb128 0x35
 738 008e 00       		.byte	0x0
 739 008f 49       		.uleb128 0x49
 740 0090 13       		.uleb128 0x13
 741 0091 00       		.byte	0x0
 742 0092 00       		.byte	0x0
 743 0093 0E       		.uleb128 0xe
 744 0094 2E       		.uleb128 0x2e
 745 0095 00       		.byte	0x0
 746 0096 3F       		.uleb128 0x3f
 747 0097 0C       		.uleb128 0xc
 748 0098 03       		.uleb128 0x3
 749 0099 0E       		.uleb128 0xe
 750 009a 3A       		.uleb128 0x3a
 751 009b 0B       		.uleb128 0xb
 752 009c 3B       		.uleb128 0x3b
 753 009d 0B       		.uleb128 0xb
 754 009e 27       		.uleb128 0x27
 755 009f 0C       		.uleb128 0xc
 756 00a0 11       		.uleb128 0x11
 757 00a1 01       		.uleb128 0x1
 758 00a2 12       		.uleb128 0x12
 759 00a3 01       		.uleb128 0x1
 760 00a4 40       		.uleb128 0x40
 761 00a5 0A       		.uleb128 0xa
 762 00a6 00       		.byte	0x0
 763 00a7 00       		.byte	0x0
 764 00a8 0F       		.uleb128 0xf
 765 00a9 2E       		.uleb128 0x2e
 766 00aa 01       		.byte	0x1
 767 00ab 3F       		.uleb128 0x3f
 768 00ac 0C       		.uleb128 0xc
 769 00ad 03       		.uleb128 0x3
 770 00ae 0E       		.uleb128 0xe
 771 00af 3A       		.uleb128 0x3a
 772 00b0 0B       		.uleb128 0xb
 773 00b1 3B       		.uleb128 0x3b
 774 00b2 0B       		.uleb128 0xb
 775 00b3 27       		.uleb128 0x27
 776 00b4 0C       		.uleb128 0xc
 777 00b5 11       		.uleb128 0x11
 778 00b6 01       		.uleb128 0x1
 779 00b7 12       		.uleb128 0x12
 780 00b8 01       		.uleb128 0x1
 781 00b9 40       		.uleb128 0x40
 782 00ba 06       		.uleb128 0x6
 783 00bb 01       		.uleb128 0x1
 784 00bc 13       		.uleb128 0x13
 785 00bd 00       		.byte	0x0
 786 00be 00       		.byte	0x0
 787 00bf 10       		.uleb128 0x10
 788 00c0 05       		.uleb128 0x5
ARM GAS  /tmp/cc6G3K2W.s 			page 15


 789 00c1 00       		.byte	0x0
 790 00c2 03       		.uleb128 0x3
 791 00c3 08       		.uleb128 0x8
 792 00c4 3A       		.uleb128 0x3a
 793 00c5 0B       		.uleb128 0xb
 794 00c6 3B       		.uleb128 0x3b
 795 00c7 0B       		.uleb128 0xb
 796 00c8 49       		.uleb128 0x49
 797 00c9 13       		.uleb128 0x13
 798 00ca 02       		.uleb128 0x2
 799 00cb 06       		.uleb128 0x6
 800 00cc 00       		.byte	0x0
 801 00cd 00       		.byte	0x0
 802 00ce 11       		.uleb128 0x11
 803 00cf 05       		.uleb128 0x5
 804 00d0 00       		.byte	0x0
 805 00d1 03       		.uleb128 0x3
 806 00d2 0E       		.uleb128 0xe
 807 00d3 3A       		.uleb128 0x3a
 808 00d4 0B       		.uleb128 0xb
 809 00d5 3B       		.uleb128 0x3b
 810 00d6 0B       		.uleb128 0xb
 811 00d7 49       		.uleb128 0x49
 812 00d8 13       		.uleb128 0x13
 813 00d9 02       		.uleb128 0x2
 814 00da 06       		.uleb128 0x6
 815 00db 00       		.byte	0x0
 816 00dc 00       		.byte	0x0
 817 00dd 12       		.uleb128 0x12
 818 00de 05       		.uleb128 0x5
 819 00df 00       		.byte	0x0
 820 00e0 03       		.uleb128 0x3
 821 00e1 0E       		.uleb128 0xe
 822 00e2 3A       		.uleb128 0x3a
 823 00e3 0B       		.uleb128 0xb
 824 00e4 3B       		.uleb128 0x3b
 825 00e5 0B       		.uleb128 0xb
 826 00e6 49       		.uleb128 0x49
 827 00e7 13       		.uleb128 0x13
 828 00e8 02       		.uleb128 0x2
 829 00e9 0A       		.uleb128 0xa
 830 00ea 00       		.byte	0x0
 831 00eb 00       		.byte	0x0
 832 00ec 13       		.uleb128 0x13
 833 00ed 34       		.uleb128 0x34
 834 00ee 00       		.byte	0x0
 835 00ef 03       		.uleb128 0x3
 836 00f0 08       		.uleb128 0x8
 837 00f1 3A       		.uleb128 0x3a
 838 00f2 0B       		.uleb128 0xb
 839 00f3 3B       		.uleb128 0x3b
 840 00f4 0B       		.uleb128 0xb
 841 00f5 49       		.uleb128 0x49
 842 00f6 13       		.uleb128 0x13
 843 00f7 02       		.uleb128 0x2
 844 00f8 0A       		.uleb128 0xa
 845 00f9 00       		.byte	0x0
ARM GAS  /tmp/cc6G3K2W.s 			page 16


 846 00fa 00       		.byte	0x0
 847 00fb 14       		.uleb128 0x14
 848 00fc 2E       		.uleb128 0x2e
 849 00fd 01       		.byte	0x1
 850 00fe 3F       		.uleb128 0x3f
 851 00ff 0C       		.uleb128 0xc
 852 0100 03       		.uleb128 0x3
 853 0101 0E       		.uleb128 0xe
 854 0102 3A       		.uleb128 0x3a
 855 0103 0B       		.uleb128 0xb
 856 0104 3B       		.uleb128 0x3b
 857 0105 0B       		.uleb128 0xb
 858 0106 27       		.uleb128 0x27
 859 0107 0C       		.uleb128 0xc
 860 0108 11       		.uleb128 0x11
 861 0109 01       		.uleb128 0x1
 862 010a 12       		.uleb128 0x12
 863 010b 01       		.uleb128 0x1
 864 010c 40       		.uleb128 0x40
 865 010d 0A       		.uleb128 0xa
 866 010e 01       		.uleb128 0x1
 867 010f 13       		.uleb128 0x13
 868 0110 00       		.byte	0x0
 869 0111 00       		.byte	0x0
 870 0112 15       		.uleb128 0x15
 871 0113 05       		.uleb128 0x5
 872 0114 00       		.byte	0x0
 873 0115 03       		.uleb128 0x3
 874 0116 08       		.uleb128 0x8
 875 0117 3A       		.uleb128 0x3a
 876 0118 0B       		.uleb128 0xb
 877 0119 3B       		.uleb128 0x3b
 878 011a 0B       		.uleb128 0xb
 879 011b 49       		.uleb128 0x49
 880 011c 13       		.uleb128 0x13
 881 011d 02       		.uleb128 0x2
 882 011e 0A       		.uleb128 0xa
 883 011f 00       		.byte	0x0
 884 0120 00       		.byte	0x0
 885 0121 16       		.uleb128 0x16
 886 0122 2E       		.uleb128 0x2e
 887 0123 01       		.byte	0x1
 888 0124 3F       		.uleb128 0x3f
 889 0125 0C       		.uleb128 0xc
 890 0126 03       		.uleb128 0x3
 891 0127 0E       		.uleb128 0xe
 892 0128 3A       		.uleb128 0x3a
 893 0129 0B       		.uleb128 0xb
 894 012a 3B       		.uleb128 0x3b
 895 012b 0B       		.uleb128 0xb
 896 012c 27       		.uleb128 0x27
 897 012d 0C       		.uleb128 0xc
 898 012e 49       		.uleb128 0x49
 899 012f 13       		.uleb128 0x13
 900 0130 11       		.uleb128 0x11
 901 0131 01       		.uleb128 0x1
 902 0132 12       		.uleb128 0x12
ARM GAS  /tmp/cc6G3K2W.s 			page 17


 903 0133 01       		.uleb128 0x1
 904 0134 40       		.uleb128 0x40
 905 0135 0A       		.uleb128 0xa
 906 0136 01       		.uleb128 0x1
 907 0137 13       		.uleb128 0x13
 908 0138 00       		.byte	0x0
 909 0139 00       		.byte	0x0
 910 013a 17       		.uleb128 0x17
 911 013b 34       		.uleb128 0x34
 912 013c 00       		.byte	0x0
 913 013d 03       		.uleb128 0x3
 914 013e 0E       		.uleb128 0xe
 915 013f 3A       		.uleb128 0x3a
 916 0140 0B       		.uleb128 0xb
 917 0141 3B       		.uleb128 0x3b
 918 0142 0B       		.uleb128 0xb
 919 0143 49       		.uleb128 0x49
 920 0144 13       		.uleb128 0x13
 921 0145 02       		.uleb128 0x2
 922 0146 0A       		.uleb128 0xa
 923 0147 00       		.byte	0x0
 924 0148 00       		.byte	0x0
 925 0149 18       		.uleb128 0x18
 926 014a 34       		.uleb128 0x34
 927 014b 00       		.byte	0x0
 928 014c 03       		.uleb128 0x3
 929 014d 0E       		.uleb128 0xe
 930 014e 3A       		.uleb128 0x3a
 931 014f 0B       		.uleb128 0xb
 932 0150 3B       		.uleb128 0x3b
 933 0151 0B       		.uleb128 0xb
 934 0152 49       		.uleb128 0x49
 935 0153 13       		.uleb128 0x13
 936 0154 3F       		.uleb128 0x3f
 937 0155 0C       		.uleb128 0xc
 938 0156 02       		.uleb128 0x2
 939 0157 0A       		.uleb128 0xa
 940 0158 00       		.byte	0x0
 941 0159 00       		.byte	0x0
 942 015a 00       		.byte	0x0
 943              		.section	.debug_pubnames,"",%progbits
 944 0000 54000000 		.4byte	0x54
 945 0004 0200     		.2byte	0x2
 946 0006 00000000 		.4byte	.Ldebug_info0
 947 000a 61020000 		.4byte	0x261
 948 000e 72010000 		.4byte	0x172
 949 0012 76745F69 		.ascii	"vt_init\000"
 949      6E697400 
 950 001a 85010000 		.4byte	0x185
 951 001e 63685654 		.ascii	"chVTSetI\000"
 951      53657449 
 951      00
 952 0027 E4010000 		.4byte	0x1e4
 953 002b 63685654 		.ascii	"chVTResetI\000"
 953      52657365 
 953      744900
 954 0036 09020000 		.4byte	0x209
ARM GAS  /tmp/cc6G3K2W.s 			page 18


 955 003a 63685469 		.ascii	"chTimeIsWithin\000"
 955      6D654973 
 955      57697468 
 955      696E00
 956 0049 4E020000 		.4byte	0x24e
 957 004d 76746C69 		.ascii	"vtlist\000"
 957      737400
 958 0054 00000000 		.4byte	0x0
 959              		.section	.debug_aranges,"",%progbits
 960 0000 34000000 		.4byte	0x34
 961 0004 0200     		.2byte	0x2
 962 0006 00000000 		.4byte	.Ldebug_info0
 963 000a 04       		.byte	0x4
 964 000b 00       		.byte	0x0
 965 000c 0000     		.2byte	0x0
 966 000e 0000     		.2byte	0x0
 967 0010 00000000 		.4byte	.LFB7
 968 0014 18000000 		.4byte	.LFE7-.LFB7
 969 0018 00000000 		.4byte	.LFB8
 970 001c 3A000000 		.4byte	.LFE8-.LFB8
 971 0020 00000000 		.4byte	.LFB9
 972 0024 24000000 		.4byte	.LFE9-.LFB9
 973 0028 00000000 		.4byte	.LFB10
 974 002c 34000000 		.4byte	.LFE10-.LFB10
 975 0030 00000000 		.4byte	0x0
 976 0034 00000000 		.4byte	0x0
 977              		.section	.debug_ranges,"",%progbits
 978              	.Ldebug_ranges0:
 979 0000 00000000 		.4byte	.Ltext0
 980 0004 00000000 		.4byte	.Letext0
 981 0008 00000000 		.4byte	.LFB7
 982 000c 18000000 		.4byte	.LFE7
 983 0010 00000000 		.4byte	.LFB8
 984 0014 3A000000 		.4byte	.LFE8
 985 0018 00000000 		.4byte	.LFB9
 986 001c 24000000 		.4byte	.LFE9
 987 0020 00000000 		.4byte	.LFB10
 988 0024 34000000 		.4byte	.LFE10
 989 0028 00000000 		.4byte	0x0
 990 002c 00000000 		.4byte	0x0
 991              		.section	.debug_str,"MS",%progbits,1
 992              	.LASF9:
 993 0000 6C6F6E67 		.ascii	"long long int\000"
 993      206C6F6E 
 993      6720696E 
 993      7400
 994              	.LASF24:
 995 000e 63685654 		.ascii	"chVTSetI\000"
 995      53657449 
 995      00
 996              	.LASF30:
 997 0017 76745F69 		.ascii	"vt_init\000"
 997      6E697400 
 998              	.LASF26:
 999 001f 73746172 		.ascii	"start\000"
 999      7400
 1000              	.LASF12:
ARM GAS  /tmp/cc6G3K2W.s 			page 19


 1001 0025 73797374 		.ascii	"systime_t\000"
 1001      696D655F 
 1001      7400
 1002              	.LASF11:
 1003 002f 626F6F6C 		.ascii	"bool_t\000"
 1003      5F7400
 1004              	.LASF13:
 1005 0036 76746675 		.ascii	"vtfunc_t\000"
 1005      6E635F74 
 1005      00
 1006              	.LASF8:
 1007 003f 6C6F6E67 		.ascii	"long unsigned int\000"
 1007      20756E73 
 1007      69676E65 
 1007      6420696E 
 1007      7400
 1008              	.LASF4:
 1009 0051 73686F72 		.ascii	"short unsigned int\000"
 1009      7420756E 
 1009      7369676E 
 1009      65642069 
 1009      6E7400
 1010              	.LASF14:
 1011 0064 56697274 		.ascii	"VirtualTimer\000"
 1011      75616C54 
 1011      696D6572 
 1011      00
 1012              	.LASF2:
 1013 0071 756E7369 		.ascii	"unsigned char\000"
 1013      676E6564 
 1013      20636861 
 1013      7200
 1014              	.LASF0:
 1015 007f 756E7369 		.ascii	"unsigned int\000"
 1015      676E6564 
 1015      20696E74 
 1015      00
 1016              	.LASF10:
 1017 008c 6C6F6E67 		.ascii	"long long unsigned int\000"
 1017      206C6F6E 
 1017      6720756E 
 1017      7369676E 
 1017      65642069 
 1018              	.LASF29:
 1019 00a3 2F686F6D 		.ascii	"/home/dan/Downloads/ChibiOS_2.2.3/demos/ARMCM3-STM3"
 1019      652F6461 
 1019      6E2F446F 
 1019      776E6C6F 
 1019      6164732F 
 1020 00d6 32463130 		.ascii	"2F103\000"
 1020      3300
 1021              	.LASF32:
 1022 00dc 76746C69 		.ascii	"vtlist\000"
 1022      737400
 1023              	.LASF22:
 1024 00e3 74696D65 		.ascii	"time\000"
 1024      00
ARM GAS  /tmp/cc6G3K2W.s 			page 20


 1025              	.LASF17:
 1026 00e8 76745F74 		.ascii	"vt_time\000"
 1026      696D6500 
 1027              	.LASF6:
 1028 00f0 696E7433 		.ascii	"int32_t\000"
 1028      325F7400 
 1029              	.LASF20:
 1030 00f8 76745F73 		.ascii	"vt_systime\000"
 1030      79737469 
 1030      6D6500
 1031              	.LASF28:
 1032 0103 2E2E2F2E 		.ascii	"../../os/kernel/src/chvt.c\000"
 1032      2E2F6F73 
 1032      2F6B6572 
 1032      6E656C2F 
 1032      7372632F 
 1033              	.LASF27:
 1034 011e 474E5520 		.ascii	"GNU C 4.4.1\000"
 1034      4320342E 
 1034      342E3100 
 1035              	.LASF18:
 1036 012a 76745F66 		.ascii	"vt_func\000"
 1036      756E6300 
 1037              	.LASF23:
 1038 0132 76746675 		.ascii	"vtfunc\000"
 1038      6E6300
 1039              	.LASF19:
 1040 0139 76745F70 		.ascii	"vt_par\000"
 1040      617200
 1041              	.LASF3:
 1042 0140 73686F72 		.ascii	"short int\000"
 1042      7420696E 
 1042      7400
 1043              	.LASF31:
 1044 014a 63685469 		.ascii	"chTimeIsWithin\000"
 1044      6D654973 
 1044      57697468 
 1044      696E00
 1045              	.LASF16:
 1046 0159 76745F70 		.ascii	"vt_prev\000"
 1046      72657600 
 1047              	.LASF7:
 1048 0161 75696E74 		.ascii	"uint32_t\000"
 1048      33325F74 
 1048      00
 1049              	.LASF5:
 1050 016a 6C6F6E67 		.ascii	"long int\000"
 1050      20696E74 
 1050      00
 1051              	.LASF1:
 1052 0173 7369676E 		.ascii	"signed char\000"
 1052      65642063 
 1052      68617200 
 1053              	.LASF21:
 1054 017f 56544C69 		.ascii	"VTList\000"
 1054      737400
 1055              	.LASF15:
ARM GAS  /tmp/cc6G3K2W.s 			page 21


 1056 0186 76745F6E 		.ascii	"vt_next\000"
 1056      65787400 
 1057              	.LASF25:
 1058 018e 63685654 		.ascii	"chVTResetI\000"
 1058      52657365 
 1058      744900
 1059              		.ident	"GCC: (Red Suite 2010Q1 by Code Red) 4.4.1"
ARM GAS  /tmp/cc6G3K2W.s 			page 22


DEFINED SYMBOLS
                            *ABS*:00000000 chvt.c
     /tmp/cc6G3K2W.s:24     .text.vt_init:00000000 $t
     /tmp/cc6G3K2W.s:30     .text.vt_init:00000000 vt_init
                            *COM*:00000010 vtlist
     /tmp/cc6G3K2W.s:58     .text.chVTSetI:00000000 $t
     /tmp/cc6G3K2W.s:64     .text.chVTSetI:00000000 chVTSetI
     /tmp/cc6G3K2W.s:133    .text.chVTResetI:00000000 $t
     /tmp/cc6G3K2W.s:139    .text.chVTResetI:00000000 chVTResetI
     /tmp/cc6G3K2W.s:177    .text.chTimeIsWithin:00000000 $t
     /tmp/cc6G3K2W.s:183    .text.chTimeIsWithin:00000000 chTimeIsWithin
                     .debug_frame:00000010 $d

NO UNDEFINED SYMBOLS
