ARM GAS  /tmp/ccuDgF8B.s 			page 1


   1              		.syntax unified
   2              		.cpu cortex-m3
   3              		.fpu softvfp
   4              		.eabi_attribute 20, 1
   5              		.eabi_attribute 21, 1
   6              		.eabi_attribute 23, 3
   7              		.eabi_attribute 24, 1
   8              		.eabi_attribute 25, 1
   9              		.eabi_attribute 26, 1
  10              		.eabi_attribute 30, 2
  11              		.eabi_attribute 18, 4
  12              		.thumb
  13              		.file	"chvt.c"
  20 0000 5F010000 		.text
  20      0200E100 
  20      00000201 
  20      FB0E0D00 
  20      01010101 
  21              	.Ltext0:
  22              		.cfi_sections	.debug_frame
  23              		.section	.text.vt_init,"ax",%progbits
  24              		.align	2
  25              		.p2align 4,,15
  26              		.global	vt_init
  27              		.thumb
  28              		.thumb_func
  29              		.type	vt_init, %function
  30              	vt_init:
  31              	.LFB7:
  32              		.file 1 "chibios/os/kernel/src/chvt.c"
  33              		.loc 1 49 0
  34              		.cfi_startproc
  35              		@ args = 0, pretend = 0, frame = 0
  36              		@ frame_needed = 0, uses_anonymous_args = 0
  37              		@ link register save eliminated.
  38              		.loc 1 51 0
  39 0000 40F20003 		movw	r3, #:lower16:vtlist
  40 0004 C0F20003 		movt	r3, #:upper16:vtlist
  41              		.loc 1 52 0
  42 0008 4FF0FF30 		mov	r0, #-1
  43              		.loc 1 53 0
  44 000c 0022     		movs	r2, #0
  45              		.loc 1 51 0
  46 000e 5B60     		str	r3, [r3, #4]
  47 0010 1B60     		str	r3, [r3, #0]
  48              		.loc 1 52 0
  49 0012 9860     		str	r0, [r3, #8]
  50              		.loc 1 53 0
  51 0014 DA60     		str	r2, [r3, #12]
  52              		.loc 1 54 0
  53 0016 7047     		bx	lr
ARM GAS  /tmp/ccuDgF8B.s 			page 2


  54              		.cfi_endproc
  55              	.LFE7:
  56              		.size	vt_init, .-vt_init
  57              		.section	.text.chVTSetI,"ax",%progbits
  58              		.align	2
  59              		.p2align 4,,15
  60              		.global	chVTSetI
  61              		.thumb
  62              		.thumb_func
  63              		.type	chVTSetI, %function
  64              	chVTSetI:
  65              	.LFB8:
  66              		.loc 1 76 0
  67              		.cfi_startproc
  68              		@ args = 0, pretend = 0, frame = 0
  69              		@ frame_needed = 0, uses_anonymous_args = 0
  70              		@ link register save eliminated.
  71              	.LVL0:
  72 0000 70B4     		push	{r4, r5, r6}
  73              	.LCFI0:
  74              		.cfi_def_cfa_offset 12
  75              		.loc 1 84 0
  76 0002 40F20005 		movw	r5, #:lower16:vtlist
  77              		.cfi_offset 6, -4
  78              		.cfi_offset 5, -8
  79              		.cfi_offset 4, -12
  80 0006 C0F20005 		movt	r5, #:upper16:vtlist
  81 000a 2C68     		ldr	r4, [r5, #0]
  82              	.LVL1:
  83              		.loc 1 82 0
  84 000c 0361     		str	r3, [r0, #16]
  85              		.loc 1 85 0
  86 000e A668     		ldr	r6, [r4, #8]
  87              		.loc 1 83 0
  88 0010 C260     		str	r2, [r0, #12]
  89              		.loc 1 85 0
  90 0012 B142     		cmp	r1, r6
  91 0014 04D9     		bls	.L3
  92              	.LVL2:
  93              	.L6:
  94              		.loc 1 87 0
  95 0016 2468     		ldr	r4, [r4, #0]
  96              	.LVL3:
  97              		.loc 1 86 0
  98 0018 891B     		subs	r1, r1, r6
  99              	.LVL4:
 100              		.loc 1 85 0
 101 001a A668     		ldr	r6, [r4, #8]
 102 001c 8E42     		cmp	r6, r1
 103 001e FAD3     		bcc	.L6
 104              	.L3:
 105              		.loc 1 90 0
 106 0020 6368     		ldr	r3, [r4, #4]
 107              	.LVL5:
 108              		.loc 1 92 0
 109 0022 8160     		str	r1, [r0, #8]
 110              		.loc 1 93 0
ARM GAS  /tmp/ccuDgF8B.s 			page 3


 111 0024 AC42     		cmp	r4, r5
 112              		.loc 1 90 0
 113 0026 4360     		str	r3, [r0, #4]
 114 0028 0460     		str	r4, [r0, #0]
 115              		.loc 1 91 0
 116 002a 1860     		str	r0, [r3, #0]
 117              		.loc 1 94 0
 118 002c 18BF     		it	ne
 119 002e A368     		ldrne	r3, [r4, #8]
 120              		.loc 1 91 0
 121 0030 6060     		str	r0, [r4, #4]
 122              		.loc 1 94 0
 123 0032 1CBF     		itt	ne
 124 0034 C1EB0301 		rsbne	r1, r1, r3
 125              	.LVL6:
 126 0038 A160     		strne	r1, [r4, #8]
 127              		.loc 1 95 0
 128 003a 70BC     		pop	{r4, r5, r6}
 129 003c 7047     		bx	lr
 130              		.cfi_endproc
 131              	.LFE8:
 132              		.size	chVTSetI, .-chVTSetI
 133 003e 00BF     		.section	.text.chVTResetI,"ax",%progbits
 134              		.align	2
 135              		.p2align 4,,15
 136              		.global	chVTResetI
 137              		.thumb
 138              		.thumb_func
 139              		.type	chVTResetI, %function
 140              	chVTResetI:
 141              	.LFB9:
 142              		.loc 1 105 0
 143              		.cfi_startproc
 144              		@ args = 0, pretend = 0, frame = 0
 145              		@ frame_needed = 0, uses_anonymous_args = 0
 146              		@ link register save eliminated.
 147              	.LVL7:
 148              		.loc 1 112 0
 149 0000 0368     		ldr	r3, [r0, #0]
 150 0002 40F20002 		movw	r2, #:lower16:vtlist
 151 0006 C0F20002 		movt	r2, #:upper16:vtlist
 152 000a 9342     		cmp	r3, r2
 153              		.loc 1 113 0
 154 000c 1FBF     		itttt	ne
 155 000e 9968     		ldrne	r1, [r3, #8]
 156 0010 8268     		ldrne	r2, [r0, #8]
 157 0012 8A18     		addne	r2, r1, r2
 158 0014 9A60     		strne	r2, [r3, #8]
 159              		.loc 1 114 0
 160 0016 4268     		ldr	r2, [r0, #4]
 161              		.loc 1 116 0
 162 0018 0021     		movs	r1, #0
 163              		.loc 1 114 0
 164 001a 1360     		str	r3, [r2, #0]
 165              		.loc 1 115 0
 166 001c 0368     		ldr	r3, [r0, #0]
 167              		.loc 1 116 0
ARM GAS  /tmp/ccuDgF8B.s 			page 4


 168 001e C160     		str	r1, [r0, #12]
 169              		.loc 1 115 0
 170 0020 5A60     		str	r2, [r3, #4]
 171              		.loc 1 117 0
 172 0022 7047     		bx	lr
 173              		.cfi_endproc
 174              	.LFE9:
 175              		.size	chVTResetI, .-chVTResetI
 176 0024 AFF30080 		.section	.text.chTimeIsWithin,"ax",%progbits
 176      AFF30080 
 176      AFF30080 
 177              		.align	2
 178              		.p2align 4,,15
 179              		.global	chTimeIsWithin
 180              		.thumb
 181              		.thumb_func
 182              		.type	chTimeIsWithin, %function
 183              	chTimeIsWithin:
 184              	.LFB10:
 185              		.loc 1 132 0
 186              		.cfi_startproc
 187              		@ args = 0, pretend = 0, frame = 0
 188              		@ frame_needed = 0, uses_anonymous_args = 0
 189              		@ link register save eliminated.
 190              	.LVL8:
 191              		.loc 1 134 0
 192 0000 40F20003 		movw	r3, #:lower16:vtlist
 193 0004 C0F20003 		movt	r3, #:upper16:vtlist
 194              		.loc 1 135 0
 195 0008 8142     		cmp	r1, r0
 196              		.loc 1 134 0
 197 000a DB68     		ldr	r3, [r3, #12]
 198              	.LVL9:
 199              		.loc 1 135 0
 200 000c 08D8     		bhi	.L14
 201              		.loc 1 136 0 discriminator 2
 202 000e 8342     		cmp	r3, r0
 203 0010 34BF     		ite	cc
 204 0012 0020     		movcc	r0, #0
 205              	.LVL10:
 206 0014 0120     		movcs	r0, #1
 207              		.loc 1 135 0 discriminator 2
 208 0016 8B42     		cmp	r3, r1
 209 0018 38BF     		it	cc
 210 001a 40F00100 		orrcc	r0, r0, #1
 211              		.loc 1 137 0 discriminator 2
 212 001e 7047     		bx	lr
 213              	.LVL11:
 214              	.L14:
 215              		.loc 1 135 0 discriminator 1
 216 0020 8342     		cmp	r3, r0
 217 0022 34BF     		ite	cc
 218 0024 0020     		movcc	r0, #0
 219              	.LVL12:
 220 0026 0120     		movcs	r0, #1
 221 0028 8B42     		cmp	r3, r1
 222 002a 2CBF     		ite	cs
ARM GAS  /tmp/ccuDgF8B.s 			page 5


 223 002c 0020     		movcs	r0, #0
 224 002e 00F00100 		andcc	r0, r0, #1
 225 0032 7047     		bx	lr
 226              		.cfi_endproc
 227              	.LFE10:
 228              		.size	chTimeIsWithin, .-chTimeIsWithin
 229              		.comm	vtlist,16,4
 230 0034 AFF30080 		.text
 230      AFF30080 
 230      AFF30080 
 231              	.Letext0: